
/home/meowth/ysyx/ysyx-workbench/am-kernels/benchmarks/dhrystone/build/dhrystone-riscv32-nemu.elf:     file format elf32-littleriscv


Disassembly of section .text:

80000000 <_start>:
80000000:	00000413          	li	s0,0
80000004:	0000d117          	auipc	sp,0xd
80000008:	ffc10113          	addi	sp,sp,-4 # 8000d000 <_end>
8000000c:	501000ef          	jal	ra,80000d0c <_trm_init>

80000010 <Proc_6>:
80000010:	00200713          	li	a4,2
80000014:	04e50263          	beq	a0,a4,80000058 <Proc_6+0x48>
80000018:	00300793          	li	a5,3
8000001c:	00f5a023          	sw	a5,0(a1)
80000020:	00100793          	li	a5,1
80000024:	00f50c63          	beq	a0,a5,8000003c <Proc_6+0x2c>
80000028:	02a7f263          	bgeu	a5,a0,8000004c <Proc_6+0x3c>
8000002c:	00400793          	li	a5,4
80000030:	02f51263          	bne	a0,a5,80000054 <Proc_6+0x44>
80000034:	00e5a023          	sw	a4,0(a1)
80000038:	00008067          	ret
8000003c:	00005717          	auipc	a4,0x5
80000040:	a7872703          	lw	a4,-1416(a4) # 80004ab4 <Int_Glob>
80000044:	06400793          	li	a5,100
80000048:	fee7d8e3          	bge	a5,a4,80000038 <Proc_6+0x28>
8000004c:	0005a023          	sw	zero,0(a1)
80000050:	00008067          	ret
80000054:	00008067          	ret
80000058:	00100793          	li	a5,1
8000005c:	00f5a023          	sw	a5,0(a1)
80000060:	00008067          	ret

80000064 <Proc_1>:
80000064:	00005717          	auipc	a4,0x5
80000068:	a5870713          	addi	a4,a4,-1448 # 80004abc <Ptr_Glob>
8000006c:	00072783          	lw	a5,0(a4)
80000070:	ff010113          	addi	sp,sp,-16
80000074:	00812423          	sw	s0,8(sp)
80000078:	0007a603          	lw	a2,0(a5)
8000007c:	00052403          	lw	s0,0(a0)
80000080:	02c7a683          	lw	a3,44(a5)
80000084:	0047a283          	lw	t0,4(a5)
80000088:	0087af83          	lw	t6,8(a5)
8000008c:	0107af03          	lw	t5,16(a5)
80000090:	0147ae83          	lw	t4,20(a5)
80000094:	0187ae03          	lw	t3,24(a5)
80000098:	01c7a303          	lw	t1,28(a5)
8000009c:	0207a883          	lw	a7,32(a5)
800000a0:	0247a803          	lw	a6,36(a5)
800000a4:	0287a583          	lw	a1,40(a5)
800000a8:	00912223          	sw	s1,4(sp)
800000ac:	00112623          	sw	ra,12(sp)
800000b0:	00c42023          	sw	a2,0(s0)
800000b4:	00052603          	lw	a2,0(a0)
800000b8:	02d42623          	sw	a3,44(s0)
800000bc:	00542223          	sw	t0,4(s0)
800000c0:	01f42423          	sw	t6,8(s0)
800000c4:	01e42823          	sw	t5,16(s0)
800000c8:	01d42a23          	sw	t4,20(s0)
800000cc:	01c42c23          	sw	t3,24(s0)
800000d0:	00642e23          	sw	t1,28(s0)
800000d4:	03142023          	sw	a7,32(s0)
800000d8:	03042223          	sw	a6,36(s0)
800000dc:	02b42423          	sw	a1,40(s0)
800000e0:	00500693          	li	a3,5
800000e4:	00d52623          	sw	a3,12(a0)
800000e8:	00c42023          	sw	a2,0(s0)
800000ec:	0007a483          	lw	s1,0(a5)
800000f0:	00005797          	auipc	a5,0x5
800000f4:	9c47a783          	lw	a5,-1596(a5) # 80004ab4 <Int_Glob>
800000f8:	00d42623          	sw	a3,12(s0)
800000fc:	00942023          	sw	s1,0(s0)
80000100:	00072703          	lw	a4,0(a4)
80000104:	00c78793          	addi	a5,a5,12
80000108:	00f72623          	sw	a5,12(a4)
8000010c:	00442783          	lw	a5,4(s0)
80000110:	06078e63          	beqz	a5,8000018c <Proc_1+0x128>
80000114:	00052783          	lw	a5,0(a0)
80000118:	00c12083          	lw	ra,12(sp)
8000011c:	00812403          	lw	s0,8(sp)
80000120:	0007af83          	lw	t6,0(a5)
80000124:	0047af03          	lw	t5,4(a5)
80000128:	0087ae83          	lw	t4,8(a5)
8000012c:	00c7ae03          	lw	t3,12(a5)
80000130:	0107a303          	lw	t1,16(a5)
80000134:	0147a883          	lw	a7,20(a5)
80000138:	0187a803          	lw	a6,24(a5)
8000013c:	01c7a583          	lw	a1,28(a5)
80000140:	0207a603          	lw	a2,32(a5)
80000144:	0247a683          	lw	a3,36(a5)
80000148:	0287a703          	lw	a4,40(a5)
8000014c:	02c7a783          	lw	a5,44(a5)
80000150:	01f52023          	sw	t6,0(a0)
80000154:	01e52223          	sw	t5,4(a0)
80000158:	01d52423          	sw	t4,8(a0)
8000015c:	01c52623          	sw	t3,12(a0)
80000160:	00652823          	sw	t1,16(a0)
80000164:	01152a23          	sw	a7,20(a0)
80000168:	01052c23          	sw	a6,24(a0)
8000016c:	00b52e23          	sw	a1,28(a0)
80000170:	02c52023          	sw	a2,32(a0)
80000174:	02d52223          	sw	a3,36(a0)
80000178:	02e52423          	sw	a4,40(a0)
8000017c:	02f52623          	sw	a5,44(a0)
80000180:	00412483          	lw	s1,4(sp)
80000184:	01010113          	addi	sp,sp,16
80000188:	00008067          	ret
8000018c:	00852503          	lw	a0,8(a0)
80000190:	00600793          	li	a5,6
80000194:	00f42623          	sw	a5,12(s0)
80000198:	00840593          	addi	a1,s0,8
8000019c:	e75ff0ef          	jal	ra,80000010 <Proc_6>
800001a0:	01200793          	li	a5,18
800001a4:	00942023          	sw	s1,0(s0)
800001a8:	00c12083          	lw	ra,12(sp)
800001ac:	00f42623          	sw	a5,12(s0)
800001b0:	00812403          	lw	s0,8(sp)
800001b4:	00412483          	lw	s1,4(sp)
800001b8:	01010113          	addi	sp,sp,16
800001bc:	00008067          	ret

800001c0 <main>:
800001c0:	f6010113          	addi	sp,sp,-160
800001c4:	07812c23          	sw	s8,120(sp)
800001c8:	08112e23          	sw	ra,156(sp)
800001cc:	08812c23          	sw	s0,152(sp)
800001d0:	08912a23          	sw	s1,148(sp)
800001d4:	09212823          	sw	s2,144(sp)
800001d8:	09312623          	sw	s3,140(sp)
800001dc:	09412423          	sw	s4,136(sp)
800001e0:	09512223          	sw	s5,132(sp)
800001e4:	09612023          	sw	s6,128(sp)
800001e8:	07712e23          	sw	s7,124(sp)
800001ec:	07912a23          	sw	s9,116(sp)
800001f0:	07a12823          	sw	s10,112(sp)
800001f4:	07b12623          	sw	s11,108(sp)
800001f8:	1d1000ef          	jal	ra,80000bc8 <ioe_init>
800001fc:	00002697          	auipc	a3,0x2
80000200:	cc468693          	addi	a3,a3,-828 # 80001ec0 <free_mem>
80000204:	0006a783          	lw	a5,0(a3)
80000208:	00000c13          	li	s8,0
8000020c:	0037f713          	andi	a4,a5,3
80000210:	00070c63          	beqz	a4,80000228 <main+0x68>
80000214:	00178713          	addi	a4,a5,1
80000218:	00377613          	andi	a2,a4,3
8000021c:	00070793          	mv	a5,a4
80000220:	00170713          	addi	a4,a4,1
80000224:	fe061ae3          	bnez	a2,80000218 <main+0x58>
80000228:	00005717          	auipc	a4,0x5
8000022c:	89070713          	addi	a4,a4,-1904 # 80004ab8 <Next_Ptr_Glob>
80000230:	00f72023          	sw	a5,0(a4)
80000234:	0037f713          	andi	a4,a5,3
80000238:	03078513          	addi	a0,a5,48
8000023c:	00070c63          	beqz	a4,80000254 <main+0x94>
80000240:	03178713          	addi	a4,a5,49
80000244:	00377613          	andi	a2,a4,3
80000248:	00070513          	mv	a0,a4
8000024c:	00170713          	addi	a4,a4,1
80000250:	fe061ae3          	bnez	a2,80000244 <main+0x84>
80000254:	00005d17          	auipc	s10,0x5
80000258:	868d0d13          	addi	s10,s10,-1944 # 80004abc <Ptr_Glob>
8000025c:	00ad2023          	sw	a0,0(s10)
80000260:	00f52023          	sw	a5,0(a0)
80000264:	00200793          	li	a5,2
80000268:	00f52423          	sw	a5,8(a0)
8000026c:	02800793          	li	a5,40
80000270:	03050713          	addi	a4,a0,48
80000274:	00f52623          	sw	a5,12(a0)
80000278:	00001597          	auipc	a1,0x1
8000027c:	3ec58593          	addi	a1,a1,1004 # 80001664 <_etext+0x10>
80000280:	00052223          	sw	zero,4(a0)
80000284:	01050513          	addi	a0,a0,16
80000288:	00e6a023          	sw	a4,0(a3)
8000028c:	2a1000ef          	jal	ra,80000d2c <strcpy>
80000290:	00001597          	auipc	a1,0x1
80000294:	3f458593          	addi	a1,a1,1012 # 80001684 <_etext+0x30>
80000298:	02010513          	addi	a0,sp,32
8000029c:	291000ef          	jal	ra,80000d2c <strcpy>
800002a0:	00a00793          	li	a5,10
800002a4:	00002417          	auipc	s0,0x2
800002a8:	cec40413          	addi	s0,s0,-788 # 80001f90 <Arr_2_Glob>
800002ac:	00001597          	auipc	a1,0x1
800002b0:	3f858593          	addi	a1,a1,1016 # 800016a4 <_etext+0x50>
800002b4:	64f42e23          	sw	a5,1628(s0)
800002b8:	00001517          	auipc	a0,0x1
800002bc:	3fc50513          	addi	a0,a0,1020 # 800016b4 <_etext+0x60>
800002c0:	719000ef          	jal	ra,800011d8 <printf>
800002c4:	0007a7b7          	lui	a5,0x7a
800002c8:	12078593          	addi	a1,a5,288 # 7a120 <_entry_offset+0x7a120>
800002cc:	00001517          	auipc	a0,0x1
800002d0:	40c50513          	addi	a0,a0,1036 # 800016d8 <_etext+0x84>
800002d4:	00004797          	auipc	a5,0x4
800002d8:	7c07ac23          	sw	zero,2008(a5) # 80004aac <Done>
800002dc:	6fd000ef          	jal	ra,800011d8 <printf>
800002e0:	04010593          	addi	a1,sp,64
800002e4:	00600513          	li	a0,6
800002e8:	13d000ef          	jal	ra,80000c24 <ioe_read>
800002ec:	04012503          	lw	a0,64(sp)
800002f0:	04412583          	lw	a1,68(sp)
800002f4:	3e800613          	li	a2,1000
800002f8:	00000693          	li	a3,0
800002fc:	5c9000ef          	jal	ra,800010c4 <__udivdi3>
80000300:	0007a7b7          	lui	a5,0x7a
80000304:	00004717          	auipc	a4,0x4
80000308:	79c70713          	addi	a4,a4,1948 # 80004aa0 <Begin_Time>
8000030c:	12178793          	addi	a5,a5,289 # 7a121 <_entry_offset+0x7a121>
80000310:	00a72023          	sw	a0,0(a4)
80000314:	00100c93          	li	s9,1
80000318:	00004997          	auipc	s3,0x4
8000031c:	79098993          	addi	s3,s3,1936 # 80004aa8 <Ch_1_Glob>
80000320:	00004b97          	auipc	s7,0x4
80000324:	784b8b93          	addi	s7,s7,1924 # 80004aa4 <Bool_Glob>
80000328:	00004917          	auipc	s2,0x4
8000032c:	78190913          	addi	s2,s2,1921 # 80004aa9 <Ch_2_Glob>
80000330:	00002497          	auipc	s1,0x2
80000334:	b9848493          	addi	s1,s1,-1128 # 80001ec8 <Arr_1_Glob>
80000338:	00003d97          	auipc	s11,0x3
8000033c:	c58d8d93          	addi	s11,s11,-936 # 80002f90 <Arr_2_Glob+0x1000>
80000340:	00004a97          	auipc	s5,0x4
80000344:	774a8a93          	addi	s5,s5,1908 # 80004ab4 <Int_Glob>
80000348:	04300b13          	li	s6,67
8000034c:	00001a17          	auipc	s4,0x1
80000350:	3d0a0a13          	addi	s4,s4,976 # 8000171c <_etext+0xc8>
80000354:	00f12423          	sw	a5,8(sp)
80000358:	04100793          	li	a5,65
8000035c:	00f98023          	sb	a5,0(s3)
80000360:	00100793          	li	a5,1
80000364:	00fba023          	sw	a5,0(s7)
80000368:	00001597          	auipc	a1,0x1
8000036c:	39458593          	addi	a1,a1,916 # 800016fc <_etext+0xa8>
80000370:	04200793          	li	a5,66
80000374:	04010513          	addi	a0,sp,64
80000378:	00f90023          	sb	a5,0(s2)
8000037c:	1b1000ef          	jal	ra,80000d2c <strcpy>
80000380:	02214783          	lbu	a5,34(sp)
80000384:	04314703          	lbu	a4,67(sp)
80000388:	00000693          	li	a3,0
8000038c:	78e78863          	beq	a5,a4,80000b1c <main+0x95c>
80000390:	00068463          	beqz	a3,80000398 <main+0x1d8>
80000394:	01898023          	sb	s8,0(s3)
80000398:	04010593          	addi	a1,sp,64
8000039c:	02010513          	addi	a0,sp,32
800003a0:	1c9000ef          	jal	ra,80000d68 <strcmp>
800003a4:	65c42703          	lw	a4,1628(s0)
800003a8:	00050613          	mv	a2,a0
800003ac:	000d2503          	lw	a0,0(s10)
800003b0:	00800693          	li	a3,8
800003b4:	00700793          	li	a5,7
800003b8:	00170713          	addi	a4,a4,1
800003bc:	00162613          	slti	a2,a2,1
800003c0:	02f4a023          	sw	a5,32(s1)
800003c4:	02f4a223          	sw	a5,36(s1)
800003c8:	66d42023          	sw	a3,1632(s0)
800003cc:	66d42223          	sw	a3,1636(s0)
800003d0:	64e42e23          	sw	a4,1628(s0)
800003d4:	60fda023          	sw	a5,1536(s11)
800003d8:	00500793          	li	a5,5
800003dc:	00cba023          	sw	a2,0(s7)
800003e0:	08d4ac23          	sw	a3,152(s1)
800003e4:	00faa023          	sw	a5,0(s5)
800003e8:	c7dff0ef          	jal	ra,80000064 <Proc_1>
800003ec:	00094683          	lbu	a3,0(s2)
800003f0:	04000713          	li	a4,64
800003f4:	04100793          	li	a5,65
800003f8:	00100813          	li	a6,1
800003fc:	00300613          	li	a2,3
80000400:	72d77463          	bgeu	a4,a3,80000b28 <main+0x968>
80000404:	00094703          	lbu	a4,0(s2)
80000408:	00178793          	addi	a5,a5,1
8000040c:	0ff7f793          	zext.b	a5,a5
80000410:	000a0593          	mv	a1,s4
80000414:	04010513          	addi	a0,sp,64
80000418:	04f76063          	bltu	a4,a5,80000458 <main+0x298>
8000041c:	00000713          	li	a4,0
80000420:	6f678863          	beq	a5,s6,80000b10 <main+0x950>
80000424:	fee810e3          	bne	a6,a4,80000404 <main+0x244>
80000428:	00f12223          	sw	a5,4(sp)
8000042c:	101000ef          	jal	ra,80000d2c <strcpy>
80000430:	00412783          	lw	a5,4(sp)
80000434:	00094703          	lbu	a4,0(s2)
80000438:	019aa023          	sw	s9,0(s5)
8000043c:	00178793          	addi	a5,a5,1
80000440:	0ff7f793          	zext.b	a5,a5
80000444:	00000813          	li	a6,0
80000448:	000c8613          	mv	a2,s9
8000044c:	000a0593          	mv	a1,s4
80000450:	04010513          	addi	a0,sp,64
80000454:	fcf774e3          	bgeu	a4,a5,8000041c <main+0x25c>
80000458:	00161793          	slli	a5,a2,0x1
8000045c:	00c787b3          	add	a5,a5,a2
80000460:	00700713          	li	a4,7
80000464:	02e7c733          	div	a4,a5,a4
80000468:	ff978793          	addi	a5,a5,-7
8000046c:	00379693          	slli	a3,a5,0x3
80000470:	40f687b3          	sub	a5,a3,a5
80000474:	40e787b3          	sub	a5,a5,a4
80000478:	0009c683          	lbu	a3,0(s3)
8000047c:	04100613          	li	a2,65
80000480:	00c69863          	bne	a3,a2,80000490 <main+0x2d0>
80000484:	000aa683          	lw	a3,0(s5)
80000488:	00970713          	addi	a4,a4,9
8000048c:	40d70733          	sub	a4,a4,a3
80000490:	00812683          	lw	a3,8(sp)
80000494:	001c8c93          	addi	s9,s9,1
80000498:	ecdc90e3          	bne	s9,a3,80000358 <main+0x198>
8000049c:	01810593          	addi	a1,sp,24
800004a0:	00600513          	li	a0,6
800004a4:	01012623          	sw	a6,12(sp)
800004a8:	00e12423          	sw	a4,8(sp)
800004ac:	00f12223          	sw	a5,4(sp)
800004b0:	774000ef          	jal	ra,80000c24 <ioe_read>
800004b4:	01812503          	lw	a0,24(sp)
800004b8:	01c12583          	lw	a1,28(sp)
800004bc:	3e800613          	li	a2,1000
800004c0:	00000693          	li	a3,0
800004c4:	401000ef          	jal	ra,800010c4 <__udivdi3>
800004c8:	00004797          	auipc	a5,0x4
800004cc:	5d878793          	addi	a5,a5,1496 # 80004aa0 <Begin_Time>
800004d0:	0007a603          	lw	a2,0(a5)
800004d4:	00050693          	mv	a3,a0
800004d8:	000aa583          	lw	a1,0(s5)
800004dc:	40c68633          	sub	a2,a3,a2
800004e0:	00004a17          	auipc	s4,0x4
800004e4:	5e0a0a13          	addi	s4,s4,1504 # 80004ac0 <User_Time>
800004e8:	00004517          	auipc	a0,0x4
800004ec:	5cd52423          	sw	a3,1480(a0) # 80004ab0 <End_Time>
800004f0:	00100693          	li	a3,1
800004f4:	00ca2023          	sw	a2,0(s4)
800004f8:	00004617          	auipc	a2,0x4
800004fc:	5ad62a23          	sw	a3,1460(a2) # 80004aac <Done>
80000500:	00500693          	li	a3,5
80000504:	00412783          	lw	a5,4(sp)
80000508:	00812703          	lw	a4,8(sp)
8000050c:	00c12803          	lw	a6,12(sp)
80000510:	02d58a63          	beq	a1,a3,80000544 <main+0x384>
80000514:	00001517          	auipc	a0,0x1
80000518:	22850513          	addi	a0,a0,552 # 8000173c <_etext+0xe8>
8000051c:	00002697          	auipc	a3,0x2
80000520:	9a06a423          	sw	zero,-1624(a3) # 80001ec4 <pass>
80000524:	4b5000ef          	jal	ra,800011d8 <printf>
80000528:	00500593          	li	a1,5
8000052c:	00001517          	auipc	a0,0x1
80000530:	22c50513          	addi	a0,a0,556 # 80001758 <_etext+0x104>
80000534:	4a5000ef          	jal	ra,800011d8 <printf>
80000538:	00c12803          	lw	a6,12(sp)
8000053c:	00812703          	lw	a4,8(sp)
80000540:	00412783          	lw	a5,4(sp)
80000544:	000ba583          	lw	a1,0(s7)
80000548:	00100693          	li	a3,1
8000054c:	04d58063          	beq	a1,a3,8000058c <main+0x3cc>
80000550:	00001517          	auipc	a0,0x1
80000554:	22450513          	addi	a0,a0,548 # 80001774 <_etext+0x120>
80000558:	01012623          	sw	a6,12(sp)
8000055c:	00e12423          	sw	a4,8(sp)
80000560:	00f12223          	sw	a5,4(sp)
80000564:	00002697          	auipc	a3,0x2
80000568:	9606a023          	sw	zero,-1696(a3) # 80001ec4 <pass>
8000056c:	46d000ef          	jal	ra,800011d8 <printf>
80000570:	00100593          	li	a1,1
80000574:	00001517          	auipc	a0,0x1
80000578:	1e450513          	addi	a0,a0,484 # 80001758 <_etext+0x104>
8000057c:	45d000ef          	jal	ra,800011d8 <printf>
80000580:	00c12803          	lw	a6,12(sp)
80000584:	00812703          	lw	a4,8(sp)
80000588:	00412783          	lw	a5,4(sp)
8000058c:	0009c583          	lbu	a1,0(s3)
80000590:	04100693          	li	a3,65
80000594:	04d58063          	beq	a1,a3,800005d4 <main+0x414>
80000598:	00001517          	auipc	a0,0x1
8000059c:	1f850513          	addi	a0,a0,504 # 80001790 <_etext+0x13c>
800005a0:	01012623          	sw	a6,12(sp)
800005a4:	00e12423          	sw	a4,8(sp)
800005a8:	00f12223          	sw	a5,4(sp)
800005ac:	00002697          	auipc	a3,0x2
800005b0:	9006ac23          	sw	zero,-1768(a3) # 80001ec4 <pass>
800005b4:	425000ef          	jal	ra,800011d8 <printf>
800005b8:	04100593          	li	a1,65
800005bc:	00001517          	auipc	a0,0x1
800005c0:	1f050513          	addi	a0,a0,496 # 800017ac <_etext+0x158>
800005c4:	415000ef          	jal	ra,800011d8 <printf>
800005c8:	00c12803          	lw	a6,12(sp)
800005cc:	00812703          	lw	a4,8(sp)
800005d0:	00412783          	lw	a5,4(sp)
800005d4:	00094583          	lbu	a1,0(s2)
800005d8:	04200693          	li	a3,66
800005dc:	04d58063          	beq	a1,a3,8000061c <main+0x45c>
800005e0:	00001517          	auipc	a0,0x1
800005e4:	1e850513          	addi	a0,a0,488 # 800017c8 <_etext+0x174>
800005e8:	01012623          	sw	a6,12(sp)
800005ec:	00e12423          	sw	a4,8(sp)
800005f0:	00f12223          	sw	a5,4(sp)
800005f4:	00002697          	auipc	a3,0x2
800005f8:	8c06a823          	sw	zero,-1840(a3) # 80001ec4 <pass>
800005fc:	3dd000ef          	jal	ra,800011d8 <printf>
80000600:	04200593          	li	a1,66
80000604:	00001517          	auipc	a0,0x1
80000608:	1a850513          	addi	a0,a0,424 # 800017ac <_etext+0x158>
8000060c:	3cd000ef          	jal	ra,800011d8 <printf>
80000610:	00c12803          	lw	a6,12(sp)
80000614:	00812703          	lw	a4,8(sp)
80000618:	00412783          	lw	a5,4(sp)
8000061c:	0204a583          	lw	a1,32(s1)
80000620:	00700693          	li	a3,7
80000624:	04d58063          	beq	a1,a3,80000664 <main+0x4a4>
80000628:	00001517          	auipc	a0,0x1
8000062c:	1bc50513          	addi	a0,a0,444 # 800017e4 <_etext+0x190>
80000630:	01012623          	sw	a6,12(sp)
80000634:	00e12423          	sw	a4,8(sp)
80000638:	00f12223          	sw	a5,4(sp)
8000063c:	00002697          	auipc	a3,0x2
80000640:	8806a423          	sw	zero,-1912(a3) # 80001ec4 <pass>
80000644:	395000ef          	jal	ra,800011d8 <printf>
80000648:	00700593          	li	a1,7
8000064c:	00001517          	auipc	a0,0x1
80000650:	10c50513          	addi	a0,a0,268 # 80001758 <_etext+0x104>
80000654:	385000ef          	jal	ra,800011d8 <printf>
80000658:	00c12803          	lw	a6,12(sp)
8000065c:	00812703          	lw	a4,8(sp)
80000660:	00412783          	lw	a5,4(sp)
80000664:	65c42583          	lw	a1,1628(s0)
80000668:	0007a6b7          	lui	a3,0x7a
8000066c:	12a68693          	addi	a3,a3,298 # 7a12a <_entry_offset+0x7a12a>
80000670:	02d58e63          	beq	a1,a3,800006ac <main+0x4ec>
80000674:	00001517          	auipc	a0,0x1
80000678:	18c50513          	addi	a0,a0,396 # 80001800 <_etext+0x1ac>
8000067c:	01012623          	sw	a6,12(sp)
80000680:	00e12423          	sw	a4,8(sp)
80000684:	00f12223          	sw	a5,4(sp)
80000688:	00002697          	auipc	a3,0x2
8000068c:	8206ae23          	sw	zero,-1988(a3) # 80001ec4 <pass>
80000690:	349000ef          	jal	ra,800011d8 <printf>
80000694:	00001517          	auipc	a0,0x1
80000698:	18850513          	addi	a0,a0,392 # 8000181c <_etext+0x1c8>
8000069c:	33d000ef          	jal	ra,800011d8 <printf>
800006a0:	00c12803          	lw	a6,12(sp)
800006a4:	00812703          	lw	a4,8(sp)
800006a8:	00412783          	lw	a5,4(sp)
800006ac:	000d2683          	lw	a3,0(s10)
800006b0:	0046a583          	lw	a1,4(a3)
800006b4:	04058063          	beqz	a1,800006f4 <main+0x534>
800006b8:	00001517          	auipc	a0,0x1
800006bc:	19050513          	addi	a0,a0,400 # 80001848 <_etext+0x1f4>
800006c0:	01012623          	sw	a6,12(sp)
800006c4:	00e12423          	sw	a4,8(sp)
800006c8:	00f12223          	sw	a5,4(sp)
800006cc:	00001697          	auipc	a3,0x1
800006d0:	7e06ac23          	sw	zero,2040(a3) # 80001ec4 <pass>
800006d4:	305000ef          	jal	ra,800011d8 <printf>
800006d8:	00000593          	li	a1,0
800006dc:	00001517          	auipc	a0,0x1
800006e0:	07c50513          	addi	a0,a0,124 # 80001758 <_etext+0x104>
800006e4:	2f5000ef          	jal	ra,800011d8 <printf>
800006e8:	00c12803          	lw	a6,12(sp)
800006ec:	00812703          	lw	a4,8(sp)
800006f0:	00412783          	lw	a5,4(sp)
800006f4:	000d2603          	lw	a2,0(s10)
800006f8:	00200693          	li	a3,2
800006fc:	00862583          	lw	a1,8(a2)
80000700:	04d58063          	beq	a1,a3,80000740 <main+0x580>
80000704:	00001517          	auipc	a0,0x1
80000708:	16850513          	addi	a0,a0,360 # 8000186c <_etext+0x218>
8000070c:	01012623          	sw	a6,12(sp)
80000710:	00e12423          	sw	a4,8(sp)
80000714:	00f12223          	sw	a5,4(sp)
80000718:	00001697          	auipc	a3,0x1
8000071c:	7a06a623          	sw	zero,1964(a3) # 80001ec4 <pass>
80000720:	2b9000ef          	jal	ra,800011d8 <printf>
80000724:	00200593          	li	a1,2
80000728:	00001517          	auipc	a0,0x1
8000072c:	03050513          	addi	a0,a0,48 # 80001758 <_etext+0x104>
80000730:	2a9000ef          	jal	ra,800011d8 <printf>
80000734:	00c12803          	lw	a6,12(sp)
80000738:	00812703          	lw	a4,8(sp)
8000073c:	00412783          	lw	a5,4(sp)
80000740:	000d2603          	lw	a2,0(s10)
80000744:	01100693          	li	a3,17
80000748:	00c62583          	lw	a1,12(a2)
8000074c:	04d58063          	beq	a1,a3,8000078c <main+0x5cc>
80000750:	00001517          	auipc	a0,0x1
80000754:	14050513          	addi	a0,a0,320 # 80001890 <_etext+0x23c>
80000758:	01012623          	sw	a6,12(sp)
8000075c:	00e12423          	sw	a4,8(sp)
80000760:	00f12223          	sw	a5,4(sp)
80000764:	00001697          	auipc	a3,0x1
80000768:	7606a023          	sw	zero,1888(a3) # 80001ec4 <pass>
8000076c:	26d000ef          	jal	ra,800011d8 <printf>
80000770:	01100593          	li	a1,17
80000774:	00001517          	auipc	a0,0x1
80000778:	fe450513          	addi	a0,a0,-28 # 80001758 <_etext+0x104>
8000077c:	25d000ef          	jal	ra,800011d8 <printf>
80000780:	00c12803          	lw	a6,12(sp)
80000784:	00812703          	lw	a4,8(sp)
80000788:	00412783          	lw	a5,4(sp)
8000078c:	000d2503          	lw	a0,0(s10)
80000790:	00001597          	auipc	a1,0x1
80000794:	ed458593          	addi	a1,a1,-300 # 80001664 <_etext+0x10>
80000798:	01012623          	sw	a6,12(sp)
8000079c:	01050513          	addi	a0,a0,16
800007a0:	00e12423          	sw	a4,8(sp)
800007a4:	00f12223          	sw	a5,4(sp)
800007a8:	5c0000ef          	jal	ra,80000d68 <strcmp>
800007ac:	00412783          	lw	a5,4(sp)
800007b0:	00812703          	lw	a4,8(sp)
800007b4:	00c12803          	lw	a6,12(sp)
800007b8:	02050c63          	beqz	a0,800007f0 <main+0x630>
800007bc:	000d2583          	lw	a1,0(s10)
800007c0:	00001517          	auipc	a0,0x1
800007c4:	0f450513          	addi	a0,a0,244 # 800018b4 <_etext+0x260>
800007c8:	00001697          	auipc	a3,0x1
800007cc:	6e06ae23          	sw	zero,1788(a3) # 80001ec4 <pass>
800007d0:	01058593          	addi	a1,a1,16
800007d4:	205000ef          	jal	ra,800011d8 <printf>
800007d8:	00001517          	auipc	a0,0x1
800007dc:	10050513          	addi	a0,a0,256 # 800018d8 <_etext+0x284>
800007e0:	1f9000ef          	jal	ra,800011d8 <printf>
800007e4:	00c12803          	lw	a6,12(sp)
800007e8:	00812703          	lw	a4,8(sp)
800007ec:	00412783          	lw	a5,4(sp)
800007f0:	00004697          	auipc	a3,0x4
800007f4:	2c868693          	addi	a3,a3,712 # 80004ab8 <Next_Ptr_Glob>
800007f8:	0006a683          	lw	a3,0(a3)
800007fc:	0046a583          	lw	a1,4(a3)
80000800:	04058063          	beqz	a1,80000840 <main+0x680>
80000804:	00001517          	auipc	a0,0x1
80000808:	10c50513          	addi	a0,a0,268 # 80001910 <_etext+0x2bc>
8000080c:	01012623          	sw	a6,12(sp)
80000810:	00e12423          	sw	a4,8(sp)
80000814:	00f12223          	sw	a5,4(sp)
80000818:	00001697          	auipc	a3,0x1
8000081c:	6a06a623          	sw	zero,1708(a3) # 80001ec4 <pass>
80000820:	1b9000ef          	jal	ra,800011d8 <printf>
80000824:	00000593          	li	a1,0
80000828:	00001517          	auipc	a0,0x1
8000082c:	f3050513          	addi	a0,a0,-208 # 80001758 <_etext+0x104>
80000830:	1a9000ef          	jal	ra,800011d8 <printf>
80000834:	00c12803          	lw	a6,12(sp)
80000838:	00812703          	lw	a4,8(sp)
8000083c:	00412783          	lw	a5,4(sp)
80000840:	00004697          	auipc	a3,0x4
80000844:	27868693          	addi	a3,a3,632 # 80004ab8 <Next_Ptr_Glob>
80000848:	0006a603          	lw	a2,0(a3)
8000084c:	00100693          	li	a3,1
80000850:	00862583          	lw	a1,8(a2)
80000854:	04d58063          	beq	a1,a3,80000894 <main+0x6d4>
80000858:	00001517          	auipc	a0,0x1
8000085c:	0e050513          	addi	a0,a0,224 # 80001938 <_etext+0x2e4>
80000860:	01012623          	sw	a6,12(sp)
80000864:	00e12423          	sw	a4,8(sp)
80000868:	00f12223          	sw	a5,4(sp)
8000086c:	00001697          	auipc	a3,0x1
80000870:	6406ac23          	sw	zero,1624(a3) # 80001ec4 <pass>
80000874:	165000ef          	jal	ra,800011d8 <printf>
80000878:	00100593          	li	a1,1
8000087c:	00001517          	auipc	a0,0x1
80000880:	edc50513          	addi	a0,a0,-292 # 80001758 <_etext+0x104>
80000884:	155000ef          	jal	ra,800011d8 <printf>
80000888:	00c12803          	lw	a6,12(sp)
8000088c:	00812703          	lw	a4,8(sp)
80000890:	00412783          	lw	a5,4(sp)
80000894:	00004697          	auipc	a3,0x4
80000898:	22468693          	addi	a3,a3,548 # 80004ab8 <Next_Ptr_Glob>
8000089c:	0006a603          	lw	a2,0(a3)
800008a0:	01200693          	li	a3,18
800008a4:	00c62583          	lw	a1,12(a2)
800008a8:	04d58063          	beq	a1,a3,800008e8 <main+0x728>
800008ac:	00001517          	auipc	a0,0x1
800008b0:	0b450513          	addi	a0,a0,180 # 80001960 <_etext+0x30c>
800008b4:	01012623          	sw	a6,12(sp)
800008b8:	00e12423          	sw	a4,8(sp)
800008bc:	00f12223          	sw	a5,4(sp)
800008c0:	00001697          	auipc	a3,0x1
800008c4:	6006a223          	sw	zero,1540(a3) # 80001ec4 <pass>
800008c8:	111000ef          	jal	ra,800011d8 <printf>
800008cc:	01200593          	li	a1,18
800008d0:	00001517          	auipc	a0,0x1
800008d4:	e8850513          	addi	a0,a0,-376 # 80001758 <_etext+0x104>
800008d8:	101000ef          	jal	ra,800011d8 <printf>
800008dc:	00c12803          	lw	a6,12(sp)
800008e0:	00812703          	lw	a4,8(sp)
800008e4:	00412783          	lw	a5,4(sp)
800008e8:	00004417          	auipc	s0,0x4
800008ec:	1d040413          	addi	s0,s0,464 # 80004ab8 <Next_Ptr_Glob>
800008f0:	00042503          	lw	a0,0(s0)
800008f4:	00001597          	auipc	a1,0x1
800008f8:	d7058593          	addi	a1,a1,-656 # 80001664 <_etext+0x10>
800008fc:	01012623          	sw	a6,12(sp)
80000900:	01050513          	addi	a0,a0,16
80000904:	00e12423          	sw	a4,8(sp)
80000908:	00f12223          	sw	a5,4(sp)
8000090c:	45c000ef          	jal	ra,80000d68 <strcmp>
80000910:	00412783          	lw	a5,4(sp)
80000914:	00812703          	lw	a4,8(sp)
80000918:	00c12803          	lw	a6,12(sp)
8000091c:	02050c63          	beqz	a0,80000954 <main+0x794>
80000920:	00042583          	lw	a1,0(s0)
80000924:	00001517          	auipc	a0,0x1
80000928:	06450513          	addi	a0,a0,100 # 80001988 <_etext+0x334>
8000092c:	00001697          	auipc	a3,0x1
80000930:	5806ac23          	sw	zero,1432(a3) # 80001ec4 <pass>
80000934:	01058593          	addi	a1,a1,16
80000938:	0a1000ef          	jal	ra,800011d8 <printf>
8000093c:	00001517          	auipc	a0,0x1
80000940:	f9c50513          	addi	a0,a0,-100 # 800018d8 <_etext+0x284>
80000944:	095000ef          	jal	ra,800011d8 <printf>
80000948:	00c12803          	lw	a6,12(sp)
8000094c:	00812703          	lw	a4,8(sp)
80000950:	00412783          	lw	a5,4(sp)
80000954:	00500693          	li	a3,5
80000958:	02d70e63          	beq	a4,a3,80000994 <main+0x7d4>
8000095c:	00070593          	mv	a1,a4
80000960:	00001517          	auipc	a0,0x1
80000964:	05050513          	addi	a0,a0,80 # 800019b0 <_etext+0x35c>
80000968:	01012423          	sw	a6,8(sp)
8000096c:	00f12223          	sw	a5,4(sp)
80000970:	00001717          	auipc	a4,0x1
80000974:	54072a23          	sw	zero,1364(a4) # 80001ec4 <pass>
80000978:	061000ef          	jal	ra,800011d8 <printf>
8000097c:	00500593          	li	a1,5
80000980:	00001517          	auipc	a0,0x1
80000984:	dd850513          	addi	a0,a0,-552 # 80001758 <_etext+0x104>
80000988:	051000ef          	jal	ra,800011d8 <printf>
8000098c:	00812803          	lw	a6,8(sp)
80000990:	00412783          	lw	a5,4(sp)
80000994:	00d00713          	li	a4,13
80000998:	02e78a63          	beq	a5,a4,800009cc <main+0x80c>
8000099c:	00078593          	mv	a1,a5
800009a0:	00001517          	auipc	a0,0x1
800009a4:	02c50513          	addi	a0,a0,44 # 800019cc <_etext+0x378>
800009a8:	01012223          	sw	a6,4(sp)
800009ac:	00001797          	auipc	a5,0x1
800009b0:	5007ac23          	sw	zero,1304(a5) # 80001ec4 <pass>
800009b4:	025000ef          	jal	ra,800011d8 <printf>
800009b8:	00d00593          	li	a1,13
800009bc:	00001517          	auipc	a0,0x1
800009c0:	d9c50513          	addi	a0,a0,-612 # 80001758 <_etext+0x104>
800009c4:	015000ef          	jal	ra,800011d8 <printf>
800009c8:	00412803          	lw	a6,4(sp)
800009cc:	02081663          	bnez	a6,800009f8 <main+0x838>
800009d0:	00000593          	li	a1,0
800009d4:	00001517          	auipc	a0,0x1
800009d8:	01450513          	addi	a0,a0,20 # 800019e8 <_etext+0x394>
800009dc:	00001797          	auipc	a5,0x1
800009e0:	4e07a423          	sw	zero,1256(a5) # 80001ec4 <pass>
800009e4:	7f4000ef          	jal	ra,800011d8 <printf>
800009e8:	00100593          	li	a1,1
800009ec:	00001517          	auipc	a0,0x1
800009f0:	d6c50513          	addi	a0,a0,-660 # 80001758 <_etext+0x104>
800009f4:	7e4000ef          	jal	ra,800011d8 <printf>
800009f8:	00001597          	auipc	a1,0x1
800009fc:	c8c58593          	addi	a1,a1,-884 # 80001684 <_etext+0x30>
80000a00:	02010513          	addi	a0,sp,32
80000a04:	364000ef          	jal	ra,80000d68 <strcmp>
80000a08:	02050463          	beqz	a0,80000a30 <main+0x870>
80000a0c:	02010593          	addi	a1,sp,32
80000a10:	00001517          	auipc	a0,0x1
80000a14:	ff450513          	addi	a0,a0,-12 # 80001a04 <_etext+0x3b0>
80000a18:	00001797          	auipc	a5,0x1
80000a1c:	4a07a623          	sw	zero,1196(a5) # 80001ec4 <pass>
80000a20:	7b8000ef          	jal	ra,800011d8 <printf>
80000a24:	00001517          	auipc	a0,0x1
80000a28:	ffc50513          	addi	a0,a0,-4 # 80001a20 <_etext+0x3cc>
80000a2c:	7ac000ef          	jal	ra,800011d8 <printf>
80000a30:	00001597          	auipc	a1,0x1
80000a34:	ccc58593          	addi	a1,a1,-820 # 800016fc <_etext+0xa8>
80000a38:	04010513          	addi	a0,sp,64
80000a3c:	32c000ef          	jal	ra,80000d68 <strcmp>
80000a40:	02050463          	beqz	a0,80000a68 <main+0x8a8>
80000a44:	04010593          	addi	a1,sp,64
80000a48:	00001517          	auipc	a0,0x1
80000a4c:	01050513          	addi	a0,a0,16 # 80001a58 <_etext+0x404>
80000a50:	00001797          	auipc	a5,0x1
80000a54:	4607aa23          	sw	zero,1140(a5) # 80001ec4 <pass>
80000a58:	780000ef          	jal	ra,800011d8 <printf>
80000a5c:	00001517          	auipc	a0,0x1
80000a60:	01850513          	addi	a0,a0,24 # 80001a74 <_etext+0x420>
80000a64:	774000ef          	jal	ra,800011d8 <printf>
80000a68:	000a2583          	lw	a1,0(s4)
80000a6c:	00001517          	auipc	a0,0x1
80000a70:	04050513          	addi	a0,a0,64 # 80001aac <_etext+0x458>
80000a74:	00001417          	auipc	s0,0x1
80000a78:	45040413          	addi	s0,s0,1104 # 80001ec4 <pass>
80000a7c:	75c000ef          	jal	ra,800011d8 <printf>
80000a80:	00001517          	auipc	a0,0x1
80000a84:	04050513          	addi	a0,a0,64 # 80001ac0 <_etext+0x46c>
80000a88:	750000ef          	jal	ra,800011d8 <printf>
80000a8c:	00042783          	lw	a5,0(s0)
80000a90:	00001597          	auipc	a1,0x1
80000a94:	bc458593          	addi	a1,a1,-1084 # 80001654 <_etext>
80000a98:	00079663          	bnez	a5,80000aa4 <main+0x8e4>
80000a9c:	00001597          	auipc	a1,0x1
80000aa0:	bc058593          	addi	a1,a1,-1088 # 8000165c <_etext+0x8>
80000aa4:	000a2603          	lw	a2,0(s4)
80000aa8:	000d77b7          	lui	a5,0xd7
80000aac:	10478793          	addi	a5,a5,260 # d7104 <_entry_offset+0xd7104>
80000ab0:	02c7c633          	div	a2,a5,a2
80000ab4:	00001517          	auipc	a0,0x1
80000ab8:	04050513          	addi	a0,a0,64 # 80001af4 <_etext+0x4a0>
80000abc:	71c000ef          	jal	ra,800011d8 <printf>
80000ac0:	00001517          	auipc	a0,0x1
80000ac4:	05450513          	addi	a0,a0,84 # 80001b14 <_etext+0x4c0>
80000ac8:	710000ef          	jal	ra,800011d8 <printf>
80000acc:	00042503          	lw	a0,0(s0)
80000ad0:	09c12083          	lw	ra,156(sp)
80000ad4:	09812403          	lw	s0,152(sp)
80000ad8:	09412483          	lw	s1,148(sp)
80000adc:	09012903          	lw	s2,144(sp)
80000ae0:	08c12983          	lw	s3,140(sp)
80000ae4:	08812a03          	lw	s4,136(sp)
80000ae8:	08412a83          	lw	s5,132(sp)
80000aec:	08012b03          	lw	s6,128(sp)
80000af0:	07c12b83          	lw	s7,124(sp)
80000af4:	07812c03          	lw	s8,120(sp)
80000af8:	07412c83          	lw	s9,116(sp)
80000afc:	07012d03          	lw	s10,112(sp)
80000b00:	06c12d83          	lw	s11,108(sp)
80000b04:	00153513          	seqz	a0,a0
80000b08:	0a010113          	addi	sp,sp,160
80000b0c:	00008067          	ret
80000b10:	00f98023          	sb	a5,0(s3)
80000b14:	00100713          	li	a4,1
80000b18:	90dff06f          	j	80000424 <main+0x264>
80000b1c:	00100693          	li	a3,1
80000b20:	00078c13          	mv	s8,a5
80000b24:	869ff06f          	j	8000038c <main+0x1cc>
80000b28:	00d00793          	li	a5,13
80000b2c:	00100713          	li	a4,1
80000b30:	949ff06f          	j	80000478 <main+0x2b8>

80000b34 <__am_timer_config>:
80000b34:	00100793          	li	a5,1
80000b38:	00f50023          	sb	a5,0(a0)
80000b3c:	00f500a3          	sb	a5,1(a0)
80000b40:	00008067          	ret

80000b44 <__am_input_config>:
80000b44:	00100793          	li	a5,1
80000b48:	00f50023          	sb	a5,0(a0)
80000b4c:	00008067          	ret

80000b50 <__am_uart_config>:
80000b50:	00050023          	sb	zero,0(a0)
80000b54:	00008067          	ret

80000b58 <__am_net_config>:
80000b58:	00050023          	sb	zero,0(a0)
80000b5c:	00008067          	ret

80000b60 <fail>:
80000b60:	ff010113          	addi	sp,sp,-16
80000b64:	00812423          	sw	s0,8(sp)
80000b68:	00112623          	sw	ra,12(sp)
80000b6c:	00001417          	auipc	s0,0x1
80000b70:	fe440413          	addi	s0,s0,-28 # 80001b50 <_etext+0x4fc>
80000b74:	04100513          	li	a0,65
80000b78:	00140413          	addi	s0,s0,1
80000b7c:	178000ef          	jal	ra,80000cf4 <putch>
80000b80:	00044503          	lbu	a0,0(s0)
80000b84:	fe051ae3          	bnez	a0,80000b78 <fail+0x18>
80000b88:	00001417          	auipc	s0,0x1
80000b8c:	fd440413          	addi	s0,s0,-44 # 80001b5c <_etext+0x508>
80000b90:	06100513          	li	a0,97
80000b94:	00140413          	addi	s0,s0,1
80000b98:	15c000ef          	jal	ra,80000cf4 <putch>
80000b9c:	00044503          	lbu	a0,0(s0)
80000ba0:	fe051ae3          	bnez	a0,80000b94 <fail+0x34>
80000ba4:	00001417          	auipc	s0,0x1
80000ba8:	fd440413          	addi	s0,s0,-44 # 80001b78 <_etext+0x524>
80000bac:	02000513          	li	a0,32
80000bb0:	00140413          	addi	s0,s0,1
80000bb4:	140000ef          	jal	ra,80000cf4 <putch>
80000bb8:	00044503          	lbu	a0,0(s0)
80000bbc:	fe051ae3          	bnez	a0,80000bb0 <fail+0x50>
80000bc0:	00100513          	li	a0,1
80000bc4:	13c000ef          	jal	ra,80000d00 <halt>

80000bc8 <ioe_init>:
80000bc8:	ff010113          	addi	sp,sp,-16
80000bcc:	00112623          	sw	ra,12(sp)
80000bd0:	00001797          	auipc	a5,0x1
80000bd4:	0f078793          	addi	a5,a5,240 # 80001cc0 <lut>
80000bd8:	00001697          	auipc	a3,0x1
80000bdc:	2e868693          	addi	a3,a3,744 # 80001ec0 <free_mem>
80000be0:	00000617          	auipc	a2,0x0
80000be4:	f8060613          	addi	a2,a2,-128 # 80000b60 <fail>
80000be8:	00c0006f          	j	80000bf4 <ioe_init+0x2c>
80000bec:	00478793          	addi	a5,a5,4
80000bf0:	00d78c63          	beq	a5,a3,80000c08 <ioe_init+0x40>
80000bf4:	0007a703          	lw	a4,0(a5)
80000bf8:	fe071ae3          	bnez	a4,80000bec <ioe_init+0x24>
80000bfc:	00c7a023          	sw	a2,0(a5)
80000c00:	00478793          	addi	a5,a5,4
80000c04:	fed798e3          	bne	a5,a3,80000bf4 <ioe_init+0x2c>
80000c08:	080000ef          	jal	ra,80000c88 <__am_gpu_init>
80000c0c:	034000ef          	jal	ra,80000c40 <__am_timer_init>
80000c10:	0b8000ef          	jal	ra,80000cc8 <__am_audio_init>
80000c14:	00c12083          	lw	ra,12(sp)
80000c18:	00100513          	li	a0,1
80000c1c:	01010113          	addi	sp,sp,16
80000c20:	00008067          	ret

80000c24 <ioe_read>:
80000c24:	00251513          	slli	a0,a0,0x2
80000c28:	00001797          	auipc	a5,0x1
80000c2c:	09878793          	addi	a5,a5,152 # 80001cc0 <lut>
80000c30:	00a787b3          	add	a5,a5,a0
80000c34:	0007a783          	lw	a5,0(a5)
80000c38:	00058513          	mv	a0,a1
80000c3c:	00078067          	jr	a5

80000c40 <__am_timer_init>:
80000c40:	00008067          	ret

80000c44 <__am_timer_uptime>:
80000c44:	a00007b7          	lui	a5,0xa0000
80000c48:	04c7a703          	lw	a4,76(a5) # a000004c <_end+0x1fff304c>
80000c4c:	0487a783          	lw	a5,72(a5)
80000c50:	00e52223          	sw	a4,4(a0)
80000c54:	00f52023          	sw	a5,0(a0)
80000c58:	00008067          	ret

80000c5c <__am_timer_rtc>:
80000c5c:	7e900793          	li	a5,2025
80000c60:	00052a23          	sw	zero,20(a0)
80000c64:	00052823          	sw	zero,16(a0)
80000c68:	00052623          	sw	zero,12(a0)
80000c6c:	00052423          	sw	zero,8(a0)
80000c70:	00052223          	sw	zero,4(a0)
80000c74:	00f52023          	sw	a5,0(a0)
80000c78:	00008067          	ret

80000c7c <__am_input_keybrd>:
80000c7c:	00050023          	sb	zero,0(a0)
80000c80:	00052223          	sw	zero,4(a0)
80000c84:	00008067          	ret

80000c88 <__am_gpu_init>:
80000c88:	00008067          	ret

80000c8c <__am_gpu_config>:
80000c8c:	00100793          	li	a5,1
80000c90:	00f51023          	sh	a5,0(a0)
80000c94:	00052223          	sw	zero,4(a0)
80000c98:	00052423          	sw	zero,8(a0)
80000c9c:	00052623          	sw	zero,12(a0)
80000ca0:	00008067          	ret

80000ca4 <__am_gpu_fbdraw>:
80000ca4:	01454783          	lbu	a5,20(a0)
80000ca8:	00078863          	beqz	a5,80000cb8 <__am_gpu_fbdraw+0x14>
80000cac:	a00007b7          	lui	a5,0xa0000
80000cb0:	00100713          	li	a4,1
80000cb4:	10e7a223          	sw	a4,260(a5) # a0000104 <_end+0x1fff3104>
80000cb8:	00008067          	ret

80000cbc <__am_gpu_status>:
80000cbc:	00100793          	li	a5,1
80000cc0:	00f50023          	sb	a5,0(a0)
80000cc4:	00008067          	ret

80000cc8 <__am_audio_init>:
80000cc8:	00008067          	ret

80000ccc <__am_audio_config>:
80000ccc:	00050023          	sb	zero,0(a0)
80000cd0:	00008067          	ret

80000cd4 <__am_audio_ctrl>:
80000cd4:	00008067          	ret

80000cd8 <__am_audio_status>:
80000cd8:	00052023          	sw	zero,0(a0)
80000cdc:	00008067          	ret

80000ce0 <__am_audio_play>:
80000ce0:	00008067          	ret

80000ce4 <__am_disk_config>:
80000ce4:	00050023          	sb	zero,0(a0)
80000ce8:	00008067          	ret

80000cec <__am_disk_status>:
80000cec:	00008067          	ret

80000cf0 <__am_disk_blkio>:
80000cf0:	00008067          	ret

80000cf4 <putch>:
80000cf4:	a00007b7          	lui	a5,0xa0000
80000cf8:	3ea78c23          	sb	a0,1016(a5) # a00003f8 <_end+0x1fff33f8>
80000cfc:	00008067          	ret

80000d00 <halt>:
80000d00:	00050513          	mv	a0,a0
80000d04:	00100073          	ebreak
80000d08:	0000006f          	j	80000d08 <halt+0x8>

80000d0c <_trm_init>:
80000d0c:	ff010113          	addi	sp,sp,-16
80000d10:	00001517          	auipc	a0,0x1
80000d14:	ec450513          	addi	a0,a0,-316 # 80001bd4 <mainargs>
80000d18:	00112623          	sw	ra,12(sp)
80000d1c:	ca4ff0ef          	jal	ra,800001c0 <main>
80000d20:	00050513          	mv	a0,a0
80000d24:	00100073          	ebreak
80000d28:	0000006f          	j	80000d28 <_trm_init+0x1c>

80000d2c <strcpy>:
80000d2c:	0005c703          	lbu	a4,0(a1)
80000d30:	02070663          	beqz	a4,80000d5c <strcpy+0x30>
80000d34:	00000793          	li	a5,0
80000d38:	00f506b3          	add	a3,a0,a5
80000d3c:	00178793          	addi	a5,a5,1
80000d40:	00e68023          	sb	a4,0(a3)
80000d44:	00f58733          	add	a4,a1,a5
80000d48:	00074703          	lbu	a4,0(a4)
80000d4c:	fe0716e3          	bnez	a4,80000d38 <strcpy+0xc>
80000d50:	00f507b3          	add	a5,a0,a5
80000d54:	00078023          	sb	zero,0(a5)
80000d58:	00008067          	ret
80000d5c:	00050793          	mv	a5,a0
80000d60:	00078023          	sb	zero,0(a5)
80000d64:	00008067          	ret

80000d68 <strcmp>:
80000d68:	00054703          	lbu	a4,0(a0)
80000d6c:	0005c783          	lbu	a5,0(a1)
80000d70:	00150513          	addi	a0,a0,1
80000d74:	00071863          	bnez	a4,80000d84 <strcmp+0x1c>
80000d78:	00f037b3          	snez	a5,a5
80000d7c:	40f00533          	neg	a0,a5
80000d80:	00008067          	ret
80000d84:	00158593          	addi	a1,a1,1
80000d88:	fef700e3          	beq	a4,a5,80000d68 <strcmp>
80000d8c:	00f76663          	bltu	a4,a5,80000d98 <strcmp+0x30>
80000d90:	00100513          	li	a0,1
80000d94:	00008067          	ret
80000d98:	fff00513          	li	a0,-1
80000d9c:	00008067          	ret

80000da0 <__udivmoddi4>:
80000da0:	fe010113          	addi	sp,sp,-32
80000da4:	01212823          	sw	s2,16(sp)
80000da8:	01412423          	sw	s4,8(sp)
80000dac:	01512223          	sw	s5,4(sp)
80000db0:	01612023          	sw	s6,0(sp)
80000db4:	00112e23          	sw	ra,28(sp)
80000db8:	00812c23          	sw	s0,24(sp)
80000dbc:	00912a23          	sw	s1,20(sp)
80000dc0:	01312623          	sw	s3,12(sp)
80000dc4:	00068a93          	mv	s5,a3
80000dc8:	00050913          	mv	s2,a0
80000dcc:	00060b13          	mv	s6,a2
80000dd0:	00070a13          	mv	s4,a4
80000dd4:	04059463          	bnez	a1,80000e1c <__udivmoddi4+0x7c>
80000dd8:	18069863          	bnez	a3,80000f68 <__udivmoddi4+0x1c8>
80000ddc:	00070863          	beqz	a4,80000dec <__udivmoddi4+0x4c>
80000de0:	02c577b3          	remu	a5,a0,a2
80000de4:	00072223          	sw	zero,4(a4)
80000de8:	00f72023          	sw	a5,0(a4)
80000dec:	03695533          	divu	a0,s2,s6
80000df0:	00000593          	li	a1,0
80000df4:	01c12083          	lw	ra,28(sp)
80000df8:	01812403          	lw	s0,24(sp)
80000dfc:	01412483          	lw	s1,20(sp)
80000e00:	01012903          	lw	s2,16(sp)
80000e04:	00c12983          	lw	s3,12(sp)
80000e08:	00812a03          	lw	s4,8(sp)
80000e0c:	00412a83          	lw	s5,4(sp)
80000e10:	00012b03          	lw	s6,0(sp)
80000e14:	02010113          	addi	sp,sp,32
80000e18:	00008067          	ret
80000e1c:	00058993          	mv	s3,a1
80000e20:	00058413          	mv	s0,a1
80000e24:	0e061863          	bnez	a2,80000f14 <__udivmoddi4+0x174>
80000e28:	1a068263          	beqz	a3,80000fcc <__udivmoddi4+0x22c>
80000e2c:	20050463          	beqz	a0,80001034 <__udivmoddi4+0x294>
80000e30:	fff68793          	addi	a5,a3,-1
80000e34:	00d7f733          	and	a4,a5,a3
80000e38:	22070c63          	beqz	a4,80001070 <__udivmoddi4+0x2d0>
80000e3c:	00068513          	mv	a0,a3
80000e40:	28c000ef          	jal	ra,800010cc <__clzsi2>
80000e44:	00050493          	mv	s1,a0
80000e48:	00098513          	mv	a0,s3
80000e4c:	280000ef          	jal	ra,800010cc <__clzsi2>
80000e50:	40a48733          	sub	a4,s1,a0
80000e54:	01e00793          	li	a5,30
80000e58:	16e7ec63          	bltu	a5,a4,80000fd0 <__udivmoddi4+0x230>
80000e5c:	00170713          	addi	a4,a4,1
80000e60:	02000e93          	li	t4,32
80000e64:	40ee8eb3          	sub	t4,t4,a4
80000e68:	01d99633          	sll	a2,s3,t4
80000e6c:	00e956b3          	srl	a3,s2,a4
80000e70:	00e9d7b3          	srl	a5,s3,a4
80000e74:	01d91eb3          	sll	t4,s2,t4
80000e78:	00d66433          	or	s0,a2,a3
80000e7c:	00000493          	li	s1,0
80000e80:	00000313          	li	t1,0
80000e84:	01fed693          	srli	a3,t4,0x1f
80000e88:	00141813          	slli	a6,s0,0x1
80000e8c:	00d86833          	or	a6,a6,a3
80000e90:	01f45413          	srli	s0,s0,0x1f
80000e94:	00179793          	slli	a5,a5,0x1
80000e98:	0087e7b3          	or	a5,a5,s0
80000e9c:	410b0e33          	sub	t3,s6,a6
80000ea0:	01cb36b3          	sltu	a3,s6,t3
80000ea4:	40fa88b3          	sub	a7,s5,a5
80000ea8:	40d888b3          	sub	a7,a7,a3
80000eac:	001e3e13          	seqz	t3,t3
80000eb0:	41c888b3          	sub	a7,a7,t3
80000eb4:	41f8de13          	srai	t3,a7,0x1f
80000eb8:	016e7433          	and	s0,t3,s6
80000ebc:	40880433          	sub	s0,a6,s0
80000ec0:	015e7e33          	and	t3,t3,s5
80000ec4:	01f4d693          	srli	a3,s1,0x1f
80000ec8:	001e9e93          	slli	t4,t4,0x1
80000ecc:	00149493          	slli	s1,s1,0x1
80000ed0:	00883833          	sltu	a6,a6,s0
80000ed4:	41c787b3          	sub	a5,a5,t3
80000ed8:	fff70713          	addi	a4,a4,-1
80000edc:	0064e4b3          	or	s1,s1,t1
80000ee0:	00deeeb3          	or	t4,t4,a3
80000ee4:	01f8d313          	srli	t1,a7,0x1f
80000ee8:	410787b3          	sub	a5,a5,a6
80000eec:	f8071ce3          	bnez	a4,80000e84 <__udivmoddi4+0xe4>
80000ef0:	01f4d993          	srli	s3,s1,0x1f
80000ef4:	001e9e93          	slli	t4,t4,0x1
80000ef8:	00149493          	slli	s1,s1,0x1
80000efc:	0064e533          	or	a0,s1,t1
80000f00:	01d9e5b3          	or	a1,s3,t4
80000f04:	ee0a08e3          	beqz	s4,80000df4 <__udivmoddi4+0x54>
80000f08:	008a2023          	sw	s0,0(s4)
80000f0c:	00fa2223          	sw	a5,4(s4)
80000f10:	ee5ff06f          	j	80000df4 <__udivmoddi4+0x54>
80000f14:	06068663          	beqz	a3,80000f80 <__udivmoddi4+0x1e0>
80000f18:	00068513          	mv	a0,a3
80000f1c:	1b0000ef          	jal	ra,800010cc <__clzsi2>
80000f20:	00050493          	mv	s1,a0
80000f24:	00098513          	mv	a0,s3
80000f28:	1a4000ef          	jal	ra,800010cc <__clzsi2>
80000f2c:	40a48733          	sub	a4,s1,a0
80000f30:	01f00793          	li	a5,31
80000f34:	08e7ee63          	bltu	a5,a4,80000fd0 <__udivmoddi4+0x230>
80000f38:	00170713          	addi	a4,a4,1
80000f3c:	02000793          	li	a5,32
80000f40:	00090e93          	mv	t4,s2
80000f44:	14f70863          	beq	a4,a5,80001094 <__udivmoddi4+0x2f4>
80000f48:	40e786b3          	sub	a3,a5,a4
80000f4c:	00e95633          	srl	a2,s2,a4
80000f50:	00d995b3          	sll	a1,s3,a3
80000f54:	00e9d7b3          	srl	a5,s3,a4
80000f58:	00d91eb3          	sll	t4,s2,a3
80000f5c:	00c5e433          	or	s0,a1,a2
80000f60:	00000493          	li	s1,0
80000f64:	f1dff06f          	j	80000e80 <__udivmoddi4+0xe0>
80000f68:	06070663          	beqz	a4,80000fd4 <__udivmoddi4+0x234>
80000f6c:	00aa2023          	sw	a0,0(s4)
80000f70:	00072223          	sw	zero,4(a4)
80000f74:	00000513          	li	a0,0
80000f78:	00000593          	li	a1,0
80000f7c:	e79ff06f          	j	80000df4 <__udivmoddi4+0x54>
80000f80:	fff60793          	addi	a5,a2,-1
80000f84:	00c7f733          	and	a4,a5,a2
80000f88:	04071c63          	bnez	a4,80000fe0 <__udivmoddi4+0x240>
80000f8c:	000a0863          	beqz	s4,80000f9c <__udivmoddi4+0x1fc>
80000f90:	00a7f7b3          	and	a5,a5,a0
80000f94:	00fa2023          	sw	a5,0(s4)
80000f98:	000a2223          	sw	zero,4(s4)
80000f9c:	00100793          	li	a5,1
80000fa0:	0cfb0263          	beq	s6,a5,80001064 <__udivmoddi4+0x2c4>
80000fa4:	000b0513          	mv	a0,s6
80000fa8:	1bc000ef          	jal	ra,80001164 <__ctzsi2>
80000fac:	02000713          	li	a4,32
80000fb0:	40a70733          	sub	a4,a4,a0
80000fb4:	00050793          	mv	a5,a0
80000fb8:	00e99733          	sll	a4,s3,a4
80000fbc:	00a95933          	srl	s2,s2,a0
80000fc0:	01276533          	or	a0,a4,s2
80000fc4:	00f9d5b3          	srl	a1,s3,a5
80000fc8:	e2dff06f          	j	80000df4 <__udivmoddi4+0x54>
80000fcc:	00100073          	ebreak
80000fd0:	080a1063          	bnez	s4,80001050 <__udivmoddi4+0x2b0>
80000fd4:	00000513          	li	a0,0
80000fd8:	00000593          	li	a1,0
80000fdc:	e19ff06f          	j	80000df4 <__udivmoddi4+0x54>
80000fe0:	00060513          	mv	a0,a2
80000fe4:	00068493          	mv	s1,a3
80000fe8:	0e4000ef          	jal	ra,800010cc <__clzsi2>
80000fec:	00050993          	mv	s3,a0
80000ff0:	00040513          	mv	a0,s0
80000ff4:	0d8000ef          	jal	ra,800010cc <__clzsi2>
80000ff8:	40a98533          	sub	a0,s3,a0
80000ffc:	02150713          	addi	a4,a0,33
80001000:	02000693          	li	a3,32
80001004:	00090e93          	mv	t4,s2
80001008:	00000793          	li	a5,0
8000100c:	e6d70ae3          	beq	a4,a3,80000e80 <__udivmoddi4+0xe0>
80001010:	01f00613          	li	a2,31
80001014:	08e66663          	bltu	a2,a4,800010a0 <__udivmoddi4+0x300>
80001018:	40e686b3          	sub	a3,a3,a4
8000101c:	00e95633          	srl	a2,s2,a4
80001020:	00d415b3          	sll	a1,s0,a3
80001024:	00e457b3          	srl	a5,s0,a4
80001028:	00d91eb3          	sll	t4,s2,a3
8000102c:	00c5e433          	or	s0,a1,a2
80001030:	e51ff06f          	j	80000e80 <__udivmoddi4+0xe0>
80001034:	00070863          	beqz	a4,80001044 <__udivmoddi4+0x2a4>
80001038:	02d5f7b3          	remu	a5,a1,a3
8000103c:	00072023          	sw	zero,0(a4)
80001040:	00f72223          	sw	a5,4(a4)
80001044:	0359d533          	divu	a0,s3,s5
80001048:	00000593          	li	a1,0
8000104c:	da9ff06f          	j	80000df4 <__udivmoddi4+0x54>
80001050:	012a2023          	sw	s2,0(s4)
80001054:	013a2223          	sw	s3,4(s4)
80001058:	00000513          	li	a0,0
8000105c:	00000593          	li	a1,0
80001060:	d95ff06f          	j	80000df4 <__udivmoddi4+0x54>
80001064:	00090513          	mv	a0,s2
80001068:	00098593          	mv	a1,s3
8000106c:	d89ff06f          	j	80000df4 <__udivmoddi4+0x54>
80001070:	000a0863          	beqz	s4,80001080 <__udivmoddi4+0x2e0>
80001074:	00b7f7b3          	and	a5,a5,a1
80001078:	00aa2023          	sw	a0,0(s4)
8000107c:	00fa2223          	sw	a5,4(s4)
80001080:	000a8513          	mv	a0,s5
80001084:	0e0000ef          	jal	ra,80001164 <__ctzsi2>
80001088:	00a9d533          	srl	a0,s3,a0
8000108c:	00000593          	li	a1,0
80001090:	d65ff06f          	j	80000df4 <__udivmoddi4+0x54>
80001094:	00000793          	li	a5,0
80001098:	00000493          	li	s1,0
8000109c:	de5ff06f          	j	80000e80 <__udivmoddi4+0xe0>
800010a0:	04000693          	li	a3,64
800010a4:	40e686b3          	sub	a3,a3,a4
800010a8:	00150513          	addi	a0,a0,1
800010ac:	00d914b3          	sll	s1,s2,a3
800010b0:	00a95eb3          	srl	t4,s2,a0
800010b4:	00d416b3          	sll	a3,s0,a3
800010b8:	01d6eeb3          	or	t4,a3,t4
800010bc:	00a45433          	srl	s0,s0,a0
800010c0:	dc1ff06f          	j	80000e80 <__udivmoddi4+0xe0>

800010c4 <__udivdi3>:
800010c4:	00000713          	li	a4,0
800010c8:	cd9ff06f          	j	80000da0 <__udivmoddi4>

800010cc <__clzsi2>:
800010cc:	ffff05b7          	lui	a1,0xffff0
800010d0:	00b575b3          	and	a1,a0,a1
800010d4:	0015b593          	seqz	a1,a1
800010d8:	00459593          	slli	a1,a1,0x4
800010dc:	01000793          	li	a5,16
800010e0:	40b787b3          	sub	a5,a5,a1
800010e4:	00010737          	lui	a4,0x10
800010e8:	00f557b3          	srl	a5,a0,a5
800010ec:	f0070713          	addi	a4,a4,-256 # ff00 <_entry_offset+0xff00>
800010f0:	00e7f733          	and	a4,a5,a4
800010f4:	00173713          	seqz	a4,a4
800010f8:	00371713          	slli	a4,a4,0x3
800010fc:	00800693          	li	a3,8
80001100:	40e686b3          	sub	a3,a3,a4
80001104:	00d7d7b3          	srl	a5,a5,a3
80001108:	0f07f613          	andi	a2,a5,240
8000110c:	00163613          	seqz	a2,a2
80001110:	00261613          	slli	a2,a2,0x2
80001114:	00400693          	li	a3,4
80001118:	40c686b3          	sub	a3,a3,a2
8000111c:	00d7d7b3          	srl	a5,a5,a3
80001120:	00c7f693          	andi	a3,a5,12
80001124:	0016b693          	seqz	a3,a3
80001128:	00169693          	slli	a3,a3,0x1
8000112c:	00200813          	li	a6,2
80001130:	40d80533          	sub	a0,a6,a3
80001134:	00a7d7b3          	srl	a5,a5,a0
80001138:	0017d513          	srli	a0,a5,0x1
8000113c:	00154513          	xori	a0,a0,1
80001140:	00b70733          	add	a4,a4,a1
80001144:	00157513          	andi	a0,a0,1
80001148:	00e60633          	add	a2,a2,a4
8000114c:	40f80833          	sub	a6,a6,a5
80001150:	40a00733          	neg	a4,a0
80001154:	01077733          	and	a4,a4,a6
80001158:	00c68533          	add	a0,a3,a2
8000115c:	00a70533          	add	a0,a4,a0
80001160:	00008067          	ret

80001164 <__ctzsi2>:
80001164:	01051593          	slli	a1,a0,0x10
80001168:	0105d593          	srli	a1,a1,0x10
8000116c:	0015b593          	seqz	a1,a1
80001170:	00459593          	slli	a1,a1,0x4
80001174:	00b557b3          	srl	a5,a0,a1
80001178:	0ff7f613          	zext.b	a2,a5
8000117c:	00163613          	seqz	a2,a2
80001180:	00361613          	slli	a2,a2,0x3
80001184:	00c7d7b3          	srl	a5,a5,a2
80001188:	00f7f693          	andi	a3,a5,15
8000118c:	0016b693          	seqz	a3,a3
80001190:	00269693          	slli	a3,a3,0x2
80001194:	00d7d7b3          	srl	a5,a5,a3
80001198:	0037f713          	andi	a4,a5,3
8000119c:	00173713          	seqz	a4,a4
800011a0:	00171713          	slli	a4,a4,0x1
800011a4:	00e7d7b3          	srl	a5,a5,a4
800011a8:	0017d513          	srli	a0,a5,0x1
800011ac:	00b60633          	add	a2,a2,a1
800011b0:	0017f793          	andi	a5,a5,1
800011b4:	00157593          	andi	a1,a0,1
800011b8:	00200513          	li	a0,2
800011bc:	00c686b3          	add	a3,a3,a2
800011c0:	40b50533          	sub	a0,a0,a1
800011c4:	fff78793          	addi	a5,a5,-1
800011c8:	00f57533          	and	a0,a0,a5
800011cc:	00d70733          	add	a4,a4,a3
800011d0:	00e50533          	add	a0,a0,a4
800011d4:	00008067          	ret

800011d8 <printf>:
800011d8:	fc010113          	addi	sp,sp,-64
800011dc:	02410313          	addi	t1,sp,36
800011e0:	02b12223          	sw	a1,36(sp)
800011e4:	02c12423          	sw	a2,40(sp)
800011e8:	00050593          	mv	a1,a0
800011ec:	00030613          	mv	a2,t1
800011f0:	00000517          	auipc	a0,0x0
800011f4:	b0450513          	addi	a0,a0,-1276 # 80000cf4 <putch>
800011f8:	00112e23          	sw	ra,28(sp)
800011fc:	02d12623          	sw	a3,44(sp)
80001200:	02e12823          	sw	a4,48(sp)
80001204:	02f12a23          	sw	a5,52(sp)
80001208:	03012c23          	sw	a6,56(sp)
8000120c:	03112e23          	sw	a7,60(sp)
80001210:	00612623          	sw	t1,12(sp)
80001214:	010000ef          	jal	ra,80001224 <vprintf>
80001218:	01c12083          	lw	ra,28(sp)
8000121c:	04010113          	addi	sp,sp,64
80001220:	00008067          	ret

80001224 <vprintf>:
80001224:	f7010113          	addi	sp,sp,-144
80001228:	08112623          	sw	ra,140(sp)
8000122c:	08812423          	sw	s0,136(sp)
80001230:	08912223          	sw	s1,132(sp)
80001234:	09212023          	sw	s2,128(sp)
80001238:	07312e23          	sw	s3,124(sp)
8000123c:	07412c23          	sw	s4,120(sp)
80001240:	07512a23          	sw	s5,116(sp)
80001244:	07612823          	sw	s6,112(sp)
80001248:	07712623          	sw	s7,108(sp)
8000124c:	07812423          	sw	s8,104(sp)
80001250:	07912223          	sw	s9,100(sp)
80001254:	07a12023          	sw	s10,96(sp)
80001258:	05b12e23          	sw	s11,92(sp)
8000125c:	0005c783          	lbu	a5,0(a1) # ffff0000 <_end+0x7ffe3000>
80001260:	3a078a63          	beqz	a5,80001614 <vprintf+0x3f0>
80001264:	ccccdc37          	lui	s8,0xccccd
80001268:	100009b7          	lui	s3,0x10000
8000126c:	ccdc0493          	addi	s1,s8,-819 # cccccccd <_end+0x4ccbfccd>
80001270:	00058413          	mv	s0,a1
80001274:	00050a13          	mv	s4,a0
80001278:	00060a93          	mv	s5,a2
8000127c:	00000913          	li	s2,0
80001280:	00000d13          	li	s10,0
80001284:	00000d93          	li	s11,0
80001288:	02500b93          	li	s7,37
8000128c:	00001c97          	auipc	s9,0x1
80001290:	9e8c8c93          	addi	s9,s9,-1560 # 80001c74 <mainargs+0xa0>
80001294:	01010b13          	addi	s6,sp,16
80001298:	fff98993          	addi	s3,s3,-1 # fffffff <_entry_offset+0xfffffff>
8000129c:	cccc0c13          	addi	s8,s8,-820
800012a0:	07778063          	beq	a5,s7,80001300 <vprintf+0xdc>
800012a4:	060d9263          	bnez	s11,80001308 <vprintf+0xe4>
800012a8:	00078513          	mv	a0,a5
800012ac:	000a00e7          	jalr	s4
800012b0:	00190913          	addi	s2,s2,1
800012b4:	00144783          	lbu	a5,1(s0)
800012b8:	00140413          	addi	s0,s0,1
800012bc:	fe0792e3          	bnez	a5,800012a0 <vprintf+0x7c>
800012c0:	08c12083          	lw	ra,140(sp)
800012c4:	08812403          	lw	s0,136(sp)
800012c8:	08412483          	lw	s1,132(sp)
800012cc:	07c12983          	lw	s3,124(sp)
800012d0:	07812a03          	lw	s4,120(sp)
800012d4:	07412a83          	lw	s5,116(sp)
800012d8:	07012b03          	lw	s6,112(sp)
800012dc:	06c12b83          	lw	s7,108(sp)
800012e0:	06812c03          	lw	s8,104(sp)
800012e4:	06412c83          	lw	s9,100(sp)
800012e8:	06012d03          	lw	s10,96(sp)
800012ec:	05c12d83          	lw	s11,92(sp)
800012f0:	00090513          	mv	a0,s2
800012f4:	08012903          	lw	s2,128(sp)
800012f8:	09010113          	addi	sp,sp,144
800012fc:	00008067          	ret
80001300:	001dbd93          	seqz	s11,s11
80001304:	01b40433          	add	s0,s0,s11
80001308:	00044783          	lbu	a5,0(s0)
8000130c:	11778663          	beq	a5,s7,80001418 <vprintf+0x1f4>
80001310:	f9d78793          	addi	a5,a5,-99
80001314:	0ff7f793          	zext.b	a5,a5
80001318:	01200713          	li	a4,18
8000131c:	00f76c63          	bltu	a4,a5,80001334 <vprintf+0x110>
80001320:	00279793          	slli	a5,a5,0x2
80001324:	019787b3          	add	a5,a5,s9
80001328:	0007a783          	lw	a5,0(a5)
8000132c:	019787b3          	add	a5,a5,s9
80001330:	00078067          	jr	a5
80001334:	00100d93          	li	s11,1
80001338:	f7dff06f          	j	800012b4 <vprintf+0x90>
8000133c:	00200793          	li	a5,2
80001340:	31a7c663          	blt	a5,s10,8000164c <vprintf+0x428>
80001344:	28fd0863          	beq	s10,a5,800015d4 <vprintf+0x3b0>
80001348:	000aa703          	lw	a4,0(s5)
8000134c:	00000693          	li	a3,0
80001350:	004a8a93          	addi	s5,s5,4
80001354:	00d767b3          	or	a5,a4,a3
80001358:	0c079863          	bnez	a5,80001428 <vprintf+0x204>
8000135c:	03000513          	li	a0,48
80001360:	00190913          	addi	s2,s2,1
80001364:	000a00e7          	jalr	s4
80001368:	00000d13          	li	s10,0
8000136c:	00000d93          	li	s11,0
80001370:	f45ff06f          	j	800012b4 <vprintf+0x90>
80001374:	2c0d1863          	bnez	s10,80001644 <vprintf+0x420>
80001378:	000aa783          	lw	a5,0(s5)
8000137c:	004a8a93          	addi	s5,s5,4
80001380:	0007c503          	lbu	a0,0(a5)
80001384:	00f12623          	sw	a5,12(sp)
80001388:	26050e63          	beqz	a0,80001604 <vprintf+0x3e0>
8000138c:	00090d93          	mv	s11,s2
80001390:	000a00e7          	jalr	s4
80001394:	00c12703          	lw	a4,12(sp)
80001398:	001d8d93          	addi	s11,s11,1
8000139c:	412d87b3          	sub	a5,s11,s2
800013a0:	00f707b3          	add	a5,a4,a5
800013a4:	0007c503          	lbu	a0,0(a5)
800013a8:	fe0514e3          	bnez	a0,80001390 <vprintf+0x16c>
800013ac:	000d8913          	mv	s2,s11
800013b0:	00000d93          	li	s11,0
800013b4:	f01ff06f          	j	800012b4 <vprintf+0x90>
800013b8:	001d0d13          	addi	s10,s10,1
800013bc:	00100d93          	li	s11,1
800013c0:	ef5ff06f          	j	800012b4 <vprintf+0x90>
800013c4:	00200793          	li	a5,2
800013c8:	25a7ca63          	blt	a5,s10,8000161c <vprintf+0x3f8>
800013cc:	22fd0063          	beq	s10,a5,800015ec <vprintf+0x3c8>
800013d0:	000aad83          	lw	s11,0(s5)
800013d4:	004a8a93          	addi	s5,s5,4
800013d8:	41fdd713          	srai	a4,s11,0x1f
800013dc:	00190d13          	addi	s10,s2,1
800013e0:	10074a63          	bltz	a4,800014f4 <vprintf+0x2d0>
800013e4:	00ede7b3          	or	a5,s11,a4
800013e8:	22079263          	bnez	a5,8000160c <vprintf+0x3e8>
800013ec:	03000513          	li	a0,48
800013f0:	000a00e7          	jalr	s4
800013f4:	000d0913          	mv	s2,s10
800013f8:	f71ff06f          	j	80001368 <vprintf+0x144>
800013fc:	240d1063          	bnez	s10,8000163c <vprintf+0x418>
80001400:	000ac503          	lbu	a0,0(s5)
80001404:	00190913          	addi	s2,s2,1
80001408:	004a8a93          	addi	s5,s5,4
8000140c:	000a00e7          	jalr	s4
80001410:	00000d93          	li	s11,0
80001414:	ea1ff06f          	j	800012b4 <vprintf+0x90>
80001418:	02500513          	li	a0,37
8000141c:	000a00e7          	jalr	s4
80001420:	00000d93          	li	s11,0
80001424:	e91ff06f          	j	800012b4 <vprintf+0x90>
80001428:	000b0613          	mv	a2,s6
8000142c:	00000593          	li	a1,0
80001430:	00500813          	li	a6,5
80001434:	00900893          	li	a7,9
80001438:	00469793          	slli	a5,a3,0x4
8000143c:	01c75513          	srli	a0,a4,0x1c
80001440:	00a7e533          	or	a0,a5,a0
80001444:	01357533          	and	a0,a0,s3
80001448:	013777b3          	and	a5,a4,s3
8000144c:	0186d313          	srli	t1,a3,0x18
80001450:	00a787b3          	add	a5,a5,a0
80001454:	006787b3          	add	a5,a5,t1
80001458:	0307f7b3          	remu	a5,a5,a6
8000145c:	00068313          	mv	t1,a3
80001460:	00160613          	addi	a2,a2,1
80001464:	00058d13          	mv	s10,a1
80001468:	00070e13          	mv	t3,a4
8000146c:	00158593          	addi	a1,a1,1
80001470:	40f707b3          	sub	a5,a4,a5
80001474:	00f73533          	sltu	a0,a4,a5
80001478:	40a686b3          	sub	a3,a3,a0
8000147c:	03878eb3          	mul	t4,a5,s8
80001480:	029686b3          	mul	a3,a3,s1
80001484:	0297b533          	mulhu	a0,a5,s1
80001488:	01d686b3          	add	a3,a3,t4
8000148c:	029787b3          	mul	a5,a5,s1
80001490:	00a686b3          	add	a3,a3,a0
80001494:	01f69513          	slli	a0,a3,0x1f
80001498:	0016d693          	srli	a3,a3,0x1
8000149c:	0017d793          	srli	a5,a5,0x1
800014a0:	00f567b3          	or	a5,a0,a5
800014a4:	00279513          	slli	a0,a5,0x2
800014a8:	00f50533          	add	a0,a0,a5
800014ac:	00151513          	slli	a0,a0,0x1
800014b0:	40a70533          	sub	a0,a4,a0
800014b4:	03050513          	addi	a0,a0,48
800014b8:	0ff57513          	zext.b	a0,a0
800014bc:	fea60fa3          	sb	a0,-1(a2)
800014c0:	00078713          	mv	a4,a5
800014c4:	f6031ae3          	bnez	t1,80001438 <vprintf+0x214>
800014c8:	f7c8e8e3          	bltu	a7,t3,80001438 <vprintf+0x214>
800014cc:	01ab0db3          	add	s11,s6,s10
800014d0:	00c0006f          	j	800014dc <vprintf+0x2b8>
800014d4:	fffdc503          	lbu	a0,-1(s11)
800014d8:	00078d93          	mv	s11,a5
800014dc:	000a00e7          	jalr	s4
800014e0:	fffd8793          	addi	a5,s11,-1
800014e4:	ffbb18e3          	bne	s6,s11,800014d4 <vprintf+0x2b0>
800014e8:	00190913          	addi	s2,s2,1
800014ec:	01a90933          	add	s2,s2,s10
800014f0:	e79ff06f          	j	80001368 <vprintf+0x144>
800014f4:	01b037b3          	snez	a5,s11
800014f8:	40e00733          	neg	a4,a4
800014fc:	40f70733          	sub	a4,a4,a5
80001500:	02d00513          	li	a0,45
80001504:	00e12623          	sw	a4,12(sp)
80001508:	000a00e7          	jalr	s4
8000150c:	00c12703          	lw	a4,12(sp)
80001510:	41b00db3          	neg	s11,s11
80001514:	000b0693          	mv	a3,s6
80001518:	00000613          	li	a2,0
8000151c:	00500593          	li	a1,5
80001520:	00471793          	slli	a5,a4,0x4
80001524:	01cdd513          	srli	a0,s11,0x1c
80001528:	00a7e533          	or	a0,a5,a0
8000152c:	01357533          	and	a0,a0,s3
80001530:	013df7b3          	and	a5,s11,s3
80001534:	01875813          	srli	a6,a4,0x18
80001538:	00a787b3          	add	a5,a5,a0
8000153c:	010787b3          	add	a5,a5,a6
80001540:	02b7f7b3          	remu	a5,a5,a1
80001544:	00168693          	addi	a3,a3,1
80001548:	00060913          	mv	s2,a2
8000154c:	00160613          	addi	a2,a2,1
80001550:	40fd87b3          	sub	a5,s11,a5
80001554:	00fdb533          	sltu	a0,s11,a5
80001558:	40a70733          	sub	a4,a4,a0
8000155c:	03878833          	mul	a6,a5,s8
80001560:	02970733          	mul	a4,a4,s1
80001564:	0297b533          	mulhu	a0,a5,s1
80001568:	01070733          	add	a4,a4,a6
8000156c:	029787b3          	mul	a5,a5,s1
80001570:	00a70733          	add	a4,a4,a0
80001574:	01f71513          	slli	a0,a4,0x1f
80001578:	00175713          	srli	a4,a4,0x1
8000157c:	0017d793          	srli	a5,a5,0x1
80001580:	00f567b3          	or	a5,a0,a5
80001584:	00279513          	slli	a0,a5,0x2
80001588:	00f50533          	add	a0,a0,a5
8000158c:	00151513          	slli	a0,a0,0x1
80001590:	40ad8533          	sub	a0,s11,a0
80001594:	03050513          	addi	a0,a0,48
80001598:	0ff57513          	zext.b	a0,a0
8000159c:	00078d93          	mv	s11,a5
800015a0:	fea68fa3          	sb	a0,-1(a3)
800015a4:	00e7e7b3          	or	a5,a5,a4
800015a8:	f6079ce3          	bnez	a5,80001520 <vprintf+0x2fc>
800015ac:	012b0db3          	add	s11,s6,s2
800015b0:	00c0006f          	j	800015bc <vprintf+0x398>
800015b4:	fffdc503          	lbu	a0,-1(s11)
800015b8:	00078d93          	mv	s11,a5
800015bc:	000a00e7          	jalr	s4
800015c0:	fffd8793          	addi	a5,s11,-1
800015c4:	ffbb18e3          	bne	s6,s11,800015b4 <vprintf+0x390>
800015c8:	001d0d13          	addi	s10,s10,1
800015cc:	012d0933          	add	s2,s10,s2
800015d0:	d99ff06f          	j	80001368 <vprintf+0x144>
800015d4:	007a8a93          	addi	s5,s5,7
800015d8:	ff8afa93          	andi	s5,s5,-8
800015dc:	000aa703          	lw	a4,0(s5)
800015e0:	004aa683          	lw	a3,4(s5)
800015e4:	008a8a93          	addi	s5,s5,8
800015e8:	d6dff06f          	j	80001354 <vprintf+0x130>
800015ec:	007a8a93          	addi	s5,s5,7
800015f0:	ff8afa93          	andi	s5,s5,-8
800015f4:	000aad83          	lw	s11,0(s5)
800015f8:	004aa703          	lw	a4,4(s5)
800015fc:	008a8a93          	addi	s5,s5,8
80001600:	dddff06f          	j	800013dc <vprintf+0x1b8>
80001604:	00000d93          	li	s11,0
80001608:	cadff06f          	j	800012b4 <vprintf+0x90>
8000160c:	00090d13          	mv	s10,s2
80001610:	f05ff06f          	j	80001514 <vprintf+0x2f0>
80001614:	00000913          	li	s2,0
80001618:	ca9ff06f          	j	800012c0 <vprintf+0x9c>
8000161c:	03000613          	li	a2,48
80001620:	00000597          	auipc	a1,0x0
80001624:	5f458593          	addi	a1,a1,1524 # 80001c14 <mainargs+0x40>
80001628:	00000517          	auipc	a0,0x0
8000162c:	63050513          	addi	a0,a0,1584 # 80001c58 <mainargs+0x84>
80001630:	ba9ff0ef          	jal	ra,800011d8 <printf>
80001634:	00100513          	li	a0,1
80001638:	ec8ff0ef          	jal	ra,80000d00 <halt>
8000163c:	02a00613          	li	a2,42
80001640:	fe1ff06f          	j	80001620 <vprintf+0x3fc>
80001644:	02100613          	li	a2,33
80001648:	fd9ff06f          	j	80001620 <vprintf+0x3fc>
8000164c:	04c00613          	li	a2,76
80001650:	fd1ff06f          	j	80001620 <vprintf+0x3fc>
