
/home/meowth/ysyx/ysyx-workbench/am-kernels/kernels/demo/build/demo-riscv32-nemu.elf:     file format elf32-littleriscv


Disassembly of section .text:

80000000 <_start>:
80000000:	00000413          	li	s0,0
80000004:	00015117          	auipc	sp,0x15
80000008:	ffc10113          	addi	sp,sp,-4 # 80015000 <_end>
8000000c:	6c1020ef          	jal	ra,80002ecc <_trm_init>

80000010 <galton>:
80000010:	f9010113          	addi	sp,sp,-112
80000014:	01810593          	addi	a1,sp,24
80000018:	00900513          	li	a0,9
8000001c:	06112623          	sw	ra,108(sp)
80000020:	06812423          	sw	s0,104(sp)
80000024:	06912223          	sw	s1,100(sp)
80000028:	07212023          	sw	s2,96(sp)
8000002c:	05312e23          	sw	s3,92(sp)
80000030:	05412c23          	sw	s4,88(sp)
80000034:	05512a23          	sw	s5,84(sp)
80000038:	05612823          	sw	s6,80(sp)
8000003c:	05712623          	sw	s7,76(sp)
80000040:	05812423          	sw	s8,72(sp)
80000044:	05912223          	sw	s9,68(sp)
80000048:	05a12023          	sw	s10,64(sp)
8000004c:	03b12e23          	sw	s11,60(sp)
80000050:	78d020ef          	jal	ra,80002fdc <ioe_read>
80000054:	02012683          	lw	a3,32(sp)
80000058:	03200713          	li	a4,50
8000005c:	41f6d793          	srai	a5,a3,0x1f
80000060:	0037f793          	andi	a5,a5,3
80000064:	00d787b3          	add	a5,a5,a3
80000068:	4027d793          	srai	a5,a5,0x2
8000006c:	ffe78793          	addi	a5,a5,-2
80000070:	5af75063          	bge	a4,a5,80000610 <galton+0x600>
80000074:	0000cd97          	auipc	s11,0xc
80000078:	074d8d93          	addi	s11,s11,116 # 8000c0e8 <h>
8000007c:	00eda023          	sw	a4,0(s11)
80000080:	00000413          	li	s0,0
80000084:	00008a17          	auipc	s4,0x8
80000088:	730a0a13          	addi	s4,s4,1840 # 800087b4 <buf.3>
8000008c:	14000993          	li	s3,320
80000090:	00100913          	li	s2,1
80000094:	0c800493          	li	s1,200
80000098:	00812e23          	sw	s0,28(sp)
8000009c:	01810593          	addi	a1,sp,24
800000a0:	00140413          	addi	s0,s0,1
800000a4:	00b00513          	li	a0,11
800000a8:	00012c23          	sw	zero,24(sp)
800000ac:	03412023          	sw	s4,32(sp)
800000b0:	03312223          	sw	s3,36(sp)
800000b4:	03212423          	sw	s2,40(sp)
800000b8:	02010623          	sb	zero,44(sp)
800000bc:	73d020ef          	jal	ra,80002ff8 <ioe_write>
800000c0:	fc941ce3          	bne	s0,s1,80000098 <galton+0x88>
800000c4:	000da483          	lw	s1,0(s11)
800000c8:	00449913          	slli	s2,s1,0x4
800000cc:	00990933          	add	s2,s2,s1
800000d0:	00090513          	mv	a0,s2
800000d4:	130030ef          	jal	ra,80003204 <malloc>
800000d8:	0000c797          	auipc	a5,0xc
800000dc:	00878793          	addi	a5,a5,8 # 8000c0e0 <b>
800000e0:	00090613          	mv	a2,s2
800000e4:	02000593          	li	a1,32
800000e8:	00a7a023          	sw	a0,0(a5)
800000ec:	00050413          	mv	s0,a0
800000f0:	06c030ef          	jal	ra,8000315c <memset>
800000f4:	00002537          	lui	a0,0x2
800000f8:	10c030ef          	jal	ra,80003204 <malloc>
800000fc:	00001737          	lui	a4,0x1
80000100:	00e50733          	add	a4,a0,a4
80000104:	0000c697          	auipc	a3,0xc
80000108:	fec68693          	addi	a3,a3,-20 # 8000c0f0 <x>
8000010c:	0000c797          	auipc	a5,0xc
80000110:	fe878793          	addi	a5,a5,-24 # 8000c0f4 <y>
80000114:	00a6a023          	sw	a0,0(a3)
80000118:	00e7a023          	sw	a4,0(a5)
8000011c:	00000513          	li	a0,0
80000120:	02240713          	addi	a4,s0,34
80000124:	00000593          	li	a1,0
80000128:	02a00613          	li	a2,42
8000012c:	ff800893          	li	a7,-8
80000130:	ffe57693          	andi	a3,a0,-2
80000134:	00a70813          	addi	a6,a4,10 # 100a <_entry_offset+0x100a>
80000138:	00870793          	addi	a5,a4,8
8000013c:	010686b3          	add	a3,a3,a6
80000140:	00c78023          	sb	a2,0(a5)
80000144:	00278793          	addi	a5,a5,2
80000148:	fef69ce3          	bne	a3,a5,80000140 <galton+0x130>
8000014c:	fff58593          	addi	a1,a1,-1
80000150:	00250513          	addi	a0,a0,2 # 2002 <_entry_offset+0x2002>
80000154:	02170713          	addi	a4,a4,33
80000158:	fd159ce3          	bne	a1,a7,80000130 <galton+0x120>
8000015c:	00010c37          	lui	s8,0x10
80000160:	0033ab37          	lui	s6,0x33a
80000164:	fffc0c13          	addi	s8,s8,-1 # ffff <_entry_offset+0xffff>
80000168:	966b0b13          	addi	s6,s6,-1690 # 339966 <_entry_offset+0x339966>
8000016c:	18905663          	blez	s1,800002f8 <galton+0x2e8>
80000170:	00012423          	sw	zero,8(sp)
80000174:	00012223          	sw	zero,4(sp)
80000178:	00008497          	auipc	s1,0x8
8000017c:	5d848493          	addi	s1,s1,1496 # 80008750 <last_c.2>
80000180:	00008a97          	auipc	s5,0x8
80000184:	5f4a8a93          	addi	s5,s5,1524 # 80008774 <buf.1>
80000188:	00008417          	auipc	s0,0x8
8000018c:	62c40413          	addi	s0,s0,1580 # 800087b4 <buf.3>
80000190:	00412783          	lw	a5,4(sp)
80000194:	00812c83          	lw	s9,8(sp)
80000198:	00000913          	li	s2,0
8000019c:	00279a13          	slli	s4,a5,0x2
800001a0:	02a00b93          	li	s7,42
800001a4:	02000993          	li	s3,32
800001a8:	00400d13          	li	s10,4
800001ac:	0000c797          	auipc	a5,0xc
800001b0:	f3478793          	addi	a5,a5,-204 # 8000c0e0 <b>
800001b4:	0007a783          	lw	a5,0(a5)
800001b8:	0004c703          	lbu	a4,0(s1)
800001bc:	019787b3          	add	a5,a5,s9
800001c0:	0007c783          	lbu	a5,0(a5)
800001c4:	3b778c63          	beq	a5,s7,8000057c <galton+0x56c>
800001c8:	08e78a63          	beq	a5,a4,8000025c <galton+0x24c>
800001cc:	00f48023          	sb	a5,0(s1)
800001d0:	00000713          	li	a4,0
800001d4:	07378a63          	beq	a5,s3,80000248 <galton+0x238>
800001d8:	01900713          	li	a4,25
800001dc:	02e7d733          	divu	a4,a5,a4
800001e0:	00500593          	li	a1,5
800001e4:	00371613          	slli	a2,a4,0x3
800001e8:	40e60633          	sub	a2,a2,a4
800001ec:	00561513          	slli	a0,a2,0x5
800001f0:	00a60633          	add	a2,a2,a0
800001f4:	00c787b3          	add	a5,a5,a2
800001f8:	0ff7f793          	zext.b	a5,a5
800001fc:	02b7d633          	divu	a2,a5,a1
80000200:	00871713          	slli	a4,a4,0x8
80000204:	00261513          	slli	a0,a2,0x2
80000208:	00a60533          	add	a0,a2,a0
8000020c:	40a787b3          	sub	a5,a5,a0
80000210:	00861613          	slli	a2,a2,0x8
80000214:	02b74733          	div	a4,a4,a1
80000218:	0ff7f793          	zext.b	a5,a5
8000021c:	00879793          	slli	a5,a5,0x8
80000220:	00ff0537          	lui	a0,0xff0
80000224:	02b64633          	div	a2,a2,a1
80000228:	01071713          	slli	a4,a4,0x10
8000022c:	00a77733          	and	a4,a4,a0
80000230:	02b7c7b3          	div	a5,a5,a1
80000234:	00861613          	slli	a2,a2,0x8
80000238:	01867633          	and	a2,a2,s8
8000023c:	00c76733          	or	a4,a4,a2
80000240:	0ff7f793          	zext.b	a5,a5
80000244:	00f76733          	or	a4,a4,a5
80000248:	00008797          	auipc	a5,0x8
8000024c:	52c78793          	addi	a5,a5,1324 # 80008774 <buf.1>
80000250:	00e7a023          	sw	a4,0(a5)
80000254:	00478793          	addi	a5,a5,4
80000258:	fef41ce3          	bne	s0,a5,80000250 <galton+0x240>
8000025c:	01810593          	addi	a1,sp,24
80000260:	00b00513          	li	a0,11
80000264:	01212c23          	sw	s2,24(sp)
80000268:	01412e23          	sw	s4,28(sp)
8000026c:	03512023          	sw	s5,32(sp)
80000270:	03a12223          	sw	s10,36(sp)
80000274:	03a12423          	sw	s10,40(sp)
80000278:	02010623          	sb	zero,44(sp)
8000027c:	57d020ef          	jal	ra,80002ff8 <ioe_write>
80000280:	0004c783          	lbu	a5,0(s1)
80000284:	01378e63          	beq	a5,s3,800002a0 <galton+0x290>
80000288:	01348023          	sb	s3,0(s1)
8000028c:	00008797          	auipc	a5,0x8
80000290:	4e878793          	addi	a5,a5,1256 # 80008774 <buf.1>
80000294:	0007a023          	sw	zero,0(a5)
80000298:	00478793          	addi	a5,a5,4
8000029c:	fef41ce3          	bne	s0,a5,80000294 <galton+0x284>
800002a0:	00490793          	addi	a5,s2,4
800002a4:	01810593          	addi	a1,sp,24
800002a8:	00b00513          	li	a0,11
800002ac:	00f12c23          	sw	a5,24(sp)
800002b0:	01412e23          	sw	s4,28(sp)
800002b4:	03512023          	sw	s5,32(sp)
800002b8:	03a12223          	sw	s10,36(sp)
800002bc:	03a12423          	sw	s10,40(sp)
800002c0:	02010623          	sb	zero,44(sp)
800002c4:	535020ef          	jal	ra,80002ff8 <ioe_write>
800002c8:	00890913          	addi	s2,s2,8
800002cc:	08800793          	li	a5,136
800002d0:	001c8c93          	addi	s9,s9,1
800002d4:	ecf91ce3          	bne	s2,a5,800001ac <galton+0x19c>
800002d8:	00412703          	lw	a4,4(sp)
800002dc:	00812683          	lw	a3,8(sp)
800002e0:	000da783          	lw	a5,0(s11)
800002e4:	00170713          	addi	a4,a4,1
800002e8:	01168693          	addi	a3,a3,17
800002ec:	00e12223          	sw	a4,4(sp)
800002f0:	00d12423          	sw	a3,8(sp)
800002f4:	e8f74ee3          	blt	a4,a5,80000190 <galton+0x180>
800002f8:	00100793          	li	a5,1
800002fc:	00b00513          	li	a0,11
80000300:	01810593          	addi	a1,sp,24
80000304:	02f10623          	sb	a5,44(sp)
80000308:	00012c23          	sw	zero,24(sp)
8000030c:	00012e23          	sw	zero,28(sp)
80000310:	02012023          	sw	zero,32(sp)
80000314:	02012223          	sw	zero,36(sp)
80000318:	02012423          	sw	zero,40(sp)
8000031c:	4dd020ef          	jal	ra,80002ff8 <ioe_write>
80000320:	01810593          	addi	a1,sp,24
80000324:	00600513          	li	a0,6
80000328:	4b5020ef          	jal	ra,80002fdc <ioe_read>
8000032c:	01812783          	lw	a5,24(sp)
80000330:	000014b7          	lui	s1,0x1
80000334:	01c12703          	lw	a4,28(sp)
80000338:	77048493          	addi	s1,s1,1904 # 1770 <_entry_offset+0x1770>
8000033c:	009784b3          	add	s1,a5,s1
80000340:	00f4b7b3          	sltu	a5,s1,a5
80000344:	00e78433          	add	s0,a5,a4
80000348:	01810593          	addi	a1,sp,24
8000034c:	00600513          	li	a0,6
80000350:	48d020ef          	jal	ra,80002fdc <ioe_read>
80000354:	01c12783          	lw	a5,28(sp)
80000358:	01812703          	lw	a4,24(sp)
8000035c:	fe87e6e3          	bltu	a5,s0,80000348 <galton+0x338>
80000360:	00f41463          	bne	s0,a5,80000368 <galton+0x358>
80000364:	fe9762e3          	bltu	a4,s1,80000348 <galton+0x338>
80000368:	0000c797          	auipc	a5,0xc
8000036c:	d7c78793          	addi	a5,a5,-644 # 8000c0e4 <cnt>
80000370:	0007a983          	lw	s3,0(a5)
80000374:	0d305863          	blez	s3,80000444 <galton+0x434>
80000378:	00000b93          	li	s7,0
8000037c:	02000c93          	li	s9,32
80000380:	02a00d13          	li	s10,42
80000384:	0000c797          	auipc	a5,0xc
80000388:	d7078793          	addi	a5,a5,-656 # 8000c0f4 <y>
8000038c:	0007aa03          	lw	s4,0(a5)
80000390:	0000c717          	auipc	a4,0xc
80000394:	d6070713          	addi	a4,a4,-672 # 8000c0f0 <x>
80000398:	002b9793          	slli	a5,s7,0x2
8000039c:	00072a83          	lw	s5,0(a4)
800003a0:	00fa0a33          	add	s4,s4,a5
800003a4:	000a2403          	lw	s0,0(s4)
800003a8:	00fa8ab3          	add	s5,s5,a5
800003ac:	000aa983          	lw	s3,0(s5)
800003b0:	08044063          	bltz	s0,80000430 <galton+0x420>
800003b4:	000da783          	lw	a5,0(s11)
800003b8:	fff78793          	addi	a5,a5,-1
800003bc:	06f40663          	beq	s0,a5,80000428 <galton+0x418>
800003c0:	00140613          	addi	a2,s0,1
800003c4:	0000c797          	auipc	a5,0xc
800003c8:	d1c78793          	addi	a5,a5,-740 # 8000c0e0 <b>
800003cc:	0007a903          	lw	s2,0(a5)
800003d0:	00461593          	slli	a1,a2,0x4
800003d4:	00c585b3          	add	a1,a1,a2
800003d8:	00b98833          	add	a6,s3,a1
800003dc:	01090833          	add	a6,s2,a6
800003e0:	00084503          	lbu	a0,0(a6)
800003e4:	fef58593          	addi	a1,a1,-17
800003e8:	00b987b3          	add	a5,s3,a1
800003ec:	21950463          	beq	a0,s9,800005f4 <galton+0x5e4>
800003f0:	00300313          	li	t1,3
800003f4:	01a51463          	bne	a0,s10,800003fc <galton+0x3ec>
800003f8:	00100313          	li	t1,1
800003fc:	00f00713          	li	a4,15
80000400:	00f904b3          	add	s1,s2,a5
80000404:	19374c63          	blt	a4,s3,8000059c <galton+0x58c>
80000408:	0014c503          	lbu	a0,1(s1)
8000040c:	05950e63          	beq	a0,s9,80000468 <galton+0x458>
80000410:	18099663          	bnez	s3,8000059c <galton+0x58c>
80000414:	00f907b3          	add	a5,s2,a5
80000418:	0007c703          	lbu	a4,0(a5)
8000041c:	01978023          	sb	s9,0(a5)
80000420:	013aa023          	sw	s3,0(s5)
80000424:	00e48023          	sb	a4,0(s1)
80000428:	fff00793          	li	a5,-1
8000042c:	00fa2023          	sw	a5,0(s4)
80000430:	0000c797          	auipc	a5,0xc
80000434:	cb478793          	addi	a5,a5,-844 # 8000c0e4 <cnt>
80000438:	0007a983          	lw	s3,0(a5)
8000043c:	001b8b93          	addi	s7,s7,1
80000440:	f53bc2e3          	blt	s7,s3,80000384 <galton+0x374>
80000444:	0000c697          	auipc	a3,0xc
80000448:	ca868693          	addi	a3,a3,-856 # 8000c0ec <step.0>
8000044c:	0006a783          	lw	a5,0(a3)
80000450:	00200713          	li	a4,2
80000454:	00178793          	addi	a5,a5,1
80000458:	00f6a023          	sw	a5,0(a3)
8000045c:	06e78e63          	beq	a5,a4,800004d8 <galton+0x4c8>
80000460:	000da483          	lw	s1,0(s11)
80000464:	d09ff06f          	j	8000016c <galton+0x15c>
80000468:	00184503          	lbu	a0,1(a6)
8000046c:	fb9512e3          	bne	a0,s9,80000410 <galton+0x400>
80000470:	01012623          	sw	a6,12(sp)
80000474:	00b12423          	sw	a1,8(sp)
80000478:	00612223          	sw	t1,4(sp)
8000047c:	555020ef          	jal	ra,800031d0 <rand>
80000480:	00412303          	lw	t1,4(sp)
80000484:	00812583          	lw	a1,8(sp)
80000488:	00c12803          	lw	a6,12(sp)
8000048c:	026568b3          	rem	a7,a0,t1
80000490:	0018b893          	seqz	a7,a7
80000494:	1c099e63          	bnez	s3,80000670 <galton+0x660>
80000498:	000a2503          	lw	a0,0(s4)
8000049c:	000aa803          	lw	a6,0(s5)
800004a0:	00451793          	slli	a5,a0,0x4
800004a4:	00a787b3          	add	a5,a5,a0
800004a8:	010787b3          	add	a5,a5,a6
800004ac:	f60884e3          	beqz	a7,80000414 <galton+0x404>
800004b0:	00198993          	addi	s3,s3,1
800004b4:	00b985b3          	add	a1,s3,a1
800004b8:	00f907b3          	add	a5,s2,a5
800004bc:	0007c603          	lbu	a2,0(a5)
800004c0:	01978023          	sb	s9,0(a5)
800004c4:	008a2023          	sw	s0,0(s4)
800004c8:	013aa023          	sw	s3,0(s5)
800004cc:	00b906b3          	add	a3,s2,a1
800004d0:	00c68023          	sb	a2,0(a3)
800004d4:	f5dff06f          	j	80000430 <galton+0x420>
800004d8:	3ff00793          	li	a5,1023
800004dc:	f937c2e3          	blt	a5,s3,80000460 <galton+0x450>
800004e0:	0000c797          	auipc	a5,0xc
800004e4:	c1078793          	addi	a5,a5,-1008 # 8000c0f0 <x>
800004e8:	0007a503          	lw	a0,0(a5)
800004ec:	0000c797          	auipc	a5,0xc
800004f0:	c0878793          	addi	a5,a5,-1016 # 8000c0f4 <y>
800004f4:	0007a483          	lw	s1,0(a5)
800004f8:	00299793          	slli	a5,s3,0x2
800004fc:	00f50933          	add	s2,a0,a5
80000500:	00800713          	li	a4,8
80000504:	00e92023          	sw	a4,0(s2)
80000508:	00f484b3          	add	s1,s1,a5
8000050c:	0004a023          	sw	zero,0(s1)
80000510:	0000c797          	auipc	a5,0xc
80000514:	bd078793          	addi	a5,a5,-1072 # 8000c0e0 <b>
80000518:	0007a403          	lw	s0,0(a5)
8000051c:	00092783          	lw	a5,0(s2)
80000520:	0000c717          	auipc	a4,0xc
80000524:	bc072623          	sw	zero,-1076(a4) # 8000c0ec <step.0>
80000528:	02000713          	li	a4,32
8000052c:	00f407b3          	add	a5,s0,a5
80000530:	0007c783          	lbu	a5,0(a5)
80000534:	0ee78c63          	beq	a5,a4,8000062c <galton+0x61c>
80000538:	561020ef          	jal	ra,80003298 <free>
8000053c:	00040513          	mv	a0,s0
80000540:	06812403          	lw	s0,104(sp)
80000544:	06c12083          	lw	ra,108(sp)
80000548:	06412483          	lw	s1,100(sp)
8000054c:	06012903          	lw	s2,96(sp)
80000550:	05c12983          	lw	s3,92(sp)
80000554:	05812a03          	lw	s4,88(sp)
80000558:	05412a83          	lw	s5,84(sp)
8000055c:	05012b03          	lw	s6,80(sp)
80000560:	04c12b83          	lw	s7,76(sp)
80000564:	04812c03          	lw	s8,72(sp)
80000568:	04412c83          	lw	s9,68(sp)
8000056c:	04012d03          	lw	s10,64(sp)
80000570:	03c12d83          	lw	s11,60(sp)
80000574:	07010113          	addi	sp,sp,112
80000578:	5210206f          	j	80003298 <free>
8000057c:	cf7700e3          	beq	a4,s7,8000025c <galton+0x24c>
80000580:	01748023          	sb	s7,0(s1)
80000584:	00008797          	auipc	a5,0x8
80000588:	1f078793          	addi	a5,a5,496 # 80008774 <buf.1>
8000058c:	0167a023          	sw	s6,0(a5)
80000590:	00478793          	addi	a5,a5,4
80000594:	ccf404e3          	beq	s0,a5,8000025c <galton+0x24c>
80000598:	ff5ff06f          	j	8000058c <galton+0x57c>
8000059c:	fff4c503          	lbu	a0,-1(s1)
800005a0:	e7951ae3          	bne	a0,s9,80000414 <galton+0x404>
800005a4:	fff84783          	lbu	a5,-1(a6)
800005a8:	00000893          	li	a7,0
800005ac:	0d979e63          	bne	a5,s9,80000688 <galton+0x678>
800005b0:	00b12623          	sw	a1,12(sp)
800005b4:	00612423          	sw	t1,8(sp)
800005b8:	01112223          	sw	a7,4(sp)
800005bc:	415020ef          	jal	ra,800031d0 <rand>
800005c0:	00812303          	lw	t1,8(sp)
800005c4:	00412883          	lw	a7,4(sp)
800005c8:	00c12583          	lw	a1,12(sp)
800005cc:	026567b3          	rem	a5,a0,t1
800005d0:	ec0794e3          	bnez	a5,80000498 <galton+0x488>
800005d4:	000a2603          	lw	a2,0(s4)
800005d8:	000aa503          	lw	a0,0(s5)
800005dc:	fff98993          	addi	s3,s3,-1
800005e0:	00461793          	slli	a5,a2,0x4
800005e4:	00c787b3          	add	a5,a5,a2
800005e8:	00a787b3          	add	a5,a5,a0
800005ec:	00b985b3          	add	a1,s3,a1
800005f0:	ec9ff06f          	j	800004b8 <galton+0x4a8>
800005f4:	00f907b3          	add	a5,s2,a5
800005f8:	0007c703          	lbu	a4,0(a5)
800005fc:	01978023          	sb	s9,0(a5)
80000600:	00ca2023          	sw	a2,0(s4)
80000604:	013aa023          	sw	s3,0(s5)
80000608:	00e80023          	sb	a4,0(a6)
8000060c:	e25ff06f          	j	80000430 <galton+0x420>
80000610:	01d00713          	li	a4,29
80000614:	0000cd97          	auipc	s11,0xc
80000618:	ad4d8d93          	addi	s11,s11,-1324 # 8000c0e8 <h>
8000061c:	00f74463          	blt	a4,a5,80000624 <galton+0x614>
80000620:	01e00793          	li	a5,30
80000624:	00fda023          	sw	a5,0(s11)
80000628:	a59ff06f          	j	80000080 <galton+0x70>
8000062c:	3a5020ef          	jal	ra,800031d0 <rand>
80000630:	05000793          	li	a5,80
80000634:	02f56733          	rem	a4,a0,a5
80000638:	0004a683          	lw	a3,0(s1)
8000063c:	00092603          	lw	a2,0(s2)
80000640:	00198993          	addi	s3,s3,1
80000644:	00469793          	slli	a5,a3,0x4
80000648:	00d787b3          	add	a5,a5,a3
8000064c:	00f407b3          	add	a5,s0,a5
80000650:	00c787b3          	add	a5,a5,a2
80000654:	0000c697          	auipc	a3,0xc
80000658:	a9068693          	addi	a3,a3,-1392 # 8000c0e4 <cnt>
8000065c:	000da483          	lw	s1,0(s11)
80000660:	0136a023          	sw	s3,0(a3)
80000664:	02b70713          	addi	a4,a4,43
80000668:	00e78023          	sb	a4,0(a5)
8000066c:	b01ff06f          	j	8000016c <galton+0x15c>
80000670:	fff4c783          	lbu	a5,-1(s1)
80000674:	e39792e3          	bne	a5,s9,80000498 <galton+0x488>
80000678:	fff84783          	lbu	a5,-1(a6)
8000067c:	00130313          	addi	t1,t1,1
80000680:	e1979ce3          	bne	a5,s9,80000498 <galton+0x488>
80000684:	f2dff06f          	j	800005b0 <galton+0x5a0>
80000688:	01100793          	li	a5,17
8000068c:	028787b3          	mul	a5,a5,s0
80000690:	013787b3          	add	a5,a5,s3
80000694:	d81ff06f          	j	80000414 <galton+0x404>

80000698 <text>:
80000698:	f9010113          	addi	sp,sp,-112
8000069c:	00459593          	slli	a1,a1,0x4
800006a0:	07212023          	sw	s2,96(sp)
800006a4:	00858593          	addi	a1,a1,8
800006a8:	00800793          	li	a5,8
800006ac:	06112623          	sw	ra,108(sp)
800006b0:	06812423          	sw	s0,104(sp)
800006b4:	06912223          	sw	s1,100(sp)
800006b8:	05312e23          	sw	s3,92(sp)
800006bc:	05412c23          	sw	s4,88(sp)
800006c0:	05512a23          	sw	s5,84(sp)
800006c4:	05612823          	sw	s6,80(sp)
800006c8:	05712623          	sw	s7,76(sp)
800006cc:	05812423          	sw	s8,72(sp)
800006d0:	05912223          	sw	s9,68(sp)
800006d4:	05a12023          	sw	s10,64(sp)
800006d8:	03b12e23          	sw	s11,60(sp)
800006dc:	00d12423          	sw	a3,8(sp)
800006e0:	40a787b3          	sub	a5,a5,a0
800006e4:	40c58933          	sub	s2,a1,a2
800006e8:	12060e63          	beqz	a2,80000824 <text+0x18c>
800006ec:	00100d93          	li	s11,1
800006f0:	00279a93          	slli	s5,a5,0x2
800006f4:	00010c37          	lui	s8,0x10
800006f8:	40dd87b3          	sub	a5,s11,a3
800006fc:	00c12223          	sw	a2,4(sp)
80000700:	00008497          	auipc	s1,0x8
80000704:	05148493          	addi	s1,s1,81 # 80008751 <last_c.2>
80000708:	00f12623          	sw	a5,12(sp)
8000070c:	00009d97          	auipc	s11,0x9
80000710:	ae8d8d93          	addi	s11,s11,-1304 # 800091f4 <t>
80000714:	fffc0c13          	addi	s8,s8,-1 # ffff <_entry_offset+0xffff>
80000718:	00812783          	lw	a5,8(sp)
8000071c:	0007c683          	lbu	a3,0(a5)
80000720:	0e068a63          	beqz	a3,80000814 <text+0x17c>
80000724:	00c12783          	lw	a5,12(sp)
80000728:	00812d03          	lw	s10,8(sp)
8000072c:	00291c93          	slli	s9,s2,0x2
80000730:	00009a17          	auipc	s4,0x9
80000734:	a84a0a13          	addi	s4,s4,-1404 # 800091b4 <buf.1>
80000738:	012789b3          	add	s3,a5,s2
8000073c:	02000b13          	li	s6,32
80000740:	01900b93          	li	s7,25
80000744:	00500413          	li	s0,5
80000748:	0004c783          	lbu	a5,0(s1)
8000074c:	013d0933          	add	s2,s10,s3
80000750:	08d78663          	beq	a5,a3,800007dc <text+0x144>
80000754:	00d48023          	sb	a3,0(s1)
80000758:	00000713          	li	a4,0
8000075c:	07668663          	beq	a3,s6,800007c8 <text+0x130>
80000760:	0376d7b3          	divu	a5,a3,s7
80000764:	00379713          	slli	a4,a5,0x3
80000768:	40f70733          	sub	a4,a4,a5
8000076c:	00571593          	slli	a1,a4,0x5
80000770:	00b70733          	add	a4,a4,a1
80000774:	00e686b3          	add	a3,a3,a4
80000778:	0ff6f693          	zext.b	a3,a3
8000077c:	0286d5b3          	divu	a1,a3,s0
80000780:	00879713          	slli	a4,a5,0x8
80000784:	00259793          	slli	a5,a1,0x2
80000788:	00f587b3          	add	a5,a1,a5
8000078c:	40f687b3          	sub	a5,a3,a5
80000790:	00859593          	slli	a1,a1,0x8
80000794:	0285c6b3          	div	a3,a1,s0
80000798:	0ff7f793          	zext.b	a5,a5
8000079c:	00879793          	slli	a5,a5,0x8
800007a0:	00ff05b7          	lui	a1,0xff0
800007a4:	02874733          	div	a4,a4,s0
800007a8:	00869693          	slli	a3,a3,0x8
800007ac:	0186f6b3          	and	a3,a3,s8
800007b0:	0287c7b3          	div	a5,a5,s0
800007b4:	01071713          	slli	a4,a4,0x10
800007b8:	00b77733          	and	a4,a4,a1
800007bc:	00d76733          	or	a4,a4,a3
800007c0:	0ff7f793          	zext.b	a5,a5
800007c4:	00f76733          	or	a4,a4,a5
800007c8:	00009797          	auipc	a5,0x9
800007cc:	9ec78793          	addi	a5,a5,-1556 # 800091b4 <buf.1>
800007d0:	00e7a023          	sw	a4,0(a5)
800007d4:	00478793          	addi	a5,a5,4
800007d8:	ffb79ce3          	bne	a5,s11,800007d0 <text+0x138>
800007dc:	00400793          	li	a5,4
800007e0:	01810593          	addi	a1,sp,24
800007e4:	00b00513          	li	a0,11
800007e8:	01912c23          	sw	s9,24(sp)
800007ec:	001d0d13          	addi	s10,s10,1
800007f0:	01512e23          	sw	s5,28(sp)
800007f4:	03412023          	sw	s4,32(sp)
800007f8:	02f12223          	sw	a5,36(sp)
800007fc:	02f12423          	sw	a5,40(sp)
80000800:	02010623          	sb	zero,44(sp)
80000804:	7f4020ef          	jal	ra,80002ff8 <ioe_write>
80000808:	000d4683          	lbu	a3,0(s10)
8000080c:	004c8c93          	addi	s9,s9,4
80000810:	f2069ce3          	bnez	a3,80000748 <text+0xb0>
80000814:	00412783          	lw	a5,4(sp)
80000818:	fff78793          	addi	a5,a5,-1
8000081c:	00f12223          	sw	a5,4(sp)
80000820:	ee079ce3          	bnez	a5,80000718 <text+0x80>
80000824:	06c12083          	lw	ra,108(sp)
80000828:	06812403          	lw	s0,104(sp)
8000082c:	06412483          	lw	s1,100(sp)
80000830:	06012903          	lw	s2,96(sp)
80000834:	05c12983          	lw	s3,92(sp)
80000838:	05812a03          	lw	s4,88(sp)
8000083c:	05412a83          	lw	s5,84(sp)
80000840:	05012b03          	lw	s6,80(sp)
80000844:	04c12b83          	lw	s7,76(sp)
80000848:	04812c03          	lw	s8,72(sp)
8000084c:	04412c83          	lw	s9,68(sp)
80000850:	04012d03          	lw	s10,64(sp)
80000854:	03c12d83          	lw	s11,60(sp)
80000858:	07010113          	addi	sp,sp,112
8000085c:	00008067          	ret

80000860 <add_disk>:
80000860:	00351693          	slli	a3,a0,0x3
80000864:	00a686b3          	add	a3,a3,a0
80000868:	00269693          	slli	a3,a3,0x2
8000086c:	00009797          	auipc	a5,0x9
80000870:	98878793          	addi	a5,a5,-1656 # 800091f4 <t>
80000874:	00d787b3          	add	a5,a5,a3
80000878:	0047a683          	lw	a3,4(a5)
8000087c:	00050713          	mv	a4,a0
80000880:	0007a503          	lw	a0,0(a5)
80000884:	fd010113          	addi	sp,sp,-48
80000888:	02112623          	sw	ra,44(sp)
8000088c:	00168813          	addi	a6,a3,1
80000890:	02812423          	sw	s0,40(sp)
80000894:	02912223          	sw	s1,36(sp)
80000898:	00269693          	slli	a3,a3,0x2
8000089c:	0107a223          	sw	a6,4(a5)
800008a0:	00d50533          	add	a0,a0,a3
800008a4:	00b52023          	sw	a1,0(a0) # ff0000 <_entry_offset+0xff0000>
800008a8:	0047a503          	lw	a0,4(a5)
800008ac:	00058613          	mv	a2,a1
800008b0:	00003697          	auipc	a3,0x3
800008b4:	e6868693          	addi	a3,a3,-408 # 80003718 <_etext>
800008b8:	00070593          	mv	a1,a4
800008bc:	dddff0ef          	jal	ra,80000698 <text>
800008c0:	00100793          	li	a5,1
800008c4:	00b00513          	li	a0,11
800008c8:	00810593          	addi	a1,sp,8
800008cc:	00f10e23          	sb	a5,28(sp)
800008d0:	00012423          	sw	zero,8(sp)
800008d4:	00012623          	sw	zero,12(sp)
800008d8:	00012823          	sw	zero,16(sp)
800008dc:	00012a23          	sw	zero,20(sp)
800008e0:	00012c23          	sw	zero,24(sp)
800008e4:	714020ef          	jal	ra,80002ff8 <ioe_write>
800008e8:	00810593          	addi	a1,sp,8
800008ec:	00600513          	li	a0,6
800008f0:	6ec020ef          	jal	ra,80002fdc <ioe_read>
800008f4:	00812403          	lw	s0,8(sp)
800008f8:	000184b7          	lui	s1,0x18
800008fc:	00c12783          	lw	a5,12(sp)
80000900:	6a048493          	addi	s1,s1,1696 # 186a0 <_entry_offset+0x186a0>
80000904:	009404b3          	add	s1,s0,s1
80000908:	0084b433          	sltu	s0,s1,s0
8000090c:	00f40433          	add	s0,s0,a5
80000910:	00810593          	addi	a1,sp,8
80000914:	00600513          	li	a0,6
80000918:	6c4020ef          	jal	ra,80002fdc <ioe_read>
8000091c:	00c12783          	lw	a5,12(sp)
80000920:	00812703          	lw	a4,8(sp)
80000924:	fe87e6e3          	bltu	a5,s0,80000910 <add_disk+0xb0>
80000928:	00f41463          	bne	s0,a5,80000930 <add_disk+0xd0>
8000092c:	fe9762e3          	bltu	a4,s1,80000910 <add_disk+0xb0>
80000930:	02c12083          	lw	ra,44(sp)
80000934:	02812403          	lw	s0,40(sp)
80000938:	02412483          	lw	s1,36(sp)
8000093c:	03010113          	addi	sp,sp,48
80000940:	00008067          	ret

80000944 <move>:
80000944:	0e050263          	beqz	a0,80000a28 <move+0xe4>
80000948:	fe010113          	addi	sp,sp,-32
8000094c:	00812c23          	sw	s0,24(sp)
80000950:	00912a23          	sw	s1,20(sp)
80000954:	01212823          	sw	s2,16(sp)
80000958:	01312623          	sw	s3,12(sp)
8000095c:	01412423          	sw	s4,8(sp)
80000960:	01512223          	sw	s5,4(sp)
80000964:	00112e23          	sw	ra,28(sp)
80000968:	01612023          	sw	s6,0(sp)
8000096c:	00050493          	mv	s1,a0
80000970:	00058413          	mv	s0,a1
80000974:	00060993          	mv	s3,a2
80000978:	00068913          	mv	s2,a3
8000097c:	00009a97          	auipc	s5,0x9
80000980:	878a8a93          	addi	s5,s5,-1928 # 800091f4 <t>
80000984:	00003a17          	auipc	s4,0x3
80000988:	d98a0a13          	addi	s4,s4,-616 # 8000371c <_etext+0x4>
8000098c:	fff48493          	addi	s1,s1,-1
80000990:	00090613          	mv	a2,s2
80000994:	00098693          	mv	a3,s3
80000998:	00040593          	mv	a1,s0
8000099c:	00048513          	mv	a0,s1
800009a0:	fa5ff0ef          	jal	ra,80000944 <move>
800009a4:	00341793          	slli	a5,s0,0x3
800009a8:	008787b3          	add	a5,a5,s0
800009ac:	00279793          	slli	a5,a5,0x2
800009b0:	00fa87b3          	add	a5,s5,a5
800009b4:	0047a503          	lw	a0,4(a5)
800009b8:	0007a703          	lw	a4,0(a5)
800009bc:	000a0693          	mv	a3,s4
800009c0:	fff50613          	addi	a2,a0,-1
800009c4:	00261593          	slli	a1,a2,0x2
800009c8:	00c7a223          	sw	a2,4(a5)
800009cc:	00b707b3          	add	a5,a4,a1
800009d0:	0007ab03          	lw	s6,0(a5)
800009d4:	00040593          	mv	a1,s0
800009d8:	000b0613          	mv	a2,s6
800009dc:	cbdff0ef          	jal	ra,80000698 <text>
800009e0:	000b0593          	mv	a1,s6
800009e4:	00098513          	mv	a0,s3
800009e8:	e79ff0ef          	jal	ra,80000860 <add_disk>
800009ec:	00090793          	mv	a5,s2
800009f0:	00040913          	mv	s2,s0
800009f4:	00048663          	beqz	s1,80000a00 <move+0xbc>
800009f8:	00078413          	mv	s0,a5
800009fc:	f91ff06f          	j	8000098c <move+0x48>
80000a00:	01c12083          	lw	ra,28(sp)
80000a04:	01812403          	lw	s0,24(sp)
80000a08:	01412483          	lw	s1,20(sp)
80000a0c:	01012903          	lw	s2,16(sp)
80000a10:	00c12983          	lw	s3,12(sp)
80000a14:	00812a03          	lw	s4,8(sp)
80000a18:	00412a83          	lw	s5,4(sp)
80000a1c:	00012b03          	lw	s6,0(sp)
80000a20:	02010113          	addi	sp,sp,32
80000a24:	00008067          	ret
80000a28:	00008067          	ret

80000a2c <hanoi>:
80000a2c:	fc010113          	addi	sp,sp,-64
80000a30:	02812c23          	sw	s0,56(sp)
80000a34:	02912a23          	sw	s1,52(sp)
80000a38:	03212823          	sw	s2,48(sp)
80000a3c:	03312623          	sw	s3,44(sp)
80000a40:	03412423          	sw	s4,40(sp)
80000a44:	02112e23          	sw	ra,60(sp)
80000a48:	03512223          	sw	s5,36(sp)
80000a4c:	00000413          	li	s0,0
80000a50:	00008a17          	auipc	s4,0x8
80000a54:	264a0a13          	addi	s4,s4,612 # 80008cb4 <buf.0>
80000a58:	14000993          	li	s3,320
80000a5c:	00100913          	li	s2,1
80000a60:	0c800493          	li	s1,200
80000a64:	00812623          	sw	s0,12(sp)
80000a68:	00810593          	addi	a1,sp,8
80000a6c:	00140413          	addi	s0,s0,1
80000a70:	00b00513          	li	a0,11
80000a74:	00012423          	sw	zero,8(sp)
80000a78:	01412823          	sw	s4,16(sp)
80000a7c:	01312a23          	sw	s3,20(sp)
80000a80:	01212c23          	sw	s2,24(sp)
80000a84:	00010e23          	sb	zero,28(sp)
80000a88:	570020ef          	jal	ra,80002ff8 <ioe_write>
80000a8c:	fc941ce3          	bne	s0,s1,80000a64 <hanoi+0x38>
80000a90:	00008a17          	auipc	s4,0x8
80000a94:	764a0a13          	addi	s4,s4,1892 # 800091f4 <t>
80000a98:	000a0413          	mv	s0,s4
80000a9c:	00008497          	auipc	s1,0x8
80000aa0:	7c448493          	addi	s1,s1,1988 # 80009260 <buf.0>
80000aa4:	00040513          	mv	a0,s0
80000aa8:	02400613          	li	a2,36
80000aac:	00000593          	li	a1,0
80000ab0:	6ac020ef          	jal	ra,8000315c <memset>
80000ab4:	00840793          	addi	a5,s0,8
80000ab8:	00f42023          	sw	a5,0(s0)
80000abc:	02440413          	addi	s0,s0,36
80000ac0:	fe9412e3          	bne	s0,s1,80000aa4 <hanoi+0x78>
80000ac4:	00700413          	li	s0,7
80000ac8:	00040593          	mv	a1,s0
80000acc:	00000513          	li	a0,0
80000ad0:	fff40413          	addi	s0,s0,-1
80000ad4:	d8dff0ef          	jal	ra,80000860 <add_disk>
80000ad8:	fe0418e3          	bnez	s0,80000ac8 <hanoi+0x9c>
80000adc:	00100913          	li	s2,1
80000ae0:	00700493          	li	s1,7
80000ae4:	00003a97          	auipc	s5,0x3
80000ae8:	c38a8a93          	addi	s5,s5,-968 # 8000371c <_etext+0x4>
80000aec:	fff48493          	addi	s1,s1,-1
80000af0:	00090613          	mv	a2,s2
80000af4:	00040593          	mv	a1,s0
80000af8:	00200693          	li	a3,2
80000afc:	00048513          	mv	a0,s1
80000b00:	e45ff0ef          	jal	ra,80000944 <move>
80000b04:	00341793          	slli	a5,s0,0x3
80000b08:	008787b3          	add	a5,a5,s0
80000b0c:	00279793          	slli	a5,a5,0x2
80000b10:	00fa07b3          	add	a5,s4,a5
80000b14:	0047a503          	lw	a0,4(a5)
80000b18:	0007a703          	lw	a4,0(a5)
80000b1c:	000a8693          	mv	a3,s5
80000b20:	fff50613          	addi	a2,a0,-1
80000b24:	00261593          	slli	a1,a2,0x2
80000b28:	00c7a223          	sw	a2,4(a5)
80000b2c:	00b707b3          	add	a5,a4,a1
80000b30:	0007a983          	lw	s3,0(a5)
80000b34:	00040593          	mv	a1,s0
80000b38:	00098613          	mv	a2,s3
80000b3c:	b5dff0ef          	jal	ra,80000698 <text>
80000b40:	00098593          	mv	a1,s3
80000b44:	00200513          	li	a0,2
80000b48:	d19ff0ef          	jal	ra,80000860 <add_disk>
80000b4c:	00090793          	mv	a5,s2
80000b50:	00040913          	mv	s2,s0
80000b54:	00048663          	beqz	s1,80000b60 <hanoi+0x134>
80000b58:	00078413          	mv	s0,a5
80000b5c:	f91ff06f          	j	80000aec <hanoi+0xc0>
80000b60:	03c12083          	lw	ra,60(sp)
80000b64:	03812403          	lw	s0,56(sp)
80000b68:	03412483          	lw	s1,52(sp)
80000b6c:	03012903          	lw	s2,48(sp)
80000b70:	02c12983          	lw	s3,44(sp)
80000b74:	02812a03          	lw	s4,40(sp)
80000b78:	02412a83          	lw	s5,36(sp)
80000b7c:	04010113          	addi	sp,sp,64
80000b80:	00008067          	ret

80000b84 <bf>:
80000b84:	fa010113          	addi	sp,sp,-96
80000b88:	00c00513          	li	a0,12
80000b8c:	04112e23          	sw	ra,92(sp)
80000b90:	04812c23          	sw	s0,88(sp)
80000b94:	04912a23          	sw	s1,84(sp)
80000b98:	05212823          	sw	s2,80(sp)
80000b9c:	05312623          	sw	s3,76(sp)
80000ba0:	05412423          	sw	s4,72(sp)
80000ba4:	05512223          	sw	s5,68(sp)
80000ba8:	05612023          	sw	s6,64(sp)
80000bac:	03712e23          	sw	s7,60(sp)
80000bb0:	03812c23          	sw	s8,56(sp)
80000bb4:	03912a23          	sw	s9,52(sp)
80000bb8:	03a12823          	sw	s10,48(sp)
80000bbc:	03b12623          	sw	s11,44(sp)
80000bc0:	644020ef          	jal	ra,80003204 <malloc>
80000bc4:	00c00613          	li	a2,12
80000bc8:	00000593          	li	a1,0
80000bcc:	00050493          	mv	s1,a0
80000bd0:	00000413          	li	s0,0
80000bd4:	588020ef          	jal	ra,8000315c <memset>
80000bd8:	00008a97          	auipc	s5,0x8
80000bdc:	6c8a8a93          	addi	s5,s5,1736 # 800092a0 <buf.4>
80000be0:	14000a13          	li	s4,320
80000be4:	00100993          	li	s3,1
80000be8:	0c800913          	li	s2,200
80000bec:	00812623          	sw	s0,12(sp)
80000bf0:	00810593          	addi	a1,sp,8
80000bf4:	00140413          	addi	s0,s0,1
80000bf8:	00b00513          	li	a0,11
80000bfc:	00012423          	sw	zero,8(sp)
80000c00:	01512823          	sw	s5,16(sp)
80000c04:	01412a23          	sw	s4,20(sp)
80000c08:	01312c23          	sw	s3,24(sp)
80000c0c:	00010e23          	sb	zero,28(sp)
80000c10:	3e8020ef          	jal	ra,80002ff8 <ioe_write>
80000c14:	fd241ce3          	bne	s0,s2,80000bec <bf+0x68>
80000c18:	00003c17          	auipc	s8,0x3
80000c1c:	b09c0c13          	addi	s8,s8,-1271 # 80003721 <_etext+0x9>
80000c20:	000a0b37          	lui	s6,0xa0
80000c24:	02000413          	li	s0,32
80000c28:	00000913          	li	s2,0
80000c2c:	00000c93          	li	s9,0
80000c30:	00000a13          	li	s4,0
80000c34:	05b00d13          	li	s10,91
80000c38:	05d00a93          	li	s5,93
80000c3c:	01300b93          	li	s7,19
80000c40:	00fb0b13          	addi	s6,s6,15 # a000f <_entry_offset+0xa000f>
80000c44:	001c0c13          	addi	s8,s8,1
80000c48:	04040a63          	beqz	s0,80000c9c <bf+0x118>
80000c4c:	01a40863          	beq	s0,s10,80000c5c <bf+0xd8>
80000c50:	0e8d7663          	bgeu	s10,s0,80000d3c <bf+0x1b8>
80000c54:	03541e63          	bne	s0,s5,80000c90 <bf+0x10c>
80000c58:	020c8c63          	beqz	s9,80000c90 <bf+0x10c>
80000c5c:	00c00513          	li	a0,12
80000c60:	5a4020ef          	jal	ra,80003204 <malloc>
80000c64:	00050993          	mv	s3,a0
80000c68:	3a050063          	beqz	a0,80001008 <bf+0x484>
80000c6c:	00c00613          	li	a2,12
80000c70:	00000593          	li	a1,0
80000c74:	4e8020ef          	jal	ra,8000315c <memset>
80000c78:	0e0a0c63          	beqz	s4,80000d70 <bf+0x1ec>
80000c7c:	013a2223          	sw	s3,4(s4)
80000c80:	00898023          	sb	s0,0(s3)
80000c84:	0da40c63          	beq	s0,s10,80000d5c <bf+0x1d8>
80000c88:	00098a13          	mv	s4,s3
80000c8c:	09540c63          	beq	s0,s5,80000d24 <bf+0x1a0>
80000c90:	000c4403          	lbu	s0,0(s8)
80000c94:	001c0c13          	addi	s8,s8,1
80000c98:	fa041ae3          	bnez	s0,80000c4c <bf+0xc8>
80000c9c:	02000713          	li	a4,32
80000ca0:	000c8c63          	beqz	s9,80000cb8 <bf+0x134>
80000ca4:	000c8793          	mv	a5,s9
80000ca8:	008cac83          	lw	s9,8(s9)
80000cac:	0007a423          	sw	zero,8(a5)
80000cb0:	00e78023          	sb	a4,0(a5)
80000cb4:	fe0c98e3          	bnez	s9,80000ca4 <bf+0x120>
80000cb8:	00048b13          	mv	s6,s1
80000cbc:	00090413          	mv	s0,s2
80000cc0:	34090063          	beqz	s2,80001000 <bf+0x47c>
80000cc4:	000109b7          	lui	s3,0x10
80000cc8:	00006b97          	auipc	s7,0x6
80000ccc:	824b8b93          	addi	s7,s7,-2012 # 800064ec <_etext+0x2dd4>
80000cd0:	0000bd17          	auipc	s10,0xb
80000cd4:	428d0d13          	addi	s10,s10,1064 # 8000c0f8 <x.2>
80000cd8:	0000bd97          	auipc	s11,0xb
80000cdc:	424d8d93          	addi	s11,s11,1060 # 8000c0fc <y.3>
80000ce0:	00008a17          	auipc	s4,0x8
80000ce4:	a72a0a13          	addi	s4,s4,-1422 # 80008752 <last_c.1>
80000ce8:	00008a97          	auipc	s5,0x8
80000cec:	578a8a93          	addi	s5,s5,1400 # 80009260 <buf.0>
80000cf0:	00008c97          	auipc	s9,0x8
80000cf4:	5b0c8c93          	addi	s9,s9,1456 # 800092a0 <buf.4>
80000cf8:	fff98993          	addi	s3,s3,-1 # ffff <_entry_offset+0xffff>
80000cfc:	00044783          	lbu	a5,0(s0)
80000d00:	03200713          	li	a4,50
80000d04:	fd578793          	addi	a5,a5,-43
80000d08:	0ff7f793          	zext.b	a5,a5
80000d0c:	06f76c63          	bltu	a4,a5,80000d84 <bf+0x200>
80000d10:	00279793          	slli	a5,a5,0x2
80000d14:	017787b3          	add	a5,a5,s7
80000d18:	0007a783          	lw	a5,0(a5)
80000d1c:	017787b3          	add	a5,a5,s7
80000d20:	00078067          	jr	a5
80000d24:	0199a423          	sw	s9,8(s3)
80000d28:	008ca783          	lw	a5,8(s9)
80000d2c:	000c4403          	lbu	s0,0(s8)
80000d30:	013ca423          	sw	s3,8(s9)
80000d34:	00078c93          	mv	s9,a5
80000d38:	f5dff06f          	j	80000c94 <bf+0x110>
80000d3c:	fd540793          	addi	a5,s0,-43
80000d40:	0ff7f793          	zext.b	a5,a5
80000d44:	f4fbe6e3          	bltu	s7,a5,80000c90 <bf+0x10c>
80000d48:	00fb57b3          	srl	a5,s6,a5
80000d4c:	0017f793          	andi	a5,a5,1
80000d50:	f00796e3          	bnez	a5,80000c5c <bf+0xd8>
80000d54:	000c4403          	lbu	s0,0(s8)
80000d58:	f3dff06f          	j	80000c94 <bf+0x110>
80000d5c:	0199a423          	sw	s9,8(s3)
80000d60:	000c4403          	lbu	s0,0(s8)
80000d64:	00098c93          	mv	s9,s3
80000d68:	00098a13          	mv	s4,s3
80000d6c:	f29ff06f          	j	80000c94 <bf+0x110>
80000d70:	00098913          	mv	s2,s3
80000d74:	f0dff06f          	j	80000c80 <bf+0xfc>
80000d78:	000b4783          	lbu	a5,0(s6)
80000d7c:	00178793          	addi	a5,a5,1
80000d80:	00fb0023          	sb	a5,0(s6)
80000d84:	00442403          	lw	s0,4(s0)
80000d88:	f6041ae3          	bnez	s0,80000cfc <bf+0x178>
80000d8c:	00048c63          	beqz	s1,80000da4 <bf+0x220>
80000d90:	00048513          	mv	a0,s1
80000d94:	0044a483          	lw	s1,4(s1)
80000d98:	500020ef          	jal	ra,80003298 <free>
80000d9c:	fe049ae3          	bnez	s1,80000d90 <bf+0x20c>
80000da0:	00090a63          	beqz	s2,80000db4 <bf+0x230>
80000da4:	00090513          	mv	a0,s2
80000da8:	00492903          	lw	s2,4(s2)
80000dac:	4ec020ef          	jal	ra,80003298 <free>
80000db0:	fe091ae3          	bnez	s2,80000da4 <bf+0x220>
80000db4:	05c12083          	lw	ra,92(sp)
80000db8:	05812403          	lw	s0,88(sp)
80000dbc:	05412483          	lw	s1,84(sp)
80000dc0:	05012903          	lw	s2,80(sp)
80000dc4:	04c12983          	lw	s3,76(sp)
80000dc8:	04812a03          	lw	s4,72(sp)
80000dcc:	04412a83          	lw	s5,68(sp)
80000dd0:	04012b03          	lw	s6,64(sp)
80000dd4:	03c12b83          	lw	s7,60(sp)
80000dd8:	03812c03          	lw	s8,56(sp)
80000ddc:	03412c83          	lw	s9,52(sp)
80000de0:	03012d03          	lw	s10,48(sp)
80000de4:	02c12d83          	lw	s11,44(sp)
80000de8:	06010113          	addi	sp,sp,96
80000dec:	00008067          	ret
80000df0:	000b4783          	lbu	a5,0(s6)
80000df4:	f80788e3          	beqz	a5,80000d84 <bf+0x200>
80000df8:	00842403          	lw	s0,8(s0)
80000dfc:	00442403          	lw	s0,4(s0)
80000e00:	ee041ee3          	bnez	s0,80000cfc <bf+0x178>
80000e04:	f89ff06f          	j	80000d8c <bf+0x208>
80000e08:	000b4783          	lbu	a5,0(s6)
80000e0c:	f6079ce3          	bnez	a5,80000d84 <bf+0x200>
80000e10:	00842403          	lw	s0,8(s0)
80000e14:	fe9ff06f          	j	80000dfc <bf+0x278>
80000e18:	004b2783          	lw	a5,4(s6)
80000e1c:	08078863          	beqz	a5,80000eac <bf+0x328>
80000e20:	00078b13          	mv	s6,a5
80000e24:	00442403          	lw	s0,4(s0)
80000e28:	ec041ae3          	bnez	s0,80000cfc <bf+0x178>
80000e2c:	f61ff06f          	j	80000d8c <bf+0x208>
80000e30:	008b2b03          	lw	s6,8(s6)
80000e34:	f40b18e3          	bnez	s6,80000d84 <bf+0x200>
80000e38:	00005517          	auipc	a0,0x5
80000e3c:	6a050513          	addi	a0,a0,1696 # 800064d8 <_etext+0x2dc0>
80000e40:	45c020ef          	jal	ra,8000329c <printf>
80000e44:	00100513          	li	a0,1
80000e48:	078020ef          	jal	ra,80002ec0 <halt>
80000e4c:	000b4683          	lbu	a3,0(s6)
80000e50:	00a00793          	li	a5,10
80000e54:	08f68263          	beq	a3,a5,80000ed8 <bf+0x354>
80000e58:	000d2783          	lw	a5,0(s10)
80000e5c:	0017f713          	andi	a4,a5,1
80000e60:	08070c63          	beqz	a4,80000ef8 <bf+0x374>
80000e64:	00442403          	lw	s0,4(s0)
80000e68:	00178793          	addi	a5,a5,1
80000e6c:	00fd2023          	sw	a5,0(s10)
80000e70:	e80416e3          	bnez	s0,80000cfc <bf+0x178>
80000e74:	f19ff06f          	j	80000d8c <bf+0x208>
80000e78:	000b4783          	lbu	a5,0(s6)
80000e7c:	fff78793          	addi	a5,a5,-1
80000e80:	00fb0023          	sb	a5,0(s6)
80000e84:	00442403          	lw	s0,4(s0)
80000e88:	e6041ae3          	bnez	s0,80000cfc <bf+0x178>
80000e8c:	f01ff06f          	j	80000d8c <bf+0x208>
80000e90:	000c4783          	lbu	a5,0(s8)
80000e94:	001c0c13          	addi	s8,s8,1
80000e98:	ee0786e3          	beqz	a5,80000d84 <bf+0x200>
80000e9c:	00fb0023          	sb	a5,0(s6)
80000ea0:	00442403          	lw	s0,4(s0)
80000ea4:	e4041ce3          	bnez	s0,80000cfc <bf+0x178>
80000ea8:	ee5ff06f          	j	80000d8c <bf+0x208>
80000eac:	00c00513          	li	a0,12
80000eb0:	354020ef          	jal	ra,80003204 <malloc>
80000eb4:	00ab2223          	sw	a0,4(s6)
80000eb8:	14050863          	beqz	a0,80001008 <bf+0x484>
80000ebc:	00c00613          	li	a2,12
80000ec0:	00000593          	li	a1,0
80000ec4:	298020ef          	jal	ra,8000315c <memset>
80000ec8:	004b2783          	lw	a5,4(s6)
80000ecc:	0167a423          	sw	s6,8(a5)
80000ed0:	00078b13          	mv	s6,a5
80000ed4:	f51ff06f          	j	80000e24 <bf+0x2a0>
80000ed8:	000da783          	lw	a5,0(s11)
80000edc:	00442403          	lw	s0,4(s0)
80000ee0:	0000b717          	auipc	a4,0xb
80000ee4:	20072c23          	sw	zero,536(a4) # 8000c0f8 <x.2>
80000ee8:	00178793          	addi	a5,a5,1
80000eec:	00fda023          	sw	a5,0(s11)
80000ef0:	e00416e3          	bnez	s0,80000cfc <bf+0x178>
80000ef4:	e99ff06f          	j	80000d8c <bf+0x208>
80000ef8:	000a4503          	lbu	a0,0(s4)
80000efc:	01f7d613          	srli	a2,a5,0x1f
80000f00:	00f60633          	add	a2,a2,a5
80000f04:	000da583          	lw	a1,0(s11)
80000f08:	40165613          	srai	a2,a2,0x1
80000f0c:	08d50a63          	beq	a0,a3,80000fa0 <bf+0x41c>
80000f10:	00da0023          	sb	a3,0(s4)
80000f14:	02000793          	li	a5,32
80000f18:	06f68a63          	beq	a3,a5,80000f8c <bf+0x408>
80000f1c:	01900793          	li	a5,25
80000f20:	02f6d7b3          	divu	a5,a3,a5
80000f24:	00500813          	li	a6,5
80000f28:	00379713          	slli	a4,a5,0x3
80000f2c:	40f70733          	sub	a4,a4,a5
80000f30:	00571513          	slli	a0,a4,0x5
80000f34:	00a70733          	add	a4,a4,a0
80000f38:	00e686b3          	add	a3,a3,a4
80000f3c:	0ff6f693          	zext.b	a3,a3
80000f40:	0306d533          	divu	a0,a3,a6
80000f44:	00879713          	slli	a4,a5,0x8
80000f48:	00251793          	slli	a5,a0,0x2
80000f4c:	00f507b3          	add	a5,a0,a5
80000f50:	40f687b3          	sub	a5,a3,a5
80000f54:	00851513          	slli	a0,a0,0x8
80000f58:	030546b3          	div	a3,a0,a6
80000f5c:	0ff7f793          	zext.b	a5,a5
80000f60:	00879793          	slli	a5,a5,0x8
80000f64:	00ff0537          	lui	a0,0xff0
80000f68:	03074733          	div	a4,a4,a6
80000f6c:	00869693          	slli	a3,a3,0x8
80000f70:	0136f6b3          	and	a3,a3,s3
80000f74:	0307c7b3          	div	a5,a5,a6
80000f78:	01071713          	slli	a4,a4,0x10
80000f7c:	00a77733          	and	a4,a4,a0
80000f80:	00d76733          	or	a4,a4,a3
80000f84:	0ff7f793          	zext.b	a5,a5
80000f88:	00f76733          	or	a4,a4,a5
80000f8c:	00008797          	auipc	a5,0x8
80000f90:	2d478793          	addi	a5,a5,724 # 80009260 <buf.0>
80000f94:	00e7a023          	sw	a4,0(a5)
80000f98:	00478793          	addi	a5,a5,4
80000f9c:	ff979ce3          	bne	a5,s9,80000f94 <bf+0x410>
80000fa0:	00259713          	slli	a4,a1,0x2
80000fa4:	00400793          	li	a5,4
80000fa8:	00261613          	slli	a2,a2,0x2
80000fac:	00810593          	addi	a1,sp,8
80000fb0:	00b00513          	li	a0,11
80000fb4:	00c12423          	sw	a2,8(sp)
80000fb8:	00e12623          	sw	a4,12(sp)
80000fbc:	00f12a23          	sw	a5,20(sp)
80000fc0:	00f12c23          	sw	a5,24(sp)
80000fc4:	01512823          	sw	s5,16(sp)
80000fc8:	00010e23          	sb	zero,28(sp)
80000fcc:	02c020ef          	jal	ra,80002ff8 <ioe_write>
80000fd0:	00100793          	li	a5,1
80000fd4:	00810593          	addi	a1,sp,8
80000fd8:	00b00513          	li	a0,11
80000fdc:	00f10e23          	sb	a5,28(sp)
80000fe0:	00012423          	sw	zero,8(sp)
80000fe4:	00012623          	sw	zero,12(sp)
80000fe8:	00012823          	sw	zero,16(sp)
80000fec:	00012a23          	sw	zero,20(sp)
80000ff0:	00012c23          	sw	zero,24(sp)
80000ff4:	004020ef          	jal	ra,80002ff8 <ioe_write>
80000ff8:	000d2783          	lw	a5,0(s10)
80000ffc:	e69ff06f          	j	80000e64 <bf+0x2e0>
80001000:	d80498e3          	bnez	s1,80000d90 <bf+0x20c>
80001004:	db1ff06f          	j	80000db4 <bf+0x230>
80001008:	00005517          	auipc	a0,0x5
8000100c:	4b450513          	addi	a0,a0,1204 # 800064bc <_etext+0x2da4>
80001010:	28c020ef          	jal	ra,8000329c <printf>
80001014:	00100513          	li	a0,1
80001018:	6a9010ef          	jal	ra,80002ec0 <halt>

8000101c <ant>:
8000101c:	f7010113          	addi	sp,sp,-144
80001020:	03810593          	addi	a1,sp,56
80001024:	00900513          	li	a0,9
80001028:	08112623          	sw	ra,140(sp)
8000102c:	08812423          	sw	s0,136(sp)
80001030:	08912223          	sw	s1,132(sp)
80001034:	09212023          	sw	s2,128(sp)
80001038:	07312e23          	sw	s3,124(sp)
8000103c:	07412c23          	sw	s4,120(sp)
80001040:	07512a23          	sw	s5,116(sp)
80001044:	07612823          	sw	s6,112(sp)
80001048:	07712623          	sw	s7,108(sp)
8000104c:	07812423          	sw	s8,104(sp)
80001050:	07912223          	sw	s9,100(sp)
80001054:	07a12023          	sw	s10,96(sp)
80001058:	05b12e23          	sw	s11,92(sp)
8000105c:	781010ef          	jal	ra,80002fdc <ioe_read>
80001060:	03c12703          	lw	a4,60(sp)
80001064:	03810593          	addi	a1,sp,56
80001068:	00007997          	auipc	s3,0x7
8000106c:	6f898993          	addi	s3,s3,1784 # 80008760 <w>
80001070:	41f75793          	srai	a5,a4,0x1f
80001074:	0037f793          	andi	a5,a5,3
80001078:	00e787b3          	add	a5,a5,a4
8000107c:	4027d793          	srai	a5,a5,0x2
80001080:	00900513          	li	a0,9
80001084:	00f9a023          	sw	a5,0(s3)
80001088:	755010ef          	jal	ra,80002fdc <ioe_read>
8000108c:	04012583          	lw	a1,64(sp)
80001090:	0009a503          	lw	a0,0(s3)
80001094:	00007617          	auipc	a2,0x7
80001098:	6c460613          	addi	a2,a2,1732 # 80008758 <h>
8000109c:	41f5d793          	srai	a5,a1,0x1f
800010a0:	0037f713          	andi	a4,a5,3
800010a4:	00b70733          	add	a4,a4,a1
800010a8:	40275713          	srai	a4,a4,0x2
800010ac:	02e504b3          	mul	s1,a0,a4
800010b0:	01f55693          	srli	a3,a0,0x1f
800010b4:	0077f793          	andi	a5,a5,7
800010b8:	00a686b3          	add	a3,a3,a0
800010bc:	00b787b3          	add	a5,a5,a1
800010c0:	00e62023          	sw	a4,0(a2)
800010c4:	4037d793          	srai	a5,a5,0x3
800010c8:	4016d713          	srai	a4,a3,0x1
800010cc:	00e12623          	sw	a4,12(sp)
800010d0:	00f12823          	sw	a5,16(sp)
800010d4:	00048513          	mv	a0,s1
800010d8:	12c020ef          	jal	ra,80003204 <malloc>
800010dc:	00048613          	mv	a2,s1
800010e0:	0000ba97          	auipc	s5,0xb
800010e4:	020a8a93          	addi	s5,s5,32 # 8000c100 <pix>
800010e8:	00000593          	li	a1,0
800010ec:	00aaa023          	sw	a0,0(s5)
800010f0:	00000413          	li	s0,0
800010f4:	00008497          	auipc	s1,0x8
800010f8:	6ec48493          	addi	s1,s1,1772 # 800097e0 <buf.2>
800010fc:	060020ef          	jal	ra,8000315c <memset>
80001100:	14000b13          	li	s6,320
80001104:	00100a13          	li	s4,1
80001108:	0c800913          	li	s2,200
8000110c:	02812e23          	sw	s0,60(sp)
80001110:	03810593          	addi	a1,sp,56
80001114:	00140413          	addi	s0,s0,1
80001118:	00b00513          	li	a0,11
8000111c:	02012c23          	sw	zero,56(sp)
80001120:	04912023          	sw	s1,64(sp)
80001124:	05612223          	sw	s6,68(sp)
80001128:	05412423          	sw	s4,72(sp)
8000112c:	04010623          	sb	zero,76(sp)
80001130:	6c9010ef          	jal	ra,80002ff8 <ioe_write>
80001134:	fd241ce3          	bne	s0,s2,8000110c <ant+0xf0>
80001138:	00100793          	li	a5,1
8000113c:	00f12c23          	sw	a5,24(sp)
80001140:	01012783          	lw	a5,16(sp)
80001144:	00336d37          	lui	s10,0x336
80001148:	00012a23          	sw	zero,20(sp)
8000114c:	00178793          	addi	a5,a5,1
80001150:	02f12023          	sw	a5,32(sp)
80001154:	00c12783          	lw	a5,12(sp)
80001158:	00007417          	auipc	s0,0x7
8000115c:	5fb40413          	addi	s0,s0,1531 # 80008753 <last_c.1>
80001160:	00008b17          	auipc	s6,0x8
80001164:	640b0b13          	addi	s6,s6,1600 # 800097a0 <buf.0>
80001168:	00178793          	addi	a5,a5,1
8000116c:	00f12e23          	sw	a5,28(sp)
80001170:	00cc67b7          	lui	a5,0xcc6
80001174:	63378793          	addi	a5,a5,1587 # cc6633 <_entry_offset+0xcc6633>
80001178:	02f12623          	sw	a5,44(sp)
8000117c:	600d0793          	addi	a5,s10,1536 # 336600 <_entry_offset+0x336600>
80001180:	00f12223          	sw	a5,4(sp)
80001184:	0033a7b7          	lui	a5,0x33a
80001188:	99978793          	addi	a5,a5,-1639 # 339999 <_entry_offset+0x339999>
8000118c:	00008917          	auipc	s2,0x8
80001190:	65490913          	addi	s2,s2,1620 # 800097e0 <buf.2>
80001194:	00f12423          	sw	a5,8(sp)
80001198:	01012603          	lw	a2,16(sp)
8000119c:	0009a703          	lw	a4,0(s3)
800011a0:	000aa783          	lw	a5,0(s5)
800011a4:	00044683          	lbu	a3,0(s0)
800011a8:	02e60733          	mul	a4,a2,a4
800011ac:	00c12603          	lw	a2,12(sp)
800011b0:	00c70733          	add	a4,a4,a2
800011b4:	00e787b3          	add	a5,a5,a4
800011b8:	0007c703          	lbu	a4,0(a5)
800011bc:	1a070c63          	beqz	a4,80001374 <ant+0x358>
800011c0:	00078023          	sb	zero,0(a5)
800011c4:	01812783          	lw	a5,24(sp)
800011c8:	02000713          	li	a4,32
800011cc:	40f007b3          	neg	a5,a5
800011d0:	32e68063          	beq	a3,a4,800014f0 <ant+0x4d4>
800011d4:	01412703          	lw	a4,20(sp)
800011d8:	02000693          	li	a3,32
800011dc:	00f12a23          	sw	a5,20(sp)
800011e0:	00e12c23          	sw	a4,24(sp)
800011e4:	00000713          	li	a4,0
800011e8:	00d40023          	sb	a3,0(s0)
800011ec:	00008797          	auipc	a5,0x8
800011f0:	5b478793          	addi	a5,a5,1460 # 800097a0 <buf.0>
800011f4:	00e7a023          	sw	a4,0(a5)
800011f8:	00478793          	addi	a5,a5,4
800011fc:	ff279ce3          	bne	a5,s2,800011f4 <ant+0x1d8>
80001200:	01c12703          	lw	a4,28(sp)
80001204:	00400793          	li	a5,4
80001208:	00c12603          	lw	a2,12(sp)
8000120c:	00271693          	slli	a3,a4,0x2
80001210:	02012703          	lw	a4,32(sp)
80001214:	01412803          	lw	a6,20(sp)
80001218:	04f12223          	sw	a5,68(sp)
8000121c:	00271713          	slli	a4,a4,0x2
80001220:	02e12e23          	sw	a4,60(sp)
80001224:	04f12423          	sw	a5,72(sp)
80001228:	01812703          	lw	a4,24(sp)
8000122c:	01012783          	lw	a5,16(sp)
80001230:	01060a33          	add	s4,a2,a6
80001234:	03810593          	addi	a1,sp,56
80001238:	00e787b3          	add	a5,a5,a4
8000123c:	00b00513          	li	a0,11
80001240:	00f12823          	sw	a5,16(sp)
80001244:	01412623          	sw	s4,12(sp)
80001248:	02d12c23          	sw	a3,56(sp)
8000124c:	05612023          	sw	s6,64(sp)
80001250:	04010623          	sb	zero,76(sp)
80001254:	5a5010ef          	jal	ra,80002ff8 <ioe_write>
80001258:	00007797          	auipc	a5,0x7
8000125c:	50078793          	addi	a5,a5,1280 # 80008758 <h>
80001260:	0009ac03          	lw	s8,0(s3)
80001264:	0007ab83          	lw	s7,0(a5)
80001268:	340a4e63          	bltz	s4,800015c4 <ant+0x5a8>
8000126c:	00c12783          	lw	a5,12(sp)
80001270:	2f87d463          	bge	a5,s8,80001558 <ant+0x53c>
80001274:	00c12783          	lw	a5,12(sp)
80001278:	00178793          	addi	a5,a5,1
8000127c:	00f12e23          	sw	a5,28(sp)
80001280:	02f12223          	sw	a5,36(sp)
80001284:	01012783          	lw	a5,16(sp)
80001288:	1177de63          	bge	a5,s7,800013a4 <ant+0x388>
8000128c:	01012703          	lw	a4,16(sp)
80001290:	00170793          	addi	a5,a4,1
80001294:	02f12023          	sw	a5,32(sp)
80001298:	02f12423          	sw	a5,40(sp)
8000129c:	26074a63          	bltz	a4,80001510 <ant+0x4f4>
800012a0:	00044703          	lbu	a4,0(s0)
800012a4:	02b00793          	li	a5,43
800012a8:	02f70063          	beq	a4,a5,800012c8 <ant+0x2ac>
800012ac:	00f40023          	sb	a5,0(s0)
800012b0:	00008797          	auipc	a5,0x8
800012b4:	4f078793          	addi	a5,a5,1264 # 800097a0 <buf.0>
800012b8:	00812703          	lw	a4,8(sp)
800012bc:	00478793          	addi	a5,a5,4
800012c0:	fee7ae23          	sw	a4,-4(a5)
800012c4:	ff279ae3          	bne	a5,s2,800012b8 <ant+0x29c>
800012c8:	02412703          	lw	a4,36(sp)
800012cc:	00400793          	li	a5,4
800012d0:	03810593          	addi	a1,sp,56
800012d4:	00271693          	slli	a3,a4,0x2
800012d8:	02812703          	lw	a4,40(sp)
800012dc:	00b00513          	li	a0,11
800012e0:	02d12c23          	sw	a3,56(sp)
800012e4:	00271713          	slli	a4,a4,0x2
800012e8:	02e12e23          	sw	a4,60(sp)
800012ec:	04f12223          	sw	a5,68(sp)
800012f0:	04f12423          	sw	a5,72(sp)
800012f4:	05612023          	sw	s6,64(sp)
800012f8:	04010623          	sb	zero,76(sp)
800012fc:	4fd010ef          	jal	ra,80002ff8 <ioe_write>
80001300:	00100793          	li	a5,1
80001304:	00b00513          	li	a0,11
80001308:	03810593          	addi	a1,sp,56
8000130c:	04f10623          	sb	a5,76(sp)
80001310:	02012c23          	sw	zero,56(sp)
80001314:	02012e23          	sw	zero,60(sp)
80001318:	04012023          	sw	zero,64(sp)
8000131c:	04012223          	sw	zero,68(sp)
80001320:	04012423          	sw	zero,72(sp)
80001324:	4d5010ef          	jal	ra,80002ff8 <ioe_write>
80001328:	03810593          	addi	a1,sp,56
8000132c:	00600513          	li	a0,6
80001330:	4ad010ef          	jal	ra,80002fdc <ioe_read>
80001334:	03812783          	lw	a5,56(sp)
80001338:	00002737          	lui	a4,0x2
8000133c:	71070713          	addi	a4,a4,1808 # 2710 <_entry_offset+0x2710>
80001340:	00e78bb3          	add	s7,a5,a4
80001344:	03c12703          	lw	a4,60(sp)
80001348:	00fbb7b3          	sltu	a5,s7,a5
8000134c:	00e78a33          	add	s4,a5,a4
80001350:	03810593          	addi	a1,sp,56
80001354:	00600513          	li	a0,6
80001358:	485010ef          	jal	ra,80002fdc <ioe_read>
8000135c:	03c12783          	lw	a5,60(sp)
80001360:	03812703          	lw	a4,56(sp)
80001364:	ff47e6e3          	bltu	a5,s4,80001350 <ant+0x334>
80001368:	e2fa18e3          	bne	s4,a5,80001198 <ant+0x17c>
8000136c:	ff7762e3          	bltu	a4,s7,80001350 <ant+0x334>
80001370:	e29ff06f          	j	80001198 <ant+0x17c>
80001374:	00100713          	li	a4,1
80001378:	00e78023          	sb	a4,0(a5)
8000137c:	01412783          	lw	a5,20(sp)
80001380:	06f00713          	li	a4,111
80001384:	40f007b3          	neg	a5,a5
80001388:	16e68c63          	beq	a3,a4,80001500 <ant+0x4e4>
8000138c:	01812703          	lw	a4,24(sp)
80001390:	06f00693          	li	a3,111
80001394:	00f12c23          	sw	a5,24(sp)
80001398:	00e12a23          	sw	a4,20(sp)
8000139c:	02c12703          	lw	a4,44(sp)
800013a0:	e49ff06f          	j	800011e8 <ant+0x1cc>
800013a4:	000aaa03          	lw	s4,0(s5)
800013a8:	fffb8b93          	addi	s7,s7,-1
800013ac:	038b8bb3          	mul	s7,s7,s8
800013b0:	01012783          	lw	a5,16(sp)
800013b4:	018a05b3          	add	a1,s4,s8
800013b8:	000a0513          	mv	a0,s4
800013bc:	02f12423          	sw	a5,40(sp)
800013c0:	fff78793          	addi	a5,a5,-1
800013c4:	00f12823          	sw	a5,16(sp)
800013c8:	00178793          	addi	a5,a5,1
800013cc:	02f12023          	sw	a5,32(sp)
800013d0:	000b8613          	mv	a2,s7
800013d4:	5a9010ef          	jal	ra,8000317c <memmove>
800013d8:	000c0613          	mv	a2,s8
800013dc:	00000593          	li	a1,0
800013e0:	017a0533          	add	a0,s4,s7
800013e4:	579010ef          	jal	ra,8000315c <memset>
800013e8:	00000c93          	li	s9,0
800013ec:	14000c13          	li	s8,320
800013f0:	00100b93          	li	s7,1
800013f4:	0c800a13          	li	s4,200
800013f8:	03912e23          	sw	s9,60(sp)
800013fc:	03810593          	addi	a1,sp,56
80001400:	001c8c93          	addi	s9,s9,1
80001404:	00b00513          	li	a0,11
80001408:	02012c23          	sw	zero,56(sp)
8000140c:	04912023          	sw	s1,64(sp)
80001410:	05812223          	sw	s8,68(sp)
80001414:	05712423          	sw	s7,72(sp)
80001418:	04010623          	sb	zero,76(sp)
8000141c:	3dd010ef          	jal	ra,80002ff8 <ioe_write>
80001420:	fd4c9ce3          	bne	s9,s4,800013f8 <ant+0x3dc>
80001424:	00007797          	auipc	a5,0x7
80001428:	33478793          	addi	a5,a5,820 # 80008758 <h>
8000142c:	0007a783          	lw	a5,0(a5)
80001430:	00000d93          	li	s11,0
80001434:	00000c93          	li	s9,0
80001438:	02300c13          	li	s8,35
8000143c:	e6f052e3          	blez	a5,800012a0 <ant+0x284>
80001440:	0009a703          	lw	a4,0(s3)
80001444:	002c9a13          	slli	s4,s9,0x2
80001448:	00000b93          	li	s7,0
8000144c:	00400d13          	li	s10,4
80001450:	06e05c63          	blez	a4,800014c8 <ant+0x4ac>
80001454:	000aa703          	lw	a4,0(s5)
80001458:	00044583          	lbu	a1,0(s0)
8000145c:	01b70733          	add	a4,a4,s11
80001460:	00074703          	lbu	a4,0(a4)
80001464:	06071e63          	bnez	a4,800014e0 <ant+0x4c4>
80001468:	02000793          	li	a5,32
8000146c:	02000713          	li	a4,32
80001470:	00000513          	li	a0,0
80001474:	00f58e63          	beq	a1,a5,80001490 <ant+0x474>
80001478:	00e40023          	sb	a4,0(s0)
8000147c:	00008717          	auipc	a4,0x8
80001480:	32470713          	addi	a4,a4,804 # 800097a0 <buf.0>
80001484:	00a72023          	sw	a0,0(a4)
80001488:	00470713          	addi	a4,a4,4
8000148c:	fee91ce3          	bne	s2,a4,80001484 <ant+0x468>
80001490:	002b9713          	slli	a4,s7,0x2
80001494:	03810593          	addi	a1,sp,56
80001498:	00b00513          	li	a0,11
8000149c:	02e12c23          	sw	a4,56(sp)
800014a0:	03412e23          	sw	s4,60(sp)
800014a4:	05612023          	sw	s6,64(sp)
800014a8:	05a12223          	sw	s10,68(sp)
800014ac:	05a12423          	sw	s10,72(sp)
800014b0:	04010623          	sb	zero,76(sp)
800014b4:	345010ef          	jal	ra,80002ff8 <ioe_write>
800014b8:	0009a703          	lw	a4,0(s3)
800014bc:	001b8b93          	addi	s7,s7,1
800014c0:	001d8d93          	addi	s11,s11,1
800014c4:	f8ebc8e3          	blt	s7,a4,80001454 <ant+0x438>
800014c8:	00007797          	auipc	a5,0x7
800014cc:	29078793          	addi	a5,a5,656 # 80008758 <h>
800014d0:	0007a783          	lw	a5,0(a5)
800014d4:	001c8c93          	addi	s9,s9,1
800014d8:	f6fcc4e3          	blt	s9,a5,80001440 <ant+0x424>
800014dc:	dc5ff06f          	j	800012a0 <ant+0x284>
800014e0:	fb8588e3          	beq	a1,s8,80001490 <ant+0x474>
800014e4:	00412503          	lw	a0,4(sp)
800014e8:	02300713          	li	a4,35
800014ec:	f8dff06f          	j	80001478 <ant+0x45c>
800014f0:	01412703          	lw	a4,20(sp)
800014f4:	00f12a23          	sw	a5,20(sp)
800014f8:	00e12c23          	sw	a4,24(sp)
800014fc:	d05ff06f          	j	80001200 <ant+0x1e4>
80001500:	01812703          	lw	a4,24(sp)
80001504:	00f12c23          	sw	a5,24(sp)
80001508:	00e12a23          	sw	a4,20(sp)
8000150c:	cf5ff06f          	j	80001200 <ant+0x1e4>
80001510:	000aaa03          	lw	s4,0(s5)
80001514:	fffb8613          	addi	a2,s7,-1
80001518:	03860633          	mul	a2,a2,s8
8000151c:	01012783          	lw	a5,16(sp)
80001520:	000a0593          	mv	a1,s4
80001524:	018a0533          	add	a0,s4,s8
80001528:	00278713          	addi	a4,a5,2
8000152c:	00178793          	addi	a5,a5,1
80001530:	00f12823          	sw	a5,16(sp)
80001534:	00178793          	addi	a5,a5,1
80001538:	02e12423          	sw	a4,40(sp)
8000153c:	02f12023          	sw	a5,32(sp)
80001540:	43d010ef          	jal	ra,8000317c <memmove>
80001544:	000c0613          	mv	a2,s8
80001548:	00000593          	li	a1,0
8000154c:	000a0513          	mv	a0,s4
80001550:	40d010ef          	jal	ra,8000315c <memset>
80001554:	e95ff06f          	j	800013e8 <ant+0x3cc>
80001558:	037c0cb3          	mul	s9,s8,s7
8000155c:	000aaa03          	lw	s4,0(s5)
80001560:	001a0593          	addi	a1,s4,1
80001564:	000a0513          	mv	a0,s4
80001568:	fffc8613          	addi	a2,s9,-1
8000156c:	411010ef          	jal	ra,8000317c <memmove>
80001570:	fffc0793          	addi	a5,s8,-1
80001574:	0197da63          	bge	a5,s9,80001588 <ant+0x56c>
80001578:	00fa0733          	add	a4,s4,a5
8000157c:	00070023          	sb	zero,0(a4)
80001580:	018787b3          	add	a5,a5,s8
80001584:	ff97cae3          	blt	a5,s9,80001578 <ant+0x55c>
80001588:	00c12783          	lw	a5,12(sp)
8000158c:	01012703          	lw	a4,16(sp)
80001590:	fff78793          	addi	a5,a5,-1
80001594:	09775e63          	bge	a4,s7,80001630 <ant+0x614>
80001598:	01012703          	lw	a4,16(sp)
8000159c:	0a074663          	bltz	a4,80001648 <ant+0x62c>
800015a0:	00c12683          	lw	a3,12(sp)
800015a4:	00170713          	addi	a4,a4,1
800015a8:	00f12623          	sw	a5,12(sp)
800015ac:	00178793          	addi	a5,a5,1
800015b0:	02e12023          	sw	a4,32(sp)
800015b4:	02d12223          	sw	a3,36(sp)
800015b8:	02e12423          	sw	a4,40(sp)
800015bc:	00f12e23          	sw	a5,28(sp)
800015c0:	e29ff06f          	j	800013e8 <ant+0x3cc>
800015c4:	037c0cb3          	mul	s9,s8,s7
800015c8:	000aaa03          	lw	s4,0(s5)
800015cc:	000a0593          	mv	a1,s4
800015d0:	001a0513          	addi	a0,s4,1
800015d4:	fffc8613          	addi	a2,s9,-1
800015d8:	3a5010ef          	jal	ra,8000317c <memmove>
800015dc:	00000793          	li	a5,0
800015e0:	01905a63          	blez	s9,800015f4 <ant+0x5d8>
800015e4:	00fa0733          	add	a4,s4,a5
800015e8:	00070023          	sb	zero,0(a4)
800015ec:	018787b3          	add	a5,a5,s8
800015f0:	ff97cae3          	blt	a5,s9,800015e4 <ant+0x5c8>
800015f4:	00c12703          	lw	a4,12(sp)
800015f8:	00170793          	addi	a5,a4,1
800015fc:	00270713          	addi	a4,a4,2
80001600:	02e12223          	sw	a4,36(sp)
80001604:	01012703          	lw	a4,16(sp)
80001608:	03775863          	bge	a4,s7,80001638 <ant+0x61c>
8000160c:	01012703          	lw	a4,16(sp)
80001610:	04074863          	bltz	a4,80001660 <ant+0x644>
80001614:	00170713          	addi	a4,a4,1
80001618:	00f12623          	sw	a5,12(sp)
8000161c:	00178793          	addi	a5,a5,1
80001620:	02e12023          	sw	a4,32(sp)
80001624:	02e12423          	sw	a4,40(sp)
80001628:	00f12e23          	sw	a5,28(sp)
8000162c:	dbdff06f          	j	800013e8 <ant+0x3cc>
80001630:	00c12703          	lw	a4,12(sp)
80001634:	02e12223          	sw	a4,36(sp)
80001638:	00f12623          	sw	a5,12(sp)
8000163c:	00178793          	addi	a5,a5,1
80001640:	00f12e23          	sw	a5,28(sp)
80001644:	d65ff06f          	j	800013a8 <ant+0x38c>
80001648:	00c12703          	lw	a4,12(sp)
8000164c:	00f12623          	sw	a5,12(sp)
80001650:	00178793          	addi	a5,a5,1
80001654:	02e12223          	sw	a4,36(sp)
80001658:	00f12e23          	sw	a5,28(sp)
8000165c:	eb9ff06f          	j	80001514 <ant+0x4f8>
80001660:	00f12623          	sw	a5,12(sp)
80001664:	00178793          	addi	a5,a5,1
80001668:	00f12e23          	sw	a5,28(sp)
8000166c:	ea9ff06f          	j	80001514 <ant+0x4f8>

80001670 <cmatrix>:
80001670:	f7010113          	addi	sp,sp,-144
80001674:	08812423          	sw	s0,136(sp)
80001678:	08912223          	sw	s1,132(sp)
8000167c:	09212023          	sw	s2,128(sp)
80001680:	07312e23          	sw	s3,124(sp)
80001684:	07412c23          	sw	s4,120(sp)
80001688:	08112623          	sw	ra,140(sp)
8000168c:	07512a23          	sw	s5,116(sp)
80001690:	07612823          	sw	s6,112(sp)
80001694:	07712623          	sw	s7,108(sp)
80001698:	07812423          	sw	s8,104(sp)
8000169c:	07912223          	sw	s9,100(sp)
800016a0:	07a12023          	sw	s10,96(sp)
800016a4:	05b12e23          	sw	s11,92(sp)
800016a8:	00000413          	li	s0,0
800016ac:	00008a17          	auipc	s4,0x8
800016b0:	674a0a13          	addi	s4,s4,1652 # 80009d20 <buf.2>
800016b4:	14000993          	li	s3,320
800016b8:	00100913          	li	s2,1
800016bc:	0c800493          	li	s1,200
800016c0:	02812e23          	sw	s0,60(sp)
800016c4:	03810593          	addi	a1,sp,56
800016c8:	00140413          	addi	s0,s0,1
800016cc:	00b00513          	li	a0,11
800016d0:	02012c23          	sw	zero,56(sp)
800016d4:	05412023          	sw	s4,64(sp)
800016d8:	05312223          	sw	s3,68(sp)
800016dc:	05212423          	sw	s2,72(sp)
800016e0:	04010623          	sb	zero,76(sp)
800016e4:	115010ef          	jal	ra,80002ff8 <ioe_write>
800016e8:	fc941ce3          	bne	s0,s1,800016c0 <cmatrix+0x50>
800016ec:	2e5010ef          	jal	ra,800031d0 <rand>
800016f0:	00050413          	mv	s0,a0
800016f4:	00009497          	auipc	s1,0x9
800016f8:	b2c48493          	addi	s1,s1,-1236 # 8000a220 <t>
800016fc:	00009997          	auipc	s3,0x9
80001700:	c6498993          	addi	s3,s3,-924 # 8000a360 <buf.0>
80001704:	03200913          	li	s2,50
80001708:	2c9010ef          	jal	ra,800031d0 <rand>
8000170c:	40a007b3          	neg	a5,a0
80001710:	0327e7b3          	rem	a5,a5,s2
80001714:	00448493          	addi	s1,s1,4
80001718:	fef4ae23          	sw	a5,-4(s1)
8000171c:	ff3496e3          	bne	s1,s3,80001708 <cmatrix+0x98>
80001720:	00007d17          	auipc	s10,0x7
80001724:	034d0d13          	addi	s10,s10,52 # 80008754 <last_c.1>
80001728:	000d4703          	lbu	a4,0(s10)
8000172c:	02700793          	li	a5,39
80001730:	00008c97          	auipc	s9,0x8
80001734:	5b0c8c93          	addi	s9,s9,1456 # 80009ce0 <buf.0>
80001738:	7cf70c63          	beq	a4,a5,80001f10 <cmatrix+0x8a0>
8000173c:	003366b7          	lui	a3,0x336
80001740:	00fd0023          	sb	a5,0(s10)
80001744:	000c8713          	mv	a4,s9
80001748:	00008d97          	auipc	s11,0x8
8000174c:	5d8d8d93          	addi	s11,s11,1496 # 80009d20 <buf.2>
80001750:	6cc68693          	addi	a3,a3,1740 # 3366cc <_entry_offset+0x3366cc>
80001754:	00d72023          	sw	a3,0(a4)
80001758:	00470713          	addi	a4,a4,4
8000175c:	feed9ce3          	bne	s11,a4,80001754 <cmatrix+0xe4>
80001760:	02800693          	li	a3,40
80001764:	00400713          	li	a4,4
80001768:	03810593          	addi	a1,sp,56
8000176c:	00b00513          	li	a0,11
80001770:	02d12c23          	sw	a3,56(sp)
80001774:	02d12e23          	sw	a3,60(sp)
80001778:	04e12223          	sw	a4,68(sp)
8000177c:	04e12423          	sw	a4,72(sp)
80001780:	05912023          	sw	s9,64(sp)
80001784:	04010623          	sb	zero,76(sp)
80001788:	071010ef          	jal	ra,80002ff8 <ioe_write>
8000178c:	00240693          	addi	a3,s0,2
80001790:	00a40713          	addi	a4,s0,10
80001794:	41f6d813          	srai	a6,a3,0x1f
80001798:	00b40413          	addi	s0,s0,11
8000179c:	41f75513          	srai	a0,a4,0x1f
800017a0:	01c85813          	srli	a6,a6,0x1c
800017a4:	01c55513          	srli	a0,a0,0x1c
800017a8:	01068633          	add	a2,a3,a6
800017ac:	41f45593          	srai	a1,s0,0x1f
800017b0:	01c5d593          	srli	a1,a1,0x1c
800017b4:	00a706b3          	add	a3,a4,a0
800017b8:	00f67613          	andi	a2,a2,15
800017bc:	00b40733          	add	a4,s0,a1
800017c0:	00f6f693          	andi	a3,a3,15
800017c4:	41060633          	sub	a2,a2,a6
800017c8:	00f77713          	andi	a4,a4,15
800017cc:	40a686b3          	sub	a3,a3,a0
800017d0:	00461613          	slli	a2,a2,0x4
800017d4:	0ff67793          	zext.b	a5,a2
800017d8:	40b70733          	sub	a4,a4,a1
800017dc:	00469693          	slli	a3,a3,0x4
800017e0:	00471713          	slli	a4,a4,0x4
800017e4:	02f12223          	sw	a5,36(sp)
800017e8:	0ff6f793          	zext.b	a5,a3
800017ec:	02f12023          	sw	a5,32(sp)
800017f0:	0ff77793          	zext.b	a5,a4
800017f4:	00010737          	lui	a4,0x10
800017f8:	02f12423          	sw	a5,40(sp)
800017fc:	fff70793          	addi	a5,a4,-1 # ffff <_entry_offset+0xffff>
80001800:	00018737          	lui	a4,0x18
80001804:	00f12e23          	sw	a5,28(sp)
80001808:	6a070793          	addi	a5,a4,1696 # 186a0 <_entry_offset+0x186a0>
8000180c:	01700b13          	li	s6,23
80001810:	02f12623          	sw	a5,44(sp)
80001814:	000c8b93          	mv	s7,s9
80001818:	04f00913          	li	s2,79
8000181c:	02000993          	li	s3,32
80001820:	000d8c13          	mv	s8,s11
80001824:	1ad010ef          	jal	ra,800031d0 <rand>
80001828:	04f00793          	li	a5,79
8000182c:	02f56433          	rem	s0,a0,a5
80001830:	00009797          	auipc	a5,0x9
80001834:	9f078793          	addi	a5,a5,-1552 # 8000a220 <t>
80001838:	00241d93          	slli	s11,s0,0x2
8000183c:	01b78733          	add	a4,a5,s11
80001840:	00072c83          	lw	s9,0(a4)
80001844:	01c00793          	li	a5,28
80001848:	2597d863          	bge	a5,s9,80001a98 <cmatrix+0x428>
8000184c:	fff00793          	li	a5,-1
80001850:	00f12823          	sw	a5,16(sp)
80001854:	00100793          	li	a5,1
80001858:	00100693          	li	a3,1
8000185c:	00f12223          	sw	a5,4(sp)
80001860:	ffe00793          	li	a5,-2
80001864:	00d72023          	sw	a3,0(a4)
80001868:	fff00a93          	li	s5,-1
8000186c:	00f12623          	sw	a5,12(sp)
80001870:	00100493          	li	s1,1
80001874:	00000c93          	li	s9,0
80001878:	ffe00a13          	li	s4,-2
8000187c:	00012423          	sw	zero,8(sp)
80001880:	0f4b7063          	bgeu	s6,s4,80001960 <cmatrix+0x2f0>
80001884:	155b7263          	bgeu	s6,s5,800019c8 <cmatrix+0x358>
80001888:	00812783          	lw	a5,8(sp)
8000188c:	1afb7463          	bgeu	s6,a5,80001a34 <cmatrix+0x3c4>
80001890:	00412783          	lw	a5,4(sp)
80001894:	04fb6863          	bltu	s6,a5,800018e4 <cmatrix+0x274>
80001898:	000d4703          	lbu	a4,0(s10)
8000189c:	01370e63          	beq	a4,s3,800018b8 <cmatrix+0x248>
800018a0:	013d0023          	sb	s3,0(s10)
800018a4:	00008717          	auipc	a4,0x8
800018a8:	43c70713          	addi	a4,a4,1084 # 80009ce0 <buf.0>
800018ac:	00072023          	sw	zero,0(a4)
800018b0:	00470713          	addi	a4,a4,4
800018b4:	ff871ce3          	bne	a4,s8,800018ac <cmatrix+0x23c>
800018b8:	00400713          	li	a4,4
800018bc:	00249493          	slli	s1,s1,0x2
800018c0:	03810593          	addi	a1,sp,56
800018c4:	00b00513          	li	a0,11
800018c8:	03b12c23          	sw	s11,56(sp)
800018cc:	02912e23          	sw	s1,60(sp)
800018d0:	05712023          	sw	s7,64(sp)
800018d4:	04e12223          	sw	a4,68(sp)
800018d8:	04e12423          	sw	a4,72(sp)
800018dc:	04010623          	sb	zero,76(sp)
800018e0:	718010ef          	jal	ra,80002ff8 <ioe_write>
800018e4:	fff90913          	addi	s2,s2,-1
800018e8:	f2091ee3          	bnez	s2,80001824 <cmatrix+0x1b4>
800018ec:	00100713          	li	a4,1
800018f0:	00b00513          	li	a0,11
800018f4:	03810593          	addi	a1,sp,56
800018f8:	04e10623          	sb	a4,76(sp)
800018fc:	02012c23          	sw	zero,56(sp)
80001900:	02012e23          	sw	zero,60(sp)
80001904:	04012023          	sw	zero,64(sp)
80001908:	04012223          	sw	zero,68(sp)
8000190c:	04012423          	sw	zero,72(sp)
80001910:	6e8010ef          	jal	ra,80002ff8 <ioe_write>
80001914:	03810593          	addi	a1,sp,56
80001918:	00600513          	li	a0,6
8000191c:	6c0010ef          	jal	ra,80002fdc <ioe_read>
80001920:	03812703          	lw	a4,56(sp)
80001924:	02c12783          	lw	a5,44(sp)
80001928:	03c12683          	lw	a3,60(sp)
8000192c:	000c0d93          	mv	s11,s8
80001930:	00f704b3          	add	s1,a4,a5
80001934:	00e4b733          	sltu	a4,s1,a4
80001938:	00d70433          	add	s0,a4,a3
8000193c:	03810593          	addi	a1,sp,56
80001940:	00600513          	li	a0,6
80001944:	698010ef          	jal	ra,80002fdc <ioe_read>
80001948:	03c12783          	lw	a5,60(sp)
8000194c:	03812703          	lw	a4,56(sp)
80001950:	fe87e6e3          	bltu	a5,s0,8000193c <cmatrix+0x2cc>
80001954:	ecf412e3          	bne	s0,a5,80001818 <cmatrix+0x1a8>
80001958:	fe9762e3          	bltu	a4,s1,8000193c <cmatrix+0x2cc>
8000195c:	ebdff06f          	j	80001818 <cmatrix+0x1a8>
80001960:	02012783          	lw	a5,32(sp)
80001964:	00900693          	li	a3,9
80001968:	000d4703          	lbu	a4,0(s10)
8000196c:	4ef6e263          	bltu	a3,a5,80001e50 <cmatrix+0x7e0>
80001970:	02000513          	li	a0,32
80001974:	00000613          	li	a2,0
80001978:	01370e63          	beq	a4,s3,80001994 <cmatrix+0x324>
8000197c:	00ad0023          	sb	a0,0(s10)
80001980:	00008717          	auipc	a4,0x8
80001984:	36070713          	addi	a4,a4,864 # 80009ce0 <buf.0>
80001988:	00c72023          	sw	a2,0(a4)
8000198c:	00470713          	addi	a4,a4,4
80001990:	feec1ce3          	bne	s8,a4,80001988 <cmatrix+0x318>
80001994:	00c12783          	lw	a5,12(sp)
80001998:	00400713          	li	a4,4
8000199c:	03810593          	addi	a1,sp,56
800019a0:	00279a13          	slli	s4,a5,0x2
800019a4:	00b00513          	li	a0,11
800019a8:	03b12c23          	sw	s11,56(sp)
800019ac:	03412e23          	sw	s4,60(sp)
800019b0:	05712023          	sw	s7,64(sp)
800019b4:	04e12223          	sw	a4,68(sp)
800019b8:	04e12423          	sw	a4,72(sp)
800019bc:	04010623          	sb	zero,76(sp)
800019c0:	638010ef          	jal	ra,80002ff8 <ioe_write>
800019c4:	ed5b62e3          	bltu	s6,s5,80001888 <cmatrix+0x218>
800019c8:	02012783          	lw	a5,32(sp)
800019cc:	00900693          	li	a3,9
800019d0:	000d4703          	lbu	a4,0(s10)
800019d4:	22f6e263          	bltu	a3,a5,80001bf8 <cmatrix+0x588>
800019d8:	02000513          	li	a0,32
800019dc:	00000613          	li	a2,0
800019e0:	01370e63          	beq	a4,s3,800019fc <cmatrix+0x38c>
800019e4:	00ad0023          	sb	a0,0(s10)
800019e8:	00008717          	auipc	a4,0x8
800019ec:	2f870713          	addi	a4,a4,760 # 80009ce0 <buf.0>
800019f0:	00c72023          	sw	a2,0(a4)
800019f4:	00470713          	addi	a4,a4,4
800019f8:	ff871ce3          	bne	a4,s8,800019f0 <cmatrix+0x380>
800019fc:	01012783          	lw	a5,16(sp)
80001a00:	00400713          	li	a4,4
80001a04:	03810593          	addi	a1,sp,56
80001a08:	00279a93          	slli	s5,a5,0x2
80001a0c:	00b00513          	li	a0,11
80001a10:	03b12c23          	sw	s11,56(sp)
80001a14:	03512e23          	sw	s5,60(sp)
80001a18:	05712023          	sw	s7,64(sp)
80001a1c:	04e12223          	sw	a4,68(sp)
80001a20:	04e12423          	sw	a4,72(sp)
80001a24:	04010623          	sb	zero,76(sp)
80001a28:	5d0010ef          	jal	ra,80002ff8 <ioe_write>
80001a2c:	00812783          	lw	a5,8(sp)
80001a30:	e6fb60e3          	bltu	s6,a5,80001890 <cmatrix+0x220>
80001a34:	02812783          	lw	a5,40(sp)
80001a38:	00900693          	li	a3,9
80001a3c:	000d4703          	lbu	a4,0(s10)
80001a40:	24f6e863          	bltu	a3,a5,80001c90 <cmatrix+0x620>
80001a44:	02000513          	li	a0,32
80001a48:	00000613          	li	a2,0
80001a4c:	01370e63          	beq	a4,s3,80001a68 <cmatrix+0x3f8>
80001a50:	00ad0023          	sb	a0,0(s10)
80001a54:	00008717          	auipc	a4,0x8
80001a58:	28c70713          	addi	a4,a4,652 # 80009ce0 <buf.0>
80001a5c:	00c72023          	sw	a2,0(a4)
80001a60:	00470713          	addi	a4,a4,4
80001a64:	feec1ce3          	bne	s8,a4,80001a5c <cmatrix+0x3ec>
80001a68:	00400713          	li	a4,4
80001a6c:	002c9693          	slli	a3,s9,0x2
80001a70:	03810593          	addi	a1,sp,56
80001a74:	00b00513          	li	a0,11
80001a78:	03b12c23          	sw	s11,56(sp)
80001a7c:	02d12e23          	sw	a3,60(sp)
80001a80:	05712023          	sw	s7,64(sp)
80001a84:	04e12223          	sw	a4,68(sp)
80001a88:	04e12423          	sw	a4,72(sp)
80001a8c:	04010623          	sb	zero,76(sp)
80001a90:	568010ef          	jal	ra,80002ff8 <ioe_write>
80001a94:	dfdff06f          	j	80001890 <cmatrix+0x220>
80001a98:	001c8493          	addi	s1,s9,1
80001a9c:	ffec8a13          	addi	s4,s9,-2
80001aa0:	fffc8a93          	addi	s5,s9,-1
80001aa4:	ffdc8793          	addi	a5,s9,-3
80001aa8:	01412623          	sw	s4,12(sp)
80001aac:	01512823          	sw	s5,16(sp)
80001ab0:	00972023          	sw	s1,0(a4)
80001ab4:	ffbc8613          	addi	a2,s9,-5
80001ab8:	00f12a23          	sw	a5,20(sp)
80001abc:	01912423          	sw	s9,8(sp)
80001ac0:	00912223          	sw	s1,4(sp)
80001ac4:	ffcc8313          	addi	t1,s9,-4
80001ac8:	04cb6c63          	bltu	s6,a2,80001b20 <cmatrix+0x4b0>
80001acc:	000d4703          	lbu	a4,0(s10)
80001ad0:	01370e63          	beq	a4,s3,80001aec <cmatrix+0x47c>
80001ad4:	013d0023          	sb	s3,0(s10)
80001ad8:	00008717          	auipc	a4,0x8
80001adc:	20870713          	addi	a4,a4,520 # 80009ce0 <buf.0>
80001ae0:	00072023          	sw	zero,0(a4)
80001ae4:	00470713          	addi	a4,a4,4
80001ae8:	feec1ce3          	bne	s8,a4,80001ae0 <cmatrix+0x470>
80001aec:	00400713          	li	a4,4
80001af0:	00261613          	slli	a2,a2,0x2
80001af4:	03810593          	addi	a1,sp,56
80001af8:	00b00513          	li	a0,11
80001afc:	00612c23          	sw	t1,24(sp)
80001b00:	03b12c23          	sw	s11,56(sp)
80001b04:	02c12e23          	sw	a2,60(sp)
80001b08:	05712023          	sw	s7,64(sp)
80001b0c:	04e12223          	sw	a4,68(sp)
80001b10:	04e12423          	sw	a4,72(sp)
80001b14:	04010623          	sb	zero,76(sp)
80001b18:	4e0010ef          	jal	ra,80002ff8 <ioe_write>
80001b1c:	01812303          	lw	t1,24(sp)
80001b20:	066b6263          	bltu	s6,t1,80001b84 <cmatrix+0x514>
80001b24:	02412783          	lw	a5,36(sp)
80001b28:	00900693          	li	a3,9
80001b2c:	000d4703          	lbu	a4,0(s10)
80001b30:	1ef6ea63          	bltu	a3,a5,80001d24 <cmatrix+0x6b4>
80001b34:	02000513          	li	a0,32
80001b38:	00000613          	li	a2,0
80001b3c:	01370e63          	beq	a4,s3,80001b58 <cmatrix+0x4e8>
80001b40:	00ad0023          	sb	a0,0(s10)
80001b44:	00008717          	auipc	a4,0x8
80001b48:	19c70713          	addi	a4,a4,412 # 80009ce0 <buf.0>
80001b4c:	00c72023          	sw	a2,0(a4)
80001b50:	00470713          	addi	a4,a4,4
80001b54:	ff871ce3          	bne	a4,s8,80001b4c <cmatrix+0x4dc>
80001b58:	00400713          	li	a4,4
80001b5c:	00231313          	slli	t1,t1,0x2
80001b60:	03810593          	addi	a1,sp,56
80001b64:	00b00513          	li	a0,11
80001b68:	03b12c23          	sw	s11,56(sp)
80001b6c:	02612e23          	sw	t1,60(sp)
80001b70:	05712023          	sw	s7,64(sp)
80001b74:	04e12223          	sw	a4,68(sp)
80001b78:	04e12423          	sw	a4,72(sp)
80001b7c:	04010623          	sb	zero,76(sp)
80001b80:	478010ef          	jal	ra,80002ff8 <ioe_write>
80001b84:	01412783          	lw	a5,20(sp)
80001b88:	cefb6ce3          	bltu	s6,a5,80001880 <cmatrix+0x210>
80001b8c:	02412783          	lw	a5,36(sp)
80001b90:	00900693          	li	a3,9
80001b94:	000d4703          	lbu	a4,0(s10)
80001b98:	22f6e063          	bltu	a3,a5,80001db8 <cmatrix+0x748>
80001b9c:	02000513          	li	a0,32
80001ba0:	00000613          	li	a2,0
80001ba4:	01370e63          	beq	a4,s3,80001bc0 <cmatrix+0x550>
80001ba8:	00ad0023          	sb	a0,0(s10)
80001bac:	00008717          	auipc	a4,0x8
80001bb0:	13470713          	addi	a4,a4,308 # 80009ce0 <buf.0>
80001bb4:	00c72023          	sw	a2,0(a4)
80001bb8:	00470713          	addi	a4,a4,4
80001bbc:	feec1ce3          	bne	s8,a4,80001bb4 <cmatrix+0x544>
80001bc0:	01412783          	lw	a5,20(sp)
80001bc4:	00400713          	li	a4,4
80001bc8:	03810593          	addi	a1,sp,56
80001bcc:	00279613          	slli	a2,a5,0x2
80001bd0:	00b00513          	li	a0,11
80001bd4:	03b12c23          	sw	s11,56(sp)
80001bd8:	02c12e23          	sw	a2,60(sp)
80001bdc:	05712023          	sw	s7,64(sp)
80001be0:	04e12223          	sw	a4,68(sp)
80001be4:	04e12423          	sw	a4,72(sp)
80001be8:	04010623          	sb	zero,76(sp)
80001bec:	40c010ef          	jal	ra,80002ff8 <ioe_write>
80001bf0:	c94b6ae3          	bltu	s6,s4,80001884 <cmatrix+0x214>
80001bf4:	d6dff06f          	j	80001960 <cmatrix+0x2f0>
80001bf8:	01012783          	lw	a5,16(sp)
80001bfc:	02f40533          	mul	a0,s0,a5
80001c00:	05e00793          	li	a5,94
80001c04:	02f56533          	rem	a0,a0,a5
80001c08:	02150513          	addi	a0,a0,33
80001c0c:	0ff57513          	zext.b	a0,a0
80001c10:	dee506e3          	beq	a0,a4,800019fc <cmatrix+0x38c>
80001c14:	2d350a63          	beq	a0,s3,80001ee8 <cmatrix+0x878>
80001c18:	01900713          	li	a4,25
80001c1c:	02e55733          	divu	a4,a0,a4
80001c20:	00500893          	li	a7,5
80001c24:	01c12783          	lw	a5,28(sp)
80001c28:	00371613          	slli	a2,a4,0x3
80001c2c:	40e60633          	sub	a2,a2,a4
80001c30:	00561593          	slli	a1,a2,0x5
80001c34:	00b605b3          	add	a1,a2,a1
80001c38:	00b505b3          	add	a1,a0,a1
80001c3c:	0ff5f593          	zext.b	a1,a1
80001c40:	0315d333          	divu	t1,a1,a7
80001c44:	00871613          	slli	a2,a4,0x8
80001c48:	00231713          	slli	a4,t1,0x2
80001c4c:	00e30733          	add	a4,t1,a4
80001c50:	40e58733          	sub	a4,a1,a4
80001c54:	00831313          	slli	t1,t1,0x8
80001c58:	031345b3          	div	a1,t1,a7
80001c5c:	0ff77713          	zext.b	a4,a4
80001c60:	00871713          	slli	a4,a4,0x8
80001c64:	00ff0337          	lui	t1,0xff0
80001c68:	03164633          	div	a2,a2,a7
80001c6c:	00859593          	slli	a1,a1,0x8
80001c70:	00f5f5b3          	and	a1,a1,a5
80001c74:	03174733          	div	a4,a4,a7
80001c78:	01061613          	slli	a2,a2,0x10
80001c7c:	00667633          	and	a2,a2,t1
80001c80:	00b66633          	or	a2,a2,a1
80001c84:	0ff77713          	zext.b	a4,a4
80001c88:	00e66633          	or	a2,a2,a4
80001c8c:	d59ff06f          	j	800019e4 <cmatrix+0x374>
80001c90:	03940533          	mul	a0,s0,s9
80001c94:	05e00793          	li	a5,94
80001c98:	02f56533          	rem	a0,a0,a5
80001c9c:	02150513          	addi	a0,a0,33
80001ca0:	0ff57513          	zext.b	a0,a0
80001ca4:	dce502e3          	beq	a0,a4,80001a68 <cmatrix+0x3f8>
80001ca8:	25350463          	beq	a0,s3,80001ef0 <cmatrix+0x880>
80001cac:	01900713          	li	a4,25
80001cb0:	02e55733          	divu	a4,a0,a4
80001cb4:	00500893          	li	a7,5
80001cb8:	01c12783          	lw	a5,28(sp)
80001cbc:	00371613          	slli	a2,a4,0x3
80001cc0:	40e60633          	sub	a2,a2,a4
80001cc4:	00561593          	slli	a1,a2,0x5
80001cc8:	00b605b3          	add	a1,a2,a1
80001ccc:	00b505b3          	add	a1,a0,a1
80001cd0:	0ff5f593          	zext.b	a1,a1
80001cd4:	0315d333          	divu	t1,a1,a7
80001cd8:	00871613          	slli	a2,a4,0x8
80001cdc:	00231713          	slli	a4,t1,0x2
80001ce0:	00e30733          	add	a4,t1,a4
80001ce4:	40e58733          	sub	a4,a1,a4
80001ce8:	00831313          	slli	t1,t1,0x8
80001cec:	031345b3          	div	a1,t1,a7
80001cf0:	0ff77713          	zext.b	a4,a4
80001cf4:	00871713          	slli	a4,a4,0x8
80001cf8:	00ff0337          	lui	t1,0xff0
80001cfc:	03164633          	div	a2,a2,a7
80001d00:	00859593          	slli	a1,a1,0x8
80001d04:	00f5f5b3          	and	a1,a1,a5
80001d08:	03174733          	div	a4,a4,a7
80001d0c:	01061613          	slli	a2,a2,0x10
80001d10:	00667633          	and	a2,a2,t1
80001d14:	00b66633          	or	a2,a2,a1
80001d18:	0ff77713          	zext.b	a4,a4
80001d1c:	00e66633          	or	a2,a2,a4
80001d20:	d31ff06f          	j	80001a50 <cmatrix+0x3e0>
80001d24:	02640533          	mul	a0,s0,t1
80001d28:	05e00793          	li	a5,94
80001d2c:	02f56533          	rem	a0,a0,a5
80001d30:	02150513          	addi	a0,a0,33
80001d34:	0ff57513          	zext.b	a0,a0
80001d38:	e2e500e3          	beq	a0,a4,80001b58 <cmatrix+0x4e8>
80001d3c:	1d350263          	beq	a0,s3,80001f00 <cmatrix+0x890>
80001d40:	01900713          	li	a4,25
80001d44:	02e55733          	divu	a4,a0,a4
80001d48:	00500e13          	li	t3,5
80001d4c:	01c12783          	lw	a5,28(sp)
80001d50:	00371613          	slli	a2,a4,0x3
80001d54:	40e60633          	sub	a2,a2,a4
80001d58:	00561593          	slli	a1,a2,0x5
80001d5c:	00b605b3          	add	a1,a2,a1
80001d60:	00b505b3          	add	a1,a0,a1
80001d64:	0ff5f593          	zext.b	a1,a1
80001d68:	03c5deb3          	divu	t4,a1,t3
80001d6c:	00871613          	slli	a2,a4,0x8
80001d70:	002e9713          	slli	a4,t4,0x2
80001d74:	00ee8733          	add	a4,t4,a4
80001d78:	40e58733          	sub	a4,a1,a4
80001d7c:	008e9e93          	slli	t4,t4,0x8
80001d80:	03cec5b3          	div	a1,t4,t3
80001d84:	0ff77713          	zext.b	a4,a4
80001d88:	00871713          	slli	a4,a4,0x8
80001d8c:	00ff0eb7          	lui	t4,0xff0
80001d90:	03c64633          	div	a2,a2,t3
80001d94:	00859593          	slli	a1,a1,0x8
80001d98:	00f5f5b3          	and	a1,a1,a5
80001d9c:	03c74733          	div	a4,a4,t3
80001da0:	01061613          	slli	a2,a2,0x10
80001da4:	01d67633          	and	a2,a2,t4
80001da8:	00b66633          	or	a2,a2,a1
80001dac:	0ff77713          	zext.b	a4,a4
80001db0:	00e66633          	or	a2,a2,a4
80001db4:	d8dff06f          	j	80001b40 <cmatrix+0x4d0>
80001db8:	01412783          	lw	a5,20(sp)
80001dbc:	02f40533          	mul	a0,s0,a5
80001dc0:	05e00793          	li	a5,94
80001dc4:	02f56533          	rem	a0,a0,a5
80001dc8:	02150513          	addi	a0,a0,33
80001dcc:	0ff57513          	zext.b	a0,a0
80001dd0:	dee508e3          	beq	a0,a4,80001bc0 <cmatrix+0x550>
80001dd4:	13350263          	beq	a0,s3,80001ef8 <cmatrix+0x888>
80001dd8:	01900713          	li	a4,25
80001ddc:	02e55733          	divu	a4,a0,a4
80001de0:	00500313          	li	t1,5
80001de4:	01c12783          	lw	a5,28(sp)
80001de8:	00371613          	slli	a2,a4,0x3
80001dec:	40e60633          	sub	a2,a2,a4
80001df0:	00561593          	slli	a1,a2,0x5
80001df4:	00b605b3          	add	a1,a2,a1
80001df8:	00b505b3          	add	a1,a0,a1
80001dfc:	0ff5f593          	zext.b	a1,a1
80001e00:	0265de33          	divu	t3,a1,t1
80001e04:	00871613          	slli	a2,a4,0x8
80001e08:	002e1713          	slli	a4,t3,0x2
80001e0c:	00ee0733          	add	a4,t3,a4
80001e10:	40e58733          	sub	a4,a1,a4
80001e14:	008e1e13          	slli	t3,t3,0x8
80001e18:	026e45b3          	div	a1,t3,t1
80001e1c:	0ff77713          	zext.b	a4,a4
80001e20:	00871713          	slli	a4,a4,0x8
80001e24:	00ff0e37          	lui	t3,0xff0
80001e28:	02664633          	div	a2,a2,t1
80001e2c:	00859593          	slli	a1,a1,0x8
80001e30:	00f5f5b3          	and	a1,a1,a5
80001e34:	02674733          	div	a4,a4,t1
80001e38:	01061613          	slli	a2,a2,0x10
80001e3c:	01c67633          	and	a2,a2,t3
80001e40:	00b66633          	or	a2,a2,a1
80001e44:	0ff77713          	zext.b	a4,a4
80001e48:	00e66633          	or	a2,a2,a4
80001e4c:	d5dff06f          	j	80001ba8 <cmatrix+0x538>
80001e50:	00c12783          	lw	a5,12(sp)
80001e54:	02f40533          	mul	a0,s0,a5
80001e58:	05e00793          	li	a5,94
80001e5c:	02f56533          	rem	a0,a0,a5
80001e60:	02150513          	addi	a0,a0,33
80001e64:	0ff57513          	zext.b	a0,a0
80001e68:	b2e506e3          	beq	a0,a4,80001994 <cmatrix+0x324>
80001e6c:	09350e63          	beq	a0,s3,80001f08 <cmatrix+0x898>
80001e70:	01900713          	li	a4,25
80001e74:	02e55733          	divu	a4,a0,a4
80001e78:	00500893          	li	a7,5
80001e7c:	01c12783          	lw	a5,28(sp)
80001e80:	00371613          	slli	a2,a4,0x3
80001e84:	40e60633          	sub	a2,a2,a4
80001e88:	00561593          	slli	a1,a2,0x5
80001e8c:	00b605b3          	add	a1,a2,a1
80001e90:	00b505b3          	add	a1,a0,a1
80001e94:	0ff5f593          	zext.b	a1,a1
80001e98:	0315d333          	divu	t1,a1,a7
80001e9c:	00871613          	slli	a2,a4,0x8
80001ea0:	00231713          	slli	a4,t1,0x2
80001ea4:	00e30733          	add	a4,t1,a4
80001ea8:	40e58733          	sub	a4,a1,a4
80001eac:	00831313          	slli	t1,t1,0x8
80001eb0:	031345b3          	div	a1,t1,a7
80001eb4:	0ff77713          	zext.b	a4,a4
80001eb8:	00871713          	slli	a4,a4,0x8
80001ebc:	00ff0337          	lui	t1,0xff0
80001ec0:	03164633          	div	a2,a2,a7
80001ec4:	00859593          	slli	a1,a1,0x8
80001ec8:	00f5f5b3          	and	a1,a1,a5
80001ecc:	03174733          	div	a4,a4,a7
80001ed0:	01061613          	slli	a2,a2,0x10
80001ed4:	00667633          	and	a2,a2,t1
80001ed8:	00b66633          	or	a2,a2,a1
80001edc:	0ff77713          	zext.b	a4,a4
80001ee0:	00e66633          	or	a2,a2,a4
80001ee4:	a99ff06f          	j	8000197c <cmatrix+0x30c>
80001ee8:	00000613          	li	a2,0
80001eec:	af9ff06f          	j	800019e4 <cmatrix+0x374>
80001ef0:	00000613          	li	a2,0
80001ef4:	b5dff06f          	j	80001a50 <cmatrix+0x3e0>
80001ef8:	00000613          	li	a2,0
80001efc:	cadff06f          	j	80001ba8 <cmatrix+0x538>
80001f00:	00000613          	li	a2,0
80001f04:	c3dff06f          	j	80001b40 <cmatrix+0x4d0>
80001f08:	00000613          	li	a2,0
80001f0c:	a71ff06f          	j	8000197c <cmatrix+0x30c>
80001f10:	00008d97          	auipc	s11,0x8
80001f14:	e10d8d93          	addi	s11,s11,-496 # 80009d20 <buf.2>
80001f18:	849ff06f          	j	80001760 <cmatrix+0xf0>

80001f1c <main>:
80001f1c:	fe010113          	addi	sp,sp,-32
80001f20:	00812c23          	sw	s0,24(sp)
80001f24:	00112e23          	sw	ra,28(sp)
80001f28:	00050413          	mv	s0,a0
80001f2c:	054010ef          	jal	ra,80002f80 <ioe_init>
80001f30:	00044783          	lbu	a5,0(s0)
80001f34:	00700713          	li	a4,7
80001f38:	fcf78793          	addi	a5,a5,-49
80001f3c:	0ff7f793          	zext.b	a5,a5
80001f40:	08f76e63          	bltu	a4,a5,80001fdc <main+0xc0>
80001f44:	00004717          	auipc	a4,0x4
80001f48:	71870713          	addi	a4,a4,1816 # 8000665c <_etext+0x2f44>
80001f4c:	00279793          	slli	a5,a5,0x2
80001f50:	00e787b3          	add	a5,a5,a4
80001f54:	0007a783          	lw	a5,0(a5)
80001f58:	00e787b3          	add	a5,a5,a4
80001f5c:	00078067          	jr	a5
80001f60:	54c000ef          	jal	ra,800024ac <donut>
80001f64:	00004517          	auipc	a0,0x4
80001f68:	6e450513          	addi	a0,a0,1764 # 80006648 <_etext+0x2f30>
80001f6c:	330010ef          	jal	ra,8000329c <printf>
80001f70:	01d00413          	li	s0,29
80001f74:	00810593          	addi	a1,sp,8
80001f78:	00800513          	li	a0,8
80001f7c:	060010ef          	jal	ra,80002fdc <ioe_read>
80001f80:	00814783          	lbu	a5,8(sp)
80001f84:	00c12703          	lw	a4,12(sp)
80001f88:	fe0786e3          	beqz	a5,80001f74 <main+0x58>
80001f8c:	fe8714e3          	bne	a4,s0,80001f74 <main+0x58>
80001f90:	01c12083          	lw	ra,28(sp)
80001f94:	01812403          	lw	s0,24(sp)
80001f98:	00000513          	li	a0,0
80001f9c:	02010113          	addi	sp,sp,32
80001fa0:	00008067          	ret
80001fa4:	be1fe0ef          	jal	ra,80000b84 <bf>
80001fa8:	fbdff06f          	j	80001f64 <main+0x48>
80001fac:	870ff0ef          	jal	ra,8000101c <ant>
80001fb0:	fb5ff06f          	j	80001f64 <main+0x48>
80001fb4:	85cfe0ef          	jal	ra,80000010 <galton>
80001fb8:	fadff06f          	j	80001f64 <main+0x48>
80001fbc:	a71fe0ef          	jal	ra,80000a2c <hanoi>
80001fc0:	fa5ff06f          	j	80001f64 <main+0x48>
80001fc4:	591000ef          	jal	ra,80002d54 <game_of_life>
80001fc8:	f9dff06f          	j	80001f64 <main+0x48>
80001fcc:	080000ef          	jal	ra,8000204c <aclock>
80001fd0:	f95ff06f          	j	80001f64 <main+0x48>
80001fd4:	e9cff0ef          	jal	ra,80001670 <cmatrix>
80001fd8:	f8dff06f          	j	80001f64 <main+0x48>
80001fdc:	00004517          	auipc	a0,0x4
80001fe0:	5dc50513          	addi	a0,a0,1500 # 800065b8 <_etext+0x2ea0>
80001fe4:	2b8010ef          	jal	ra,8000329c <printf>
80001fe8:	00004517          	auipc	a0,0x4
80001fec:	5ec50513          	addi	a0,a0,1516 # 800065d4 <_etext+0x2ebc>
80001ff0:	2ac010ef          	jal	ra,8000329c <printf>
80001ff4:	00004517          	auipc	a0,0x4
80001ff8:	5ec50513          	addi	a0,a0,1516 # 800065e0 <_etext+0x2ec8>
80001ffc:	2a0010ef          	jal	ra,8000329c <printf>
80002000:	00004517          	auipc	a0,0x4
80002004:	5f050513          	addi	a0,a0,1520 # 800065f0 <_etext+0x2ed8>
80002008:	294010ef          	jal	ra,8000329c <printf>
8000200c:	00004517          	auipc	a0,0x4
80002010:	5f050513          	addi	a0,a0,1520 # 800065fc <_etext+0x2ee4>
80002014:	288010ef          	jal	ra,8000329c <printf>
80002018:	00004517          	auipc	a0,0x4
8000201c:	5f850513          	addi	a0,a0,1528 # 80006610 <_etext+0x2ef8>
80002020:	27c010ef          	jal	ra,8000329c <printf>
80002024:	00004517          	auipc	a0,0x4
80002028:	5fc50513          	addi	a0,a0,1532 # 80006620 <_etext+0x2f08>
8000202c:	270010ef          	jal	ra,8000329c <printf>
80002030:	00004517          	auipc	a0,0x4
80002034:	60050513          	addi	a0,a0,1536 # 80006630 <_etext+0x2f18>
80002038:	264010ef          	jal	ra,8000329c <printf>
8000203c:	00004517          	auipc	a0,0x4
80002040:	60050513          	addi	a0,a0,1536 # 8000663c <_etext+0x2f24>
80002044:	258010ef          	jal	ra,8000329c <printf>
80002048:	f1dff06f          	j	80001f64 <main+0x48>

8000204c <aclock>:
8000204c:	f9010113          	addi	sp,sp,-112
80002050:	05412c23          	sw	s4,88(sp)
80002054:	05612823          	sw	s6,80(sp)
80002058:	05912223          	sw	s9,68(sp)
8000205c:	00cc0b37          	lui	s6,0xcc0
80002060:	00010cb7          	lui	s9,0x10
80002064:	00990a37          	lui	s4,0x990
80002068:	06812423          	sw	s0,104(sp)
8000206c:	06912223          	sw	s1,100(sp)
80002070:	05312e23          	sw	s3,92(sp)
80002074:	05512a23          	sw	s5,84(sp)
80002078:	05712623          	sw	s7,76(sp)
8000207c:	06112623          	sw	ra,108(sp)
80002080:	07212023          	sw	s2,96(sp)
80002084:	05812423          	sw	s8,72(sp)
80002088:	05a12023          	sw	s10,64(sp)
8000208c:	03b12e23          	sw	s11,60(sp)
80002090:	00008997          	auipc	s3,0x8
80002094:	31098993          	addi	s3,s3,784 # 8000a3a0 <buf.2>
80002098:	00005b97          	auipc	s7,0x5
8000209c:	8b4b8b93          	addi	s7,s7,-1868 # 8000694c <hour>
800020a0:	00006497          	auipc	s1,0x6
800020a4:	6b548493          	addi	s1,s1,1717 # 80008755 <last_c.1>
800020a8:	00008a97          	auipc	s5,0x8
800020ac:	2b8a8a93          	addi	s5,s5,696 # 8000a360 <buf.0>
800020b0:	00008417          	auipc	s0,0x8
800020b4:	2f040413          	addi	s0,s0,752 # 8000a3a0 <buf.2>
800020b8:	fffc8c93          	addi	s9,s9,-1 # ffff <_entry_offset+0xffff>
800020bc:	0ccb0b13          	addi	s6,s6,204 # cc00cc <_entry_offset+0xcc00cc>
800020c0:	066a0a13          	addi	s4,s4,102 # 990066 <_entry_offset+0x990066>
800020c4:	01810593          	addi	a1,sp,24
800020c8:	00500513          	li	a0,5
800020cc:	711000ef          	jal	ra,80002fdc <ioe_read>
800020d0:	02412783          	lw	a5,36(sp)
800020d4:	00000d93          	li	s11,0
800020d8:	14000d13          	li	s10,320
800020dc:	00f12223          	sw	a5,4(sp)
800020e0:	02812783          	lw	a5,40(sp)
800020e4:	00100c13          	li	s8,1
800020e8:	0c800913          	li	s2,200
800020ec:	00f12423          	sw	a5,8(sp)
800020f0:	02c12783          	lw	a5,44(sp)
800020f4:	00f12623          	sw	a5,12(sp)
800020f8:	01b12e23          	sw	s11,28(sp)
800020fc:	01810593          	addi	a1,sp,24
80002100:	001d8d93          	addi	s11,s11,1
80002104:	00b00513          	li	a0,11
80002108:	00012c23          	sw	zero,24(sp)
8000210c:	03312023          	sw	s3,32(sp)
80002110:	03a12223          	sw	s10,36(sp)
80002114:	03812423          	sw	s8,40(sp)
80002118:	02010623          	sb	zero,44(sp)
8000211c:	6dd000ef          	jal	ra,80002ff8 <ioe_write>
80002120:	fd2d9ce3          	bne	s11,s2,800020f8 <aclock+0xac>
80002124:	00004d97          	auipc	s11,0x4
80002128:	564d8d93          	addi	s11,s11,1380 # 80006688 <circle+0xc>
8000212c:	06f00793          	li	a5,111
80002130:	00c00593          	li	a1,12
80002134:	03e00713          	li	a4,62
80002138:	02000c13          	li	s8,32
8000213c:	00500913          	li	s2,5
80002140:	00400d13          	li	s10,4
80002144:	ff070713          	addi	a4,a4,-16
80002148:	0004c803          	lbu	a6,0(s1)
8000214c:	01f75513          	srli	a0,a4,0x1f
80002150:	00e50533          	add	a0,a0,a4
80002154:	0ff7f793          	zext.b	a5,a5
80002158:	40155513          	srai	a0,a0,0x1
8000215c:	08f80863          	beq	a6,a5,800021ec <aclock+0x1a0>
80002160:	00f48023          	sb	a5,0(s1)
80002164:	00000713          	li	a4,0
80002168:	07878863          	beq	a5,s8,800021d8 <aclock+0x18c>
8000216c:	01900713          	li	a4,25
80002170:	02e7d733          	divu	a4,a5,a4
80002174:	00ff06b7          	lui	a3,0xff0
80002178:	00371813          	slli	a6,a4,0x3
8000217c:	40e80833          	sub	a6,a6,a4
80002180:	00581893          	slli	a7,a6,0x5
80002184:	01180833          	add	a6,a6,a7
80002188:	010787b3          	add	a5,a5,a6
8000218c:	0ff7f793          	zext.b	a5,a5
80002190:	0327d833          	divu	a6,a5,s2
80002194:	00871713          	slli	a4,a4,0x8
80002198:	00281893          	slli	a7,a6,0x2
8000219c:	011808b3          	add	a7,a6,a7
800021a0:	411787b3          	sub	a5,a5,a7
800021a4:	00881813          	slli	a6,a6,0x8
800021a8:	03274733          	div	a4,a4,s2
800021ac:	0ff7f793          	zext.b	a5,a5
800021b0:	00879793          	slli	a5,a5,0x8
800021b4:	03284833          	div	a6,a6,s2
800021b8:	01071713          	slli	a4,a4,0x10
800021bc:	00d77733          	and	a4,a4,a3
800021c0:	0327c7b3          	div	a5,a5,s2
800021c4:	00881813          	slli	a6,a6,0x8
800021c8:	01987833          	and	a6,a6,s9
800021cc:	01076733          	or	a4,a4,a6
800021d0:	0ff7f793          	zext.b	a5,a5
800021d4:	00f76733          	or	a4,a4,a5
800021d8:	00008797          	auipc	a5,0x8
800021dc:	18878793          	addi	a5,a5,392 # 8000a360 <buf.0>
800021e0:	00e7a023          	sw	a4,0(a5)
800021e4:	00478793          	addi	a5,a5,4
800021e8:	fe879ce3          	bne	a5,s0,800021e0 <aclock+0x194>
800021ec:	00251713          	slli	a4,a0,0x2
800021f0:	00259793          	slli	a5,a1,0x2
800021f4:	00b00513          	li	a0,11
800021f8:	01810593          	addi	a1,sp,24
800021fc:	00e12c23          	sw	a4,24(sp)
80002200:	00f12e23          	sw	a5,28(sp)
80002204:	03512023          	sw	s5,32(sp)
80002208:	03a12223          	sw	s10,36(sp)
8000220c:	03a12423          	sw	s10,40(sp)
80002210:	02010623          	sb	zero,44(sp)
80002214:	5e5000ef          	jal	ra,80002ff8 <ioe_write>
80002218:	01bb8c63          	beq	s7,s11,80002230 <aclock+0x1e4>
8000221c:	000da703          	lw	a4,0(s11)
80002220:	004da583          	lw	a1,4(s11)
80002224:	008da783          	lw	a5,8(s11)
80002228:	00cd8d93          	addi	s11,s11,12
8000222c:	f19ff06f          	j	80002144 <aclock+0xf8>
80002230:	00412703          	lw	a4,4(sp)
80002234:	00c00793          	li	a5,12
80002238:	26e7d263          	bge	a5,a4,8000249c <aclock+0x450>
8000223c:	ff470793          	addi	a5,a4,-12
80002240:	00279713          	slli	a4,a5,0x2
80002244:	00f70733          	add	a4,a4,a5
80002248:	00812683          	lw	a3,8(sp)
8000224c:	00a00793          	li	a5,10
80002250:	06800c13          	li	s8,104
80002254:	02f6c7b3          	div	a5,a3,a5
80002258:	00400d93          	li	s11,4
8000225c:	00e787b3          	add	a5,a5,a4
80002260:	00179913          	slli	s2,a5,0x1
80002264:	00f90933          	add	s2,s2,a5
80002268:	00491913          	slli	s2,s2,0x4
8000226c:	00004797          	auipc	a5,0x4
80002270:	6e078793          	addi	a5,a5,1760 # 8000694c <hour>
80002274:	01278d33          	add	s10,a5,s2
80002278:	00004797          	auipc	a5,0x4
8000227c:	70478793          	addi	a5,a5,1796 # 8000697c <hour+0x30>
80002280:	01278933          	add	s2,a5,s2
80002284:	000d2703          	lw	a4,0(s10)
80002288:	0004c603          	lbu	a2,0(s1)
8000228c:	004d2683          	lw	a3,4(s10)
80002290:	ff070713          	addi	a4,a4,-16
80002294:	01f75793          	srli	a5,a4,0x1f
80002298:	00e787b3          	add	a5,a5,a4
8000229c:	4017d713          	srai	a4,a5,0x1
800022a0:	01860e63          	beq	a2,s8,800022bc <aclock+0x270>
800022a4:	01848023          	sb	s8,0(s1)
800022a8:	00008797          	auipc	a5,0x8
800022ac:	0b878793          	addi	a5,a5,184 # 8000a360 <buf.0>
800022b0:	0167a023          	sw	s6,0(a5)
800022b4:	00478793          	addi	a5,a5,4
800022b8:	fe879ce3          	bne	a5,s0,800022b0 <aclock+0x264>
800022bc:	00271793          	slli	a5,a4,0x2
800022c0:	008d0d13          	addi	s10,s10,8
800022c4:	00269713          	slli	a4,a3,0x2
800022c8:	01810593          	addi	a1,sp,24
800022cc:	00b00513          	li	a0,11
800022d0:	00f12c23          	sw	a5,24(sp)
800022d4:	00e12e23          	sw	a4,28(sp)
800022d8:	03512023          	sw	s5,32(sp)
800022dc:	03b12223          	sw	s11,36(sp)
800022e0:	03b12423          	sw	s11,40(sp)
800022e4:	02010623          	sb	zero,44(sp)
800022e8:	511000ef          	jal	ra,80002ff8 <ioe_write>
800022ec:	f9a91ce3          	bne	s2,s10,80002284 <aclock+0x238>
800022f0:	00812783          	lw	a5,8(sp)
800022f4:	04d00913          	li	s2,77
800022f8:	00400d93          	li	s11,4
800022fc:	00679c13          	slli	s8,a5,0x6
80002300:	00005797          	auipc	a5,0x5
80002304:	18c78793          	addi	a5,a5,396 # 8000748c <minute>
80002308:	01878d33          	add	s10,a5,s8
8000230c:	00005797          	auipc	a5,0x5
80002310:	1c078793          	addi	a5,a5,448 # 800074cc <minute+0x40>
80002314:	01878c33          	add	s8,a5,s8
80002318:	000d2703          	lw	a4,0(s10)
8000231c:	0004c603          	lbu	a2,0(s1)
80002320:	004d2683          	lw	a3,4(s10)
80002324:	ff070713          	addi	a4,a4,-16
80002328:	01f75793          	srli	a5,a4,0x1f
8000232c:	00e787b3          	add	a5,a5,a4
80002330:	4017d713          	srai	a4,a5,0x1
80002334:	01260e63          	beq	a2,s2,80002350 <aclock+0x304>
80002338:	01248023          	sb	s2,0(s1)
8000233c:	00008797          	auipc	a5,0x8
80002340:	02478793          	addi	a5,a5,36 # 8000a360 <buf.0>
80002344:	0147a023          	sw	s4,0(a5)
80002348:	00478793          	addi	a5,a5,4
8000234c:	fef41ce3          	bne	s0,a5,80002344 <aclock+0x2f8>
80002350:	00271793          	slli	a5,a4,0x2
80002354:	008d0d13          	addi	s10,s10,8
80002358:	00269713          	slli	a4,a3,0x2
8000235c:	01810593          	addi	a1,sp,24
80002360:	00b00513          	li	a0,11
80002364:	00f12c23          	sw	a5,24(sp)
80002368:	00e12e23          	sw	a4,28(sp)
8000236c:	03512023          	sw	s5,32(sp)
80002370:	03b12223          	sw	s11,36(sp)
80002374:	03b12423          	sw	s11,40(sp)
80002378:	02010623          	sb	zero,44(sp)
8000237c:	47d000ef          	jal	ra,80002ff8 <ioe_write>
80002380:	f98d1ce3          	bne	s10,s8,80002318 <aclock+0x2cc>
80002384:	00c12783          	lw	a5,12(sp)
80002388:	0033dd37          	lui	s10,0x33d
8000238c:	02e00913          	li	s2,46
80002390:	00679c13          	slli	s8,a5,0x6
80002394:	00005797          	auipc	a5,0x5
80002398:	0f878793          	addi	a5,a5,248 # 8000748c <minute>
8000239c:	01878db3          	add	s11,a5,s8
800023a0:	00005797          	auipc	a5,0x5
800023a4:	12c78793          	addi	a5,a5,300 # 800074cc <minute+0x40>
800023a8:	018787b3          	add	a5,a5,s8
800023ac:	00f12223          	sw	a5,4(sp)
800023b0:	c33d0d13          	addi	s10,s10,-973 # 33cc33 <_entry_offset+0x33cc33>
800023b4:	00400c13          	li	s8,4
800023b8:	000da703          	lw	a4,0(s11)
800023bc:	0004c583          	lbu	a1,0(s1)
800023c0:	004da683          	lw	a3,4(s11)
800023c4:	ff070713          	addi	a4,a4,-16
800023c8:	01f75793          	srli	a5,a4,0x1f
800023cc:	00e787b3          	add	a5,a5,a4
800023d0:	4017d713          	srai	a4,a5,0x1
800023d4:	01258e63          	beq	a1,s2,800023f0 <aclock+0x3a4>
800023d8:	01248023          	sb	s2,0(s1)
800023dc:	00008797          	auipc	a5,0x8
800023e0:	f8478793          	addi	a5,a5,-124 # 8000a360 <buf.0>
800023e4:	01a7a023          	sw	s10,0(a5)
800023e8:	00478793          	addi	a5,a5,4
800023ec:	fef41ce3          	bne	s0,a5,800023e4 <aclock+0x398>
800023f0:	00271793          	slli	a5,a4,0x2
800023f4:	01810593          	addi	a1,sp,24
800023f8:	00269713          	slli	a4,a3,0x2
800023fc:	00b00513          	li	a0,11
80002400:	00f12c23          	sw	a5,24(sp)
80002404:	00e12e23          	sw	a4,28(sp)
80002408:	03512023          	sw	s5,32(sp)
8000240c:	03812223          	sw	s8,36(sp)
80002410:	03812423          	sw	s8,40(sp)
80002414:	02010623          	sb	zero,44(sp)
80002418:	3e1000ef          	jal	ra,80002ff8 <ioe_write>
8000241c:	00412783          	lw	a5,4(sp)
80002420:	008d8d93          	addi	s11,s11,8
80002424:	f9b79ae3          	bne	a5,s11,800023b8 <aclock+0x36c>
80002428:	00100793          	li	a5,1
8000242c:	00b00513          	li	a0,11
80002430:	01810593          	addi	a1,sp,24
80002434:	02f10623          	sb	a5,44(sp)
80002438:	00012c23          	sw	zero,24(sp)
8000243c:	00012e23          	sw	zero,28(sp)
80002440:	02012023          	sw	zero,32(sp)
80002444:	02012223          	sw	zero,36(sp)
80002448:	02012423          	sw	zero,40(sp)
8000244c:	3ad000ef          	jal	ra,80002ff8 <ioe_write>
80002450:	01810593          	addi	a1,sp,24
80002454:	00600513          	li	a0,6
80002458:	385000ef          	jal	ra,80002fdc <ioe_read>
8000245c:	01812783          	lw	a5,24(sp)
80002460:	000f4c37          	lui	s8,0xf4
80002464:	01c12703          	lw	a4,28(sp)
80002468:	240c0c13          	addi	s8,s8,576 # f4240 <_entry_offset+0xf4240>
8000246c:	01878c33          	add	s8,a5,s8
80002470:	00fc37b3          	sltu	a5,s8,a5
80002474:	00e78933          	add	s2,a5,a4
80002478:	01810593          	addi	a1,sp,24
8000247c:	00600513          	li	a0,6
80002480:	35d000ef          	jal	ra,80002fdc <ioe_read>
80002484:	01c12783          	lw	a5,28(sp)
80002488:	01812703          	lw	a4,24(sp)
8000248c:	ff27e6e3          	bltu	a5,s2,80002478 <aclock+0x42c>
80002490:	c2f91ae3          	bne	s2,a5,800020c4 <aclock+0x78>
80002494:	ff8762e3          	bltu	a4,s8,80002478 <aclock+0x42c>
80002498:	c2dff06f          	j	800020c4 <aclock+0x78>
8000249c:	00412783          	lw	a5,4(sp)
800024a0:	00279713          	slli	a4,a5,0x2
800024a4:	00f70733          	add	a4,a4,a5
800024a8:	da1ff06f          	j	80002248 <aclock+0x1fc>

800024ac <donut>:
800024ac:	000017b7          	lui	a5,0x1
800024b0:	f8010113          	addi	sp,sp,-128
800024b4:	80078793          	addi	a5,a5,-2048 # 800 <_entry_offset+0x800>
800024b8:	00f12c23          	sw	a5,24(sp)
800024bc:	000107b7          	lui	a5,0x10
800024c0:	fff78793          	addi	a5,a5,-1 # ffff <_entry_offset+0xffff>
800024c4:	06812c23          	sw	s0,120(sp)
800024c8:	06912a23          	sw	s1,116(sp)
800024cc:	07612023          	sw	s6,96(sp)
800024d0:	05712e23          	sw	s7,92(sp)
800024d4:	05812c23          	sw	s8,88(sp)
800024d8:	05912a23          	sw	s9,84(sp)
800024dc:	05a12823          	sw	s10,80(sp)
800024e0:	06112e23          	sw	ra,124(sp)
800024e4:	07212823          	sw	s2,112(sp)
800024e8:	07312623          	sw	s3,108(sp)
800024ec:	07412423          	sw	s4,104(sp)
800024f0:	07512223          	sw	s5,100(sp)
800024f4:	05b12623          	sw	s11,76(sp)
800024f8:	00000413          	li	s0,0
800024fc:	40000493          	li	s1,1024
80002500:	00000b13          	li	s6,0
80002504:	40000b93          	li	s7,1024
80002508:	00009c17          	auipc	s8,0x9
8000250c:	fb8c0c13          	addi	s8,s8,-72 # 8000b4c0 <z>
80002510:	00008c97          	auipc	s9,0x8
80002514:	390c8c93          	addi	s9,s9,912 # 8000a8a0 <b>
80002518:	04e00d13          	li	s10,78
8000251c:	00f12e23          	sw	a5,28(sp)
80002520:	6e000613          	li	a2,1760
80002524:	02000593          	li	a1,32
80002528:	00008517          	auipc	a0,0x8
8000252c:	37850513          	addi	a0,a0,888 # 8000a8a0 <b>
80002530:	42d000ef          	jal	ra,8000315c <memset>
80002534:	6e000613          	li	a2,1760
80002538:	07f00593          	li	a1,127
8000253c:	00009517          	auipc	a0,0x9
80002540:	f8450513          	addi	a0,a0,-124 # 8000b4c0 <z>
80002544:	419000ef          	jal	ra,8000315c <memset>
80002548:	417007b3          	neg	a5,s7
8000254c:	00f12423          	sw	a5,8(sp)
80002550:	05a00793          	li	a5,90
80002554:	00f12a23          	sw	a5,20(sp)
80002558:	40000793          	li	a5,1024
8000255c:	41600ab3          	neg	s5,s6
80002560:	00f12623          	sw	a5,12(sp)
80002564:	00012823          	sw	zero,16(sp)
80002568:	01400093          	li	ra,20
8000256c:	ffb00937          	lui	s2,0xffb00
80002570:	003003b7          	lui	t2,0x300
80002574:	01012703          	lw	a4,16(sp)
80002578:	00c12603          	lw	a2,12(sp)
8000257c:	01812783          	lw	a5,24(sp)
80002580:	02eb89b3          	mul	s3,s7,a4
80002584:	14400e93          	li	t4,324
80002588:	00f60f33          	add	t5,a2,a5
8000258c:	40000693          	li	a3,1024
80002590:	00000793          	li	a5,0
80002594:	02eb0fb3          	mul	t6,s6,a4
80002598:	c009f293          	andi	t0,s3,-1024
8000259c:	00500737          	lui	a4,0x500
800025a0:	40a9d993          	srai	s3,s3,0xa
800025a4:	00e282b3          	add	t0,t0,a4
800025a8:	02c48a33          	mul	s4,s1,a2
800025ac:	40afdf93          	srai	t6,t6,0xa
800025b0:	40aa5a13          	srai	s4,s4,0xa
800025b4:	03e78e33          	mul	t3,a5,t5
800025b8:	00279613          	slli	a2,a5,0x2
800025bc:	00f60633          	add	a2,a2,a5
800025c0:	00269713          	slli	a4,a3,0x2
800025c4:	00d70733          	add	a4,a4,a3
800025c8:	40865613          	srai	a2,a2,0x8
800025cc:	40c68633          	sub	a2,a3,a2
800025d0:	40875713          	srai	a4,a4,0x8
800025d4:	00f70733          	add	a4,a4,a5
800025d8:	fffe8e93          	addi	t4,t4,-1 # feffff <_entry_offset+0xfeffff>
800025dc:	40ae5813          	srai	a6,t3,0xa
800025e0:	030b8533          	mul	a0,s7,a6
800025e4:	03e68333          	mul	t1,a3,t5
800025e8:	40a55513          	srai	a0,a0,0xa
800025ec:	40af8533          	sub	a0,t6,a0
800025f0:	40a35313          	srai	t1,t1,0xa
800025f4:	026488b3          	mul	a7,s1,t1
800025f8:	02a405b3          	mul	a1,s0,a0
800025fc:	030b0833          	mul	a6,s6,a6
80002600:	011585b3          	add	a1,a1,a7
80002604:	00459893          	slli	a7,a1,0x4
80002608:	40b888b3          	sub	a7,a7,a1
8000260c:	00580833          	add	a6,a6,t0
80002610:	0308c8b3          	div	a7,a7,a6
80002614:	00b88d93          	addi	s11,a7,11
80002618:	02c605b3          	mul	a1,a2,a2
8000261c:	0db0e063          	bltu	ra,s11,800026dc <donut+0x230>
80002620:	00c88893          	addi	a7,a7,12
80002624:	00289d93          	slli	s11,a7,0x2
80002628:	011d88b3          	add	a7,s11,a7
8000262c:	01280db3          	add	s11,a6,s2
80002630:	00489893          	slli	a7,a7,0x4
80002634:	40fddd93          	srai	s11,s11,0xf
80002638:	018d9d93          	slli	s11,s11,0x18
8000263c:	418ddd93          	srai	s11,s11,0x18
80002640:	02640333          	mul	t1,s0,t1
80002644:	02a48533          	mul	a0,s1,a0
80002648:	40a30533          	sub	a0,t1,a0
8000264c:	00451313          	slli	t1,a0,0x4
80002650:	40a30333          	sub	t1,t1,a0
80002654:	00131313          	slli	t1,t1,0x1
80002658:	03034333          	div	t1,t1,a6
8000265c:	01930513          	addi	a0,t1,25 # ff0019 <_entry_offset+0xff0019>
80002660:	00a88533          	add	a0,a7,a0
80002664:	01830313          	addi	t1,t1,24
80002668:	00ac0833          	add	a6,s8,a0
8000266c:	066d6863          	bltu	s10,t1,800026dc <donut+0x230>
80002670:	00b79793          	slli	a5,a5,0xb
80002674:	40fe0e33          	sub	t3,t3,a5
80002678:	00080783          	lb	a5,0(a6)
8000267c:	40ae5e13          	srai	t3,t3,0xa
80002680:	00ac8533          	add	a0,s9,a0
80002684:	04fddc63          	bge	s11,a5,800026dc <donut+0x230>
80002688:	00812783          	lw	a5,8(sp)
8000268c:	02da06b3          	mul	a3,s4,a3
80002690:	01b80023          	sb	s11,0(a6)
80002694:	02fe07b3          	mul	a5,t3,a5
80002698:	40a7d793          	srai	a5,a5,0xa
8000269c:	01f787b3          	add	a5,a5,t6
800026a0:	035e0e33          	mul	t3,t3,s5
800026a4:	028787b3          	mul	a5,a5,s0
800026a8:	40fe07b3          	sub	a5,t3,a5
800026ac:	40d787b3          	sub	a5,a5,a3
800026b0:	40a7d793          	srai	a5,a5,0xa
800026b4:	413787b3          	sub	a5,a5,s3
800026b8:	4077d793          	srai	a5,a5,0x7
800026bc:	fff7c693          	not	a3,a5
800026c0:	41f6d693          	srai	a3,a3,0x1f
800026c4:	00d7f7b3          	and	a5,a5,a3
800026c8:	00006697          	auipc	a3,0x6
800026cc:	cc468693          	addi	a3,a3,-828 # 8000838c <minute+0xf00>
800026d0:	00f687b3          	add	a5,a3,a5
800026d4:	0007c783          	lbu	a5,0(a5)
800026d8:	00f50023          	sb	a5,0(a0)
800026dc:	02e707b3          	mul	a5,a4,a4
800026e0:	40b385b3          	sub	a1,t2,a1
800026e4:	40f585b3          	sub	a1,a1,a5
800026e8:	40b5d593          	srai	a1,a1,0xb
800026ec:	02b60633          	mul	a2,a2,a1
800026f0:	02b70733          	mul	a4,a4,a1
800026f4:	40a65693          	srai	a3,a2,0xa
800026f8:	40a75793          	srai	a5,a4,0xa
800026fc:	ea0e9ce3          	bnez	t4,800025b4 <donut+0x108>
80002700:	01012683          	lw	a3,16(sp)
80002704:	00c12603          	lw	a2,12(sp)
80002708:	00369713          	slli	a4,a3,0x3
8000270c:	00d70733          	add	a4,a4,a3
80002710:	00361793          	slli	a5,a2,0x3
80002714:	40775713          	srai	a4,a4,0x7
80002718:	40e60733          	sub	a4,a2,a4
8000271c:	00c787b3          	add	a5,a5,a2
80002720:	01412603          	lw	a2,20(sp)
80002724:	4077d793          	srai	a5,a5,0x7
80002728:	00d787b3          	add	a5,a5,a3
8000272c:	02e706b3          	mul	a3,a4,a4
80002730:	fff60593          	addi	a1,a2,-1
80002734:	00b12a23          	sw	a1,20(sp)
80002738:	02f78633          	mul	a2,a5,a5
8000273c:	40d386b3          	sub	a3,t2,a3
80002740:	40c686b3          	sub	a3,a3,a2
80002744:	40b6d693          	srai	a3,a3,0xb
80002748:	02d70733          	mul	a4,a4,a3
8000274c:	02d787b3          	mul	a5,a5,a3
80002750:	40a75713          	srai	a4,a4,0xa
80002754:	00e12623          	sw	a4,12(sp)
80002758:	40a7d793          	srai	a5,a5,0xa
8000275c:	00f12823          	sw	a5,16(sp)
80002760:	e0059ae3          	bnez	a1,80002574 <donut+0xc8>
80002764:	002b9593          	slli	a1,s7,0x2
80002768:	00249693          	slli	a3,s1,0x2
8000276c:	017585b3          	add	a1,a1,s7
80002770:	002b1613          	slli	a2,s6,0x2
80002774:	009686b3          	add	a3,a3,s1
80002778:	00241713          	slli	a4,s0,0x2
8000277c:	01660633          	add	a2,a2,s6
80002780:	00870733          	add	a4,a4,s0
80002784:	4075d593          	srai	a1,a1,0x7
80002788:	4086d693          	srai	a3,a3,0x8
8000278c:	40bb05b3          	sub	a1,s6,a1
80002790:	40d406b3          	sub	a3,s0,a3
80002794:	40765613          	srai	a2,a2,0x7
80002798:	40875713          	srai	a4,a4,0x8
8000279c:	01760633          	add	a2,a2,s7
800027a0:	00970733          	add	a4,a4,s1
800027a4:	02b58533          	mul	a0,a1,a1
800027a8:	00000a93          	li	s5,0
800027ac:	14000a13          	li	s4,320
800027b0:	00100993          	li	s3,1
800027b4:	0c800913          	li	s2,200
800027b8:	02d687b3          	mul	a5,a3,a3
800027bc:	40a38533          	sub	a0,t2,a0
800027c0:	02c608b3          	mul	a7,a2,a2
800027c4:	40f387b3          	sub	a5,t2,a5
800027c8:	02e70833          	mul	a6,a4,a4
800027cc:	41150533          	sub	a0,a0,a7
800027d0:	40b55513          	srai	a0,a0,0xb
800027d4:	410787b3          	sub	a5,a5,a6
800027d8:	40b7d793          	srai	a5,a5,0xb
800027dc:	02a585b3          	mul	a1,a1,a0
800027e0:	02a60633          	mul	a2,a2,a0
800027e4:	40a5db13          	srai	s6,a1,0xa
800027e8:	02f686b3          	mul	a3,a3,a5
800027ec:	40a65b93          	srai	s7,a2,0xa
800027f0:	02f70733          	mul	a4,a4,a5
800027f4:	40a6d413          	srai	s0,a3,0xa
800027f8:	40a75493          	srai	s1,a4,0xa
800027fc:	03512623          	sw	s5,44(sp)
80002800:	00008797          	auipc	a5,0x8
80002804:	7c078793          	addi	a5,a5,1984 # 8000afc0 <buf.2>
80002808:	001a8a93          	addi	s5,s5,1
8000280c:	02810593          	addi	a1,sp,40
80002810:	00b00513          	li	a0,11
80002814:	02012423          	sw	zero,40(sp)
80002818:	02f12823          	sw	a5,48(sp)
8000281c:	03412a23          	sw	s4,52(sp)
80002820:	03312c23          	sw	s3,56(sp)
80002824:	02010e23          	sb	zero,60(sp)
80002828:	7d0000ef          	jal	ra,80002ff8 <ioe_write>
8000282c:	fd2a98e3          	bne	s5,s2,800027fc <donut+0x350>
80002830:	00008997          	auipc	s3,0x8
80002834:	07098993          	addi	s3,s3,112 # 8000a8a0 <b>
80002838:	00000913          	li	s2,0
8000283c:	00000a13          	li	s4,0
80002840:	00000d93          	li	s11,0
80002844:	05000a93          	li	s5,80
80002848:	03100693          	li	a3,49
8000284c:	02000893          	li	a7,32
80002850:	01900813          	li	a6,25
80002854:	00500613          	li	a2,5
80002858:	035967b3          	rem	a5,s2,s5
8000285c:	18078663          	beqz	a5,800029e8 <donut+0x53c>
80002860:	0946d663          	bge	a3,s4,800028ec <donut+0x440>
80002864:	001a0a13          	addi	s4,s4,1
80002868:	00190913          	addi	s2,s2,1 # ffb00001 <_end+0x7faeb001>
8000286c:	6e100793          	li	a5,1761
80002870:	00198993          	addi	s3,s3,1
80002874:	fef912e3          	bne	s2,a5,80002858 <donut+0x3ac>
80002878:	00100793          	li	a5,1
8000287c:	00b00513          	li	a0,11
80002880:	02810593          	addi	a1,sp,40
80002884:	02f10e23          	sb	a5,60(sp)
80002888:	02012423          	sw	zero,40(sp)
8000288c:	02012623          	sw	zero,44(sp)
80002890:	02012823          	sw	zero,48(sp)
80002894:	02012a23          	sw	zero,52(sp)
80002898:	02012c23          	sw	zero,56(sp)
8000289c:	75c000ef          	jal	ra,80002ff8 <ioe_write>
800028a0:	02810593          	addi	a1,sp,40
800028a4:	00600513          	li	a0,6
800028a8:	734000ef          	jal	ra,80002fdc <ioe_read>
800028ac:	02812783          	lw	a5,40(sp)
800028b0:	000189b7          	lui	s3,0x18
800028b4:	02c12703          	lw	a4,44(sp)
800028b8:	6a098993          	addi	s3,s3,1696 # 186a0 <_entry_offset+0x186a0>
800028bc:	013789b3          	add	s3,a5,s3
800028c0:	00f9b7b3          	sltu	a5,s3,a5
800028c4:	00e78933          	add	s2,a5,a4
800028c8:	02810593          	addi	a1,sp,40
800028cc:	00600513          	li	a0,6
800028d0:	70c000ef          	jal	ra,80002fdc <ioe_read>
800028d4:	02c12783          	lw	a5,44(sp)
800028d8:	02812703          	lw	a4,40(sp)
800028dc:	ff27e6e3          	bltu	a5,s2,800028c8 <donut+0x41c>
800028e0:	c4f910e3          	bne	s2,a5,80002520 <donut+0x74>
800028e4:	ff3762e3          	bltu	a4,s3,800028c8 <donut+0x41c>
800028e8:	c39ff06f          	j	80002520 <donut+0x74>
800028ec:	00006797          	auipc	a5,0x6
800028f0:	e6a78793          	addi	a5,a5,-406 # 80008756 <last_c.1>
800028f4:	0009c583          	lbu	a1,0(s3)
800028f8:	0007c783          	lbu	a5,0(a5)
800028fc:	0ab78063          	beq	a5,a1,8000299c <donut+0x4f0>
80002900:	00006797          	auipc	a5,0x6
80002904:	e5678793          	addi	a5,a5,-426 # 80008756 <last_c.1>
80002908:	00b78023          	sb	a1,0(a5)
8000290c:	00000713          	li	a4,0
80002910:	07158863          	beq	a1,a7,80002980 <donut+0x4d4>
80002914:	0305d7b3          	divu	a5,a1,a6
80002918:	00379713          	slli	a4,a5,0x3
8000291c:	40f70733          	sub	a4,a4,a5
80002920:	00571513          	slli	a0,a4,0x5
80002924:	00a70733          	add	a4,a4,a0
80002928:	00e585b3          	add	a1,a1,a4
8000292c:	0ff5f593          	zext.b	a1,a1
80002930:	02c5d533          	divu	a0,a1,a2
80002934:	00879713          	slli	a4,a5,0x8
80002938:	02c74733          	div	a4,a4,a2
8000293c:	00251793          	slli	a5,a0,0x2
80002940:	00f507b3          	add	a5,a0,a5
80002944:	40f587b3          	sub	a5,a1,a5
80002948:	00851513          	slli	a0,a0,0x8
8000294c:	0ff7f793          	zext.b	a5,a5
80002950:	00879793          	slli	a5,a5,0x8
80002954:	02c545b3          	div	a1,a0,a2
80002958:	01071713          	slli	a4,a4,0x10
8000295c:	00ff0537          	lui	a0,0xff0
80002960:	00a77733          	and	a4,a4,a0
80002964:	01c12503          	lw	a0,28(sp)
80002968:	02c7c7b3          	div	a5,a5,a2
8000296c:	00859593          	slli	a1,a1,0x8
80002970:	00a5f5b3          	and	a1,a1,a0
80002974:	00b76733          	or	a4,a4,a1
80002978:	0ff7f793          	zext.b	a5,a5
8000297c:	00f76733          	or	a4,a4,a5
80002980:	00008797          	auipc	a5,0x8
80002984:	60078793          	addi	a5,a5,1536 # 8000af80 <buf.0>
80002988:	00e7a023          	sw	a4,0(a5)
8000298c:	00008597          	auipc	a1,0x8
80002990:	63458593          	addi	a1,a1,1588 # 8000afc0 <buf.2>
80002994:	00478793          	addi	a5,a5,4
80002998:	fef598e3          	bne	a1,a5,80002988 <donut+0x4dc>
8000299c:	002d9713          	slli	a4,s11,0x2
800029a0:	00400793          	li	a5,4
800029a4:	002a1313          	slli	t1,s4,0x2
800029a8:	02e12623          	sw	a4,44(sp)
800029ac:	02810593          	addi	a1,sp,40
800029b0:	00008717          	auipc	a4,0x8
800029b4:	5d070713          	addi	a4,a4,1488 # 8000af80 <buf.0>
800029b8:	00b00513          	li	a0,11
800029bc:	02612423          	sw	t1,40(sp)
800029c0:	02e12823          	sw	a4,48(sp)
800029c4:	02f12a23          	sw	a5,52(sp)
800029c8:	02f12c23          	sw	a5,56(sp)
800029cc:	02010e23          	sb	zero,60(sp)
800029d0:	628000ef          	jal	ra,80002ff8 <ioe_write>
800029d4:	03100693          	li	a3,49
800029d8:	02000893          	li	a7,32
800029dc:	01900813          	li	a6,25
800029e0:	00500613          	li	a2,5
800029e4:	e81ff06f          	j	80002864 <donut+0x3b8>
800029e8:	001d8d93          	addi	s11,s11,1
800029ec:	00100a13          	li	s4,1
800029f0:	e79ff06f          	j	80002868 <donut+0x3bc>

800029f4 <show>:
800029f4:	f9010113          	addi	sp,sp,-112
800029f8:	06912223          	sw	s1,100(sp)
800029fc:	00006497          	auipc	s1,0x6
80002a00:	d6848493          	addi	s1,s1,-664 # 80008764 <w>
80002a04:	05912223          	sw	s9,68(sp)
80002a08:	0004ac83          	lw	s9,0(s1)
80002a0c:	06812423          	sw	s0,104(sp)
80002a10:	07212023          	sw	s2,96(sp)
80002a14:	05312e23          	sw	s3,92(sp)
80002a18:	05412c23          	sw	s4,88(sp)
80002a1c:	05512a23          	sw	s5,84(sp)
80002a20:	05812423          	sw	s8,72(sp)
80002a24:	06112623          	sw	ra,108(sp)
80002a28:	05612823          	sw	s6,80(sp)
80002a2c:	05712623          	sw	s7,76(sp)
80002a30:	05a12023          	sw	s10,64(sp)
80002a34:	03b12e23          	sw	s11,60(sp)
80002a38:	00050c13          	mv	s8,a0
80002a3c:	00000413          	li	s0,0
80002a40:	00009a97          	auipc	s5,0x9
80002a44:	1a0a8a93          	addi	s5,s5,416 # 8000bbe0 <buf.2>
80002a48:	14000a13          	li	s4,320
80002a4c:	00100993          	li	s3,1
80002a50:	0c800913          	li	s2,200
80002a54:	00812e23          	sw	s0,28(sp)
80002a58:	01810593          	addi	a1,sp,24
80002a5c:	00140413          	addi	s0,s0,1
80002a60:	00b00513          	li	a0,11
80002a64:	00012c23          	sw	zero,24(sp)
80002a68:	03512023          	sw	s5,32(sp)
80002a6c:	03412223          	sw	s4,36(sp)
80002a70:	03312423          	sw	s3,40(sp)
80002a74:	02010623          	sb	zero,44(sp)
80002a78:	580000ef          	jal	ra,80002ff8 <ioe_write>
80002a7c:	fd241ce3          	bne	s0,s2,80002a54 <show+0x60>
80002a80:	00006797          	auipc	a5,0x6
80002a84:	cdc78793          	addi	a5,a5,-804 # 8000875c <h>
80002a88:	0007a783          	lw	a5,0(a5)
80002a8c:	0ef05063          	blez	a5,80002b6c <show+0x178>
80002a90:	002c9793          	slli	a5,s9,0x2
80002a94:	00cc6ab7          	lui	s5,0xcc6
80002a98:	00f12623          	sw	a5,12(sp)
80002a9c:	01812423          	sw	s8,8(sp)
80002aa0:	00000b93          	li	s7,0
80002aa4:	00006417          	auipc	s0,0x6
80002aa8:	cb340413          	addi	s0,s0,-845 # 80008757 <last_c.1>
80002aac:	00009997          	auipc	s3,0x9
80002ab0:	0f498993          	addi	s3,s3,244 # 8000bba0 <buf.0>
80002ab4:	00009d97          	auipc	s11,0x9
80002ab8:	12cd8d93          	addi	s11,s11,300 # 8000bbe0 <buf.2>
80002abc:	02000b13          	li	s6,32
80002ac0:	633a8a93          	addi	s5,s5,1587 # cc6633 <_entry_offset+0xcc6633>
80002ac4:	0004a783          	lw	a5,0(s1)
80002ac8:	08f05063          	blez	a5,80002b48 <show+0x154>
80002acc:	00812c03          	lw	s8,8(sp)
80002ad0:	002b9913          	slli	s2,s7,0x2
80002ad4:	00000d13          	li	s10,0
80002ad8:	06f00a13          	li	s4,111
80002adc:	00400c93          	li	s9,4
80002ae0:	000c2783          	lw	a5,0(s8)
80002ae4:	00044583          	lbu	a1,0(s0)
80002ae8:	0e078463          	beqz	a5,80002bd0 <show+0x1dc>
80002aec:	06f00793          	li	a5,111
80002af0:	000a8713          	mv	a4,s5
80002af4:	01458e63          	beq	a1,s4,80002b10 <show+0x11c>
80002af8:	00f40023          	sb	a5,0(s0)
80002afc:	00009797          	auipc	a5,0x9
80002b00:	0a478793          	addi	a5,a5,164 # 8000bba0 <buf.0>
80002b04:	00e7a023          	sw	a4,0(a5)
80002b08:	00478793          	addi	a5,a5,4
80002b0c:	fefd9ce3          	bne	s11,a5,80002b04 <show+0x110>
80002b10:	002d1793          	slli	a5,s10,0x2
80002b14:	01810593          	addi	a1,sp,24
80002b18:	00b00513          	li	a0,11
80002b1c:	00f12c23          	sw	a5,24(sp)
80002b20:	01212e23          	sw	s2,28(sp)
80002b24:	03312023          	sw	s3,32(sp)
80002b28:	03912223          	sw	s9,36(sp)
80002b2c:	03912423          	sw	s9,40(sp)
80002b30:	02010623          	sb	zero,44(sp)
80002b34:	4c4000ef          	jal	ra,80002ff8 <ioe_write>
80002b38:	0004a783          	lw	a5,0(s1)
80002b3c:	001d0d13          	addi	s10,s10,1
80002b40:	004c0c13          	addi	s8,s8,4
80002b44:	f8fd4ee3          	blt	s10,a5,80002ae0 <show+0xec>
80002b48:	00812703          	lw	a4,8(sp)
80002b4c:	00c12683          	lw	a3,12(sp)
80002b50:	00006797          	auipc	a5,0x6
80002b54:	c0c78793          	addi	a5,a5,-1012 # 8000875c <h>
80002b58:	0007a783          	lw	a5,0(a5)
80002b5c:	00d70733          	add	a4,a4,a3
80002b60:	001b8b93          	addi	s7,s7,1
80002b64:	00e12423          	sw	a4,8(sp)
80002b68:	f4fbcee3          	blt	s7,a5,80002ac4 <show+0xd0>
80002b6c:	01810593          	addi	a1,sp,24
80002b70:	00100793          	li	a5,1
80002b74:	00b00513          	li	a0,11
80002b78:	00012c23          	sw	zero,24(sp)
80002b7c:	00012e23          	sw	zero,28(sp)
80002b80:	02012023          	sw	zero,32(sp)
80002b84:	02012223          	sw	zero,36(sp)
80002b88:	02012423          	sw	zero,40(sp)
80002b8c:	02f10623          	sb	a5,44(sp)
80002b90:	468000ef          	jal	ra,80002ff8 <ioe_write>
80002b94:	06c12083          	lw	ra,108(sp)
80002b98:	06812403          	lw	s0,104(sp)
80002b9c:	06412483          	lw	s1,100(sp)
80002ba0:	06012903          	lw	s2,96(sp)
80002ba4:	05c12983          	lw	s3,92(sp)
80002ba8:	05812a03          	lw	s4,88(sp)
80002bac:	05412a83          	lw	s5,84(sp)
80002bb0:	05012b03          	lw	s6,80(sp)
80002bb4:	04c12b83          	lw	s7,76(sp)
80002bb8:	04812c03          	lw	s8,72(sp)
80002bbc:	04412c83          	lw	s9,68(sp)
80002bc0:	04012d03          	lw	s10,64(sp)
80002bc4:	03c12d83          	lw	s11,60(sp)
80002bc8:	07010113          	addi	sp,sp,112
80002bcc:	00008067          	ret
80002bd0:	f56580e3          	beq	a1,s6,80002b10 <show+0x11c>
80002bd4:	02000793          	li	a5,32
80002bd8:	00000713          	li	a4,0
80002bdc:	f1dff06f          	j	80002af8 <show+0x104>

80002be0 <evolve>:
80002be0:	fe010113          	addi	sp,sp,-32
80002be4:	01212a23          	sw	s2,20(sp)
80002be8:	00812e23          	sw	s0,28(sp)
80002bec:	00912c23          	sw	s1,24(sp)
80002bf0:	01312823          	sw	s3,16(sp)
80002bf4:	01412623          	sw	s4,12(sp)
80002bf8:	01512423          	sw	s5,8(sp)
80002bfc:	01612223          	sw	s6,4(sp)
80002c00:	00006e97          	auipc	t4,0x6
80002c04:	b5ceae83          	lw	t4,-1188(t4) # 8000875c <h>
80002c08:	00006817          	auipc	a6,0x6
80002c0c:	b5c82803          	lw	a6,-1188(a6) # 80008764 <w>
80002c10:	00009917          	auipc	s2,0x9
80002c14:	4f492903          	lw	s2,1268(s2) # 8000c104 <new_array>
80002c18:	11d05063          	blez	t4,80002d18 <evolve+0x138>
80002c1c:	001e8b13          	addi	s6,t4,1
80002c20:	00180413          	addi	s0,a6,1
80002c24:	00050f93          	mv	t6,a0
80002c28:	002e8e13          	addi	t3,t4,2
80002c2c:	fffe8393          	addi	t2,t4,-1
80002c30:	00281313          	slli	t1,a6,0x2
80002c34:	00050993          	mv	s3,a0
80002c38:	001b1b13          	slli	s6,s6,0x1
80002c3c:	00141413          	slli	s0,s0,0x1
80002c40:	00050a93          	mv	s5,a0
80002c44:	00090a13          	mv	s4,s2
80002c48:	00300493          	li	s1,3
80002c4c:	07005e63          	blez	a6,80002cc8 <evolve+0xe8>
80002c50:	00280513          	addi	a0,a6,2
80002c54:	fff80893          	addi	a7,a6,-1
80002c58:	000a8293          	mv	t0,s5
80002c5c:	000a0f13          	mv	t5,s4
80002c60:	00038593          	mv	a1,t2
80002c64:	00000613          	li	a2,0
80002c68:	03d5e6b3          	rem	a3,a1,t4
80002c6c:	00088713          	mv	a4,a7
80002c70:	026686b3          	mul	a3,a3,t1
80002c74:	00df86b3          	add	a3,t6,a3
80002c78:	030767b3          	rem	a5,a4,a6
80002c7c:	00170713          	addi	a4,a4,1
80002c80:	00279793          	slli	a5,a5,0x2
80002c84:	00f687b3          	add	a5,a3,a5
80002c88:	0007a783          	lw	a5,0(a5)
80002c8c:	00f037b3          	snez	a5,a5
80002c90:	00f60633          	add	a2,a2,a5
80002c94:	fea712e3          	bne	a4,a0,80002c78 <evolve+0x98>
80002c98:	00158593          	addi	a1,a1,1
80002c9c:	fdc596e3          	bne	a1,t3,80002c68 <evolve+0x88>
80002ca0:	0002a783          	lw	a5,0(t0)
80002ca4:	08079c63          	bnez	a5,80002d3c <evolve+0x15c>
80002ca8:	ffd60793          	addi	a5,a2,-3
80002cac:	0017b793          	seqz	a5,a5
80002cb0:	00ff2023          	sw	a5,0(t5)
80002cb4:	00150513          	addi	a0,a0,1 # ff0001 <_entry_offset+0xff0001>
80002cb8:	004f0f13          	addi	t5,t5,4
80002cbc:	00428293          	addi	t0,t0,4
80002cc0:	00188893          	addi	a7,a7,1
80002cc4:	f8851ee3          	bne	a0,s0,80002c60 <evolve+0x80>
80002cc8:	001e0e13          	addi	t3,t3,1 # ff0001 <_entry_offset+0xff0001>
80002ccc:	00138393          	addi	t2,t2,1 # 300001 <_entry_offset+0x300001>
80002cd0:	006a0a33          	add	s4,s4,t1
80002cd4:	006a8ab3          	add	s5,s5,t1
80002cd8:	f76e1ae3          	bne	t3,s6,80002c4c <evolve+0x6c>
80002cdc:	00000593          	li	a1,0
80002ce0:	00098693          	mv	a3,s3
80002ce4:	00090713          	mv	a4,s2
80002ce8:	00000793          	li	a5,0
80002cec:	01005e63          	blez	a6,80002d08 <evolve+0x128>
80002cf0:	00072603          	lw	a2,0(a4)
80002cf4:	00178793          	addi	a5,a5,1
80002cf8:	00470713          	addi	a4,a4,4
80002cfc:	00c6a023          	sw	a2,0(a3)
80002d00:	00468693          	addi	a3,a3,4
80002d04:	fef816e3          	bne	a6,a5,80002cf0 <evolve+0x110>
80002d08:	00158593          	addi	a1,a1,1
80002d0c:	00690933          	add	s2,s2,t1
80002d10:	006989b3          	add	s3,s3,t1
80002d14:	fdd596e3          	bne	a1,t4,80002ce0 <evolve+0x100>
80002d18:	01c12403          	lw	s0,28(sp)
80002d1c:	01812483          	lw	s1,24(sp)
80002d20:	01412903          	lw	s2,20(sp)
80002d24:	01012983          	lw	s3,16(sp)
80002d28:	00c12a03          	lw	s4,12(sp)
80002d2c:	00812a83          	lw	s5,8(sp)
80002d30:	00412b03          	lw	s6,4(sp)
80002d34:	02010113          	addi	sp,sp,32
80002d38:	00008067          	ret
80002d3c:	fff60713          	addi	a4,a2,-1
80002d40:	00100793          	li	a5,1
80002d44:	f69706e3          	beq	a4,s1,80002cb0 <evolve+0xd0>
80002d48:	ffd60613          	addi	a2,a2,-3
80002d4c:	00163793          	seqz	a5,a2
80002d50:	f61ff06f          	j	80002cb0 <evolve+0xd0>

80002d54 <game_of_life>:
80002d54:	fc010113          	addi	sp,sp,-64
80002d58:	00010593          	mv	a1,sp
80002d5c:	00900513          	li	a0,9
80002d60:	02112e23          	sw	ra,60(sp)
80002d64:	02812c23          	sw	s0,56(sp)
80002d68:	02912a23          	sw	s1,52(sp)
80002d6c:	03212823          	sw	s2,48(sp)
80002d70:	03512223          	sw	s5,36(sp)
80002d74:	03612023          	sw	s6,32(sp)
80002d78:	03312623          	sw	s3,44(sp)
80002d7c:	03412423          	sw	s4,40(sp)
80002d80:	01712e23          	sw	s7,28(sp)
80002d84:	01812c23          	sw	s8,24(sp)
80002d88:	01912a23          	sw	s9,20(sp)
80002d8c:	250000ef          	jal	ra,80002fdc <ioe_read>
80002d90:	00412703          	lw	a4,4(sp)
80002d94:	00010593          	mv	a1,sp
80002d98:	00006417          	auipc	s0,0x6
80002d9c:	9cc40413          	addi	s0,s0,-1588 # 80008764 <w>
80002da0:	41f75793          	srai	a5,a4,0x1f
80002da4:	0037f793          	andi	a5,a5,3
80002da8:	00e787b3          	add	a5,a5,a4
80002dac:	4027d793          	srai	a5,a5,0x2
80002db0:	00900513          	li	a0,9
80002db4:	00f42023          	sw	a5,0(s0)
80002db8:	224000ef          	jal	ra,80002fdc <ioe_read>
80002dbc:	00812b03          	lw	s6,8(sp)
80002dc0:	00042a83          	lw	s5,0(s0)
80002dc4:	41fb5413          	srai	s0,s6,0x1f
80002dc8:	00347413          	andi	s0,s0,3
80002dcc:	01640433          	add	s0,s0,s6
80002dd0:	40245413          	srai	s0,s0,0x2
80002dd4:	028a8933          	mul	s2,s5,s0
80002dd8:	00006797          	auipc	a5,0x6
80002ddc:	9887a223          	sw	s0,-1660(a5) # 8000875c <h>
80002de0:	00291913          	slli	s2,s2,0x2
80002de4:	00090513          	mv	a0,s2
80002de8:	41c000ef          	jal	ra,80003204 <malloc>
80002dec:	00050493          	mv	s1,a0
80002df0:	00090513          	mv	a0,s2
80002df4:	00009797          	auipc	a5,0x9
80002df8:	3097aa23          	sw	s1,788(a5) # 8000c108 <univ_array>
80002dfc:	408000ef          	jal	ra,80003204 <malloc>
80002e00:	00009797          	auipc	a5,0x9
80002e04:	30a7a223          	sw	a0,772(a5) # 8000c104 <new_array>
80002e08:	05505863          	blez	s5,80002e58 <game_of_life+0x104>
80002e0c:	00048a13          	mv	s4,s1
80002e10:	002a9913          	slli	s2,s5,0x2
80002e14:	00000993          	li	s3,0
80002e18:	00300b93          	li	s7,3
80002e1c:	000a0c93          	mv	s9,s4
80002e20:	00000c13          	li	s8,0
80002e24:	036bd463          	bge	s7,s6,80002e4c <game_of_life+0xf8>
80002e28:	3a8000ef          	jal	ra,800031d0 <rand>
80002e2c:	01f55793          	srli	a5,a0,0x1f
80002e30:	00f50533          	add	a0,a0,a5
80002e34:	00157513          	andi	a0,a0,1
80002e38:	40f50533          	sub	a0,a0,a5
80002e3c:	00aca023          	sw	a0,0(s9)
80002e40:	001c0c13          	addi	s8,s8,1
80002e44:	012c8cb3          	add	s9,s9,s2
80002e48:	fe8c40e3          	blt	s8,s0,80002e28 <game_of_life+0xd4>
80002e4c:	00198993          	addi	s3,s3,1
80002e50:	004a0a13          	addi	s4,s4,4
80002e54:	fd3a94e3          	bne	s5,s3,80002e1c <game_of_life+0xc8>
80002e58:	000319b7          	lui	s3,0x31
80002e5c:	d4098993          	addi	s3,s3,-704 # 30d40 <_entry_offset+0x30d40>
80002e60:	00048513          	mv	a0,s1
80002e64:	b91ff0ef          	jal	ra,800029f4 <show>
80002e68:	00048513          	mv	a0,s1
80002e6c:	d75ff0ef          	jal	ra,80002be0 <evolve>
80002e70:	00010593          	mv	a1,sp
80002e74:	00600513          	li	a0,6
80002e78:	164000ef          	jal	ra,80002fdc <ioe_read>
80002e7c:	00012403          	lw	s0,0(sp)
80002e80:	00412783          	lw	a5,4(sp)
80002e84:	01340933          	add	s2,s0,s3
80002e88:	00893433          	sltu	s0,s2,s0
80002e8c:	00f40433          	add	s0,s0,a5
80002e90:	00010593          	mv	a1,sp
80002e94:	00600513          	li	a0,6
80002e98:	144000ef          	jal	ra,80002fdc <ioe_read>
80002e9c:	00412783          	lw	a5,4(sp)
80002ea0:	00012703          	lw	a4,0(sp)
80002ea4:	fe87e6e3          	bltu	a5,s0,80002e90 <game_of_life+0x13c>
80002ea8:	faf41ce3          	bne	s0,a5,80002e60 <game_of_life+0x10c>
80002eac:	ff2762e3          	bltu	a4,s2,80002e90 <game_of_life+0x13c>
80002eb0:	fb1ff06f          	j	80002e60 <game_of_life+0x10c>

80002eb4 <putch>:
80002eb4:	a00007b7          	lui	a5,0xa0000
80002eb8:	3ea78c23          	sb	a0,1016(a5) # a00003f8 <_end+0x1ffeb3f8>
80002ebc:	00008067          	ret

80002ec0 <halt>:
80002ec0:	00050513          	mv	a0,a0
80002ec4:	00100073          	ebreak
80002ec8:	0000006f          	j	80002ec8 <halt+0x8>

80002ecc <_trm_init>:
80002ecc:	ff010113          	addi	sp,sp,-16
80002ed0:	00005517          	auipc	a0,0x5
80002ed4:	4cc50513          	addi	a0,a0,1228 # 8000839c <mainargs>
80002ed8:	00112623          	sw	ra,12(sp)
80002edc:	840ff0ef          	jal	ra,80001f1c <main>
80002ee0:	00050513          	mv	a0,a0
80002ee4:	00100073          	ebreak
80002ee8:	0000006f          	j	80002ee8 <_trm_init+0x1c>

80002eec <__am_timer_config>:
80002eec:	00100793          	li	a5,1
80002ef0:	00f50023          	sb	a5,0(a0)
80002ef4:	00f500a3          	sb	a5,1(a0)
80002ef8:	00008067          	ret

80002efc <__am_input_config>:
80002efc:	00100793          	li	a5,1
80002f00:	00f50023          	sb	a5,0(a0)
80002f04:	00008067          	ret

80002f08 <__am_uart_config>:
80002f08:	00050023          	sb	zero,0(a0)
80002f0c:	00008067          	ret

80002f10 <__am_net_config>:
80002f10:	00050023          	sb	zero,0(a0)
80002f14:	00008067          	ret

80002f18 <fail>:
80002f18:	ff010113          	addi	sp,sp,-16
80002f1c:	00812423          	sw	s0,8(sp)
80002f20:	00112623          	sw	ra,12(sp)
80002f24:	00005417          	auipc	s0,0x5
80002f28:	4b840413          	addi	s0,s0,1208 # 800083dc <mainargs+0x40>
80002f2c:	04100513          	li	a0,65
80002f30:	00140413          	addi	s0,s0,1
80002f34:	f81ff0ef          	jal	ra,80002eb4 <putch>
80002f38:	00044503          	lbu	a0,0(s0)
80002f3c:	fe051ae3          	bnez	a0,80002f30 <fail+0x18>
80002f40:	00005417          	auipc	s0,0x5
80002f44:	4a840413          	addi	s0,s0,1192 # 800083e8 <mainargs+0x4c>
80002f48:	06100513          	li	a0,97
80002f4c:	00140413          	addi	s0,s0,1
80002f50:	f65ff0ef          	jal	ra,80002eb4 <putch>
80002f54:	00044503          	lbu	a0,0(s0)
80002f58:	fe051ae3          	bnez	a0,80002f4c <fail+0x34>
80002f5c:	00005417          	auipc	s0,0x5
80002f60:	4a840413          	addi	s0,s0,1192 # 80008404 <mainargs+0x68>
80002f64:	02000513          	li	a0,32
80002f68:	00140413          	addi	s0,s0,1
80002f6c:	f49ff0ef          	jal	ra,80002eb4 <putch>
80002f70:	00044503          	lbu	a0,0(s0)
80002f74:	fe051ae3          	bnez	a0,80002f68 <fail+0x50>
80002f78:	00100513          	li	a0,1
80002f7c:	f45ff0ef          	jal	ra,80002ec0 <halt>

80002f80 <ioe_init>:
80002f80:	ff010113          	addi	sp,sp,-16
80002f84:	00112623          	sw	ra,12(sp)
80002f88:	00005797          	auipc	a5,0x5
80002f8c:	5c878793          	addi	a5,a5,1480 # 80008550 <lut>
80002f90:	00005697          	auipc	a3,0x5
80002f94:	7c068693          	addi	a3,a3,1984 # 80008750 <last_c.2>
80002f98:	00000617          	auipc	a2,0x0
80002f9c:	f8060613          	addi	a2,a2,-128 # 80002f18 <fail>
80002fa0:	00c0006f          	j	80002fac <ioe_init+0x2c>
80002fa4:	00478793          	addi	a5,a5,4
80002fa8:	00d78c63          	beq	a5,a3,80002fc0 <ioe_init+0x40>
80002fac:	0007a703          	lw	a4,0(a5)
80002fb0:	fe071ae3          	bnez	a4,80002fa4 <ioe_init+0x24>
80002fb4:	00c7a023          	sw	a2,0(a5)
80002fb8:	00478793          	addi	a5,a5,4
80002fbc:	fed798e3          	bne	a5,a3,80002fac <ioe_init+0x2c>
80002fc0:	0b4000ef          	jal	ra,80003074 <__am_gpu_init>
80002fc4:	050000ef          	jal	ra,80003014 <__am_timer_init>
80002fc8:	168000ef          	jal	ra,80003130 <__am_audio_init>
80002fcc:	00c12083          	lw	ra,12(sp)
80002fd0:	00100513          	li	a0,1
80002fd4:	01010113          	addi	sp,sp,16
80002fd8:	00008067          	ret

80002fdc <ioe_read>:
80002fdc:	00251513          	slli	a0,a0,0x2
80002fe0:	00005797          	auipc	a5,0x5
80002fe4:	57078793          	addi	a5,a5,1392 # 80008550 <lut>
80002fe8:	00a787b3          	add	a5,a5,a0
80002fec:	0007a783          	lw	a5,0(a5)
80002ff0:	00058513          	mv	a0,a1
80002ff4:	00078067          	jr	a5

80002ff8 <ioe_write>:
80002ff8:	00251513          	slli	a0,a0,0x2
80002ffc:	00005797          	auipc	a5,0x5
80003000:	55478793          	addi	a5,a5,1364 # 80008550 <lut>
80003004:	00a787b3          	add	a5,a5,a0
80003008:	0007a783          	lw	a5,0(a5)
8000300c:	00058513          	mv	a0,a1
80003010:	00078067          	jr	a5

80003014 <__am_timer_init>:
80003014:	00008067          	ret

80003018 <__am_timer_uptime>:
80003018:	a00007b7          	lui	a5,0xa0000
8000301c:	04c7a703          	lw	a4,76(a5) # a000004c <_end+0x1ffeb04c>
80003020:	0487a783          	lw	a5,72(a5)
80003024:	00e52223          	sw	a4,4(a0)
80003028:	00f52023          	sw	a5,0(a0)
8000302c:	00008067          	ret

80003030 <__am_timer_rtc>:
80003030:	7e900793          	li	a5,2025
80003034:	00052a23          	sw	zero,20(a0)
80003038:	00052823          	sw	zero,16(a0)
8000303c:	00052623          	sw	zero,12(a0)
80003040:	00052423          	sw	zero,8(a0)
80003044:	00052223          	sw	zero,4(a0)
80003048:	00f52023          	sw	a5,0(a0)
8000304c:	00008067          	ret

80003050 <__am_input_keybrd>:
80003050:	a00007b7          	lui	a5,0xa0000
80003054:	0607a783          	lw	a5,96(a5) # a0000060 <_end+0x1ffeb060>
80003058:	00f7d713          	srli	a4,a5,0xf
8000305c:	01179793          	slli	a5,a5,0x11
80003060:	00177713          	andi	a4,a4,1
80003064:	0117d793          	srli	a5,a5,0x11
80003068:	00e50023          	sb	a4,0(a0)
8000306c:	00f52223          	sw	a5,4(a0)
80003070:	00008067          	ret

80003074 <__am_gpu_init>:
80003074:	00008067          	ret

80003078 <__am_gpu_config>:
80003078:	a00007b7          	lui	a5,0xa0000
8000307c:	1027d703          	lhu	a4,258(a5) # a0000102 <_end+0x1ffeb102>
80003080:	1007d783          	lhu	a5,256(a5)
80003084:	00100693          	li	a3,1
80003088:	00d51023          	sh	a3,0(a0)
8000308c:	00052623          	sw	zero,12(a0)
80003090:	00e52223          	sw	a4,4(a0)
80003094:	00f52423          	sw	a5,8(a0)
80003098:	00008067          	ret

8000309c <__am_gpu_fbdraw>:
8000309c:	01454783          	lbu	a5,20(a0)
800030a0:	00078863          	beqz	a5,800030b0 <__am_gpu_fbdraw+0x14>
800030a4:	a00007b7          	lui	a5,0xa0000
800030a8:	00100713          	li	a4,1
800030ac:	10e7a223          	sw	a4,260(a5) # a0000104 <_end+0x1ffeb104>
800030b0:	00452703          	lw	a4,4(a0)
800030b4:	19000593          	li	a1,400
800030b8:	00052783          	lw	a5,0(a0)
800030bc:	02e585b3          	mul	a1,a1,a4
800030c0:	01052883          	lw	a7,16(a0)
800030c4:	00852683          	lw	a3,8(a0)
800030c8:	00f585b3          	add	a1,a1,a5
800030cc:	284007b7          	lui	a5,0x28400
800030d0:	00f585b3          	add	a1,a1,a5
800030d4:	00259593          	slli	a1,a1,0x2
800030d8:	05105463          	blez	a7,80003120 <__am_gpu_fbdraw+0x84>
800030dc:	00c52603          	lw	a2,12(a0)
800030e0:	00000813          	li	a6,0
800030e4:	00058713          	mv	a4,a1
800030e8:	00000793          	li	a5,0
800030ec:	02c05263          	blez	a2,80003110 <__am_gpu_fbdraw+0x74>
800030f0:	0006a603          	lw	a2,0(a3)
800030f4:	00178793          	addi	a5,a5,1 # 28400001 <_entry_offset+0x28400001>
800030f8:	00468693          	addi	a3,a3,4
800030fc:	00c72023          	sw	a2,0(a4)
80003100:	00c52603          	lw	a2,12(a0)
80003104:	00470713          	addi	a4,a4,4
80003108:	fec7c4e3          	blt	a5,a2,800030f0 <__am_gpu_fbdraw+0x54>
8000310c:	01052883          	lw	a7,16(a0)
80003110:	00180813          	addi	a6,a6,1
80003114:	64058593          	addi	a1,a1,1600
80003118:	fd1846e3          	blt	a6,a7,800030e4 <__am_gpu_fbdraw+0x48>
8000311c:	00008067          	ret
80003120:	00008067          	ret

80003124 <__am_gpu_status>:
80003124:	00100793          	li	a5,1
80003128:	00f50023          	sb	a5,0(a0)
8000312c:	00008067          	ret

80003130 <__am_audio_init>:
80003130:	00008067          	ret

80003134 <__am_audio_config>:
80003134:	00050023          	sb	zero,0(a0)
80003138:	00008067          	ret

8000313c <__am_audio_ctrl>:
8000313c:	00008067          	ret

80003140 <__am_audio_status>:
80003140:	00052023          	sw	zero,0(a0)
80003144:	00008067          	ret

80003148 <__am_audio_play>:
80003148:	00008067          	ret

8000314c <__am_disk_config>:
8000314c:	00050023          	sb	zero,0(a0)
80003150:	00008067          	ret

80003154 <__am_disk_status>:
80003154:	00008067          	ret

80003158 <__am_disk_blkio>:
80003158:	00008067          	ret

8000315c <memset>:
8000315c:	0ff5f593          	zext.b	a1,a1
80003160:	00050793          	mv	a5,a0
80003164:	00a60733          	add	a4,a2,a0
80003168:	00060863          	beqz	a2,80003178 <memset+0x1c>
8000316c:	00b78023          	sb	a1,0(a5)
80003170:	00178793          	addi	a5,a5,1
80003174:	fee79ce3          	bne	a5,a4,8000316c <memset+0x10>
80003178:	00008067          	ret

8000317c <memmove>:
8000317c:	02a5e463          	bltu	a1,a0,800031a4 <memmove+0x28>
80003180:	04060663          	beqz	a2,800031cc <memmove+0x50>
80003184:	00c50633          	add	a2,a0,a2
80003188:	00050793          	mv	a5,a0
8000318c:	0005c703          	lbu	a4,0(a1)
80003190:	00178793          	addi	a5,a5,1
80003194:	00158593          	addi	a1,a1,1
80003198:	fee78fa3          	sb	a4,-1(a5)
8000319c:	fec798e3          	bne	a5,a2,8000318c <memmove+0x10>
800031a0:	00008067          	ret
800031a4:	fff60713          	addi	a4,a2,-1
800031a8:	00e507b3          	add	a5,a0,a4
800031ac:	00e585b3          	add	a1,a1,a4
800031b0:	00060e63          	beqz	a2,800031cc <memmove+0x50>
800031b4:	fff50693          	addi	a3,a0,-1
800031b8:	0005c703          	lbu	a4,0(a1)
800031bc:	fff78793          	addi	a5,a5,-1
800031c0:	fff58593          	addi	a1,a1,-1
800031c4:	00e780a3          	sb	a4,1(a5)
800031c8:	fef698e3          	bne	a3,a5,800031b8 <memmove+0x3c>
800031cc:	00008067          	ret

800031d0 <rand>:
800031d0:	00005697          	auipc	a3,0x5
800031d4:	5a068693          	addi	a3,a3,1440 # 80008770 <next>
800031d8:	0006a783          	lw	a5,0(a3)
800031dc:	41c65737          	lui	a4,0x41c65
800031e0:	e6d70713          	addi	a4,a4,-403 # 41c64e6d <_entry_offset+0x41c64e6d>
800031e4:	02e787b3          	mul	a5,a5,a4
800031e8:	00003737          	lui	a4,0x3
800031ec:	03970713          	addi	a4,a4,57 # 3039 <_entry_offset+0x3039>
800031f0:	00e787b3          	add	a5,a5,a4
800031f4:	00179513          	slli	a0,a5,0x1
800031f8:	00f6a023          	sw	a5,0(a3)
800031fc:	01155513          	srli	a0,a0,0x11
80003200:	00008067          	ret

80003204 <malloc>:
80003204:	00009617          	auipc	a2,0x9
80003208:	f0860613          	addi	a2,a2,-248 # 8000c10c <hbrk>
8000320c:	00062683          	lw	a3,0(a2)
80003210:	00005797          	auipc	a5,0x5
80003214:	55878793          	addi	a5,a5,1368 # 80008768 <heap>
80003218:	0007a583          	lw	a1,0(a5)
8000321c:	04068463          	beqz	a3,80003264 <malloc+0x60>
80003220:	00750713          	addi	a4,a0,7
80003224:	ff877713          	andi	a4,a4,-8
80003228:	00e68733          	add	a4,a3,a4
8000322c:	00e62023          	sw	a4,0(a2)
80003230:	04b76063          	bltu	a4,a1,80003270 <malloc+0x6c>
80003234:	0047a783          	lw	a5,4(a5)
80003238:	02f77c63          	bgeu	a4,a5,80003270 <malloc+0x6c>
8000323c:	00068793          	mv	a5,a3
80003240:	00d70e63          	beq	a4,a3,8000325c <malloc+0x58>
80003244:	00000593          	li	a1,0
80003248:	00000613          	li	a2,0
8000324c:	00b7a023          	sw	a1,0(a5)
80003250:	00c7a223          	sw	a2,4(a5)
80003254:	00878793          	addi	a5,a5,8
80003258:	fef716e3          	bne	a4,a5,80003244 <malloc+0x40>
8000325c:	00068513          	mv	a0,a3
80003260:	00008067          	ret
80003264:	00758693          	addi	a3,a1,7
80003268:	ff86f693          	andi	a3,a3,-8
8000326c:	fb5ff06f          	j	80003220 <malloc+0x1c>
80003270:	ff010113          	addi	sp,sp,-16
80003274:	02900613          	li	a2,41
80003278:	00005597          	auipc	a1,0x5
8000327c:	1e858593          	addi	a1,a1,488 # 80008460 <mainargs+0xc4>
80003280:	00005517          	auipc	a0,0x5
80003284:	22450513          	addi	a0,a0,548 # 800084a4 <mainargs+0x108>
80003288:	00112623          	sw	ra,12(sp)
8000328c:	010000ef          	jal	ra,8000329c <printf>
80003290:	00100513          	li	a0,1
80003294:	c2dff0ef          	jal	ra,80002ec0 <halt>

80003298 <free>:
80003298:	00008067          	ret

8000329c <printf>:
8000329c:	fc010113          	addi	sp,sp,-64
800032a0:	02410313          	addi	t1,sp,36
800032a4:	02b12223          	sw	a1,36(sp)
800032a8:	02c12423          	sw	a2,40(sp)
800032ac:	00050593          	mv	a1,a0
800032b0:	00030613          	mv	a2,t1
800032b4:	00000517          	auipc	a0,0x0
800032b8:	c0050513          	addi	a0,a0,-1024 # 80002eb4 <putch>
800032bc:	00112e23          	sw	ra,28(sp)
800032c0:	02d12623          	sw	a3,44(sp)
800032c4:	02e12823          	sw	a4,48(sp)
800032c8:	02f12a23          	sw	a5,52(sp)
800032cc:	03012c23          	sw	a6,56(sp)
800032d0:	03112e23          	sw	a7,60(sp)
800032d4:	00612623          	sw	t1,12(sp)
800032d8:	010000ef          	jal	ra,800032e8 <vprintf>
800032dc:	01c12083          	lw	ra,28(sp)
800032e0:	04010113          	addi	sp,sp,64
800032e4:	00008067          	ret

800032e8 <vprintf>:
800032e8:	f7010113          	addi	sp,sp,-144
800032ec:	08112623          	sw	ra,140(sp)
800032f0:	08812423          	sw	s0,136(sp)
800032f4:	08912223          	sw	s1,132(sp)
800032f8:	09212023          	sw	s2,128(sp)
800032fc:	07312e23          	sw	s3,124(sp)
80003300:	07412c23          	sw	s4,120(sp)
80003304:	07512a23          	sw	s5,116(sp)
80003308:	07612823          	sw	s6,112(sp)
8000330c:	07712623          	sw	s7,108(sp)
80003310:	07812423          	sw	s8,104(sp)
80003314:	07912223          	sw	s9,100(sp)
80003318:	07a12023          	sw	s10,96(sp)
8000331c:	05b12e23          	sw	s11,92(sp)
80003320:	0005c783          	lbu	a5,0(a1)
80003324:	3a078a63          	beqz	a5,800036d8 <vprintf+0x3f0>
80003328:	ccccdc37          	lui	s8,0xccccd
8000332c:	100009b7          	lui	s3,0x10000
80003330:	ccdc0493          	addi	s1,s8,-819 # cccccccd <_end+0x4ccb7ccd>
80003334:	00058413          	mv	s0,a1
80003338:	00050a13          	mv	s4,a0
8000333c:	00060a93          	mv	s5,a2
80003340:	00000913          	li	s2,0
80003344:	00000d13          	li	s10,0
80003348:	00000d93          	li	s11,0
8000334c:	02500b93          	li	s7,37
80003350:	00005c97          	auipc	s9,0x5
80003354:	1b4c8c93          	addi	s9,s9,436 # 80008504 <mainargs+0x168>
80003358:	01010b13          	addi	s6,sp,16
8000335c:	fff98993          	addi	s3,s3,-1 # fffffff <_entry_offset+0xfffffff>
80003360:	cccc0c13          	addi	s8,s8,-820
80003364:	07778063          	beq	a5,s7,800033c4 <vprintf+0xdc>
80003368:	060d9263          	bnez	s11,800033cc <vprintf+0xe4>
8000336c:	00078513          	mv	a0,a5
80003370:	000a00e7          	jalr	s4
80003374:	00190913          	addi	s2,s2,1
80003378:	00144783          	lbu	a5,1(s0)
8000337c:	00140413          	addi	s0,s0,1
80003380:	fe0792e3          	bnez	a5,80003364 <vprintf+0x7c>
80003384:	08c12083          	lw	ra,140(sp)
80003388:	08812403          	lw	s0,136(sp)
8000338c:	08412483          	lw	s1,132(sp)
80003390:	07c12983          	lw	s3,124(sp)
80003394:	07812a03          	lw	s4,120(sp)
80003398:	07412a83          	lw	s5,116(sp)
8000339c:	07012b03          	lw	s6,112(sp)
800033a0:	06c12b83          	lw	s7,108(sp)
800033a4:	06812c03          	lw	s8,104(sp)
800033a8:	06412c83          	lw	s9,100(sp)
800033ac:	06012d03          	lw	s10,96(sp)
800033b0:	05c12d83          	lw	s11,92(sp)
800033b4:	00090513          	mv	a0,s2
800033b8:	08012903          	lw	s2,128(sp)
800033bc:	09010113          	addi	sp,sp,144
800033c0:	00008067          	ret
800033c4:	001dbd93          	seqz	s11,s11
800033c8:	01b40433          	add	s0,s0,s11
800033cc:	00044783          	lbu	a5,0(s0)
800033d0:	11778663          	beq	a5,s7,800034dc <vprintf+0x1f4>
800033d4:	f9d78793          	addi	a5,a5,-99
800033d8:	0ff7f793          	zext.b	a5,a5
800033dc:	01200713          	li	a4,18
800033e0:	00f76c63          	bltu	a4,a5,800033f8 <vprintf+0x110>
800033e4:	00279793          	slli	a5,a5,0x2
800033e8:	019787b3          	add	a5,a5,s9
800033ec:	0007a783          	lw	a5,0(a5)
800033f0:	019787b3          	add	a5,a5,s9
800033f4:	00078067          	jr	a5
800033f8:	00100d93          	li	s11,1
800033fc:	f7dff06f          	j	80003378 <vprintf+0x90>
80003400:	00200793          	li	a5,2
80003404:	31a7c663          	blt	a5,s10,80003710 <vprintf+0x428>
80003408:	28fd0863          	beq	s10,a5,80003698 <vprintf+0x3b0>
8000340c:	000aa703          	lw	a4,0(s5)
80003410:	00000693          	li	a3,0
80003414:	004a8a93          	addi	s5,s5,4
80003418:	00d767b3          	or	a5,a4,a3
8000341c:	0c079863          	bnez	a5,800034ec <vprintf+0x204>
80003420:	03000513          	li	a0,48
80003424:	00190913          	addi	s2,s2,1
80003428:	000a00e7          	jalr	s4
8000342c:	00000d13          	li	s10,0
80003430:	00000d93          	li	s11,0
80003434:	f45ff06f          	j	80003378 <vprintf+0x90>
80003438:	2c0d1863          	bnez	s10,80003708 <vprintf+0x420>
8000343c:	000aa783          	lw	a5,0(s5)
80003440:	004a8a93          	addi	s5,s5,4
80003444:	0007c503          	lbu	a0,0(a5)
80003448:	00f12623          	sw	a5,12(sp)
8000344c:	26050e63          	beqz	a0,800036c8 <vprintf+0x3e0>
80003450:	00090d93          	mv	s11,s2
80003454:	000a00e7          	jalr	s4
80003458:	00c12703          	lw	a4,12(sp)
8000345c:	001d8d93          	addi	s11,s11,1
80003460:	412d87b3          	sub	a5,s11,s2
80003464:	00f707b3          	add	a5,a4,a5
80003468:	0007c503          	lbu	a0,0(a5)
8000346c:	fe0514e3          	bnez	a0,80003454 <vprintf+0x16c>
80003470:	000d8913          	mv	s2,s11
80003474:	00000d93          	li	s11,0
80003478:	f01ff06f          	j	80003378 <vprintf+0x90>
8000347c:	001d0d13          	addi	s10,s10,1
80003480:	00100d93          	li	s11,1
80003484:	ef5ff06f          	j	80003378 <vprintf+0x90>
80003488:	00200793          	li	a5,2
8000348c:	25a7ca63          	blt	a5,s10,800036e0 <vprintf+0x3f8>
80003490:	22fd0063          	beq	s10,a5,800036b0 <vprintf+0x3c8>
80003494:	000aad83          	lw	s11,0(s5)
80003498:	004a8a93          	addi	s5,s5,4
8000349c:	41fdd713          	srai	a4,s11,0x1f
800034a0:	00190d13          	addi	s10,s2,1
800034a4:	10074a63          	bltz	a4,800035b8 <vprintf+0x2d0>
800034a8:	00ede7b3          	or	a5,s11,a4
800034ac:	22079263          	bnez	a5,800036d0 <vprintf+0x3e8>
800034b0:	03000513          	li	a0,48
800034b4:	000a00e7          	jalr	s4
800034b8:	000d0913          	mv	s2,s10
800034bc:	f71ff06f          	j	8000342c <vprintf+0x144>
800034c0:	240d1063          	bnez	s10,80003700 <vprintf+0x418>
800034c4:	000ac503          	lbu	a0,0(s5)
800034c8:	00190913          	addi	s2,s2,1
800034cc:	004a8a93          	addi	s5,s5,4
800034d0:	000a00e7          	jalr	s4
800034d4:	00000d93          	li	s11,0
800034d8:	ea1ff06f          	j	80003378 <vprintf+0x90>
800034dc:	02500513          	li	a0,37
800034e0:	000a00e7          	jalr	s4
800034e4:	00000d93          	li	s11,0
800034e8:	e91ff06f          	j	80003378 <vprintf+0x90>
800034ec:	000b0613          	mv	a2,s6
800034f0:	00000593          	li	a1,0
800034f4:	00500813          	li	a6,5
800034f8:	00900893          	li	a7,9
800034fc:	00469793          	slli	a5,a3,0x4
80003500:	01c75513          	srli	a0,a4,0x1c
80003504:	00a7e533          	or	a0,a5,a0
80003508:	01357533          	and	a0,a0,s3
8000350c:	013777b3          	and	a5,a4,s3
80003510:	0186d313          	srli	t1,a3,0x18
80003514:	00a787b3          	add	a5,a5,a0
80003518:	006787b3          	add	a5,a5,t1
8000351c:	0307f7b3          	remu	a5,a5,a6
80003520:	00068313          	mv	t1,a3
80003524:	00160613          	addi	a2,a2,1
80003528:	00058d13          	mv	s10,a1
8000352c:	00070e13          	mv	t3,a4
80003530:	00158593          	addi	a1,a1,1
80003534:	40f707b3          	sub	a5,a4,a5
80003538:	00f73533          	sltu	a0,a4,a5
8000353c:	40a686b3          	sub	a3,a3,a0
80003540:	03878eb3          	mul	t4,a5,s8
80003544:	029686b3          	mul	a3,a3,s1
80003548:	0297b533          	mulhu	a0,a5,s1
8000354c:	01d686b3          	add	a3,a3,t4
80003550:	029787b3          	mul	a5,a5,s1
80003554:	00a686b3          	add	a3,a3,a0
80003558:	01f69513          	slli	a0,a3,0x1f
8000355c:	0016d693          	srli	a3,a3,0x1
80003560:	0017d793          	srli	a5,a5,0x1
80003564:	00f567b3          	or	a5,a0,a5
80003568:	00279513          	slli	a0,a5,0x2
8000356c:	00f50533          	add	a0,a0,a5
80003570:	00151513          	slli	a0,a0,0x1
80003574:	40a70533          	sub	a0,a4,a0
80003578:	03050513          	addi	a0,a0,48
8000357c:	0ff57513          	zext.b	a0,a0
80003580:	fea60fa3          	sb	a0,-1(a2)
80003584:	00078713          	mv	a4,a5
80003588:	f6031ae3          	bnez	t1,800034fc <vprintf+0x214>
8000358c:	f7c8e8e3          	bltu	a7,t3,800034fc <vprintf+0x214>
80003590:	01ab0db3          	add	s11,s6,s10
80003594:	00c0006f          	j	800035a0 <vprintf+0x2b8>
80003598:	fffdc503          	lbu	a0,-1(s11)
8000359c:	00078d93          	mv	s11,a5
800035a0:	000a00e7          	jalr	s4
800035a4:	fffd8793          	addi	a5,s11,-1
800035a8:	ffbb18e3          	bne	s6,s11,80003598 <vprintf+0x2b0>
800035ac:	00190913          	addi	s2,s2,1
800035b0:	01a90933          	add	s2,s2,s10
800035b4:	e79ff06f          	j	8000342c <vprintf+0x144>
800035b8:	01b037b3          	snez	a5,s11
800035bc:	40e00733          	neg	a4,a4
800035c0:	40f70733          	sub	a4,a4,a5
800035c4:	02d00513          	li	a0,45
800035c8:	00e12623          	sw	a4,12(sp)
800035cc:	000a00e7          	jalr	s4
800035d0:	00c12703          	lw	a4,12(sp)
800035d4:	41b00db3          	neg	s11,s11
800035d8:	000b0693          	mv	a3,s6
800035dc:	00000613          	li	a2,0
800035e0:	00500593          	li	a1,5
800035e4:	00471793          	slli	a5,a4,0x4
800035e8:	01cdd513          	srli	a0,s11,0x1c
800035ec:	00a7e533          	or	a0,a5,a0
800035f0:	01357533          	and	a0,a0,s3
800035f4:	013df7b3          	and	a5,s11,s3
800035f8:	01875813          	srli	a6,a4,0x18
800035fc:	00a787b3          	add	a5,a5,a0
80003600:	010787b3          	add	a5,a5,a6
80003604:	02b7f7b3          	remu	a5,a5,a1
80003608:	00168693          	addi	a3,a3,1
8000360c:	00060913          	mv	s2,a2
80003610:	00160613          	addi	a2,a2,1
80003614:	40fd87b3          	sub	a5,s11,a5
80003618:	00fdb533          	sltu	a0,s11,a5
8000361c:	40a70733          	sub	a4,a4,a0
80003620:	03878833          	mul	a6,a5,s8
80003624:	02970733          	mul	a4,a4,s1
80003628:	0297b533          	mulhu	a0,a5,s1
8000362c:	01070733          	add	a4,a4,a6
80003630:	029787b3          	mul	a5,a5,s1
80003634:	00a70733          	add	a4,a4,a0
80003638:	01f71513          	slli	a0,a4,0x1f
8000363c:	00175713          	srli	a4,a4,0x1
80003640:	0017d793          	srli	a5,a5,0x1
80003644:	00f567b3          	or	a5,a0,a5
80003648:	00279513          	slli	a0,a5,0x2
8000364c:	00f50533          	add	a0,a0,a5
80003650:	00151513          	slli	a0,a0,0x1
80003654:	40ad8533          	sub	a0,s11,a0
80003658:	03050513          	addi	a0,a0,48
8000365c:	0ff57513          	zext.b	a0,a0
80003660:	00078d93          	mv	s11,a5
80003664:	fea68fa3          	sb	a0,-1(a3)
80003668:	00e7e7b3          	or	a5,a5,a4
8000366c:	f6079ce3          	bnez	a5,800035e4 <vprintf+0x2fc>
80003670:	012b0db3          	add	s11,s6,s2
80003674:	00c0006f          	j	80003680 <vprintf+0x398>
80003678:	fffdc503          	lbu	a0,-1(s11)
8000367c:	00078d93          	mv	s11,a5
80003680:	000a00e7          	jalr	s4
80003684:	fffd8793          	addi	a5,s11,-1
80003688:	ffbb18e3          	bne	s6,s11,80003678 <vprintf+0x390>
8000368c:	001d0d13          	addi	s10,s10,1
80003690:	012d0933          	add	s2,s10,s2
80003694:	d99ff06f          	j	8000342c <vprintf+0x144>
80003698:	007a8a93          	addi	s5,s5,7
8000369c:	ff8afa93          	andi	s5,s5,-8
800036a0:	000aa703          	lw	a4,0(s5)
800036a4:	004aa683          	lw	a3,4(s5)
800036a8:	008a8a93          	addi	s5,s5,8
800036ac:	d6dff06f          	j	80003418 <vprintf+0x130>
800036b0:	007a8a93          	addi	s5,s5,7
800036b4:	ff8afa93          	andi	s5,s5,-8
800036b8:	000aad83          	lw	s11,0(s5)
800036bc:	004aa703          	lw	a4,4(s5)
800036c0:	008a8a93          	addi	s5,s5,8
800036c4:	dddff06f          	j	800034a0 <vprintf+0x1b8>
800036c8:	00000d93          	li	s11,0
800036cc:	cadff06f          	j	80003378 <vprintf+0x90>
800036d0:	00090d13          	mv	s10,s2
800036d4:	f05ff06f          	j	800035d8 <vprintf+0x2f0>
800036d8:	00000913          	li	s2,0
800036dc:	ca9ff06f          	j	80003384 <vprintf+0x9c>
800036e0:	03000613          	li	a2,48
800036e4:	00005597          	auipc	a1,0x5
800036e8:	ddc58593          	addi	a1,a1,-548 # 800084c0 <mainargs+0x124>
800036ec:	00005517          	auipc	a0,0x5
800036f0:	db850513          	addi	a0,a0,-584 # 800084a4 <mainargs+0x108>
800036f4:	ba9ff0ef          	jal	ra,8000329c <printf>
800036f8:	00100513          	li	a0,1
800036fc:	fc4ff0ef          	jal	ra,80002ec0 <halt>
80003700:	02a00613          	li	a2,42
80003704:	fe1ff06f          	j	800036e4 <vprintf+0x3fc>
80003708:	02100613          	li	a2,33
8000370c:	fd9ff06f          	j	800036e4 <vprintf+0x3fc>
80003710:	04c00613          	li	a2,76
80003714:	fd1ff06f          	j	800036e4 <vprintf+0x3fc>
