[1;34m[src/utils/log.c:30 init_log] Log is written to /home/meowth/ysyx/ysyx-workbench/am-kernels/kernels/demo/build/nemu-log.txt[0m
[1;34m[src/memory/paddr.c:50 init_mem] physical memory area [0x80000000, 0x87ffffff][0m
[1;34m[src/device/io/mmio.c:50 add_mmio_map] Add mmio map 'serial' at [0xa00003f8, 0xa00003ff][0m
[1;34m[src/device/io/mmio.c:50 add_mmio_map] Add mmio map 'rtc' at [0xa0000048, 0xa000004f][0m
[1;34m[src/device/io/mmio.c:50 add_mmio_map] Add mmio map 'vgactl' at [0xa0000100, 0xa0000107][0m
[1;34m[src/device/io/mmio.c:50 add_mmio_map] Add mmio map 'vmem' at [0xa1000000, 0xa10752ff][0m
[1;34m[src/device/io/mmio.c:50 add_mmio_map] Add mmio map 'keyboard' at [0xa0000060, 0xa0000063][0m
[1;34m[src/device/io/mmio.c:50 add_mmio_map] Add mmio map 'audio' at [0xa0000200, 0xa0000217][0m
[1;34m[src/device/io/mmio.c:50 add_mmio_map] Add mmio map 'audio-sbuf' at [0xa1200000, 0xa120ffff][0m
[1;34m[src/monitor/monitor.c:61 load_img] The image is /home/meowth/ysyx/ysyx-workbench/am-kernels/kernels/demo/build/demo-riscv32-nemu.bin, size = 34808[0m
[1;34m[src/monitor/monitor.c:29 welcome] Trace: [1;32mON[0m[0m
[1;34m[src/monitor/monitor.c:30 welcome] If trace is enabled, a log file will be generated to record the trace. This may lead to a large log file. If it is not necessary, you can disable it in menuconfig[0m
[1;34m[src/monitor/monitor.c:33 welcome] Build time: 14:20:38, May 30 2025[0m
0x80000000: 00 00 04 13 mv	s0, zero
0x80000004: 00 01 11 17 auipc	sp, 0x11
0x80000008: ff c1 01 13 addi	sp, sp, -4
0x8000000c: 04 40 20 ef jal	0x2044
0x80002050: ff 01 01 13 addi	sp, sp, -0x10
0x80002054: 00 00 55 17 auipc	a0, 5
0x80002058: 43 85 05 13 addi	a0, a0, 0x438
0x8000205c: 00 11 26 23 sw	ra, 0xc(sp)
0x80002060: d5 cf f0 ef jal	-0xaa4
0x800015bc: fe 01 01 13 addi	sp, sp, -0x20
0x800015c0: 00 81 2c 23 sw	s0, 0x18(sp)
0x800015c4: 00 11 2e 23 sw	ra, 0x1c(sp)
0x800015c8: 00 05 04 13 mv	s0, a0
0x800015cc: 33 90 00 ef jal	0xb38
0x80002104: ff 01 01 13 addi	sp, sp, -0x10
0x80002108: 00 11 26 23 sw	ra, 0xc(sp)
0x8000210c: 00 00 57 97 auipc	a5, 5
0x80002110: 53 47 87 93 addi	a5, a5, 0x534
0x80002114: 00 00 56 97 auipc	a3, 5
0x80002118: 72 c6 86 93 addi	a3, a3, 0x72c
0x8000211c: 00 00 06 17 auipc	a2, 0
0x80002120: f8 06 06 13 addi	a2, a2, -0x80
0x80002124: 00 c0 00 6f j	0xc
0x80002130: 00 07 a7 03 lw	a4, 0(a5)
0x80002134: fe 07 1a e3 bnez	a4, -0xc
0x80002138: 00 c7 a0 23 sw	a2, 0(a5)
0x8000213c: 00 47 87 93 addi	a5, a5, 4
0x80002140: fe d7 98 e3 bne	a5, a3, -0x10
0x80002130: 00 07 a7 03 lw	a4, 0(a5)
0x80002134: fe 07 1a e3 bnez	a4, -0xc
0x80002128: 00 47 87 93 addi	a5, a5, 4
0x8000212c: 00 d7 8c 63 beq	a5, a3, 0x18
0x80002130: 00 07 a7 03 lw	a4, 0(a5)
0x80002134: fe 07 1a e3 bnez	a4, -0xc
0x80002138: 00 c7 a0 23 sw	a2, 0(a5)
0x8000213c: 00 47 87 93 addi	a5, a5, 4
0x80002140: fe d7 98 e3 bne	a5, a3, -0x10
0x80002130: 00 07 a7 03 lw	a4, 0(a5)
0x80002134: fe 07 1a e3 bnez	a4, -0xc
0x80002138: 00 c7 a0 23 sw	a2, 0(a5)
0x8000213c: 00 47 87 93 addi	a5, a5, 4
0x80002140: fe d7 98 e3 bne	a5, a3, -0x10
0x80002130: 00 07 a7 03 lw	a4, 0(a5)
0x80002134: fe 07 1a e3 bnez	a4, -0xc
0x80002128: 00 47 87 93 addi	a5, a5, 4
0x8000212c: 00 d7 8c 63 beq	a5, a3, 0x18
0x80002130: 00 07 a7 03 lw	a4, 0(a5)
0x80002134: fe 07 1a e3 bnez	a4, -0xc
0x80002128: 00 47 87 93 addi	a5, a5, 4
0x8000212c: 00 d7 8c 63 beq	a5, a3, 0x18
0x80002130: 00 07 a7 03 lw	a4, 0(a5)
0x80002134: fe 07 1a e3 bnez	a4, -0xc
0x80002128: 00 47 87 93 addi	a5, a5, 4
0x8000212c: 00 d7 8c 63 beq	a5, a3, 0x18
0x80002130: 00 07 a7 03 lw	a4, 0(a5)
0x80002134: fe 07 1a e3 bnez	a4, -0xc
0x80002128: 00 47 87 93 addi	a5, a5, 4
0x8000212c: 00 d7 8c 63 beq	a5, a3, 0x18
0x80002130: 00 07 a7 03 lw	a4, 0(a5)
0x80002134: fe 07 1a e3 bnez	a4, -0xc
0x80002128: 00 47 87 93 addi	a5, a5, 4
0x8000212c: 00 d7 8c 63 beq	a5, a3, 0x18
0x80002130: 00 07 a7 03 lw	a4, 0(a5)
0x80002134: fe 07 1a e3 bnez	a4, -0xc
0x80002128: 00 47 87 93 addi	a5, a5, 4
0x8000212c: 00 d7 8c 63 beq	a5, a3, 0x18
0x80002130: 00 07 a7 03 lw	a4, 0(a5)
0x80002134: fe 07 1a e3 bnez	a4, -0xc
0x80002128: 00 47 87 93 addi	a5, a5, 4
0x8000212c: 00 d7 8c 63 beq	a5, a3, 0x18
0x80002130: 00 07 a7 03 lw	a4, 0(a5)
0x80002134: fe 07 1a e3 bnez	a4, -0xc
0x80002128: 00 47 87 93 addi	a5, a5, 4
0x8000212c: 00 d7 8c 63 beq	a5, a3, 0x18
0x80002130: 00 07 a7 03 lw	a4, 0(a5)
0x80002134: fe 07 1a e3 bnez	a4, -0xc
0x80002138: 00 c7 a0 23 sw	a2, 0(a5)
0x8000213c: 00 47 87 93 addi	a5, a5, 4
0x80002140: fe d7 98 e3 bne	a5, a3, -0x10
0x80002130: 00 07 a7 03 lw	a4, 0(a5)
0x80002134: fe 07 1a e3 bnez	a4, -0xc
0x80002138: 00 c7 a0 23 sw	a2, 0(a5)
0x8000213c: 00 47 87 93 addi	a5, a5, 4
0x80002140: fe d7 98 e3 bne	a5, a3, -0x10
0x80002130: 00 07 a7 03 lw	a4, 0(a5)
0x80002134: fe 07 1a e3 bnez	a4, -0xc
0x80002128: 00 47 87 93 addi	a5, a5, 4
0x8000212c: 00 d7 8c 63 beq	a5, a3, 0x18
0x80002130: 00 07 a7 03 lw	a4, 0(a5)
0x80002134: fe 07 1a e3 bnez	a4, -0xc
0x80002128: 00 47 87 93 addi	a5, a5, 4
0x8000212c: 00 d7 8c 63 beq	a5, a3, 0x18
0x80002130: 00 07 a7 03 lw	a4, 0(a5)
0x80002134: fe 07 1a e3 bnez	a4, -0xc
0x80002128: 00 47 87 93 addi	a5, a5, 4
0x8000212c: 00 d7 8c 63 beq	a5, a3, 0x18
0x80002130: 00 07 a7 03 lw	a4, 0(a5)
0x80002134: fe 07 1a e3 bnez	a4, -0xc
0x80002128: 00 47 87 93 addi	a5, a5, 4
0x8000212c: 00 d7 8c 63 beq	a5, a3, 0x18
0x80002130: 00 07 a7 03 lw	a4, 0(a5)
0x80002134: fe 07 1a e3 bnez	a4, -0xc
0x80002128: 00 47 87 93 addi	a5, a5, 4
0x8000212c: 00 d7 8c 63 beq	a5, a3, 0x18
0x80002130: 00 07 a7 03 lw	a4, 0(a5)
0x80002134: fe 07 1a e3 bnez	a4, -0xc
0x80002128: 00 47 87 93 addi	a5, a5, 4
0x8000212c: 00 d7 8c 63 beq	a5, a3, 0x18
0x80002130: 00 07 a7 03 lw	a4, 0(a5)
0x80002134: fe 07 1a e3 bnez	a4, -0xc
0x80002128: 00 47 87 93 addi	a5, a5, 4
0x8000212c: 00 d7 8c 63 beq	a5, a3, 0x18
0x80002130: 00 07 a7 03 lw	a4, 0(a5)
0x80002134: fe 07 1a e3 bnez	a4, -0xc
0x80002128: 00 47 87 93 addi	a5, a5, 4
0x8000212c: 00 d7 8c 63 beq	a5, a3, 0x18
0x80002130: 00 07 a7 03 lw	a4, 0(a5)
0x80002134: fe 07 1a e3 bnez	a4, -0xc
0x80002138: 00 c7 a0 23 sw	a2, 0(a5)
0x8000213c: 00 47 87 93 addi	a5, a5, 4
0x80002140: fe d7 98 e3 bne	a5, a3, -0x10
0x80002130: 00 07 a7 03 lw	a4, 0(a5)
0x80002134: fe 07 1a e3 bnez	a4, -0xc
0x80002138: 00 c7 a0 23 sw	a2, 0(a5)
0x8000213c: 00 47 87 93 addi	a5, a5, 4
0x80002140: fe d7 98 e3 bne	a5, a3, -0x10
0x80002130: 00 07 a7 03 lw	a4, 0(a5)
0x80002134: fe 07 1a e3 bnez	a4, -0xc
0x80002138: 00 c7 a0 23 sw	a2, 0(a5)
0x8000213c: 00 47 87 93 addi	a5, a5, 4
0x80002140: fe d7 98 e3 bne	a5, a3, -0x10
0x80002130: 00 07 a7 03 lw	a4, 0(a5)
0x80002134: fe 07 1a e3 bnez	a4, -0xc
0x80002138: 00 c7 a0 23 sw	a2, 0(a5)
0x8000213c: 00 47 87 93 addi	a5, a5, 4
0x80002140: fe d7 98 e3 bne	a5, a3, -0x10
0x80002130: 00 07 a7 03 lw	a4, 0(a5)
0x80002134: fe 07 1a e3 bnez	a4, -0xc
0x80002138: 00 c7 a0 23 sw	a2, 0(a5)
0x8000213c: 00 47 87 93 addi	a5, a5, 4
0x80002140: fe d7 98 e3 bne	a5, a3, -0x10
0x80002130: 00 07 a7 03 lw	a4, 0(a5)
0x80002134: fe 07 1a e3 bnez	a4, -0xc
0x80002138: 00 c7 a0 23 sw	a2, 0(a5)
0x8000213c: 00 47 87 93 addi	a5, a5, 4
0x80002140: fe d7 98 e3 bne	a5, a3, -0x10
0x80002130: 00 07 a7 03 lw	a4, 0(a5)
0x80002134: fe 07 1a e3 bnez	a4, -0xc
0x80002138: 00 c7 a0 23 sw	a2, 0(a5)
0x8000213c: 00 47 87 93 addi	a5, a5, 4
0x80002140: fe d7 98 e3 bne	a5, a3, -0x10
0x80002130: 00 07 a7 03 lw	a4, 0(a5)
0x80002134: fe 07 1a e3 bnez	a4, -0xc
0x80002138: 00 c7 a0 23 sw	a2, 0(a5)
0x8000213c: 00 47 87 93 addi	a5, a5, 4
0x80002140: fe d7 98 e3 bne	a5, a3, -0x10
0x80002130: 00 07 a7 03 lw	a4, 0(a5)
0x80002134: fe 07 1a e3 bnez	a4, -0xc
0x80002138: 00 c7 a0 23 sw	a2, 0(a5)
0x8000213c: 00 47 87 93 addi	a5, a5, 4
0x80002140: fe d7 98 e3 bne	a5, a3, -0x10
0x80002130: 00 07 a7 03 lw	a4, 0(a5)
0x80002134: fe 07 1a e3 bnez	a4, -0xc
0x80002138: 00 c7 a0 23 sw	a2, 0(a5)
0x8000213c: 00 47 87 93 addi	a5, a5, 4
0x80002140: fe d7 98 e3 bne	a5, a3, -0x10
0x80002130: 00 07 a7 03 lw	a4, 0(a5)
0x80002134: fe 07 1a e3 bnez	a4, -0xc
0x80002138: 00 c7 a0 23 sw	a2, 0(a5)
0x8000213c: 00 47 87 93 addi	a5, a5, 4
0x80002140: fe d7 98 e3 bne	a5, a3, -0x10
0x80002130: 00 07 a7 03 lw	a4, 0(a5)
0x80002134: fe 07 1a e3 bnez	a4, -0xc
0x80002138: 00 c7 a0 23 sw	a2, 0(a5)
0x8000213c: 00 47 87 93 addi	a5, a5, 4
0x80002140: fe d7 98 e3 bne	a5, a3, -0x10
0x80002130: 00 07 a7 03 lw	a4, 0(a5)
0x80002134: fe 07 1a e3 bnez	a4, -0xc
0x80002138: 00 c7 a0 23 sw	a2, 0(a5)
0x8000213c: 00 47 87 93 addi	a5, a5, 4
0x80002140: fe d7 98 e3 bne	a5, a3, -0x10
0x80002130: 00 07 a7 03 lw	a4, 0(a5)
0x80002134: fe 07 1a e3 bnez	a4, -0xc
0x80002138: 00 c7 a0 23 sw	a2, 0(a5)
0x8000213c: 00 47 87 93 addi	a5, a5, 4
0x80002140: fe d7 98 e3 bne	a5, a3, -0x10
0x80002130: 00 07 a7 03 lw	a4, 0(a5)
0x80002134: fe 07 1a e3 bnez	a4, -0xc
0x80002138: 00 c7 a0 23 sw	a2, 0(a5)
0x8000213c: 00 47 87 93 addi	a5, a5, 4
0x80002140: fe d7 98 e3 bne	a5, a3, -0x10
0x80002130: 00 07 a7 03 lw	a4, 0(a5)
0x80002134: fe 07 1a e3 bnez	a4, -0xc
0x80002138: 00 c7 a0 23 sw	a2, 0(a5)
0x8000213c: 00 47 87 93 addi	a5, a5, 4
0x80002140: fe d7 98 e3 bne	a5, a3, -0x10
0x80002130: 00 07 a7 03 lw	a4, 0(a5)
0x80002134: fe 07 1a e3 bnez	a4, -0xc
0x80002138: 00 c7 a0 23 sw	a2, 0(a5)
0x8000213c: 00 47 87 93 addi	a5, a5, 4
0x80002140: fe d7 98 e3 bne	a5, a3, -0x10
0x80002130: 00 07 a7 03 lw	a4, 0(a5)
0x80002134: fe 07 1a e3 bnez	a4, -0xc
0x80002138: 00 c7 a0 23 sw	a2, 0(a5)
0x8000213c: 00 47 87 93 addi	a5, a5, 4
0x80002140: fe d7 98 e3 bne	a5, a3, -0x10
0x80002130: 00 07 a7 03 lw	a4, 0(a5)
0x80002134: fe 07 1a e3 bnez	a4, -0xc
0x80002138: 00 c7 a0 23 sw	a2, 0(a5)
0x8000213c: 00 47 87 93 addi	a5, a5, 4
0x80002140: fe d7 98 e3 bne	a5, a3, -0x10
0x80002130: 00 07 a7 03 lw	a4, 0(a5)
0x80002134: fe 07 1a e3 bnez	a4, -0xc
0x80002138: 00 c7 a0 23 sw	a2, 0(a5)
0x8000213c: 00 47 87 93 addi	a5, a5, 4
0x80002140: fe d7 98 e3 bne	a5, a3, -0x10
0x80002130: 00 07 a7 03 lw	a4, 0(a5)
0x80002134: fe 07 1a e3 bnez	a4, -0xc
0x80002138: 00 c7 a0 23 sw	a2, 0(a5)
0x8000213c: 00 47 87 93 addi	a5, a5, 4
0x80002140: fe d7 98 e3 bne	a5, a3, -0x10
0x80002130: 00 07 a7 03 lw	a4, 0(a5)
0x80002134: fe 07 1a e3 bnez	a4, -0xc
0x80002138: 00 c7 a0 23 sw	a2, 0(a5)
0x8000213c: 00 47 87 93 addi	a5, a5, 4
0x80002140: fe d7 98 e3 bne	a5, a3, -0x10
0x80002130: 00 07 a7 03 lw	a4, 0(a5)
0x80002134: fe 07 1a e3 bnez	a4, -0xc
0x80002138: 00 c7 a0 23 sw	a2, 0(a5)
0x8000213c: 00 47 87 93 addi	a5, a5, 4
0x80002140: fe d7 98 e3 bne	a5, a3, -0x10
0x80002130: 00 07 a7 03 lw	a4, 0(a5)
0x80002134: fe 07 1a e3 bnez	a4, -0xc
0x80002138: 00 c7 a0 23 sw	a2, 0(a5)
0x8000213c: 00 47 87 93 addi	a5, a5, 4
0x80002140: fe d7 98 e3 bne	a5, a3, -0x10
0x80002130: 00 07 a7 03 lw	a4, 0(a5)
0x80002134: fe 07 1a e3 bnez	a4, -0xc
0x80002138: 00 c7 a0 23 sw	a2, 0(a5)
0x8000213c: 00 47 87 93 addi	a5, a5, 4
0x80002140: fe d7 98 e3 bne	a5, a3, -0x10
0x80002130: 00 07 a7 03 lw	a4, 0(a5)
0x80002134: fe 07 1a e3 bnez	a4, -0xc
0x80002138: 00 c7 a0 23 sw	a2, 0(a5)
0x8000213c: 00 47 87 93 addi	a5, a5, 4
0x80002140: fe d7 98 e3 bne	a5, a3, -0x10
0x80002130: 00 07 a7 03 lw	a4, 0(a5)
0x80002134: fe 07 1a e3 bnez	a4, -0xc
0x80002138: 00 c7 a0 23 sw	a2, 0(a5)
0x8000213c: 00 47 87 93 addi	a5, a5, 4
0x80002140: fe d7 98 e3 bne	a5, a3, -0x10
0x80002130: 00 07 a7 03 lw	a4, 0(a5)
0x80002134: fe 07 1a e3 bnez	a4, -0xc
0x80002138: 00 c7 a0 23 sw	a2, 0(a5)
0x8000213c: 00 47 87 93 addi	a5, a5, 4
0x80002140: fe d7 98 e3 bne	a5, a3, -0x10
0x80002130: 00 07 a7 03 lw	a4, 0(a5)
0x80002134: fe 07 1a e3 bnez	a4, -0xc
0x80002138: 00 c7 a0 23 sw	a2, 0(a5)
0x8000213c: 00 47 87 93 addi	a5, a5, 4
0x80002140: fe d7 98 e3 bne	a5, a3, -0x10
0x80002130: 00 07 a7 03 lw	a4, 0(a5)
0x80002134: fe 07 1a e3 bnez	a4, -0xc
0x80002138: 00 c7 a0 23 sw	a2, 0(a5)
0x8000213c: 00 47 87 93 addi	a5, a5, 4
0x80002140: fe d7 98 e3 bne	a5, a3, -0x10
0x80002130: 00 07 a7 03 lw	a4, 0(a5)
0x80002134: fe 07 1a e3 bnez	a4, -0xc
0x80002138: 00 c7 a0 23 sw	a2, 0(a5)
0x8000213c: 00 47 87 93 addi	a5, a5, 4
0x80002140: fe d7 98 e3 bne	a5, a3, -0x10
0x80002130: 00 07 a7 03 lw	a4, 0(a5)
0x80002134: fe 07 1a e3 bnez	a4, -0xc
0x80002138: 00 c7 a0 23 sw	a2, 0(a5)
0x8000213c: 00 47 87 93 addi	a5, a5, 4
0x80002140: fe d7 98 e3 bne	a5, a3, -0x10
0x80002130: 00 07 a7 03 lw	a4, 0(a5)
0x80002134: fe 07 1a e3 bnez	a4, -0xc
0x80002138: 00 c7 a0 23 sw	a2, 0(a5)
0x8000213c: 00 47 87 93 addi	a5, a5, 4
0x80002140: fe d7 98 e3 bne	a5, a3, -0x10
0x80002130: 00 07 a7 03 lw	a4, 0(a5)
0x80002134: fe 07 1a e3 bnez	a4, -0xc
0x80002138: 00 c7 a0 23 sw	a2, 0(a5)
0x8000213c: 00 47 87 93 addi	a5, a5, 4
0x80002140: fe d7 98 e3 bne	a5, a3, -0x10
0x80002130: 00 07 a7 03 lw	a4, 0(a5)
0x80002134: fe 07 1a e3 bnez	a4, -0xc
0x80002138: 00 c7 a0 23 sw	a2, 0(a5)
0x8000213c: 00 47 87 93 addi	a5, a5, 4
0x80002140: fe d7 98 e3 bne	a5, a3, -0x10
0x80002130: 00 07 a7 03 lw	a4, 0(a5)
0x80002134: fe 07 1a e3 bnez	a4, -0xc
0x80002138: 00 c7 a0 23 sw	a2, 0(a5)
0x8000213c: 00 47 87 93 addi	a5, a5, 4
0x80002140: fe d7 98 e3 bne	a5, a3, -0x10
0x80002130: 00 07 a7 03 lw	a4, 0(a5)
0x80002134: fe 07 1a e3 bnez	a4, -0xc
0x80002138: 00 c7 a0 23 sw	a2, 0(a5)
0x8000213c: 00 47 87 93 addi	a5, a5, 4
0x80002140: fe d7 98 e3 bne	a5, a3, -0x10
0x80002130: 00 07 a7 03 lw	a4, 0(a5)
0x80002134: fe 07 1a e3 bnez	a4, -0xc
0x80002138: 00 c7 a0 23 sw	a2, 0(a5)
0x8000213c: 00 47 87 93 addi	a5, a5, 4
0x80002140: fe d7 98 e3 bne	a5, a3, -0x10
0x80002130: 00 07 a7 03 lw	a4, 0(a5)
0x80002134: fe 07 1a e3 bnez	a4, -0xc
0x80002138: 00 c7 a0 23 sw	a2, 0(a5)
0x8000213c: 00 47 87 93 addi	a5, a5, 4
0x80002140: fe d7 98 e3 bne	a5, a3, -0x10
0x80002130: 00 07 a7 03 lw	a4, 0(a5)
0x80002134: fe 07 1a e3 bnez	a4, -0xc
0x80002138: 00 c7 a0 23 sw	a2, 0(a5)
0x8000213c: 00 47 87 93 addi	a5, a5, 4
0x80002140: fe d7 98 e3 bne	a5, a3, -0x10
0x80002130: 00 07 a7 03 lw	a4, 0(a5)
0x80002134: fe 07 1a e3 bnez	a4, -0xc
0x80002138: 00 c7 a0 23 sw	a2, 0(a5)
0x8000213c: 00 47 87 93 addi	a5, a5, 4
0x80002140: fe d7 98 e3 bne	a5, a3, -0x10
0x80002130: 00 07 a7 03 lw	a4, 0(a5)
0x80002134: fe 07 1a e3 bnez	a4, -0xc
0x80002138: 00 c7 a0 23 sw	a2, 0(a5)
0x8000213c: 00 47 87 93 addi	a5, a5, 4
0x80002140: fe d7 98 e3 bne	a5, a3, -0x10
0x80002130: 00 07 a7 03 lw	a4, 0(a5)
0x80002134: fe 07 1a e3 bnez	a4, -0xc
0x80002138: 00 c7 a0 23 sw	a2, 0(a5)
0x8000213c: 00 47 87 93 addi	a5, a5, 4
0x80002140: fe d7 98 e3 bne	a5, a3, -0x10
0x80002130: 00 07 a7 03 lw	a4, 0(a5)
0x80002134: fe 07 1a e3 bnez	a4, -0xc
0x80002138: 00 c7 a0 23 sw	a2, 0(a5)
0x8000213c: 00 47 87 93 addi	a5, a5, 4
0x80002140: fe d7 98 e3 bne	a5, a3, -0x10
0x80002130: 00 07 a7 03 lw	a4, 0(a5)
0x80002134: fe 07 1a e3 bnez	a4, -0xc
0x80002138: 00 c7 a0 23 sw	a2, 0(a5)
0x8000213c: 00 47 87 93 addi	a5, a5, 4
0x80002140: fe d7 98 e3 bne	a5, a3, -0x10
0x80002130: 00 07 a7 03 lw	a4, 0(a5)
0x80002134: fe 07 1a e3 bnez	a4, -0xc
0x80002138: 00 c7 a0 23 sw	a2, 0(a5)
0x8000213c: 00 47 87 93 addi	a5, a5, 4
0x80002140: fe d7 98 e3 bne	a5, a3, -0x10
0x80002130: 00 07 a7 03 lw	a4, 0(a5)
0x80002134: fe 07 1a e3 bnez	a4, -0xc
0x80002138: 00 c7 a0 23 sw	a2, 0(a5)
0x8000213c: 00 47 87 93 addi	a5, a5, 4
0x80002140: fe d7 98 e3 bne	a5, a3, -0x10
0x80002130: 00 07 a7 03 lw	a4, 0(a5)
0x80002134: fe 07 1a e3 bnez	a4, -0xc
0x80002138: 00 c7 a0 23 sw	a2, 0(a5)
0x8000213c: 00 47 87 93 addi	a5, a5, 4
0x80002140: fe d7 98 e3 bne	a5, a3, -0x10
0x80002130: 00 07 a7 03 lw	a4, 0(a5)
0x80002134: fe 07 1a e3 bnez	a4, -0xc
0x80002138: 00 c7 a0 23 sw	a2, 0(a5)
0x8000213c: 00 47 87 93 addi	a5, a5, 4
0x80002140: fe d7 98 e3 bne	a5, a3, -0x10
0x80002130: 00 07 a7 03 lw	a4, 0(a5)
0x80002134: fe 07 1a e3 bnez	a4, -0xc
0x80002138: 00 c7 a0 23 sw	a2, 0(a5)
0x8000213c: 00 47 87 93 addi	a5, a5, 4
0x80002140: fe d7 98 e3 bne	a5, a3, -0x10
0x80002130: 00 07 a7 03 lw	a4, 0(a5)
0x80002134: fe 07 1a e3 bnez	a4, -0xc
0x80002138: 00 c7 a0 23 sw	a2, 0(a5)
0x8000213c: 00 47 87 93 addi	a5, a5, 4
0x80002140: fe d7 98 e3 bne	a5, a3, -0x10
0x80002130: 00 07 a7 03 lw	a4, 0(a5)
0x80002134: fe 07 1a e3 bnez	a4, -0xc
0x80002138: 00 c7 a0 23 sw	a2, 0(a5)
0x8000213c: 00 47 87 93 addi	a5, a5, 4
0x80002140: fe d7 98 e3 bne	a5, a3, -0x10
0x80002130: 00 07 a7 03 lw	a4, 0(a5)
0x80002134: fe 07 1a e3 bnez	a4, -0xc
0x80002138: 00 c7 a0 23 sw	a2, 0(a5)
0x8000213c: 00 47 87 93 addi	a5, a5, 4
0x80002140: fe d7 98 e3 bne	a5, a3, -0x10
0x80002130: 00 07 a7 03 lw	a4, 0(a5)
0x80002134: fe 07 1a e3 bnez	a4, -0xc
0x80002138: 00 c7 a0 23 sw	a2, 0(a5)
0x8000213c: 00 47 87 93 addi	a5, a5, 4
0x80002140: fe d7 98 e3 bne	a5, a3, -0x10
0x80002130: 00 07 a7 03 lw	a4, 0(a5)
0x80002134: fe 07 1a e3 bnez	a4, -0xc
0x80002138: 00 c7 a0 23 sw	a2, 0(a5)
0x8000213c: 00 47 87 93 addi	a5, a5, 4
0x80002140: fe d7 98 e3 bne	a5, a3, -0x10
0x80002130: 00 07 a7 03 lw	a4, 0(a5)
0x80002134: fe 07 1a e3 bnez	a4, -0xc
0x80002138: 00 c7 a0 23 sw	a2, 0(a5)
0x8000213c: 00 47 87 93 addi	a5, a5, 4
0x80002140: fe d7 98 e3 bne	a5, a3, -0x10
0x80002130: 00 07 a7 03 lw	a4, 0(a5)
0x80002134: fe 07 1a e3 bnez	a4, -0xc
0x80002138: 00 c7 a0 23 sw	a2, 0(a5)
0x8000213c: 00 47 87 93 addi	a5, a5, 4
0x80002140: fe d7 98 e3 bne	a5, a3, -0x10
0x80002130: 00 07 a7 03 lw	a4, 0(a5)
0x80002134: fe 07 1a e3 bnez	a4, -0xc
0x80002138: 00 c7 a0 23 sw	a2, 0(a5)
0x8000213c: 00 47 87 93 addi	a5, a5, 4
0x80002140: fe d7 98 e3 bne	a5, a3, -0x10
0x80002130: 00 07 a7 03 lw	a4, 0(a5)
0x80002134: fe 07 1a e3 bnez	a4, -0xc
0x80002138: 00 c7 a0 23 sw	a2, 0(a5)
0x8000213c: 00 47 87 93 addi	a5, a5, 4
0x80002140: fe d7 98 e3 bne	a5, a3, -0x10
0x80002130: 00 07 a7 03 lw	a4, 0(a5)
0x80002134: fe 07 1a e3 bnez	a4, -0xc
0x80002138: 00 c7 a0 23 sw	a2, 0(a5)
0x8000213c: 00 47 87 93 addi	a5, a5, 4
0x80002140: fe d7 98 e3 bne	a5, a3, -0x10
0x80002130: 00 07 a7 03 lw	a4, 0(a5)
0x80002134: fe 07 1a e3 bnez	a4, -0xc
0x80002138: 00 c7 a0 23 sw	a2, 0(a5)
0x8000213c: 00 47 87 93 addi	a5, a5, 4
0x80002140: fe d7 98 e3 bne	a5, a3, -0x10
0x80002130: 00 07 a7 03 lw	a4, 0(a5)
0x80002134: fe 07 1a e3 bnez	a4, -0xc
0x80002138: 00 c7 a0 23 sw	a2, 0(a5)
0x8000213c: 00 47 87 93 addi	a5, a5, 4
0x80002140: fe d7 98 e3 bne	a5, a3, -0x10
0x80002130: 00 07 a7 03 lw	a4, 0(a5)
0x80002134: fe 07 1a e3 bnez	a4, -0xc
0x80002138: 00 c7 a0 23 sw	a2, 0(a5)
0x8000213c: 00 47 87 93 addi	a5, a5, 4
0x80002140: fe d7 98 e3 bne	a5, a3, -0x10
0x80002130: 00 07 a7 03 lw	a4, 0(a5)
0x80002134: fe 07 1a e3 bnez	a4, -0xc
0x80002138: 00 c7 a0 23 sw	a2, 0(a5)
0x8000213c: 00 47 87 93 addi	a5, a5, 4
0x80002140: fe d7 98 e3 bne	a5, a3, -0x10
0x80002130: 00 07 a7 03 lw	a4, 0(a5)
0x80002134: fe 07 1a e3 bnez	a4, -0xc
0x80002138: 00 c7 a0 23 sw	a2, 0(a5)
0x8000213c: 00 47 87 93 addi	a5, a5, 4
0x80002140: fe d7 98 e3 bne	a5, a3, -0x10
0x80002130: 00 07 a7 03 lw	a4, 0(a5)
0x80002134: fe 07 1a e3 bnez	a4, -0xc
0x80002138: 00 c7 a0 23 sw	a2, 0(a5)
0x8000213c: 00 47 87 93 addi	a5, a5, 4
0x80002140: fe d7 98 e3 bne	a5, a3, -0x10
0x80002130: 00 07 a7 03 lw	a4, 0(a5)
0x80002134: fe 07 1a e3 bnez	a4, -0xc
0x80002138: 00 c7 a0 23 sw	a2, 0(a5)
0x8000213c: 00 47 87 93 addi	a5, a5, 4
0x80002140: fe d7 98 e3 bne	a5, a3, -0x10
0x80002130: 00 07 a7 03 lw	a4, 0(a5)
0x80002134: fe 07 1a e3 bnez	a4, -0xc
0x80002138: 00 c7 a0 23 sw	a2, 0(a5)
0x8000213c: 00 47 87 93 addi	a5, a5, 4
0x80002140: fe d7 98 e3 bne	a5, a3, -0x10
0x80002130: 00 07 a7 03 lw	a4, 0(a5)
0x80002134: fe 07 1a e3 bnez	a4, -0xc
0x80002138: 00 c7 a0 23 sw	a2, 0(a5)
0x8000213c: 00 47 87 93 addi	a5, a5, 4
0x80002140: fe d7 98 e3 bne	a5, a3, -0x10
0x80002130: 00 07 a7 03 lw	a4, 0(a5)
0x80002134: fe 07 1a e3 bnez	a4, -0xc
0x80002138: 00 c7 a0 23 sw	a2, 0(a5)
0x8000213c: 00 47 87 93 addi	a5, a5, 4
0x80002140: fe d7 98 e3 bne	a5, a3, -0x10
0x80002130: 00 07 a7 03 lw	a4, 0(a5)
0x80002134: fe 07 1a e3 bnez	a4, -0xc
0x80002138: 00 c7 a0 23 sw	a2, 0(a5)
0x8000213c: 00 47 87 93 addi	a5, a5, 4
0x80002140: fe d7 98 e3 bne	a5, a3, -0x10
0x80002130: 00 07 a7 03 lw	a4, 0(a5)
0x80002134: fe 07 1a e3 bnez	a4, -0xc
0x80002138: 00 c7 a0 23 sw	a2, 0(a5)
0x8000213c: 00 47 87 93 addi	a5, a5, 4
0x80002140: fe d7 98 e3 bne	a5, a3, -0x10
0x80002130: 00 07 a7 03 lw	a4, 0(a5)
0x80002134: fe 07 1a e3 bnez	a4, -0xc
0x80002138: 00 c7 a0 23 sw	a2, 0(a5)
0x8000213c: 00 47 87 93 addi	a5, a5, 4
0x80002140: fe d7 98 e3 bne	a5, a3, -0x10
0x80002130: 00 07 a7 03 lw	a4, 0(a5)
0x80002134: fe 07 1a e3 bnez	a4, -0xc
0x80002138: 00 c7 a0 23 sw	a2, 0(a5)
0x8000213c: 00 47 87 93 addi	a5, a5, 4
0x80002140: fe d7 98 e3 bne	a5, a3, -0x10
0x80002130: 00 07 a7 03 lw	a4, 0(a5)
0x80002134: fe 07 1a e3 bnez	a4, -0xc
0x80002138: 00 c7 a0 23 sw	a2, 0(a5)
0x8000213c: 00 47 87 93 addi	a5, a5, 4
0x80002140: fe d7 98 e3 bne	a5, a3, -0x10
0x80002130: 00 07 a7 03 lw	a4, 0(a5)
0x80002134: fe 07 1a e3 bnez	a4, -0xc
0x80002138: 00 c7 a0 23 sw	a2, 0(a5)
0x8000213c: 00 47 87 93 addi	a5, a5, 4
0x80002140: fe d7 98 e3 bne	a5, a3, -0x10
0x80002130: 00 07 a7 03 lw	a4, 0(a5)
0x80002134: fe 07 1a e3 bnez	a4, -0xc
0x80002138: 00 c7 a0 23 sw	a2, 0(a5)
0x8000213c: 00 47 87 93 addi	a5, a5, 4
0x80002140: fe d7 98 e3 bne	a5, a3, -0x10
0x80002130: 00 07 a7 03 lw	a4, 0(a5)
0x80002134: fe 07 1a e3 bnez	a4, -0xc
0x80002138: 00 c7 a0 23 sw	a2, 0(a5)
0x8000213c: 00 47 87 93 addi	a5, a5, 4
0x80002140: fe d7 98 e3 bne	a5, a3, -0x10
0x80002130: 00 07 a7 03 lw	a4, 0(a5)
0x80002134: fe 07 1a e3 bnez	a4, -0xc
0x80002138: 00 c7 a0 23 sw	a2, 0(a5)
0x8000213c: 00 47 87 93 addi	a5, a5, 4
0x80002140: fe d7 98 e3 bne	a5, a3, -0x10
0x80002130: 00 07 a7 03 lw	a4, 0(a5)
0x80002134: fe 07 1a e3 bnez	a4, -0xc
0x80002138: 00 c7 a0 23 sw	a2, 0(a5)
0x8000213c: 00 47 87 93 addi	a5, a5, 4
0x80002140: fe d7 98 e3 bne	a5, a3, -0x10
0x80002130: 00 07 a7 03 lw	a4, 0(a5)
0x80002134: fe 07 1a e3 bnez	a4, -0xc
0x80002138: 00 c7 a0 23 sw	a2, 0(a5)
0x8000213c: 00 47 87 93 addi	a5, a5, 4
0x80002140: fe d7 98 e3 bne	a5, a3, -0x10
0x80002130: 00 07 a7 03 lw	a4, 0(a5)
0x80002134: fe 07 1a e3 bnez	a4, -0xc
0x80002138: 00 c7 a0 23 sw	a2, 0(a5)
0x8000213c: 00 47 87 93 addi	a5, a5, 4
0x80002140: fe d7 98 e3 bne	a5, a3, -0x10
0x80002130: 00 07 a7 03 lw	a4, 0(a5)
0x80002134: fe 07 1a e3 bnez	a4, -0xc
0x80002138: 00 c7 a0 23 sw	a2, 0(a5)
0x8000213c: 00 47 87 93 addi	a5, a5, 4
0x80002140: fe d7 98 e3 bne	a5, a3, -0x10
0x80002130: 00 07 a7 03 lw	a4, 0(a5)
0x80002134: fe 07 1a e3 bnez	a4, -0xc
0x80002138: 00 c7 a0 23 sw	a2, 0(a5)
0x8000213c: 00 47 87 93 addi	a5, a5, 4
0x80002140: fe d7 98 e3 bne	a5, a3, -0x10
0x80002130: 00 07 a7 03 lw	a4, 0(a5)
0x80002134: fe 07 1a e3 bnez	a4, -0xc
0x80002138: 00 c7 a0 23 sw	a2, 0(a5)
0x8000213c: 00 47 87 93 addi	a5, a5, 4
0x80002140: fe d7 98 e3 bne	a5, a3, -0x10
0x80002130: 00 07 a7 03 lw	a4, 0(a5)
0x80002134: fe 07 1a e3 bnez	a4, -0xc
0x80002138: 00 c7 a0 23 sw	a2, 0(a5)
0x8000213c: 00 47 87 93 addi	a5, a5, 4
0x80002140: fe d7 98 e3 bne	a5, a3, -0x10
0x80002130: 00 07 a7 03 lw	a4, 0(a5)
0x80002134: fe 07 1a e3 bnez	a4, -0xc
0x80002138: 00 c7 a0 23 sw	a2, 0(a5)
0x8000213c: 00 47 87 93 addi	a5, a5, 4
0x80002140: fe d7 98 e3 bne	a5, a3, -0x10
0x80002130: 00 07 a7 03 lw	a4, 0(a5)
0x80002134: fe 07 1a e3 bnez	a4, -0xc
0x80002138: 00 c7 a0 23 sw	a2, 0(a5)
0x8000213c: 00 47 87 93 addi	a5, a5, 4
0x80002140: fe d7 98 e3 bne	a5, a3, -0x10
0x80002130: 00 07 a7 03 lw	a4, 0(a5)
0x80002134: fe 07 1a e3 bnez	a4, -0xc
0x80002138: 00 c7 a0 23 sw	a2, 0(a5)
0x8000213c: 00 47 87 93 addi	a5, a5, 4
0x80002140: fe d7 98 e3 bne	a5, a3, -0x10
0x80002130: 00 07 a7 03 lw	a4, 0(a5)
0x80002134: fe 07 1a e3 bnez	a4, -0xc
0x80002138: 00 c7 a0 23 sw	a2, 0(a5)
0x8000213c: 00 47 87 93 addi	a5, a5, 4
0x80002140: fe d7 98 e3 bne	a5, a3, -0x10
0x80002130: 00 07 a7 03 lw	a4, 0(a5)
0x80002134: fe 07 1a e3 bnez	a4, -0xc
0x80002138: 00 c7 a0 23 sw	a2, 0(a5)
0x8000213c: 00 47 87 93 addi	a5, a5, 4
0x80002140: fe d7 98 e3 bne	a5, a3, -0x10
0x80002130: 00 07 a7 03 lw	a4, 0(a5)
0x80002134: fe 07 1a e3 bnez	a4, -0xc
0x80002138: 00 c7 a0 23 sw	a2, 0(a5)
0x8000213c: 00 47 87 93 addi	a5, a5, 4
0x80002140: fe d7 98 e3 bne	a5, a3, -0x10
0x80002130: 00 07 a7 03 lw	a4, 0(a5)
0x80002134: fe 07 1a e3 bnez	a4, -0xc
0x80002138: 00 c7 a0 23 sw	a2, 0(a5)
0x8000213c: 00 47 87 93 addi	a5, a5, 4
0x80002140: fe d7 98 e3 bne	a5, a3, -0x10
0x80002130: 00 07 a7 03 lw	a4, 0(a5)
0x80002134: fe 07 1a e3 bnez	a4, -0xc
0x80002138: 00 c7 a0 23 sw	a2, 0(a5)
0x8000213c: 00 47 87 93 addi	a5, a5, 4
0x80002140: fe d7 98 e3 bne	a5, a3, -0x10
0x80002130: 00 07 a7 03 lw	a4, 0(a5)
0x80002134: fe 07 1a e3 bnez	a4, -0xc
0x80002138: 00 c7 a0 23 sw	a2, 0(a5)
0x8000213c: 00 47 87 93 addi	a5, a5, 4
0x80002140: fe d7 98 e3 bne	a5, a3, -0x10
0x80002130: 00 07 a7 03 lw	a4, 0(a5)
0x80002134: fe 07 1a e3 bnez	a4, -0xc
0x80002138: 00 c7 a0 23 sw	a2, 0(a5)
0x8000213c: 00 47 87 93 addi	a5, a5, 4
0x80002140: fe d7 98 e3 bne	a5, a3, -0x10
0x80002130: 00 07 a7 03 lw	a4, 0(a5)
0x80002134: fe 07 1a e3 bnez	a4, -0xc
0x80002138: 00 c7 a0 23 sw	a2, 0(a5)
0x8000213c: 00 47 87 93 addi	a5, a5, 4
0x80002140: fe d7 98 e3 bne	a5, a3, -0x10
0x80002130: 00 07 a7 03 lw	a4, 0(a5)
0x80002134: fe 07 1a e3 bnez	a4, -0xc
0x80002138: 00 c7 a0 23 sw	a2, 0(a5)
0x8000213c: 00 47 87 93 addi	a5, a5, 4
0x80002140: fe d7 98 e3 bne	a5, a3, -0x10
0x80002130: 00 07 a7 03 lw	a4, 0(a5)
0x80002134: fe 07 1a e3 bnez	a4, -0xc
0x80002138: 00 c7 a0 23 sw	a2, 0(a5)
0x8000213c: 00 47 87 93 addi	a5, a5, 4
0x80002140: fe d7 98 e3 bne	a5, a3, -0x10
0x80002130: 00 07 a7 03 lw	a4, 0(a5)
0x80002134: fe 07 1a e3 bnez	a4, -0xc
0x80002138: 00 c7 a0 23 sw	a2, 0(a5)
0x8000213c: 00 47 87 93 addi	a5, a5, 4
0x80002140: fe d7 98 e3 bne	a5, a3, -0x10
0x80002130: 00 07 a7 03 lw	a4, 0(a5)
0x80002134: fe 07 1a e3 bnez	a4, -0xc
0x80002138: 00 c7 a0 23 sw	a2, 0(a5)
0x8000213c: 00 47 87 93 addi	a5, a5, 4
0x80002140: fe d7 98 e3 bne	a5, a3, -0x10
0x80002130: 00 07 a7 03 lw	a4, 0(a5)
0x80002134: fe 07 1a e3 bnez	a4, -0xc
0x80002138: 00 c7 a0 23 sw	a2, 0(a5)
0x8000213c: 00 47 87 93 addi	a5, a5, 4
0x80002140: fe d7 98 e3 bne	a5, a3, -0x10
0x80002130: 00 07 a7 03 lw	a4, 0(a5)
0x80002134: fe 07 1a e3 bnez	a4, -0xc
0x80002138: 00 c7 a0 23 sw	a2, 0(a5)
0x8000213c: 00 47 87 93 addi	a5, a5, 4
0x80002140: fe d7 98 e3 bne	a5, a3, -0x10
0x80002130: 00 07 a7 03 lw	a4, 0(a5)
0x80002134: fe 07 1a e3 bnez	a4, -0xc
0x80002138: 00 c7 a0 23 sw	a2, 0(a5)
0x8000213c: 00 47 87 93 addi	a5, a5, 4
0x80002140: fe d7 98 e3 bne	a5, a3, -0x10
0x80002130: 00 07 a7 03 lw	a4, 0(a5)
0x80002134: fe 07 1a e3 bnez	a4, -0xc
0x80002138: 00 c7 a0 23 sw	a2, 0(a5)
0x8000213c: 00 47 87 93 addi	a5, a5, 4
0x80002140: fe d7 98 e3 bne	a5, a3, -0x10
0x80002130: 00 07 a7 03 lw	a4, 0(a5)
0x80002134: fe 07 1a e3 bnez	a4, -0xc
0x80002138: 00 c7 a0 23 sw	a2, 0(a5)
0x8000213c: 00 47 87 93 addi	a5, a5, 4
0x80002140: fe d7 98 e3 bne	a5, a3, -0x10
0x80002144: 08 00 00 ef jal	0x80
0x800021c4: 00 00 80 67 ret
0x80002148: 03 40 00 ef jal	0x34
0x8000217c: 00 00 80 67 ret
0x8000214c: 0b 80 00 ef jal	0xb8
0x80002204: 00 00 80 67 ret
0x80002150: 00 c1 20 83 lw	ra, 0xc(sp)
0x80002154: 00 10 05 13 addi	a0, zero, 1
0x80002158: 01 01 01 13 addi	sp, sp, 0x10
0x8000215c: 00 00 80 67 ret
0x800015d0: 00 04 47 83 lbu	a5, 0(s0)
0x800015d4: 00 70 07 13 addi	a4, zero, 7
0x800015d8: fc f7 87 93 addi	a5, a5, -0x31
0x800015dc: 0f f7 f7 93 andi	a5, a5, 0xff
0x800015e0: 08 f7 6e 63 bltu	a4, a5, 0x9c
0x800015e4: 00 00 47 17 auipc	a4, 4
0x800015e8: 16 87 07 13 addi	a4, a4, 0x168
0x800015ec: 00 27 97 93 slli	a5, a5, 2
0x800015f0: 00 e7 87 b3 add	a5, a5, a4
0x800015f4: 00 07 a7 83 lw	a5, 0(a5)
0x800015f8: 00 e7 87 b3 add	a5, a5, a4
0x800015fc: 00 07 80 67 jr	a5
0x8000164c: 93 5f f0 ef jal	-0x6cc
0x80000f80: fa 01 01 13 addi	sp, sp, -0x60
0x80000f84: 04 81 2c 23 sw	s0, 0x58(sp)
0x80000f88: 05 00 07 93 addi	a5, zero, 0x50
0x80000f8c: 00 00 74 17 auipc	s0, 7
0x80000f90: 8b c4 04 13 addi	s0, s0, -0x744
0x80000f94: 05 41 24 23 sw	s4, 0x48(sp)
0x80000f98: 00 f4 20 23 sw	a5, 0(s0)
0x80000f9c: 00 00 7a 17 auipc	s4, 7
0x80000fa0: 8a 4a 0a 13 addi	s4, s4, -0x75c
0x80000fa4: 01 80 07 93 addi	a5, zero, 0x18
0x80000fa8: 78 00 05 13 addi	a0, zero, 0x780
0x80000fac: 00 fa 20 23 sw	a5, 0(s4)
0x80000fb0: 04 11 2e 23 sw	ra, 0x5c(sp)
0x80000fb4: 04 91 2a 23 sw	s1, 0x54(sp)
0x80000fb8: 05 21 28 23 sw	s2, 0x50(sp)
0x80000fbc: 05 51 22 23 sw	s5, 0x44(sp)
0x80000fc0: 05 61 20 23 sw	s6, 0x40(sp)
0x80000fc4: 03 71 2e 23 sw	s7, 0x3c(sp)
0x80000fc8: 03 81 2c 23 sw	s8, 0x38(sp)
0x80000fcc: 03 91 2a 23 sw	s9, 0x34(sp)
0x80000fd0: 03 a1 28 23 sw	s10, 0x30(sp)
0x80000fd4: 05 31 26 23 sw	s3, 0x4c(sp)
0x80000fd8: 03 b1 26 23 sw	s11, 0x2c(sp)
0x80000fdc: 2f c0 10 ef jal	0x12fc
0x800022d8: 00 00 66 17 auipc	a2, 6
0x800022dc: 51 c6 06 13 addi	a2, a2, 0x51c
0x800022e0: 00 06 26 83 lw	a3, 0(a2)
0x800022e4: 00 00 57 97 auipc	a5, 5
0x800022e8: 56 c7 87 93 addi	a5, a5, 0x56c
0x800022ec: 00 07 a5 83 lw	a1, 0(a5)
0x800022f0: 04 06 84 63 beqz	a3, 0x48
0x80002338: 00 75 86 93 addi	a3, a1, 7
0x8000233c: ff 86 f6 93 andi	a3, a3, -8
0x80002340: fb 5f f0 6f j	-0x4c
0x800022f4: 00 75 07 13 addi	a4, a0, 7
0x800022f8: ff 87 77 13 andi	a4, a4, -8
0x800022fc: 00 e6 87 33 add	a4, a3, a4
0x80002300: 00 e6 20 23 sw	a4, 0(a2)
0x80002304: 04 b7 60 63 bltu	a4, a1, 0x40
0x80002308: 00 47 a7 83 lw	a5, 4(a5)
0x8000230c: 02 f7 7c 63 bgeu	a4, a5, 0x38
0x80002310: 00 06 87 93 mv	a5, a3
0x80002314: 00 d7 0e 63 beq	a4, a3, 0x1c
0x80002318: 00 00 05 93 mv	a1, zero
0x8000231c: 00 00 06 13 mv	a2, zero
0x80002320: 00 b7 a0 23 sw	a1, 0(a5)
0x80002324: 00 c7 a2 23 sw	a2, 4(a5)
0x80002328: 00 87 87 93 addi	a5, a5, 8
0x8000232c: fe f7 16 e3 bne	a4, a5, -0x14
0x80002318: 00 00 05 93 mv	a1, zero
0x8000231c: 00 00 06 13 mv	a2, zero
0x80002320: 00 b7 a0 23 sw	a1, 0(a5)
0x80002324: 00 c7 a2 23 sw	a2, 4(a5)
0x80002328: 00 87 87 93 addi	a5, a5, 8
0x8000232c: fe f7 16 e3 bne	a4, a5, -0x14
0x80002318: 00 00 05 93 mv	a1, zero
0x8000231c: 00 00 06 13 mv	a2, zero
0x80002320: 00 b7 a0 23 sw	a1, 0(a5)
0x80002324: 00 c7 a2 23 sw	a2, 4(a5)
0x80002328: 00 87 87 93 addi	a5, a5, 8
0x8000232c: fe f7 16 e3 bne	a4, a5, -0x14
0x80002318: 00 00 05 93 mv	a1, zero
0x8000231c: 00 00 06 13 mv	a2, zero
0x80002320: 00 b7 a0 23 sw	a1, 0(a5)
0x80002324: 00 c7 a2 23 sw	a2, 4(a5)
0x80002328: 00 87 87 93 addi	a5, a5, 8
0x8000232c: fe f7 16 e3 bne	a4, a5, -0x14
0x80002318: 00 00 05 93 mv	a1, zero
0x8000231c: 00 00 06 13 mv	a2, zero
0x80002320: 00 b7 a0 23 sw	a1, 0(a5)
0x80002324: 00 c7 a2 23 sw	a2, 4(a5)
0x80002328: 00 87 87 93 addi	a5, a5, 8
0x8000232c: fe f7 16 e3 bne	a4, a5, -0x14
0x80002318: 00 00 05 93 mv	a1, zero
0x8000231c: 00 00 06 13 mv	a2, zero
0x80002320: 00 b7 a0 23 sw	a1, 0(a5)
0x80002324: 00 c7 a2 23 sw	a2, 4(a5)
0x80002328: 00 87 87 93 addi	a5, a5, 8
0x8000232c: fe f7 16 e3 bne	a4, a5, -0x14
0x80002318: 00 00 05 93 mv	a1, zero
0x8000231c: 00 00 06 13 mv	a2, zero
0x80002320: 00 b7 a0 23 sw	a1, 0(a5)
0x80002324: 00 c7 a2 23 sw	a2, 4(a5)
0x80002328: 00 87 87 93 addi	a5, a5, 8
0x8000232c: fe f7 16 e3 bne	a4, a5, -0x14
0x80002318: 00 00 05 93 mv	a1, zero
0x8000231c: 00 00 06 13 mv	a2, zero
0x80002320: 00 b7 a0 23 sw	a1, 0(a5)
0x80002324: 00 c7 a2 23 sw	a2, 4(a5)
0x80002328: 00 87 87 93 addi	a5, a5, 8
0x8000232c: fe f7 16 e3 bne	a4, a5, -0x14
0x80002318: 00 00 05 93 mv	a1, zero
0x8000231c: 00 00 06 13 mv	a2, zero
0x80002320: 00 b7 a0 23 sw	a1, 0(a5)
0x80002324: 00 c7 a2 23 sw	a2, 4(a5)
0x80002328: 00 87 87 93 addi	a5, a5, 8
0x8000232c: fe f7 16 e3 bne	a4, a5, -0x14
0x80002318: 00 00 05 93 mv	a1, zero
0x8000231c: 00 00 06 13 mv	a2, zero
0x80002320: 00 b7 a0 23 sw	a1, 0(a5)
0x80002324: 00 c7 a2 23 sw	a2, 4(a5)
0x80002328: 00 87 87 93 addi	a5, a5, 8
0x8000232c: fe f7 16 e3 bne	a4, a5, -0x14
0x80002318: 00 00 05 93 mv	a1, zero
0x8000231c: 00 00 06 13 mv	a2, zero
0x80002320: 00 b7 a0 23 sw	a1, 0(a5)
0x80002324: 00 c7 a2 23 sw	a2, 4(a5)
0x80002328: 00 87 87 93 addi	a5, a5, 8
0x8000232c: fe f7 16 e3 bne	a4, a5, -0x14
0x80002318: 00 00 05 93 mv	a1, zero
0x8000231c: 00 00 06 13 mv	a2, zero
0x80002320: 00 b7 a0 23 sw	a1, 0(a5)
0x80002324: 00 c7 a2 23 sw	a2, 4(a5)
0x80002328: 00 87 87 93 addi	a5, a5, 8
0x8000232c: fe f7 16 e3 bne	a4, a5, -0x14
0x80002318: 00 00 05 93 mv	a1, zero
0x8000231c: 00 00 06 13 mv	a2, zero
0x80002320: 00 b7 a0 23 sw	a1, 0(a5)
0x80002324: 00 c7 a2 23 sw	a2, 4(a5)
0x80002328: 00 87 87 93 addi	a5, a5, 8
0x8000232c: fe f7 16 e3 bne	a4, a5, -0x14
0x80002318: 00 00 05 93 mv	a1, zero
0x8000231c: 00 00 06 13 mv	a2, zero
0x80002320: 00 b7 a0 23 sw	a1, 0(a5)
0x80002324: 00 c7 a2 23 sw	a2, 4(a5)
0x80002328: 00 87 87 93 addi	a5, a5, 8
0x8000232c: fe f7 16 e3 bne	a4, a5, -0x14
0x80002318: 00 00 05 93 mv	a1, zero
0x8000231c: 00 00 06 13 mv	a2, zero
0x80002320: 00 b7 a0 23 sw	a1, 0(a5)
0x80002324: 00 c7 a2 23 sw	a2, 4(a5)
0x80002328: 00 87 87 93 addi	a5, a5, 8
0x8000232c: fe f7 16 e3 bne	a4, a5, -0x14
0x80002318: 00 00 05 93 mv	a1, zero
0x8000231c: 00 00 06 13 mv	a2, zero
0x80002320: 00 b7 a0 23 sw	a1, 0(a5)
0x80002324: 00 c7 a2 23 sw	a2, 4(a5)
0x80002328: 00 87 87 93 addi	a5, a5, 8
0x8000232c: fe f7 16 e3 bne	a4, a5, -0x14
0x80002318: 00 00 05 93 mv	a1, zero
0x8000231c: 00 00 06 13 mv	a2, zero
0x80002320: 00 b7 a0 23 sw	a1, 0(a5)
0x80002324: 00 c7 a2 23 sw	a2, 4(a5)
0x80002328: 00 87 87 93 addi	a5, a5, 8
0x8000232c: fe f7 16 e3 bne	a4, a5, -0x14
0x80002318: 00 00 05 93 mv	a1, zero
0x8000231c: 00 00 06 13 mv	a2, zero
0x80002320: 00 b7 a0 23 sw	a1, 0(a5)
0x80002324: 00 c7 a2 23 sw	a2, 4(a5)
0x80002328: 00 87 87 93 addi	a5, a5, 8
0x8000232c: fe f7 16 e3 bne	a4, a5, -0x14
0x80002318: 00 00 05 93 mv	a1, zero
0x8000231c: 00 00 06 13 mv	a2, zero
0x80002320: 00 b7 a0 23 sw	a1, 0(a5)
0x80002324: 00 c7 a2 23 sw	a2, 4(a5)
0x80002328: 00 87 87 93 addi	a5, a5, 8
0x8000232c: fe f7 16 e3 bne	a4, a5, -0x14
0x80002318: 00 00 05 93 mv	a1, zero
0x8000231c: 00 00 06 13 mv	a2, zero
0x80002320: 00 b7 a0 23 sw	a1, 0(a5)
0x80002324: 00 c7 a2 23 sw	a2, 4(a5)
0x80002328: 00 87 87 93 addi	a5, a5, 8
0x8000232c: fe f7 16 e3 bne	a4, a5, -0x14
0x80002318: 00 00 05 93 mv	a1, zero
0x8000231c: 00 00 06 13 mv	a2, zero
0x80002320: 00 b7 a0 23 sw	a1, 0(a5)
0x80002324: 00 c7 a2 23 sw	a2, 4(a5)
0x80002328: 00 87 87 93 addi	a5, a5, 8
0x8000232c: fe f7 16 e3 bne	a4, a5, -0x14
0x80002318: 00 00 05 93 mv	a1, zero
0x8000231c: 00 00 06 13 mv	a2, zero
0x80002320: 00 b7 a0 23 sw	a1, 0(a5)
0x80002324: 00 c7 a2 23 sw	a2, 4(a5)
0x80002328: 00 87 87 93 addi	a5, a5, 8
0x8000232c: fe f7 16 e3 bne	a4, a5, -0x14
0x80002318: 00 00 05 93 mv	a1, zero
0x8000231c: 00 00 06 13 mv	a2, zero
0x80002320: 00 b7 a0 23 sw	a1, 0(a5)
0x80002324: 00 c7 a2 23 sw	a2, 4(a5)
0x80002328: 00 87 87 93 addi	a5, a5, 8
0x8000232c: fe f7 16 e3 bne	a4, a5, -0x14
0x80002318: 00 00 05 93 mv	a1, zero
0x8000231c: 00 00 06 13 mv	a2, zero
0x80002320: 00 b7 a0 23 sw	a1, 0(a5)
0x80002324: 00 c7 a2 23 sw	a2, 4(a5)
0x80002328: 00 87 87 93 addi	a5, a5, 8
0x8000232c: fe f7 16 e3 bne	a4, a5, -0x14
0x80002318: 00 00 05 93 mv	a1, zero
0x8000231c: 00 00 06 13 mv	a2, zero
0x80002320: 00 b7 a0 23 sw	a1, 0(a5)
0x80002324: 00 c7 a2 23 sw	a2, 4(a5)
0x80002328: 00 87 87 93 addi	a5, a5, 8
0x8000232c: fe f7 16 e3 bne	a4, a5, -0x14
0x80002318: 00 00 05 93 mv	a1, zero
0x8000231c: 00 00 06 13 mv	a2, zero
0x80002320: 00 b7 a0 23 sw	a1, 0(a5)
0x80002324: 00 c7 a2 23 sw	a2, 4(a5)
0x80002328: 00 87 87 93 addi	a5, a5, 8
0x8000232c: fe f7 16 e3 bne	a4, a5, -0x14
0x80002318: 00 00 05 93 mv	a1, zero
0x8000231c: 00 00 06 13 mv	a2, zero
0x80002320: 00 b7 a0 23 sw	a1, 0(a5)
0x80002324: 00 c7 a2 23 sw	a2, 4(a5)
0x80002328: 00 87 87 93 addi	a5, a5, 8
0x8000232c: fe f7 16 e3 bne	a4, a5, -0x14
0x80002318: 00 00 05 93 mv	a1, zero
0x8000231c: 00 00 06 13 mv	a2, zero
0x80002320: 00 b7 a0 23 sw	a1, 0(a5)
0x80002324: 00 c7 a2 23 sw	a2, 4(a5)
0x80002328: 00 87 87 93 addi	a5, a5, 8
0x8000232c: fe f7 16 e3 bne	a4, a5, -0x14
0x80002318: 00 00 05 93 mv	a1, zero
0x8000231c: 00 00 06 13 mv	a2, zero
0x80002320: 00 b7 a0 23 sw	a1, 0(a5)
0x80002324: 00 c7 a2 23 sw	a2, 4(a5)
0x80002328: 00 87 87 93 addi	a5, a5, 8
0x8000232c: fe f7 16 e3 bne	a4, a5, -0x14
0x80002318: 00 00 05 93 mv	a1, zero
0x8000231c: 00 00 06 13 mv	a2, zero
0x80002320: 00 b7 a0 23 sw	a1, 0(a5)
0x80002324: 00 c7 a2 23 sw	a2, 4(a5)
0x80002328: 00 87 87 93 addi	a5, a5, 8
0x8000232c: fe f7 16 e3 bne	a4, a5, -0x14
0x80002318: 00 00 05 93 mv	a1, zero
0x8000231c: 00 00 06 13 mv	a2, zero
0x80002320: 00 b7 a0 23 sw	a1, 0(a5)
0x80002324: 00 c7 a2 23 sw	a2, 4(a5)
0x80002328: 00 87 87 93 addi	a5, a5, 8
0x8000232c: fe f7 16 e3 bne	a4, a5, -0x14
0x80002318: 00 00 05 93 mv	a1, zero
0x8000231c: 00 00 06 13 mv	a2, zero
0x80002320: 00 b7 a0 23 sw	a1, 0(a5)
0x80002324: 00 c7 a2 23 sw	a2, 4(a5)
0x80002328: 00 87 87 93 addi	a5, a5, 8
0x8000232c: fe f7 16 e3 bne	a4, a5, -0x14
0x80002318: 00 00 05 93 mv	a1, zero
0x8000231c: 00 00 06 13 mv	a2, zero
0x80002320: 00 b7 a0 23 sw	a1, 0(a5)
0x80002324: 00 c7 a2 23 sw	a2, 4(a5)
0x80002328: 00 87 87 93 addi	a5, a5, 8
0x8000232c: fe f7 16 e3 bne	a4, a5, -0x14
0x80002318: 00 00 05 93 mv	a1, zero
0x8000231c: 00 00 06 13 mv	a2, zero
0x80002320: 00 b7 a0 23 sw	a1, 0(a5)
0x80002324: 00 c7 a2 23 sw	a2, 4(a5)
0x80002328: 00 87 87 93 addi	a5, a5, 8
0x8000232c: fe f7 16 e3 bne	a4, a5, -0x14
0x80002318: 00 00 05 93 mv	a1, zero
0x8000231c: 00 00 06 13 mv	a2, zero
0x80002320: 00 b7 a0 23 sw	a1, 0(a5)
0x80002324: 00 c7 a2 23 sw	a2, 4(a5)
0x80002328: 00 87 87 93 addi	a5, a5, 8
0x8000232c: fe f7 16 e3 bne	a4, a5, -0x14
0x80002318: 00 00 05 93 mv	a1, zero
0x8000231c: 00 00 06 13 mv	a2, zero
0x80002320: 00 b7 a0 23 sw	a1, 0(a5)
0x80002324: 00 c7 a2 23 sw	a2, 4(a5)
0x80002328: 00 87 87 93 addi	a5, a5, 8
0x8000232c: fe f7 16 e3 bne	a4, a5, -0x14
0x80002318: 00 00 05 93 mv	a1, zero
0x8000231c: 00 00 06 13 mv	a2, zero
0x80002320: 00 b7 a0 23 sw	a1, 0(a5)
0x80002324: 00 c7 a2 23 sw	a2, 4(a5)
0x80002328: 00 87 87 93 addi	a5, a5, 8
0x8000232c: fe f7 16 e3 bne	a4, a5, -0x14
0x80002318: 00 00 05 93 mv	a1, zero
0x8000231c: 00 00 06 13 mv	a2, zero
0x80002320: 00 b7 a0 23 sw	a1, 0(a5)
0x80002324: 00 c7 a2 23 sw	a2, 4(a5)
0x80002328: 00 87 87 93 addi	a5, a5, 8
0x8000232c: fe f7 16 e3 bne	a4, a5, -0x14
0x80002318: 00 00 05 93 mv	a1, zero
0x8000231c: 00 00 06 13 mv	a2, zero
0x80002320: 00 b7 a0 23 sw	a1, 0(a5)
0x80002324: 00 c7 a2 23 sw	a2, 4(a5)
0x80002328: 00 87 87 93 addi	a5, a5, 8
0x8000232c: fe f7 16 e3 bne	a4, a5, -0x14
0x80002318: 00 00 05 93 mv	a1, zero
0x8000231c: 00 00 06 13 mv	a2, zero
0x80002320: 00 b7 a0 23 sw	a1, 0(a5)
0x80002324: 00 c7 a2 23 sw	a2, 4(a5)
0x80002328: 00 87 87 93 addi	a5, a5, 8
0x8000232c: fe f7 16 e3 bne	a4, a5, -0x14
0x80002318: 00 00 05 93 mv	a1, zero
0x8000231c: 00 00 06 13 mv	a2, zero
0x80002320: 00 b7 a0 23 sw	a1, 0(a5)
0x80002324: 00 c7 a2 23 sw	a2, 4(a5)
0x80002328: 00 87 87 93 addi	a5, a5, 8
0x8000232c: fe f7 16 e3 bne	a4, a5, -0x14
0x80002318: 00 00 05 93 mv	a1, zero
0x8000231c: 00 00 06 13 mv	a2, zero
0x80002320: 00 b7 a0 23 sw	a1, 0(a5)
0x80002324: 00 c7 a2 23 sw	a2, 4(a5)
0x80002328: 00 87 87 93 addi	a5, a5, 8
0x8000232c: fe f7 16 e3 bne	a4, a5, -0x14
0x80002318: 00 00 05 93 mv	a1, zero
0x8000231c: 00 00 06 13 mv	a2, zero
0x80002320: 00 b7 a0 23 sw	a1, 0(a5)
0x80002324: 00 c7 a2 23 sw	a2, 4(a5)
0x80002328: 00 87 87 93 addi	a5, a5, 8
0x8000232c: fe f7 16 e3 bne	a4, a5, -0x14
0x80002318: 00 00 05 93 mv	a1, zero
0x8000231c: 00 00 06 13 mv	a2, zero
0x80002320: 00 b7 a0 23 sw	a1, 0(a5)
0x80002324: 00 c7 a2 23 sw	a2, 4(a5)
0x80002328: 00 87 87 93 addi	a5, a5, 8
0x8000232c: fe f7 16 e3 bne	a4, a5, -0x14
0x80002318: 00 00 05 93 mv	a1, zero
0x8000231c: 00 00 06 13 mv	a2, zero
0x80002320: 00 b7 a0 23 sw	a1, 0(a5)
0x80002324: 00 c7 a2 23 sw	a2, 4(a5)
0x80002328: 00 87 87 93 addi	a5, a5, 8
0x8000232c: fe f7 16 e3 bne	a4, a5, -0x14
0x80002318: 00 00 05 93 mv	a1, zero
0x8000231c: 00 00 06 13 mv	a2, zero
0x80002320: 00 b7 a0 23 sw	a1, 0(a5)
0x80002324: 00 c7 a2 23 sw	a2, 4(a5)
0x80002328: 00 87 87 93 addi	a5, a5, 8
0x8000232c: fe f7 16 e3 bne	a4, a5, -0x14
0x80002318: 00 00 05 93 mv	a1, zero
0x8000231c: 00 00 06 13 mv	a2, zero
0x80002320: 00 b7 a0 23 sw	a1, 0(a5)
0x80002324: 00 c7 a2 23 sw	a2, 4(a5)
0x80002328: 00 87 87 93 addi	a5, a5, 8
0x8000232c: fe f7 16 e3 bne	a4, a5, -0x14
0x80002318: 00 00 05 93 mv	a1, zero
0x8000231c: 00 00 06 13 mv	a2, zero
0x80002320: 00 b7 a0 23 sw	a1, 0(a5)
0x80002324: 00 c7 a2 23 sw	a2, 4(a5)
0x80002328: 00 87 87 93 addi	a5, a5, 8
0x8000232c: fe f7 16 e3 bne	a4, a5, -0x14
0x80002318: 00 00 05 93 mv	a1, zero
0x8000231c: 00 00 06 13 mv	a2, zero
0x80002320: 00 b7 a0 23 sw	a1, 0(a5)
0x80002324: 00 c7 a2 23 sw	a2, 4(a5)
0x80002328: 00 87 87 93 addi	a5, a5, 8
0x8000232c: fe f7 16 e3 bne	a4, a5, -0x14
0x80002318: 00 00 05 93 mv	a1, zero
0x8000231c: 00 00 06 13 mv	a2, zero
0x80002320: 00 b7 a0 23 sw	a1, 0(a5)
0x80002324: 00 c7 a2 23 sw	a2, 4(a5)
0x80002328: 00 87 87 93 addi	a5, a5, 8
0x8000232c: fe f7 16 e3 bne	a4, a5, -0x14
0x80002318: 00 00 05 93 mv	a1, zero
0x8000231c: 00 00 06 13 mv	a2, zero
0x80002320: 00 b7 a0 23 sw	a1, 0(a5)
0x80002324: 00 c7 a2 23 sw	a2, 4(a5)
0x80002328: 00 87 87 93 addi	a5, a5, 8
0x8000232c: fe f7 16 e3 bne	a4, a5, -0x14
0x80002318: 00 00 05 93 mv	a1, zero
0x8000231c: 00 00 06 13 mv	a2, zero
0x80002320: 00 b7 a0 23 sw	a1, 0(a5)
0x80002324: 00 c7 a2 23 sw	a2, 4(a5)
0x80002328: 00 87 87 93 addi	a5, a5, 8
0x8000232c: fe f7 16 e3 bne	a4, a5, -0x14
0x80002318: 00 00 05 93 mv	a1, zero
0x8000231c: 00 00 06 13 mv	a2, zero
0x80002320: 00 b7 a0 23 sw	a1, 0(a5)
0x80002324: 00 c7 a2 23 sw	a2, 4(a5)
0x80002328: 00 87 87 93 addi	a5, a5, 8
0x8000232c: fe f7 16 e3 bne	a4, a5, -0x14
0x80002318: 00 00 05 93 mv	a1, zero
0x8000231c: 00 00 06 13 mv	a2, zero
0x80002320: 00 b7 a0 23 sw	a1, 0(a5)
0x80002324: 00 c7 a2 23 sw	a2, 4(a5)
0x80002328: 00 87 87 93 addi	a5, a5, 8
0x8000232c: fe f7 16 e3 bne	a4, a5, -0x14
0x80002318: 00 00 05 93 mv	a1, zero
0x8000231c: 00 00 06 13 mv	a2, zero
0x80002320: 00 b7 a0 23 sw	a1, 0(a5)
0x80002324: 00 c7 a2 23 sw	a2, 4(a5)
0x80002328: 00 87 87 93 addi	a5, a5, 8
0x8000232c: fe f7 16 e3 bne	a4, a5, -0x14
0x80002318: 00 00 05 93 mv	a1, zero
0x8000231c: 00 00 06 13 mv	a2, zero
0x80002320: 00 b7 a0 23 sw	a1, 0(a5)
0x80002324: 00 c7 a2 23 sw	a2, 4(a5)
0x80002328: 00 87 87 93 addi	a5, a5, 8
0x8000232c: fe f7 16 e3 bne	a4, a5, -0x14
0x80002318: 00 00 05 93 mv	a1, zero
0x8000231c: 00 00 06 13 mv	a2, zero
0x80002320: 00 b7 a0 23 sw	a1, 0(a5)
0x80002324: 00 c7 a2 23 sw	a2, 4(a5)
0x80002328: 00 87 87 93 addi	a5, a5, 8
0x8000232c: fe f7 16 e3 bne	a4, a5, -0x14
0x80002318: 00 00 05 93 mv	a1, zero
0x8000231c: 00 00 06 13 mv	a2, zero
0x80002320: 00 b7 a0 23 sw	a1, 0(a5)
0x80002324: 00 c7 a2 23 sw	a2, 4(a5)
0x80002328: 00 87 87 93 addi	a5, a5, 8
0x8000232c: fe f7 16 e3 bne	a4, a5, -0x14
0x80002318: 00 00 05 93 mv	a1, zero
0x8000231c: 00 00 06 13 mv	a2, zero
0x80002320: 00 b7 a0 23 sw	a1, 0(a5)
0x80002324: 00 c7 a2 23 sw	a2, 4(a5)
0x80002328: 00 87 87 93 addi	a5, a5, 8
0x8000232c: fe f7 16 e3 bne	a4, a5, -0x14
0x80002318: 00 00 05 93 mv	a1, zero
0x8000231c: 00 00 06 13 mv	a2, zero
0x80002320: 00 b7 a0 23 sw	a1, 0(a5)
0x80002324: 00 c7 a2 23 sw	a2, 4(a5)
0x80002328: 00 87 87 93 addi	a5, a5, 8
0x8000232c: fe f7 16 e3 bne	a4, a5, -0x14
0x80002318: 00 00 05 93 mv	a1, zero
0x8000231c: 00 00 06 13 mv	a2, zero
0x80002320: 00 b7 a0 23 sw	a1, 0(a5)
0x80002324: 00 c7 a2 23 sw	a2, 4(a5)
0x80002328: 00 87 87 93 addi	a5, a5, 8
0x8000232c: fe f7 16 e3 bne	a4, a5, -0x14
0x80002318: 00 00 05 93 mv	a1, zero
0x8000231c: 00 00 06 13 mv	a2, zero
0x80002320: 00 b7 a0 23 sw	a1, 0(a5)
0x80002324: 00 c7 a2 23 sw	a2, 4(a5)
0x80002328: 00 87 87 93 addi	a5, a5, 8
0x8000232c: fe f7 16 e3 bne	a4, a5, -0x14
0x80002318: 00 00 05 93 mv	a1, zero
0x8000231c: 00 00 06 13 mv	a2, zero
0x80002320: 00 b7 a0 23 sw	a1, 0(a5)
0x80002324: 00 c7 a2 23 sw	a2, 4(a5)
0x80002328: 00 87 87 93 addi	a5, a5, 8
0x8000232c: fe f7 16 e3 bne	a4, a5, -0x14
0x80002318: 00 00 05 93 mv	a1, zero
0x8000231c: 00 00 06 13 mv	a2, zero
0x80002320: 00 b7 a0 23 sw	a1, 0(a5)
0x80002324: 00 c7 a2 23 sw	a2, 4(a5)
0x80002328: 00 87 87 93 addi	a5, a5, 8
0x8000232c: fe f7 16 e3 bne	a4, a5, -0x14
0x80002318: 00 00 05 93 mv	a1, zero
0x8000231c: 00 00 06 13 mv	a2, zero
0x80002320: 00 b7 a0 23 sw	a1, 0(a5)
0x80002324: 00 c7 a2 23 sw	a2, 4(a5)
0x80002328: 00 87 87 93 addi	a5, a5, 8
0x8000232c: fe f7 16 e3 bne	a4, a5, -0x14
0x80002318: 00 00 05 93 mv	a1, zero
0x8000231c: 00 00 06 13 mv	a2, zero
0x80002320: 00 b7 a0 23 sw	a1, 0(a5)
0x80002324: 00 c7 a2 23 sw	a2, 4(a5)
0x80002328: 00 87 87 93 addi	a5, a5, 8
0x8000232c: fe f7 16 e3 bne	a4, a5, -0x14
0x80002318: 00 00 05 93 mv	a1, zero
0x8000231c: 00 00 06 13 mv	a2, zero
0x80002320: 00 b7 a0 23 sw	a1, 0(a5)
0x80002324: 00 c7 a2 23 sw	a2, 4(a5)
0x80002328: 00 87 87 93 addi	a5, a5, 8
0x8000232c: fe f7 16 e3 bne	a4, a5, -0x14
0x80002318: 00 00 05 93 mv	a1, zero
0x8000231c: 00 00 06 13 mv	a2, zero
0x80002320: 00 b7 a0 23 sw	a1, 0(a5)
0x80002324: 00 c7 a2 23 sw	a2, 4(a5)
0x80002328: 00 87 87 93 addi	a5, a5, 8
0x8000232c: fe f7 16 e3 bne	a4, a5, -0x14
0x80002318: 00 00 05 93 mv	a1, zero
0x8000231c: 00 00 06 13 mv	a2, zero
0x80002320: 00 b7 a0 23 sw	a1, 0(a5)
0x80002324: 00 c7 a2 23 sw	a2, 4(a5)
0x80002328: 00 87 87 93 addi	a5, a5, 8
0x8000232c: fe f7 16 e3 bne	a4, a5, -0x14
0x80002318: 00 00 05 93 mv	a1, zero
0x8000231c: 00 00 06 13 mv	a2, zero
0x80002320: 00 b7 a0 23 sw	a1, 0(a5)
0x80002324: 00 c7 a2 23 sw	a2, 4(a5)
0x80002328: 00 87 87 93 addi	a5, a5, 8
0x8000232c: fe f7 16 e3 bne	a4, a5, -0x14
0x80002318: 00 00 05 93 mv	a1, zero
0x8000231c: 00 00 06 13 mv	a2, zero
0x80002320: 00 b7 a0 23 sw	a1, 0(a5)
0x80002324: 00 c7 a2 23 sw	a2, 4(a5)
0x80002328: 00 87 87 93 addi	a5, a5, 8
0x8000232c: fe f7 16 e3 bne	a4, a5, -0x14
0x80002318: 00 00 05 93 mv	a1, zero
0x8000231c: 00 00 06 13 mv	a2, zero
0x80002320: 00 b7 a0 23 sw	a1, 0(a5)
0x80002324: 00 c7 a2 23 sw	a2, 4(a5)
0x80002328: 00 87 87 93 addi	a5, a5, 8
0x8000232c: fe f7 16 e3 bne	a4, a5, -0x14
0x80002318: 00 00 05 93 mv	a1, zero
0x8000231c: 00 00 06 13 mv	a2, zero
0x80002320: 00 b7 a0 23 sw	a1, 0(a5)
0x80002324: 00 c7 a2 23 sw	a2, 4(a5)
0x80002328: 00 87 87 93 addi	a5, a5, 8
0x8000232c: fe f7 16 e3 bne	a4, a5, -0x14
0x80002318: 00 00 05 93 mv	a1, zero
0x8000231c: 00 00 06 13 mv	a2, zero
0x80002320: 00 b7 a0 23 sw	a1, 0(a5)
0x80002324: 00 c7 a2 23 sw	a2, 4(a5)
0x80002328: 00 87 87 93 addi	a5, a5, 8
0x8000232c: fe f7 16 e3 bne	a4, a5, -0x14
0x80002318: 00 00 05 93 mv	a1, zero
0x8000231c: 00 00 06 13 mv	a2, zero
0x80002320: 00 b7 a0 23 sw	a1, 0(a5)
0x80002324: 00 c7 a2 23 sw	a2, 4(a5)
0x80002328: 00 87 87 93 addi	a5, a5, 8
0x8000232c: fe f7 16 e3 bne	a4, a5, -0x14
0x80002318: 00 00 05 93 mv	a1, zero
0x8000231c: 00 00 06 13 mv	a2, zero
0x80002320: 00 b7 a0 23 sw	a1, 0(a5)
0x80002324: 00 c7 a2 23 sw	a2, 4(a5)
0x80002328: 00 87 87 93 addi	a5, a5, 8
0x8000232c: fe f7 16 e3 bne	a4, a5, -0x14
0x80002318: 00 00 05 93 mv	a1, zero
0x8000231c: 00 00 06 13 mv	a2, zero
0x80002320: 00 b7 a0 23 sw	a1, 0(a5)
0x80002324: 00 c7 a2 23 sw	a2, 4(a5)
0x80002328: 00 87 87 93 addi	a5, a5, 8
0x8000232c: fe f7 16 e3 bne	a4, a5, -0x14
0x80002318: 00 00 05 93 mv	a1, zero
0x8000231c: 00 00 06 13 mv	a2, zero
0x80002320: 00 b7 a0 23 sw	a1, 0(a5)
0x80002324: 00 c7 a2 23 sw	a2, 4(a5)
0x80002328: 00 87 87 93 addi	a5, a5, 8
0x8000232c: fe f7 16 e3 bne	a4, a5, -0x14
0x80002318: 00 00 05 93 mv	a1, zero
0x8000231c: 00 00 06 13 mv	a2, zero
0x80002320: 00 b7 a0 23 sw	a1, 0(a5)
0x80002324: 00 c7 a2 23 sw	a2, 4(a5)
0x80002328: 00 87 87 93 addi	a5, a5, 8
0x8000232c: fe f7 16 e3 bne	a4, a5, -0x14
0x80002318: 00 00 05 93 mv	a1, zero
0x8000231c: 00 00 06 13 mv	a2, zero
0x80002320: 00 b7 a0 23 sw	a1, 0(a5)
0x80002324: 00 c7 a2 23 sw	a2, 4(a5)
0x80002328: 00 87 87 93 addi	a5, a5, 8
0x8000232c: fe f7 16 e3 bne	a4, a5, -0x14
0x80002318: 00 00 05 93 mv	a1, zero
0x8000231c: 00 00 06 13 mv	a2, zero
0x80002320: 00 b7 a0 23 sw	a1, 0(a5)
0x80002324: 00 c7 a2 23 sw	a2, 4(a5)
0x80002328: 00 87 87 93 addi	a5, a5, 8
0x8000232c: fe f7 16 e3 bne	a4, a5, -0x14
0x80002318: 00 00 05 93 mv	a1, zero
0x8000231c: 00 00 06 13 mv	a2, zero
0x80002320: 00 b7 a0 23 sw	a1, 0(a5)
0x80002324: 00 c7 a2 23 sw	a2, 4(a5)
0x80002328: 00 87 87 93 addi	a5, a5, 8
0x8000232c: fe f7 16 e3 bne	a4, a5, -0x14
0x80002318: 00 00 05 93 mv	a1, zero
0x8000231c: 00 00 06 13 mv	a2, zero
0x80002320: 00 b7 a0 23 sw	a1, 0(a5)
0x80002324: 00 c7 a2 23 sw	a2, 4(a5)
0x80002328: 00 87 87 93 addi	a5, a5, 8
0x8000232c: fe f7 16 e3 bne	a4, a5, -0x14
0x80002318: 00 00 05 93 mv	a1, zero
0x8000231c: 00 00 06 13 mv	a2, zero
0x80002320: 00 b7 a0 23 sw	a1, 0(a5)
0x80002324: 00 c7 a2 23 sw	a2, 4(a5)
0x80002328: 00 87 87 93 addi	a5, a5, 8
0x8000232c: fe f7 16 e3 bne	a4, a5, -0x14
0x80002318: 00 00 05 93 mv	a1, zero
0x8000231c: 00 00 06 13 mv	a2, zero
0x80002320: 00 b7 a0 23 sw	a1, 0(a5)
0x80002324: 00 c7 a2 23 sw	a2, 4(a5)
0x80002328: 00 87 87 93 addi	a5, a5, 8
0x8000232c: fe f7 16 e3 bne	a4, a5, -0x14
0x80002318: 00 00 05 93 mv	a1, zero
0x8000231c: 00 00 06 13 mv	a2, zero
0x80002320: 00 b7 a0 23 sw	a1, 0(a5)
0x80002324: 00 c7 a2 23 sw	a2, 4(a5)
0x80002328: 00 87 87 93 addi	a5, a5, 8
0x8000232c: fe f7 16 e3 bne	a4, a5, -0x14
0x80002318: 00 00 05 93 mv	a1, zero
0x8000231c: 00 00 06 13 mv	a2, zero
0x80002320: 00 b7 a0 23 sw	a1, 0(a5)
0x80002324: 00 c7 a2 23 sw	a2, 4(a5)
0x80002328: 00 87 87 93 addi	a5, a5, 8
0x8000232c: fe f7 16 e3 bne	a4, a5, -0x14
0x80002318: 00 00 05 93 mv	a1, zero
0x8000231c: 00 00 06 13 mv	a2, zero
0x80002320: 00 b7 a0 23 sw	a1, 0(a5)
0x80002324: 00 c7 a2 23 sw	a2, 4(a5)
0x80002328: 00 87 87 93 addi	a5, a5, 8
0x8000232c: fe f7 16 e3 bne	a4, a5, -0x14
0x80002318: 00 00 05 93 mv	a1, zero
0x8000231c: 00 00 06 13 mv	a2, zero
0x80002320: 00 b7 a0 23 sw	a1, 0(a5)
0x80002324: 00 c7 a2 23 sw	a2, 4(a5)
0x80002328: 00 87 87 93 addi	a5, a5, 8
0x8000232c: fe f7 16 e3 bne	a4, a5, -0x14
0x80002318: 00 00 05 93 mv	a1, zero
0x8000231c: 00 00 06 13 mv	a2, zero
0x80002320: 00 b7 a0 23 sw	a1, 0(a5)
0x80002324: 00 c7 a2 23 sw	a2, 4(a5)
0x80002328: 00 87 87 93 addi	a5, a5, 8
0x8000232c: fe f7 16 e3 bne	a4, a5, -0x14
0x80002318: 00 00 05 93 mv	a1, zero
0x8000231c: 00 00 06 13 mv	a2, zero
0x80002320: 00 b7 a0 23 sw	a1, 0(a5)
0x80002324: 00 c7 a2 23 sw	a2, 4(a5)
0x80002328: 00 87 87 93 addi	a5, a5, 8
0x8000232c: fe f7 16 e3 bne	a4, a5, -0x14
0x80002318: 00 00 05 93 mv	a1, zero
0x8000231c: 00 00 06 13 mv	a2, zero
0x80002320: 00 b7 a0 23 sw	a1, 0(a5)
0x80002324: 00 c7 a2 23 sw	a2, 4(a5)
0x80002328: 00 87 87 93 addi	a5, a5, 8
0x8000232c: fe f7 16 e3 bne	a4, a5, -0x14
0x80002318: 00 00 05 93 mv	a1, zero
0x8000231c: 00 00 06 13 mv	a2, zero
0x80002320: 00 b7 a0 23 sw	a1, 0(a5)
0x80002324: 00 c7 a2 23 sw	a2, 4(a5)
0x80002328: 00 87 87 93 addi	a5, a5, 8
0x8000232c: fe f7 16 e3 bne	a4, a5, -0x14
0x80002318: 00 00 05 93 mv	a1, zero
0x8000231c: 00 00 06 13 mv	a2, zero
0x80002320: 00 b7 a0 23 sw	a1, 0(a5)
0x80002324: 00 c7 a2 23 sw	a2, 4(a5)
0x80002328: 00 87 87 93 addi	a5, a5, 8
0x8000232c: fe f7 16 e3 bne	a4, a5, -0x14
0x80002318: 00 00 05 93 mv	a1, zero
0x8000231c: 00 00 06 13 mv	a2, zero
0x80002320: 00 b7 a0 23 sw	a1, 0(a5)
0x80002324: 00 c7 a2 23 sw	a2, 4(a5)
0x80002328: 00 87 87 93 addi	a5, a5, 8
0x8000232c: fe f7 16 e3 bne	a4, a5, -0x14
0x80002318: 00 00 05 93 mv	a1, zero
0x8000231c: 00 00 06 13 mv	a2, zero
0x80002320: 00 b7 a0 23 sw	a1, 0(a5)
0x80002324: 00 c7 a2 23 sw	a2, 4(a5)
0x80002328: 00 87 87 93 addi	a5, a5, 8
0x8000232c: fe f7 16 e3 bne	a4, a5, -0x14
0x80002318: 00 00 05 93 mv	a1, zero
0x8000231c: 00 00 06 13 mv	a2, zero
0x80002320: 00 b7 a0 23 sw	a1, 0(a5)
0x80002324: 00 c7 a2 23 sw	a2, 4(a5)
0x80002328: 00 87 87 93 addi	a5, a5, 8
0x8000232c: fe f7 16 e3 bne	a4, a5, -0x14
0x80002318: 00 00 05 93 mv	a1, zero
0x8000231c: 00 00 06 13 mv	a2, zero
0x80002320: 00 b7 a0 23 sw	a1, 0(a5)
0x80002324: 00 c7 a2 23 sw	a2, 4(a5)
0x80002328: 00 87 87 93 addi	a5, a5, 8
0x8000232c: fe f7 16 e3 bne	a4, a5, -0x14
0x80002318: 00 00 05 93 mv	a1, zero
0x8000231c: 00 00 06 13 mv	a2, zero
0x80002320: 00 b7 a0 23 sw	a1, 0(a5)
0x80002324: 00 c7 a2 23 sw	a2, 4(a5)
0x80002328: 00 87 87 93 addi	a5, a5, 8
0x8000232c: fe f7 16 e3 bne	a4, a5, -0x14
0x80002318: 00 00 05 93 mv	a1, zero
0x8000231c: 00 00 06 13 mv	a2, zero
0x80002320: 00 b7 a0 23 sw	a1, 0(a5)
0x80002324: 00 c7 a2 23 sw	a2, 4(a5)
0x80002328: 00 87 87 93 addi	a5, a5, 8
0x8000232c: fe f7 16 e3 bne	a4, a5, -0x14
0x80002318: 00 00 05 93 mv	a1, zero
0x8000231c: 00 00 06 13 mv	a2, zero
0x80002320: 00 b7 a0 23 sw	a1, 0(a5)
0x80002324: 00 c7 a2 23 sw	a2, 4(a5)
0x80002328: 00 87 87 93 addi	a5, a5, 8
0x8000232c: fe f7 16 e3 bne	a4, a5, -0x14
0x80002318: 00 00 05 93 mv	a1, zero
0x8000231c: 00 00 06 13 mv	a2, zero
0x80002320: 00 b7 a0 23 sw	a1, 0(a5)
0x80002324: 00 c7 a2 23 sw	a2, 4(a5)
0x80002328: 00 87 87 93 addi	a5, a5, 8
0x8000232c: fe f7 16 e3 bne	a4, a5, -0x14
0x80002318: 00 00 05 93 mv	a1, zero
0x8000231c: 00 00 06 13 mv	a2, zero
0x80002320: 00 b7 a0 23 sw	a1, 0(a5)
0x80002324: 00 c7 a2 23 sw	a2, 4(a5)
0x80002328: 00 87 87 93 addi	a5, a5, 8
0x8000232c: fe f7 16 e3 bne	a4, a5, -0x14
0x80002318: 00 00 05 93 mv	a1, zero
0x8000231c: 00 00 06 13 mv	a2, zero
0x80002320: 00 b7 a0 23 sw	a1, 0(a5)
0x80002324: 00 c7 a2 23 sw	a2, 4(a5)
0x80002328: 00 87 87 93 addi	a5, a5, 8
0x8000232c: fe f7 16 e3 bne	a4, a5, -0x14
0x80002318: 00 00 05 93 mv	a1, zero
0x8000231c: 00 00 06 13 mv	a2, zero
0x80002320: 00 b7 a0 23 sw	a1, 0(a5)
0x80002324: 00 c7 a2 23 sw	a2, 4(a5)
0x80002328: 00 87 87 93 addi	a5, a5, 8
0x8000232c: fe f7 16 e3 bne	a4, a5, -0x14
0x80002318: 00 00 05 93 mv	a1, zero
0x8000231c: 00 00 06 13 mv	a2, zero
0x80002320: 00 b7 a0 23 sw	a1, 0(a5)
0x80002324: 00 c7 a2 23 sw	a2, 4(a5)
0x80002328: 00 87 87 93 addi	a5, a5, 8
0x8000232c: fe f7 16 e3 bne	a4, a5, -0x14
0x80002318: 00 00 05 93 mv	a1, zero
0x8000231c: 00 00 06 13 mv	a2, zero
0x80002320: 00 b7 a0 23 sw	a1, 0(a5)
0x80002324: 00 c7 a2 23 sw	a2, 4(a5)
0x80002328: 00 87 87 93 addi	a5, a5, 8
0x8000232c: fe f7 16 e3 bne	a4, a5, -0x14
0x80002318: 00 00 05 93 mv	a1, zero
0x8000231c: 00 00 06 13 mv	a2, zero
0x80002320: 00 b7 a0 23 sw	a1, 0(a5)
0x80002324: 00 c7 a2 23 sw	a2, 4(a5)
0x80002328: 00 87 87 93 addi	a5, a5, 8
0x8000232c: fe f7 16 e3 bne	a4, a5, -0x14
0x80002318: 00 00 05 93 mv	a1, zero
0x8000231c: 00 00 06 13 mv	a2, zero
0x80002320: 00 b7 a0 23 sw	a1, 0(a5)
0x80002324: 00 c7 a2 23 sw	a2, 4(a5)
0x80002328: 00 87 87 93 addi	a5, a5, 8
0x8000232c: fe f7 16 e3 bne	a4, a5, -0x14
0x80002318: 00 00 05 93 mv	a1, zero
0x8000231c: 00 00 06 13 mv	a2, zero
0x80002320: 00 b7 a0 23 sw	a1, 0(a5)
0x80002324: 00 c7 a2 23 sw	a2, 4(a5)
0x80002328: 00 87 87 93 addi	a5, a5, 8
0x8000232c: fe f7 16 e3 bne	a4, a5, -0x14
0x80002318: 00 00 05 93 mv	a1, zero
0x8000231c: 00 00 06 13 mv	a2, zero
0x80002320: 00 b7 a0 23 sw	a1, 0(a5)
0x80002324: 00 c7 a2 23 sw	a2, 4(a5)
0x80002328: 00 87 87 93 addi	a5, a5, 8
0x8000232c: fe f7 16 e3 bne	a4, a5, -0x14
0x80002318: 00 00 05 93 mv	a1, zero
0x8000231c: 00 00 06 13 mv	a2, zero
0x80002320: 00 b7 a0 23 sw	a1, 0(a5)
0x80002324: 00 c7 a2 23 sw	a2, 4(a5)
0x80002328: 00 87 87 93 addi	a5, a5, 8
0x8000232c: fe f7 16 e3 bne	a4, a5, -0x14
0x80002318: 00 00 05 93 mv	a1, zero
0x8000231c: 00 00 06 13 mv	a2, zero
0x80002320: 00 b7 a0 23 sw	a1, 0(a5)
0x80002324: 00 c7 a2 23 sw	a2, 4(a5)
0x80002328: 00 87 87 93 addi	a5, a5, 8
0x8000232c: fe f7 16 e3 bne	a4, a5, -0x14
0x80002318: 00 00 05 93 mv	a1, zero
0x8000231c: 00 00 06 13 mv	a2, zero
0x80002320: 00 b7 a0 23 sw	a1, 0(a5)
0x80002324: 00 c7 a2 23 sw	a2, 4(a5)
0x80002328: 00 87 87 93 addi	a5, a5, 8
0x8000232c: fe f7 16 e3 bne	a4, a5, -0x14
0x80002318: 00 00 05 93 mv	a1, zero
0x8000231c: 00 00 06 13 mv	a2, zero
0x80002320: 00 b7 a0 23 sw	a1, 0(a5)
0x80002324: 00 c7 a2 23 sw	a2, 4(a5)
0x80002328: 00 87 87 93 addi	a5, a5, 8
0x8000232c: fe f7 16 e3 bne	a4, a5, -0x14
0x80002318: 00 00 05 93 mv	a1, zero
0x8000231c: 00 00 06 13 mv	a2, zero
0x80002320: 00 b7 a0 23 sw	a1, 0(a5)
0x80002324: 00 c7 a2 23 sw	a2, 4(a5)
0x80002328: 00 87 87 93 addi	a5, a5, 8
0x8000232c: fe f7 16 e3 bne	a4, a5, -0x14
0x80002318: 00 00 05 93 mv	a1, zero
0x8000231c: 00 00 06 13 mv	a2, zero
0x80002320: 00 b7 a0 23 sw	a1, 0(a5)
0x80002324: 00 c7 a2 23 sw	a2, 4(a5)
0x80002328: 00 87 87 93 addi	a5, a5, 8
0x8000232c: fe f7 16 e3 bne	a4, a5, -0x14
0x80002318: 00 00 05 93 mv	a1, zero
0x8000231c: 00 00 06 13 mv	a2, zero
0x80002320: 00 b7 a0 23 sw	a1, 0(a5)
0x80002324: 00 c7 a2 23 sw	a2, 4(a5)
0x80002328: 00 87 87 93 addi	a5, a5, 8
0x8000232c: fe f7 16 e3 bne	a4, a5, -0x14
0x80002318: 00 00 05 93 mv	a1, zero
0x8000231c: 00 00 06 13 mv	a2, zero
0x80002320: 00 b7 a0 23 sw	a1, 0(a5)
0x80002324: 00 c7 a2 23 sw	a2, 4(a5)
0x80002328: 00 87 87 93 addi	a5, a5, 8
0x8000232c: fe f7 16 e3 bne	a4, a5, -0x14
0x80002318: 00 00 05 93 mv	a1, zero
0x8000231c: 00 00 06 13 mv	a2, zero
0x80002320: 00 b7 a0 23 sw	a1, 0(a5)
0x80002324: 00 c7 a2 23 sw	a2, 4(a5)
0x80002328: 00 87 87 93 addi	a5, a5, 8
0x8000232c: fe f7 16 e3 bne	a4, a5, -0x14
0x80002318: 00 00 05 93 mv	a1, zero
0x8000231c: 00 00 06 13 mv	a2, zero
0x80002320: 00 b7 a0 23 sw	a1, 0(a5)
0x80002324: 00 c7 a2 23 sw	a2, 4(a5)
0x80002328: 00 87 87 93 addi	a5, a5, 8
0x8000232c: fe f7 16 e3 bne	a4, a5, -0x14
0x80002318: 00 00 05 93 mv	a1, zero
0x8000231c: 00 00 06 13 mv	a2, zero
0x80002320: 00 b7 a0 23 sw	a1, 0(a5)
0x80002324: 00 c7 a2 23 sw	a2, 4(a5)
0x80002328: 00 87 87 93 addi	a5, a5, 8
0x8000232c: fe f7 16 e3 bne	a4, a5, -0x14
0x80002318: 00 00 05 93 mv	a1, zero
0x8000231c: 00 00 06 13 mv	a2, zero
0x80002320: 00 b7 a0 23 sw	a1, 0(a5)
0x80002324: 00 c7 a2 23 sw	a2, 4(a5)
0x80002328: 00 87 87 93 addi	a5, a5, 8
0x8000232c: fe f7 16 e3 bne	a4, a5, -0x14
0x80002318: 00 00 05 93 mv	a1, zero
0x8000231c: 00 00 06 13 mv	a2, zero
0x80002320: 00 b7 a0 23 sw	a1, 0(a5)
0x80002324: 00 c7 a2 23 sw	a2, 4(a5)
0x80002328: 00 87 87 93 addi	a5, a5, 8
0x8000232c: fe f7 16 e3 bne	a4, a5, -0x14
0x80002318: 00 00 05 93 mv	a1, zero
0x8000231c: 00 00 06 13 mv	a2, zero
0x80002320: 00 b7 a0 23 sw	a1, 0(a5)
0x80002324: 00 c7 a2 23 sw	a2, 4(a5)
0x80002328: 00 87 87 93 addi	a5, a5, 8
0x8000232c: fe f7 16 e3 bne	a4, a5, -0x14
0x80002318: 00 00 05 93 mv	a1, zero
0x8000231c: 00 00 06 13 mv	a2, zero
0x80002320: 00 b7 a0 23 sw	a1, 0(a5)
0x80002324: 00 c7 a2 23 sw	a2, 4(a5)
0x80002328: 00 87 87 93 addi	a5, a5, 8
0x8000232c: fe f7 16 e3 bne	a4, a5, -0x14
0x80002318: 00 00 05 93 mv	a1, zero
0x8000231c: 00 00 06 13 mv	a2, zero
0x80002320: 00 b7 a0 23 sw	a1, 0(a5)
0x80002324: 00 c7 a2 23 sw	a2, 4(a5)
0x80002328: 00 87 87 93 addi	a5, a5, 8
0x8000232c: fe f7 16 e3 bne	a4, a5, -0x14
0x80002318: 00 00 05 93 mv	a1, zero
0x8000231c: 00 00 06 13 mv	a2, zero
0x80002320: 00 b7 a0 23 sw	a1, 0(a5)
0x80002324: 00 c7 a2 23 sw	a2, 4(a5)
0x80002328: 00 87 87 93 addi	a5, a5, 8
0x8000232c: fe f7 16 e3 bne	a4, a5, -0x14
0x80002318: 00 00 05 93 mv	a1, zero
0x8000231c: 00 00 06 13 mv	a2, zero
0x80002320: 00 b7 a0 23 sw	a1, 0(a5)
0x80002324: 00 c7 a2 23 sw	a2, 4(a5)
0x80002328: 00 87 87 93 addi	a5, a5, 8
0x8000232c: fe f7 16 e3 bne	a4, a5, -0x14
0x80002318: 00 00 05 93 mv	a1, zero
0x8000231c: 00 00 06 13 mv	a2, zero
0x80002320: 00 b7 a0 23 sw	a1, 0(a5)
0x80002324: 00 c7 a2 23 sw	a2, 4(a5)
0x80002328: 00 87 87 93 addi	a5, a5, 8
0x8000232c: fe f7 16 e3 bne	a4, a5, -0x14
0x80002318: 00 00 05 93 mv	a1, zero
0x8000231c: 00 00 06 13 mv	a2, zero
0x80002320: 00 b7 a0 23 sw	a1, 0(a5)
0x80002324: 00 c7 a2 23 sw	a2, 4(a5)
0x80002328: 00 87 87 93 addi	a5, a5, 8
0x8000232c: fe f7 16 e3 bne	a4, a5, -0x14
0x80002318: 00 00 05 93 mv	a1, zero
0x8000231c: 00 00 06 13 mv	a2, zero
0x80002320: 00 b7 a0 23 sw	a1, 0(a5)
0x80002324: 00 c7 a2 23 sw	a2, 4(a5)
0x80002328: 00 87 87 93 addi	a5, a5, 8
0x8000232c: fe f7 16 e3 bne	a4, a5, -0x14
0x80002318: 00 00 05 93 mv	a1, zero
0x8000231c: 00 00 06 13 mv	a2, zero
0x80002320: 00 b7 a0 23 sw	a1, 0(a5)
0x80002324: 00 c7 a2 23 sw	a2, 4(a5)
0x80002328: 00 87 87 93 addi	a5, a5, 8
0x8000232c: fe f7 16 e3 bne	a4, a5, -0x14
0x80002318: 00 00 05 93 mv	a1, zero
0x8000231c: 00 00 06 13 mv	a2, zero
0x80002320: 00 b7 a0 23 sw	a1, 0(a5)
0x80002324: 00 c7 a2 23 sw	a2, 4(a5)
0x80002328: 00 87 87 93 addi	a5, a5, 8
0x8000232c: fe f7 16 e3 bne	a4, a5, -0x14
0x80002318: 00 00 05 93 mv	a1, zero
0x8000231c: 00 00 06 13 mv	a2, zero
0x80002320: 00 b7 a0 23 sw	a1, 0(a5)
0x80002324: 00 c7 a2 23 sw	a2, 4(a5)
0x80002328: 00 87 87 93 addi	a5, a5, 8
0x8000232c: fe f7 16 e3 bne	a4, a5, -0x14
0x80002318: 00 00 05 93 mv	a1, zero
0x8000231c: 00 00 06 13 mv	a2, zero
0x80002320: 00 b7 a0 23 sw	a1, 0(a5)
0x80002324: 00 c7 a2 23 sw	a2, 4(a5)
0x80002328: 00 87 87 93 addi	a5, a5, 8
0x8000232c: fe f7 16 e3 bne	a4, a5, -0x14
0x80002318: 00 00 05 93 mv	a1, zero
0x8000231c: 00 00 06 13 mv	a2, zero
0x80002320: 00 b7 a0 23 sw	a1, 0(a5)
0x80002324: 00 c7 a2 23 sw	a2, 4(a5)
0x80002328: 00 87 87 93 addi	a5, a5, 8
0x8000232c: fe f7 16 e3 bne	a4, a5, -0x14
0x80002318: 00 00 05 93 mv	a1, zero
0x8000231c: 00 00 06 13 mv	a2, zero
0x80002320: 00 b7 a0 23 sw	a1, 0(a5)
0x80002324: 00 c7 a2 23 sw	a2, 4(a5)
0x80002328: 00 87 87 93 addi	a5, a5, 8
0x8000232c: fe f7 16 e3 bne	a4, a5, -0x14
0x80002318: 00 00 05 93 mv	a1, zero
0x8000231c: 00 00 06 13 mv	a2, zero
0x80002320: 00 b7 a0 23 sw	a1, 0(a5)
0x80002324: 00 c7 a2 23 sw	a2, 4(a5)
0x80002328: 00 87 87 93 addi	a5, a5, 8
0x8000232c: fe f7 16 e3 bne	a4, a5, -0x14
0x80002318: 00 00 05 93 mv	a1, zero
0x8000231c: 00 00 06 13 mv	a2, zero
0x80002320: 00 b7 a0 23 sw	a1, 0(a5)
0x80002324: 00 c7 a2 23 sw	a2, 4(a5)
0x80002328: 00 87 87 93 addi	a5, a5, 8
0x8000232c: fe f7 16 e3 bne	a4, a5, -0x14
0x80002318: 00 00 05 93 mv	a1, zero
0x8000231c: 00 00 06 13 mv	a2, zero
0x80002320: 00 b7 a0 23 sw	a1, 0(a5)
0x80002324: 00 c7 a2 23 sw	a2, 4(a5)
0x80002328: 00 87 87 93 addi	a5, a5, 8
0x8000232c: fe f7 16 e3 bne	a4, a5, -0x14
0x80002318: 00 00 05 93 mv	a1, zero
0x8000231c: 00 00 06 13 mv	a2, zero
0x80002320: 00 b7 a0 23 sw	a1, 0(a5)
0x80002324: 00 c7 a2 23 sw	a2, 4(a5)
0x80002328: 00 87 87 93 addi	a5, a5, 8
0x8000232c: fe f7 16 e3 bne	a4, a5, -0x14
0x80002318: 00 00 05 93 mv	a1, zero
0x8000231c: 00 00 06 13 mv	a2, zero
0x80002320: 00 b7 a0 23 sw	a1, 0(a5)
0x80002324: 00 c7 a2 23 sw	a2, 4(a5)
0x80002328: 00 87 87 93 addi	a5, a5, 8
0x8000232c: fe f7 16 e3 bne	a4, a5, -0x14
0x80002318: 00 00 05 93 mv	a1, zero
0x8000231c: 00 00 06 13 mv	a2, zero
0x80002320: 00 b7 a0 23 sw	a1, 0(a5)
0x80002324: 00 c7 a2 23 sw	a2, 4(a5)
0x80002328: 00 87 87 93 addi	a5, a5, 8
0x8000232c: fe f7 16 e3 bne	a4, a5, -0x14
0x80002318: 00 00 05 93 mv	a1, zero
0x8000231c: 00 00 06 13 mv	a2, zero
0x80002320: 00 b7 a0 23 sw	a1, 0(a5)
0x80002324: 00 c7 a2 23 sw	a2, 4(a5)
0x80002328: 00 87 87 93 addi	a5, a5, 8
0x8000232c: fe f7 16 e3 bne	a4, a5, -0x14
0x80002318: 00 00 05 93 mv	a1, zero
0x8000231c: 00 00 06 13 mv	a2, zero
0x80002320: 00 b7 a0 23 sw	a1, 0(a5)
0x80002324: 00 c7 a2 23 sw	a2, 4(a5)
0x80002328: 00 87 87 93 addi	a5, a5, 8
0x8000232c: fe f7 16 e3 bne	a4, a5, -0x14
0x80002318: 00 00 05 93 mv	a1, zero
0x8000231c: 00 00 06 13 mv	a2, zero
0x80002320: 00 b7 a0 23 sw	a1, 0(a5)
0x80002324: 00 c7 a2 23 sw	a2, 4(a5)
0x80002328: 00 87 87 93 addi	a5, a5, 8
0x8000232c: fe f7 16 e3 bne	a4, a5, -0x14
0x80002318: 00 00 05 93 mv	a1, zero
0x8000231c: 00 00 06 13 mv	a2, zero
0x80002320: 00 b7 a0 23 sw	a1, 0(a5)
0x80002324: 00 c7 a2 23 sw	a2, 4(a5)
0x80002328: 00 87 87 93 addi	a5, a5, 8
0x8000232c: fe f7 16 e3 bne	a4, a5, -0x14
0x80002318: 00 00 05 93 mv	a1, zero
0x8000231c: 00 00 06 13 mv	a2, zero
0x80002320: 00 b7 a0 23 sw	a1, 0(a5)
0x80002324: 00 c7 a2 23 sw	a2, 4(a5)
0x80002328: 00 87 87 93 addi	a5, a5, 8
0x8000232c: fe f7 16 e3 bne	a4, a5, -0x14
0x80002318: 00 00 05 93 mv	a1, zero
0x8000231c: 00 00 06 13 mv	a2, zero
0x80002320: 00 b7 a0 23 sw	a1, 0(a5)
0x80002324: 00 c7 a2 23 sw	a2, 4(a5)
0x80002328: 00 87 87 93 addi	a5, a5, 8
0x8000232c: fe f7 16 e3 bne	a4, a5, -0x14
0x80002318: 00 00 05 93 mv	a1, zero
0x8000231c: 00 00 06 13 mv	a2, zero
0x80002320: 00 b7 a0 23 sw	a1, 0(a5)
0x80002324: 00 c7 a2 23 sw	a2, 4(a5)
0x80002328: 00 87 87 93 addi	a5, a5, 8
0x8000232c: fe f7 16 e3 bne	a4, a5, -0x14
0x80002318: 00 00 05 93 mv	a1, zero
0x8000231c: 00 00 06 13 mv	a2, zero
0x80002320: 00 b7 a0 23 sw	a1, 0(a5)
0x80002324: 00 c7 a2 23 sw	a2, 4(a5)
0x80002328: 00 87 87 93 addi	a5, a5, 8
0x8000232c: fe f7 16 e3 bne	a4, a5, -0x14
0x80002318: 00 00 05 93 mv	a1, zero
0x8000231c: 00 00 06 13 mv	a2, zero
0x80002320: 00 b7 a0 23 sw	a1, 0(a5)
0x80002324: 00 c7 a2 23 sw	a2, 4(a5)
0x80002328: 00 87 87 93 addi	a5, a5, 8
0x8000232c: fe f7 16 e3 bne	a4, a5, -0x14
0x80002318: 00 00 05 93 mv	a1, zero
0x8000231c: 00 00 06 13 mv	a2, zero
0x80002320: 00 b7 a0 23 sw	a1, 0(a5)
0x80002324: 00 c7 a2 23 sw	a2, 4(a5)
0x80002328: 00 87 87 93 addi	a5, a5, 8
0x8000232c: fe f7 16 e3 bne	a4, a5, -0x14
0x80002318: 00 00 05 93 mv	a1, zero
0x8000231c: 00 00 06 13 mv	a2, zero
0x80002320: 00 b7 a0 23 sw	a1, 0(a5)
0x80002324: 00 c7 a2 23 sw	a2, 4(a5)
0x80002328: 00 87 87 93 addi	a5, a5, 8
0x8000232c: fe f7 16 e3 bne	a4, a5, -0x14
0x80002318: 00 00 05 93 mv	a1, zero
0x8000231c: 00 00 06 13 mv	a2, zero
0x80002320: 00 b7 a0 23 sw	a1, 0(a5)
0x80002324: 00 c7 a2 23 sw	a2, 4(a5)
0x80002328: 00 87 87 93 addi	a5, a5, 8
0x8000232c: fe f7 16 e3 bne	a4, a5, -0x14
0x80002318: 00 00 05 93 mv	a1, zero
0x8000231c: 00 00 06 13 mv	a2, zero
0x80002320: 00 b7 a0 23 sw	a1, 0(a5)
0x80002324: 00 c7 a2 23 sw	a2, 4(a5)
0x80002328: 00 87 87 93 addi	a5, a5, 8
0x8000232c: fe f7 16 e3 bne	a4, a5, -0x14
0x80002318: 00 00 05 93 mv	a1, zero
0x8000231c: 00 00 06 13 mv	a2, zero
0x80002320: 00 b7 a0 23 sw	a1, 0(a5)
0x80002324: 00 c7 a2 23 sw	a2, 4(a5)
0x80002328: 00 87 87 93 addi	a5, a5, 8
0x8000232c: fe f7 16 e3 bne	a4, a5, -0x14
0x80002318: 00 00 05 93 mv	a1, zero
0x8000231c: 00 00 06 13 mv	a2, zero
0x80002320: 00 b7 a0 23 sw	a1, 0(a5)
0x80002324: 00 c7 a2 23 sw	a2, 4(a5)
0x80002328: 00 87 87 93 addi	a5, a5, 8
0x8000232c: fe f7 16 e3 bne	a4, a5, -0x14
0x80002318: 00 00 05 93 mv	a1, zero
0x8000231c: 00 00 06 13 mv	a2, zero
0x80002320: 00 b7 a0 23 sw	a1, 0(a5)
0x80002324: 00 c7 a2 23 sw	a2, 4(a5)
0x80002328: 00 87 87 93 addi	a5, a5, 8
0x8000232c: fe f7 16 e3 bne	a4, a5, -0x14
0x80002318: 00 00 05 93 mv	a1, zero
0x8000231c: 00 00 06 13 mv	a2, zero
0x80002320: 00 b7 a0 23 sw	a1, 0(a5)
0x80002324: 00 c7 a2 23 sw	a2, 4(a5)
0x80002328: 00 87 87 93 addi	a5, a5, 8
0x8000232c: fe f7 16 e3 bne	a4, a5, -0x14
0x80002318: 00 00 05 93 mv	a1, zero
0x8000231c: 00 00 06 13 mv	a2, zero
0x80002320: 00 b7 a0 23 sw	a1, 0(a5)
0x80002324: 00 c7 a2 23 sw	a2, 4(a5)
0x80002328: 00 87 87 93 addi	a5, a5, 8
0x8000232c: fe f7 16 e3 bne	a4, a5, -0x14
0x80002318: 00 00 05 93 mv	a1, zero
0x8000231c: 00 00 06 13 mv	a2, zero
0x80002320: 00 b7 a0 23 sw	a1, 0(a5)
0x80002324: 00 c7 a2 23 sw	a2, 4(a5)
0x80002328: 00 87 87 93 addi	a5, a5, 8
0x8000232c: fe f7 16 e3 bne	a4, a5, -0x14
0x80002318: 00 00 05 93 mv	a1, zero
0x8000231c: 00 00 06 13 mv	a2, zero
0x80002320: 00 b7 a0 23 sw	a1, 0(a5)
0x80002324: 00 c7 a2 23 sw	a2, 4(a5)
0x80002328: 00 87 87 93 addi	a5, a5, 8
0x8000232c: fe f7 16 e3 bne	a4, a5, -0x14
0x80002318: 00 00 05 93 mv	a1, zero
0x8000231c: 00 00 06 13 mv	a2, zero
0x80002320: 00 b7 a0 23 sw	a1, 0(a5)
0x80002324: 00 c7 a2 23 sw	a2, 4(a5)
0x80002328: 00 87 87 93 addi	a5, a5, 8
0x8000232c: fe f7 16 e3 bne	a4, a5, -0x14
0x80002318: 00 00 05 93 mv	a1, zero
0x8000231c: 00 00 06 13 mv	a2, zero
0x80002320: 00 b7 a0 23 sw	a1, 0(a5)
0x80002324: 00 c7 a2 23 sw	a2, 4(a5)
0x80002328: 00 87 87 93 addi	a5, a5, 8
0x8000232c: fe f7 16 e3 bne	a4, a5, -0x14
0x80002318: 00 00 05 93 mv	a1, zero
0x8000231c: 00 00 06 13 mv	a2, zero
0x80002320: 00 b7 a0 23 sw	a1, 0(a5)
0x80002324: 00 c7 a2 23 sw	a2, 4(a5)
0x80002328: 00 87 87 93 addi	a5, a5, 8
0x8000232c: fe f7 16 e3 bne	a4, a5, -0x14
0x80002318: 00 00 05 93 mv	a1, zero
0x8000231c: 00 00 06 13 mv	a2, zero
0x80002320: 00 b7 a0 23 sw	a1, 0(a5)
0x80002324: 00 c7 a2 23 sw	a2, 4(a5)
0x80002328: 00 87 87 93 addi	a5, a5, 8
0x8000232c: fe f7 16 e3 bne	a4, a5, -0x14
0x80002318: 00 00 05 93 mv	a1, zero
0x8000231c: 00 00 06 13 mv	a2, zero
0x80002320: 00 b7 a0 23 sw	a1, 0(a5)
0x80002324: 00 c7 a2 23 sw	a2, 4(a5)
0x80002328: 00 87 87 93 addi	a5, a5, 8
0x8000232c: fe f7 16 e3 bne	a4, a5, -0x14
0x80002318: 00 00 05 93 mv	a1, zero
0x8000231c: 00 00 06 13 mv	a2, zero
0x80002320: 00 b7 a0 23 sw	a1, 0(a5)
0x80002324: 00 c7 a2 23 sw	a2, 4(a5)
0x80002328: 00 87 87 93 addi	a5, a5, 8
0x8000232c: fe f7 16 e3 bne	a4, a5, -0x14
0x80002318: 00 00 05 93 mv	a1, zero
0x8000231c: 00 00 06 13 mv	a2, zero
0x80002320: 00 b7 a0 23 sw	a1, 0(a5)
0x80002324: 00 c7 a2 23 sw	a2, 4(a5)
0x80002328: 00 87 87 93 addi	a5, a5, 8
0x8000232c: fe f7 16 e3 bne	a4, a5, -0x14
0x80002318: 00 00 05 93 mv	a1, zero
0x8000231c: 00 00 06 13 mv	a2, zero
0x80002320: 00 b7 a0 23 sw	a1, 0(a5)
0x80002324: 00 c7 a2 23 sw	a2, 4(a5)
0x80002328: 00 87 87 93 addi	a5, a5, 8
0x8000232c: fe f7 16 e3 bne	a4, a5, -0x14
0x80002318: 00 00 05 93 mv	a1, zero
0x8000231c: 00 00 06 13 mv	a2, zero
0x80002320: 00 b7 a0 23 sw	a1, 0(a5)
0x80002324: 00 c7 a2 23 sw	a2, 4(a5)
0x80002328: 00 87 87 93 addi	a5, a5, 8
0x8000232c: fe f7 16 e3 bne	a4, a5, -0x14
0x80002318: 00 00 05 93 mv	a1, zero
0x8000231c: 00 00 06 13 mv	a2, zero
0x80002320: 00 b7 a0 23 sw	a1, 0(a5)
0x80002324: 00 c7 a2 23 sw	a2, 4(a5)
0x80002328: 00 87 87 93 addi	a5, a5, 8
0x8000232c: fe f7 16 e3 bne	a4, a5, -0x14
0x80002318: 00 00 05 93 mv	a1, zero
0x8000231c: 00 00 06 13 mv	a2, zero
0x80002320: 00 b7 a0 23 sw	a1, 0(a5)
0x80002324: 00 c7 a2 23 sw	a2, 4(a5)
0x80002328: 00 87 87 93 addi	a5, a5, 8
0x8000232c: fe f7 16 e3 bne	a4, a5, -0x14
0x80002318: 00 00 05 93 mv	a1, zero
0x8000231c: 00 00 06 13 mv	a2, zero
0x80002320: 00 b7 a0 23 sw	a1, 0(a5)
0x80002324: 00 c7 a2 23 sw	a2, 4(a5)
0x80002328: 00 87 87 93 addi	a5, a5, 8
0x8000232c: fe f7 16 e3 bne	a4, a5, -0x14
0x80002318: 00 00 05 93 mv	a1, zero
0x8000231c: 00 00 06 13 mv	a2, zero
0x80002320: 00 b7 a0 23 sw	a1, 0(a5)
0x80002324: 00 c7 a2 23 sw	a2, 4(a5)
0x80002328: 00 87 87 93 addi	a5, a5, 8
0x8000232c: fe f7 16 e3 bne	a4, a5, -0x14
0x80002318: 00 00 05 93 mv	a1, zero
0x8000231c: 00 00 06 13 mv	a2, zero
0x80002320: 00 b7 a0 23 sw	a1, 0(a5)
0x80002324: 00 c7 a2 23 sw	a2, 4(a5)
0x80002328: 00 87 87 93 addi	a5, a5, 8
0x8000232c: fe f7 16 e3 bne	a4, a5, -0x14
0x80002318: 00 00 05 93 mv	a1, zero
0x8000231c: 00 00 06 13 mv	a2, zero
0x80002320: 00 b7 a0 23 sw	a1, 0(a5)
0x80002324: 00 c7 a2 23 sw	a2, 4(a5)
0x80002328: 00 87 87 93 addi	a5, a5, 8
0x8000232c: fe f7 16 e3 bne	a4, a5, -0x14
0x80002318: 00 00 05 93 mv	a1, zero
0x8000231c: 00 00 06 13 mv	a2, zero
0x80002320: 00 b7 a0 23 sw	a1, 0(a5)
0x80002324: 00 c7 a2 23 sw	a2, 4(a5)
0x80002328: 00 87 87 93 addi	a5, a5, 8
0x8000232c: fe f7 16 e3 bne	a4, a5, -0x14
0x80002318: 00 00 05 93 mv	a1, zero
0x8000231c: 00 00 06 13 mv	a2, zero
0x80002320: 00 b7 a0 23 sw	a1, 0(a5)
0x80002324: 00 c7 a2 23 sw	a2, 4(a5)
0x80002328: 00 87 87 93 addi	a5, a5, 8
0x8000232c: fe f7 16 e3 bne	a4, a5, -0x14
0x80002318: 00 00 05 93 mv	a1, zero
0x8000231c: 00 00 06 13 mv	a2, zero
0x80002320: 00 b7 a0 23 sw	a1, 0(a5)
0x80002324: 00 c7 a2 23 sw	a2, 4(a5)
0x80002328: 00 87 87 93 addi	a5, a5, 8
0x8000232c: fe f7 16 e3 bne	a4, a5, -0x14
0x80002318: 00 00 05 93 mv	a1, zero
0x8000231c: 00 00 06 13 mv	a2, zero
0x80002320: 00 b7 a0 23 sw	a1, 0(a5)
0x80002324: 00 c7 a2 23 sw	a2, 4(a5)
0x80002328: 00 87 87 93 addi	a5, a5, 8
0x8000232c: fe f7 16 e3 bne	a4, a5, -0x14
0x80002318: 00 00 05 93 mv	a1, zero
0x8000231c: 00 00 06 13 mv	a2, zero
0x80002320: 00 b7 a0 23 sw	a1, 0(a5)
0x80002324: 00 c7 a2 23 sw	a2, 4(a5)
0x80002328: 00 87 87 93 addi	a5, a5, 8
0x8000232c: fe f7 16 e3 bne	a4, a5, -0x14
0x80002318: 00 00 05 93 mv	a1, zero
0x8000231c: 00 00 06 13 mv	a2, zero
0x80002320: 00 b7 a0 23 sw	a1, 0(a5)
0x80002324: 00 c7 a2 23 sw	a2, 4(a5)
0x80002328: 00 87 87 93 addi	a5, a5, 8
0x8000232c: fe f7 16 e3 bne	a4, a5, -0x14
0x80002318: 00 00 05 93 mv	a1, zero
0x8000231c: 00 00 06 13 mv	a2, zero
0x80002320: 00 b7 a0 23 sw	a1, 0(a5)
0x80002324: 00 c7 a2 23 sw	a2, 4(a5)
0x80002328: 00 87 87 93 addi	a5, a5, 8
0x8000232c: fe f7 16 e3 bne	a4, a5, -0x14
0x80002318: 00 00 05 93 mv	a1, zero
0x8000231c: 00 00 06 13 mv	a2, zero
0x80002320: 00 b7 a0 23 sw	a1, 0(a5)
0x80002324: 00 c7 a2 23 sw	a2, 4(a5)
0x80002328: 00 87 87 93 addi	a5, a5, 8
0x8000232c: fe f7 16 e3 bne	a4, a5, -0x14
0x80002318: 00 00 05 93 mv	a1, zero
0x8000231c: 00 00 06 13 mv	a2, zero
0x80002320: 00 b7 a0 23 sw	a1, 0(a5)
0x80002324: 00 c7 a2 23 sw	a2, 4(a5)
0x80002328: 00 87 87 93 addi	a5, a5, 8
0x8000232c: fe f7 16 e3 bne	a4, a5, -0x14
0x80002318: 00 00 05 93 mv	a1, zero
0x8000231c: 00 00 06 13 mv	a2, zero
0x80002320: 00 b7 a0 23 sw	a1, 0(a5)
0x80002324: 00 c7 a2 23 sw	a2, 4(a5)
0x80002328: 00 87 87 93 addi	a5, a5, 8
0x8000232c: fe f7 16 e3 bne	a4, a5, -0x14
0x80002318: 00 00 05 93 mv	a1, zero
0x8000231c: 00 00 06 13 mv	a2, zero
0x80002320: 00 b7 a0 23 sw	a1, 0(a5)
0x80002324: 00 c7 a2 23 sw	a2, 4(a5)
0x80002328: 00 87 87 93 addi	a5, a5, 8
0x8000232c: fe f7 16 e3 bne	a4, a5, -0x14
0x80002318: 00 00 05 93 mv	a1, zero
0x8000231c: 00 00 06 13 mv	a2, zero
0x80002320: 00 b7 a0 23 sw	a1, 0(a5)
0x80002324: 00 c7 a2 23 sw	a2, 4(a5)
0x80002328: 00 87 87 93 addi	a5, a5, 8
0x8000232c: fe f7 16 e3 bne	a4, a5, -0x14
0x80002318: 00 00 05 93 mv	a1, zero
0x8000231c: 00 00 06 13 mv	a2, zero
0x80002320: 00 b7 a0 23 sw	a1, 0(a5)
0x80002324: 00 c7 a2 23 sw	a2, 4(a5)
0x80002328: 00 87 87 93 addi	a5, a5, 8
0x8000232c: fe f7 16 e3 bne	a4, a5, -0x14
0x80002318: 00 00 05 93 mv	a1, zero
0x8000231c: 00 00 06 13 mv	a2, zero
0x80002320: 00 b7 a0 23 sw	a1, 0(a5)
0x80002324: 00 c7 a2 23 sw	a2, 4(a5)
0x80002328: 00 87 87 93 addi	a5, a5, 8
0x8000232c: fe f7 16 e3 bne	a4, a5, -0x14
0x80002318: 00 00 05 93 mv	a1, zero
0x8000231c: 00 00 06 13 mv	a2, zero
0x80002320: 00 b7 a0 23 sw	a1, 0(a5)
0x80002324: 00 c7 a2 23 sw	a2, 4(a5)
0x80002328: 00 87 87 93 addi	a5, a5, 8
0x8000232c: fe f7 16 e3 bne	a4, a5, -0x14
0x80002318: 00 00 05 93 mv	a1, zero
0x8000231c: 00 00 06 13 mv	a2, zero
0x80002320: 00 b7 a0 23 sw	a1, 0(a5)
0x80002324: 00 c7 a2 23 sw	a2, 4(a5)
0x80002328: 00 87 87 93 addi	a5, a5, 8
0x8000232c: fe f7 16 e3 bne	a4, a5, -0x14
0x80002318: 00 00 05 93 mv	a1, zero
0x8000231c: 00 00 06 13 mv	a2, zero
0x80002320: 00 b7 a0 23 sw	a1, 0(a5)
0x80002324: 00 c7 a2 23 sw	a2, 4(a5)
0x80002328: 00 87 87 93 addi	a5, a5, 8
0x8000232c: fe f7 16 e3 bne	a4, a5, -0x14
0x80002318: 00 00 05 93 mv	a1, zero
0x8000231c: 00 00 06 13 mv	a2, zero
0x80002320: 00 b7 a0 23 sw	a1, 0(a5)
0x80002324: 00 c7 a2 23 sw	a2, 4(a5)
0x80002328: 00 87 87 93 addi	a5, a5, 8
0x8000232c: fe f7 16 e3 bne	a4, a5, -0x14
0x80002318: 00 00 05 93 mv	a1, zero
0x8000231c: 00 00 06 13 mv	a2, zero
0x80002320: 00 b7 a0 23 sw	a1, 0(a5)
0x80002324: 00 c7 a2 23 sw	a2, 4(a5)
0x80002328: 00 87 87 93 addi	a5, a5, 8
0x8000232c: fe f7 16 e3 bne	a4, a5, -0x14
0x80002318: 00 00 05 93 mv	a1, zero
0x8000231c: 00 00 06 13 mv	a2, zero
0x80002320: 00 b7 a0 23 sw	a1, 0(a5)
0x80002324: 00 c7 a2 23 sw	a2, 4(a5)
0x80002328: 00 87 87 93 addi	a5, a5, 8
0x8000232c: fe f7 16 e3 bne	a4, a5, -0x14
0x80002318: 00 00 05 93 mv	a1, zero
0x8000231c: 00 00 06 13 mv	a2, zero
0x80002320: 00 b7 a0 23 sw	a1, 0(a5)
0x80002324: 00 c7 a2 23 sw	a2, 4(a5)
0x80002328: 00 87 87 93 addi	a5, a5, 8
0x8000232c: fe f7 16 e3 bne	a4, a5, -0x14
0x80002318: 00 00 05 93 mv	a1, zero
0x8000231c: 00 00 06 13 mv	a2, zero
0x80002320: 00 b7 a0 23 sw	a1, 0(a5)
0x80002324: 00 c7 a2 23 sw	a2, 4(a5)
0x80002328: 00 87 87 93 addi	a5, a5, 8
0x8000232c: fe f7 16 e3 bne	a4, a5, -0x14
0x80002318: 00 00 05 93 mv	a1, zero
0x8000231c: 00 00 06 13 mv	a2, zero
0x80002320: 00 b7 a0 23 sw	a1, 0(a5)
0x80002324: 00 c7 a2 23 sw	a2, 4(a5)
0x80002328: 00 87 87 93 addi	a5, a5, 8
0x8000232c: fe f7 16 e3 bne	a4, a5, -0x14
0x80002318: 00 00 05 93 mv	a1, zero
0x8000231c: 00 00 06 13 mv	a2, zero
0x80002320: 00 b7 a0 23 sw	a1, 0(a5)
0x80002324: 00 c7 a2 23 sw	a2, 4(a5)
0x80002328: 00 87 87 93 addi	a5, a5, 8
0x8000232c: fe f7 16 e3 bne	a4, a5, -0x14
0x80002318: 00 00 05 93 mv	a1, zero
0x8000231c: 00 00 06 13 mv	a2, zero
0x80002320: 00 b7 a0 23 sw	a1, 0(a5)
0x80002324: 00 c7 a2 23 sw	a2, 4(a5)
0x80002328: 00 87 87 93 addi	a5, a5, 8
0x8000232c: fe f7 16 e3 bne	a4, a5, -0x14
0x80002318: 00 00 05 93 mv	a1, zero
0x8000231c: 00 00 06 13 mv	a2, zero
0x80002320: 00 b7 a0 23 sw	a1, 0(a5)
0x80002324: 00 c7 a2 23 sw	a2, 4(a5)
0x80002328: 00 87 87 93 addi	a5, a5, 8
0x8000232c: fe f7 16 e3 bne	a4, a5, -0x14
0x80002318: 00 00 05 93 mv	a1, zero
0x8000231c: 00 00 06 13 mv	a2, zero
0x80002320: 00 b7 a0 23 sw	a1, 0(a5)
0x80002324: 00 c7 a2 23 sw	a2, 4(a5)
0x80002328: 00 87 87 93 addi	a5, a5, 8
0x8000232c: fe f7 16 e3 bne	a4, a5, -0x14
0x80002318: 00 00 05 93 mv	a1, zero
0x8000231c: 00 00 06 13 mv	a2, zero
0x80002320: 00 b7 a0 23 sw	a1, 0(a5)
0x80002324: 00 c7 a2 23 sw	a2, 4(a5)
0x80002328: 00 87 87 93 addi	a5, a5, 8
0x8000232c: fe f7 16 e3 bne	a4, a5, -0x14
0x80002318: 00 00 05 93 mv	a1, zero
0x8000231c: 00 00 06 13 mv	a2, zero
0x80002320: 00 b7 a0 23 sw	a1, 0(a5)
0x80002324: 00 c7 a2 23 sw	a2, 4(a5)
0x80002328: 00 87 87 93 addi	a5, a5, 8
0x8000232c: fe f7 16 e3 bne	a4, a5, -0x14
0x80002318: 00 00 05 93 mv	a1, zero
0x8000231c: 00 00 06 13 mv	a2, zero
0x80002320: 00 b7 a0 23 sw	a1, 0(a5)
0x80002324: 00 c7 a2 23 sw	a2, 4(a5)
0x80002328: 00 87 87 93 addi	a5, a5, 8
0x8000232c: fe f7 16 e3 bne	a4, a5, -0x14
0x80002318: 00 00 05 93 mv	a1, zero
0x8000231c: 00 00 06 13 mv	a2, zero
0x80002320: 00 b7 a0 23 sw	a1, 0(a5)
0x80002324: 00 c7 a2 23 sw	a2, 4(a5)
0x80002328: 00 87 87 93 addi	a5, a5, 8
0x8000232c: fe f7 16 e3 bne	a4, a5, -0x14
0x80002318: 00 00 05 93 mv	a1, zero
0x8000231c: 00 00 06 13 mv	a2, zero
0x80002320: 00 b7 a0 23 sw	a1, 0(a5)
0x80002324: 00 c7 a2 23 sw	a2, 4(a5)
0x80002328: 00 87 87 93 addi	a5, a5, 8
0x8000232c: fe f7 16 e3 bne	a4, a5, -0x14
0x80002318: 00 00 05 93 mv	a1, zero
0x8000231c: 00 00 06 13 mv	a2, zero
0x80002320: 00 b7 a0 23 sw	a1, 0(a5)
0x80002324: 00 c7 a2 23 sw	a2, 4(a5)
0x80002328: 00 87 87 93 addi	a5, a5, 8
0x8000232c: fe f7 16 e3 bne	a4, a5, -0x14
0x80002318: 00 00 05 93 mv	a1, zero
0x8000231c: 00 00 06 13 mv	a2, zero
0x80002320: 00 b7 a0 23 sw	a1, 0(a5)
0x80002324: 00 c7 a2 23 sw	a2, 4(a5)
0x80002328: 00 87 87 93 addi	a5, a5, 8
0x8000232c: fe f7 16 e3 bne	a4, a5, -0x14
0x80002318: 00 00 05 93 mv	a1, zero
0x8000231c: 00 00 06 13 mv	a2, zero
0x80002320: 00 b7 a0 23 sw	a1, 0(a5)
0x80002324: 00 c7 a2 23 sw	a2, 4(a5)
0x80002328: 00 87 87 93 addi	a5, a5, 8
0x8000232c: fe f7 16 e3 bne	a4, a5, -0x14
0x80002318: 00 00 05 93 mv	a1, zero
0x8000231c: 00 00 06 13 mv	a2, zero
0x80002320: 00 b7 a0 23 sw	a1, 0(a5)
0x80002324: 00 c7 a2 23 sw	a2, 4(a5)
0x80002328: 00 87 87 93 addi	a5, a5, 8
0x8000232c: fe f7 16 e3 bne	a4, a5, -0x14
0x80002318: 00 00 05 93 mv	a1, zero
0x8000231c: 00 00 06 13 mv	a2, zero
0x80002320: 00 b7 a0 23 sw	a1, 0(a5)
0x80002324: 00 c7 a2 23 sw	a2, 4(a5)
0x80002328: 00 87 87 93 addi	a5, a5, 8
0x8000232c: fe f7 16 e3 bne	a4, a5, -0x14
0x80002318: 00 00 05 93 mv	a1, zero
0x8000231c: 00 00 06 13 mv	a2, zero
0x80002320: 00 b7 a0 23 sw	a1, 0(a5)
0x80002324: 00 c7 a2 23 sw	a2, 4(a5)
0x80002328: 00 87 87 93 addi	a5, a5, 8
0x8000232c: fe f7 16 e3 bne	a4, a5, -0x14
0x80002318: 00 00 05 93 mv	a1, zero
0x8000231c: 00 00 06 13 mv	a2, zero
0x80002320: 00 b7 a0 23 sw	a1, 0(a5)
0x80002324: 00 c7 a2 23 sw	a2, 4(a5)
0x80002328: 00 87 87 93 addi	a5, a5, 8
0x8000232c: fe f7 16 e3 bne	a4, a5, -0x14
0x80002318: 00 00 05 93 mv	a1, zero
0x8000231c: 00 00 06 13 mv	a2, zero
0x80002320: 00 b7 a0 23 sw	a1, 0(a5)
0x80002324: 00 c7 a2 23 sw	a2, 4(a5)
0x80002328: 00 87 87 93 addi	a5, a5, 8
0x8000232c: fe f7 16 e3 bne	a4, a5, -0x14
0x80002318: 00 00 05 93 mv	a1, zero
0x8000231c: 00 00 06 13 mv	a2, zero
0x80002320: 00 b7 a0 23 sw	a1, 0(a5)
0x80002324: 00 c7 a2 23 sw	a2, 4(a5)
0x80002328: 00 87 87 93 addi	a5, a5, 8
0x8000232c: fe f7 16 e3 bne	a4, a5, -0x14
0x80002318: 00 00 05 93 mv	a1, zero
0x8000231c: 00 00 06 13 mv	a2, zero
0x80002320: 00 b7 a0 23 sw	a1, 0(a5)
0x80002324: 00 c7 a2 23 sw	a2, 4(a5)
0x80002328: 00 87 87 93 addi	a5, a5, 8
0x8000232c: fe f7 16 e3 bne	a4, a5, -0x14
0x80002318: 00 00 05 93 mv	a1, zero
0x8000231c: 00 00 06 13 mv	a2, zero
0x80002320: 00 b7 a0 23 sw	a1, 0(a5)
0x80002324: 00 c7 a2 23 sw	a2, 4(a5)
0x80002328: 00 87 87 93 addi	a5, a5, 8
0x8000232c: fe f7 16 e3 bne	a4, a5, -0x14
0x80002318: 00 00 05 93 mv	a1, zero
0x8000231c: 00 00 06 13 mv	a2, zero
0x80002320: 00 b7 a0 23 sw	a1, 0(a5)
0x80002324: 00 c7 a2 23 sw	a2, 4(a5)
0x80002328: 00 87 87 93 addi	a5, a5, 8
0x8000232c: fe f7 16 e3 bne	a4, a5, -0x14
0x80002318: 00 00 05 93 mv	a1, zero
0x8000231c: 00 00 06 13 mv	a2, zero
0x80002320: 00 b7 a0 23 sw	a1, 0(a5)
0x80002324: 00 c7 a2 23 sw	a2, 4(a5)
0x80002328: 00 87 87 93 addi	a5, a5, 8
0x8000232c: fe f7 16 e3 bne	a4, a5, -0x14
0x80002318: 00 00 05 93 mv	a1, zero
0x8000231c: 00 00 06 13 mv	a2, zero
0x80002320: 00 b7 a0 23 sw	a1, 0(a5)
0x80002324: 00 c7 a2 23 sw	a2, 4(a5)
0x80002328: 00 87 87 93 addi	a5, a5, 8
0x8000232c: fe f7 16 e3 bne	a4, a5, -0x14
0x80002318: 00 00 05 93 mv	a1, zero
0x8000231c: 00 00 06 13 mv	a2, zero
0x80002320: 00 b7 a0 23 sw	a1, 0(a5)
0x80002324: 00 c7 a2 23 sw	a2, 4(a5)
0x80002328: 00 87 87 93 addi	a5, a5, 8
0x8000232c: fe f7 16 e3 bne	a4, a5, -0x14
0x80002318: 00 00 05 93 mv	a1, zero
0x8000231c: 00 00 06 13 mv	a2, zero
0x80002320: 00 b7 a0 23 sw	a1, 0(a5)
0x80002324: 00 c7 a2 23 sw	a2, 4(a5)
0x80002328: 00 87 87 93 addi	a5, a5, 8
0x8000232c: fe f7 16 e3 bne	a4, a5, -0x14
0x80002318: 00 00 05 93 mv	a1, zero
0x8000231c: 00 00 06 13 mv	a2, zero
0x80002320: 00 b7 a0 23 sw	a1, 0(a5)
0x80002324: 00 c7 a2 23 sw	a2, 4(a5)
0x80002328: 00 87 87 93 addi	a5, a5, 8
0x8000232c: fe f7 16 e3 bne	a4, a5, -0x14
0x80002318: 00 00 05 93 mv	a1, zero
0x8000231c: 00 00 06 13 mv	a2, zero
0x80002320: 00 b7 a0 23 sw	a1, 0(a5)
0x80002324: 00 c7 a2 23 sw	a2, 4(a5)
0x80002328: 00 87 87 93 addi	a5, a5, 8
0x8000232c: fe f7 16 e3 bne	a4, a5, -0x14
0x80002318: 00 00 05 93 mv	a1, zero
0x8000231c: 00 00 06 13 mv	a2, zero
0x80002320: 00 b7 a0 23 sw	a1, 0(a5)
0x80002324: 00 c7 a2 23 sw	a2, 4(a5)
0x80002328: 00 87 87 93 addi	a5, a5, 8
0x8000232c: fe f7 16 e3 bne	a4, a5, -0x14
0x80002318: 00 00 05 93 mv	a1, zero
0x8000231c: 00 00 06 13 mv	a2, zero
0x80002320: 00 b7 a0 23 sw	a1, 0(a5)
0x80002324: 00 c7 a2 23 sw	a2, 4(a5)
0x80002328: 00 87 87 93 addi	a5, a5, 8
0x8000232c: fe f7 16 e3 bne	a4, a5, -0x14
0x80002318: 00 00 05 93 mv	a1, zero
0x8000231c: 00 00 06 13 mv	a2, zero
0x80002320: 00 b7 a0 23 sw	a1, 0(a5)
0x80002324: 00 c7 a2 23 sw	a2, 4(a5)
0x80002328: 00 87 87 93 addi	a5, a5, 8
0x8000232c: fe f7 16 e3 bne	a4, a5, -0x14
0x80002318: 00 00 05 93 mv	a1, zero
0x8000231c: 00 00 06 13 mv	a2, zero
0x80002320: 00 b7 a0 23 sw	a1, 0(a5)
0x80002324: 00 c7 a2 23 sw	a2, 4(a5)
0x80002328: 00 87 87 93 addi	a5, a5, 8
0x8000232c: fe f7 16 e3 bne	a4, a5, -0x14
0x80002318: 00 00 05 93 mv	a1, zero
0x8000231c: 00 00 06 13 mv	a2, zero
0x80002320: 00 b7 a0 23 sw	a1, 0(a5)
0x80002324: 00 c7 a2 23 sw	a2, 4(a5)
0x80002328: 00 87 87 93 addi	a5, a5, 8
0x8000232c: fe f7 16 e3 bne	a4, a5, -0x14
0x80002318: 00 00 05 93 mv	a1, zero
0x8000231c: 00 00 06 13 mv	a2, zero
0x80002320: 00 b7 a0 23 sw	a1, 0(a5)
0x80002324: 00 c7 a2 23 sw	a2, 4(a5)
0x80002328: 00 87 87 93 addi	a5, a5, 8
0x8000232c: fe f7 16 e3 bne	a4, a5, -0x14
0x80002318: 00 00 05 93 mv	a1, zero
0x8000231c: 00 00 06 13 mv	a2, zero
0x80002320: 00 b7 a0 23 sw	a1, 0(a5)
0x80002324: 00 c7 a2 23 sw	a2, 4(a5)
0x80002328: 00 87 87 93 addi	a5, a5, 8
0x8000232c: fe f7 16 e3 bne	a4, a5, -0x14
0x80002318: 00 00 05 93 mv	a1, zero
0x8000231c: 00 00 06 13 mv	a2, zero
0x80002320: 00 b7 a0 23 sw	a1, 0(a5)
0x80002324: 00 c7 a2 23 sw	a2, 4(a5)
0x80002328: 00 87 87 93 addi	a5, a5, 8
0x8000232c: fe f7 16 e3 bne	a4, a5, -0x14
0x80002318: 00 00 05 93 mv	a1, zero
0x8000231c: 00 00 06 13 mv	a2, zero
0x80002320: 00 b7 a0 23 sw	a1, 0(a5)
0x80002324: 00 c7 a2 23 sw	a2, 4(a5)
0x80002328: 00 87 87 93 addi	a5, a5, 8
0x8000232c: fe f7 16 e3 bne	a4, a5, -0x14
0x80002318: 00 00 05 93 mv	a1, zero
0x8000231c: 00 00 06 13 mv	a2, zero
0x80002320: 00 b7 a0 23 sw	a1, 0(a5)
0x80002324: 00 c7 a2 23 sw	a2, 4(a5)
0x80002328: 00 87 87 93 addi	a5, a5, 8
0x8000232c: fe f7 16 e3 bne	a4, a5, -0x14
0x80002318: 00 00 05 93 mv	a1, zero
0x8000231c: 00 00 06 13 mv	a2, zero
0x80002320: 00 b7 a0 23 sw	a1, 0(a5)
0x80002324: 00 c7 a2 23 sw	a2, 4(a5)
0x80002328: 00 87 87 93 addi	a5, a5, 8
0x8000232c: fe f7 16 e3 bne	a4, a5, -0x14
0x80002330: 00 06 85 13 mv	a0, a3
0x80002334: 00 00 80 67 ret
0x80000fe0: 78 00 06 13 addi	a2, zero, 0x780
0x80000fe4: 00 00 05 93 mv	a1, zero
0x80000fe8: 00 00 89 17 auipc	s2, 8
0x80000fec: 80 09 09 13 addi	s2, s2, -0x800
0x80000ff0: 00 a9 20 23 sw	a0, 0(s2)
0x80000ff4: 23 c0 10 ef jal	0x123c
0x80002230: 0f f5 f5 93 andi	a1, a1, 0xff
0x80002234: 00 05 07 93 mv	a5, a0
0x80002238: 00 a6 07 33 add	a4, a2, a0
0x8000223c: 00 06 08 63 beqz	a2, 0x10
0x80002240: 00 b7 80 23 sb	a1, 0(a5)
0x80002244: 00 17 87 93 addi	a5, a5, 1
0x80002248: fe e7 9c e3 bne	a5, a4, -8
0x80002240: 00 b7 80 23 sb	a1, 0(a5)
0x80002244: 00 17 87 93 addi	a5, a5, 1
0x80002248: fe e7 9c e3 bne	a5, a4, -8
0x80002240: 00 b7 80 23 sb	a1, 0(a5)
0x80002244: 00 17 87 93 addi	a5, a5, 1
0x80002248: fe e7 9c e3 bne	a5, a4, -8
0x80002240: 00 b7 80 23 sb	a1, 0(a5)
0x80002244: 00 17 87 93 addi	a5, a5, 1
0x80002248: fe e7 9c e3 bne	a5, a4, -8
0x80002240: 00 b7 80 23 sb	a1, 0(a5)
0x80002244: 00 17 87 93 addi	a5, a5, 1
0x80002248: fe e7 9c e3 bne	a5, a4, -8
0x80002240: 00 b7 80 23 sb	a1, 0(a5)
0x80002244: 00 17 87 93 addi	a5, a5, 1
0x80002248: fe e7 9c e3 bne	a5, a4, -8
0x80002240: 00 b7 80 23 sb	a1, 0(a5)
0x80002244: 00 17 87 93 addi	a5, a5, 1
0x80002248: fe e7 9c e3 bne	a5, a4, -8
0x80002240: 00 b7 80 23 sb	a1, 0(a5)
0x80002244: 00 17 87 93 addi	a5, a5, 1
0x80002248: fe e7 9c e3 bne	a5, a4, -8
0x80002240: 00 b7 80 23 sb	a1, 0(a5)
0x80002244: 00 17 87 93 addi	a5, a5, 1
0x80002248: fe e7 9c e3 bne	a5, a4, -8
0x80002240: 00 b7 80 23 sb	a1, 0(a5)
0x80002244: 00 17 87 93 addi	a5, a5, 1
0x80002248: fe e7 9c e3 bne	a5, a4, -8
0x80002240: 00 b7 80 23 sb	a1, 0(a5)
0x80002244: 00 17 87 93 addi	a5, a5, 1
0x80002248: fe e7 9c e3 bne	a5, a4, -8
0x80002240: 00 b7 80 23 sb	a1, 0(a5)
0x80002244: 00 17 87 93 addi	a5, a5, 1
0x80002248: fe e7 9c e3 bne	a5, a4, -8
0x80002240: 00 b7 80 23 sb	a1, 0(a5)
0x80002244: 00 17 87 93 addi	a5, a5, 1
0x80002248: fe e7 9c e3 bne	a5, a4, -8
0x80002240: 00 b7 80 23 sb	a1, 0(a5)
0x80002244: 00 17 87 93 addi	a5, a5, 1
0x80002248: fe e7 9c e3 bne	a5, a4, -8
0x80002240: 00 b7 80 23 sb	a1, 0(a5)
0x80002244: 00 17 87 93 addi	a5, a5, 1
0x80002248: fe e7 9c e3 bne	a5, a4, -8
0x80002240: 00 b7 80 23 sb	a1, 0(a5)
0x80002244: 00 17 87 93 addi	a5, a5, 1
0x80002248: fe e7 9c e3 bne	a5, a4, -8
0x80002240: 00 b7 80 23 sb	a1, 0(a5)
0x80002244: 00 17 87 93 addi	a5, a5, 1
0x80002248: fe e7 9c e3 bne	a5, a4, -8
0x80002240: 00 b7 80 23 sb	a1, 0(a5)
0x80002244: 00 17 87 93 addi	a5, a5, 1
0x80002248: fe e7 9c e3 bne	a5, a4, -8
0x80002240: 00 b7 80 23 sb	a1, 0(a5)
0x80002244: 00 17 87 93 addi	a5, a5, 1
0x80002248: fe e7 9c e3 bne	a5, a4, -8
0x80002240: 00 b7 80 23 sb	a1, 0(a5)
0x80002244: 00 17 87 93 addi	a5, a5, 1
0x80002248: fe e7 9c e3 bne	a5, a4, -8
0x80002240: 00 b7 80 23 sb	a1, 0(a5)
0x80002244: 00 17 87 93 addi	a5, a5, 1
0x80002248: fe e7 9c e3 bne	a5, a4, -8
0x80002240: 00 b7 80 23 sb	a1, 0(a5)
0x80002244: 00 17 87 93 addi	a5, a5, 1
0x80002248: fe e7 9c e3 bne	a5, a4, -8
0x80002240: 00 b7 80 23 sb	a1, 0(a5)
0x80002244: 00 17 87 93 addi	a5, a5, 1
0x80002248: fe e7 9c e3 bne	a5, a4, -8
0x80002240: 00 b7 80 23 sb	a1, 0(a5)
0x80002244: 00 17 87 93 addi	a5, a5, 1
0x80002248: fe e7 9c e3 bne	a5, a4, -8
0x80002240: 00 b7 80 23 sb	a1, 0(a5)
0x80002244: 00 17 87 93 addi	a5, a5, 1
0x80002248: fe e7 9c e3 bne	a5, a4, -8
0x80002240: 00 b7 80 23 sb	a1, 0(a5)
0x80002244: 00 17 87 93 addi	a5, a5, 1
0x80002248: fe e7 9c e3 bne	a5, a4, -8
0x80002240: 00 b7 80 23 sb	a1, 0(a5)
0x80002244: 00 17 87 93 addi	a5, a5, 1
0x80002248: fe e7 9c e3 bne	a5, a4, -8
0x80002240: 00 b7 80 23 sb	a1, 0(a5)
0x80002244: 00 17 87 93 addi	a5, a5, 1
0x80002248: fe e7 9c e3 bne	a5, a4, -8
0x80002240: 00 b7 80 23 sb	a1, 0(a5)
0x80002244: 00 17 87 93 addi	a5, a5, 1
0x80002248: fe e7 9c e3 bne	a5, a4, -8
0x80002240: 00 b7 80 23 sb	a1, 0(a5)
0x80002244: 00 17 87 93 addi	a5, a5, 1
0x80002248: fe e7 9c e3 bne	a5, a4, -8
0x80002240: 00 b7 80 23 sb	a1, 0(a5)
0x80002244: 00 17 87 93 addi	a5, a5, 1
0x80002248: fe e7 9c e3 bne	a5, a4, -8
0x80002240: 00 b7 80 23 sb	a1, 0(a5)
0x80002244: 00 17 87 93 addi	a5, a5, 1
0x80002248: fe e7 9c e3 bne	a5, a4, -8
0x80002240: 00 b7 80 23 sb	a1, 0(a5)
0x80002244: 00 17 87 93 addi	a5, a5, 1
0x80002248: fe e7 9c e3 bne	a5, a4, -8
0x80002240: 00 b7 80 23 sb	a1, 0(a5)
0x80002244: 00 17 87 93 addi	a5, a5, 1
0x80002248: fe e7 9c e3 bne	a5, a4, -8
0x80002240: 00 b7 80 23 sb	a1, 0(a5)
0x80002244: 00 17 87 93 addi	a5, a5, 1
0x80002248: fe e7 9c e3 bne	a5, a4, -8
0x80002240: 00 b7 80 23 sb	a1, 0(a5)
0x80002244: 00 17 87 93 addi	a5, a5, 1
0x80002248: fe e7 9c e3 bne	a5, a4, -8
0x80002240: 00 b7 80 23 sb	a1, 0(a5)
0x80002244: 00 17 87 93 addi	a5, a5, 1
0x80002248: fe e7 9c e3 bne	a5, a4, -8
0x80002240: 00 b7 80 23 sb	a1, 0(a5)
0x80002244: 00 17 87 93 addi	a5, a5, 1
0x80002248: fe e7 9c e3 bne	a5, a4, -8
0x80002240: 00 b7 80 23 sb	a1, 0(a5)
0x80002244: 00 17 87 93 addi	a5, a5, 1
0x80002248: fe e7 9c e3 bne	a5, a4, -8
0x80002240: 00 b7 80 23 sb	a1, 0(a5)
0x80002244: 00 17 87 93 addi	a5, a5, 1
0x80002248: fe e7 9c e3 bne	a5, a4, -8
0x80002240: 00 b7 80 23 sb	a1, 0(a5)
0x80002244: 00 17 87 93 addi	a5, a5, 1
0x80002248: fe e7 9c e3 bne	a5, a4, -8
0x80002240: 00 b7 80 23 sb	a1, 0(a5)
0x80002244: 00 17 87 93 addi	a5, a5, 1
0x80002248: fe e7 9c e3 bne	a5, a4, -8
0x80002240: 00 b7 80 23 sb	a1, 0(a5)
0x80002244: 00 17 87 93 addi	a5, a5, 1
0x80002248: fe e7 9c e3 bne	a5, a4, -8
0x80002240: 00 b7 80 23 sb	a1, 0(a5)
0x80002244: 00 17 87 93 addi	a5, a5, 1
0x80002248: fe e7 9c e3 bne	a5, a4, -8
0x80002240: 00 b7 80 23 sb	a1, 0(a5)
0x80002244: 00 17 87 93 addi	a5, a5, 1
0x80002248: fe e7 9c e3 bne	a5, a4, -8
0x80002240: 00 b7 80 23 sb	a1, 0(a5)
0x80002244: 00 17 87 93 addi	a5, a5, 1
0x80002248: fe e7 9c e3 bne	a5, a4, -8
0x80002240: 00 b7 80 23 sb	a1, 0(a5)
0x80002244: 00 17 87 93 addi	a5, a5, 1
0x80002248: fe e7 9c e3 bne	a5, a4, -8
0x80002240: 00 b7 80 23 sb	a1, 0(a5)
0x80002244: 00 17 87 93 addi	a5, a5, 1
0x80002248: fe e7 9c e3 bne	a5, a4, -8
0x80002240: 00 b7 80 23 sb	a1, 0(a5)
0x80002244: 00 17 87 93 addi	a5, a5, 1
0x80002248: fe e7 9c e3 bne	a5, a4, -8
0x80002240: 00 b7 80 23 sb	a1, 0(a5)
0x80002244: 00 17 87 93 addi	a5, a5, 1
0x80002248: fe e7 9c e3 bne	a5, a4, -8
0x80002240: 00 b7 80 23 sb	a1, 0(a5)
0x80002244: 00 17 87 93 addi	a5, a5, 1
0x80002248: fe e7 9c e3 bne	a5, a4, -8
0x80002240: 00 b7 80 23 sb	a1, 0(a5)
0x80002244: 00 17 87 93 addi	a5, a5, 1
0x80002248: fe e7 9c e3 bne	a5, a4, -8
0x80002240: 00 b7 80 23 sb	a1, 0(a5)
0x80002244: 00 17 87 93 addi	a5, a5, 1
0x80002248: fe e7 9c e3 bne	a5, a4, -8
0x80002240: 00 b7 80 23 sb	a1, 0(a5)
0x80002244: 00 17 87 93 addi	a5, a5, 1
0x80002248: fe e7 9c e3 bne	a5, a4, -8
0x80002240: 00 b7 80 23 sb	a1, 0(a5)
0x80002244: 00 17 87 93 addi	a5, a5, 1
0x80002248: fe e7 9c e3 bne	a5, a4, -8
0x80002240: 00 b7 80 23 sb	a1, 0(a5)
0x80002244: 00 17 87 93 addi	a5, a5, 1
0x80002248: fe e7 9c e3 bne	a5, a4, -8
0x80002240: 00 b7 80 23 sb	a1, 0(a5)
0x80002244: 00 17 87 93 addi	a5, a5, 1
0x80002248: fe e7 9c e3 bne	a5, a4, -8
0x80002240: 00 b7 80 23 sb	a1, 0(a5)
0x80002244: 00 17 87 93 addi	a5, a5, 1
0x80002248: fe e7 9c e3 bne	a5, a4, -8
0x80002240: 00 b7 80 23 sb	a1, 0(a5)
0x80002244: 00 17 87 93 addi	a5, a5, 1
0x80002248: fe e7 9c e3 bne	a5, a4, -8
0x80002240: 00 b7 80 23 sb	a1, 0(a5)
0x80002244: 00 17 87 93 addi	a5, a5, 1
0x80002248: fe e7 9c e3 bne	a5, a4, -8
0x80002240: 00 b7 80 23 sb	a1, 0(a5)
0x80002244: 00 17 87 93 addi	a5, a5, 1
0x80002248: fe e7 9c e3 bne	a5, a4, -8
0x80002240: 00 b7 80 23 sb	a1, 0(a5)
0x80002244: 00 17 87 93 addi	a5, a5, 1
0x80002248: fe e7 9c e3 bne	a5, a4, -8
0x80002240: 00 b7 80 23 sb	a1, 0(a5)
0x80002244: 00 17 87 93 addi	a5, a5, 1
0x80002248: fe e7 9c e3 bne	a5, a4, -8
0x80002240: 00 b7 80 23 sb	a1, 0(a5)
0x80002244: 00 17 87 93 addi	a5, a5, 1
0x80002248: fe e7 9c e3 bne	a5, a4, -8
0x80002240: 00 b7 80 23 sb	a1, 0(a5)
0x80002244: 00 17 87 93 addi	a5, a5, 1
0x80002248: fe e7 9c e3 bne	a5, a4, -8
0x80002240: 00 b7 80 23 sb	a1, 0(a5)
0x80002244: 00 17 87 93 addi	a5, a5, 1
0x80002248: fe e7 9c e3 bne	a5, a4, -8
0x80002240: 00 b7 80 23 sb	a1, 0(a5)
0x80002244: 00 17 87 93 addi	a5, a5, 1
0x80002248: fe e7 9c e3 bne	a5, a4, -8
0x80002240: 00 b7 80 23 sb	a1, 0(a5)
0x80002244: 00 17 87 93 addi	a5, a5, 1
0x80002248: fe e7 9c e3 bne	a5, a4, -8
0x80002240: 00 b7 80 23 sb	a1, 0(a5)
0x80002244: 00 17 87 93 addi	a5, a5, 1
0x80002248: fe e7 9c e3 bne	a5, a4, -8
0x80002240: 00 b7 80 23 sb	a1, 0(a5)
0x80002244: 00 17 87 93 addi	a5, a5, 1
0x80002248: fe e7 9c e3 bne	a5, a4, -8
0x80002240: 00 b7 80 23 sb	a1, 0(a5)
0x80002244: 00 17 87 93 addi	a5, a5, 1
0x80002248: fe e7 9c e3 bne	a5, a4, -8
0x80002240: 00 b7 80 23 sb	a1, 0(a5)
0x80002244: 00 17 87 93 addi	a5, a5, 1
0x80002248: fe e7 9c e3 bne	a5, a4, -8
0x80002240: 00 b7 80 23 sb	a1, 0(a5)
0x80002244: 00 17 87 93 addi	a5, a5, 1
0x80002248: fe e7 9c e3 bne	a5, a4, -8
0x80002240: 00 b7 80 23 sb	a1, 0(a5)
0x80002244: 00 17 87 93 addi	a5, a5, 1
0x80002248: fe e7 9c e3 bne	a5, a4, -8
0x80002240: 00 b7 80 23 sb	a1, 0(a5)
0x80002244: 00 17 87 93 addi	a5, a5, 1
0x80002248: fe e7 9c e3 bne	a5, a4, -8
0x80002240: 00 b7 80 23 sb	a1, 0(a5)
0x80002244: 00 17 87 93 addi	a5, a5, 1
0x80002248: fe e7 9c e3 bne	a5, a4, -8
0x80002240: 00 b7 80 23 sb	a1, 0(a5)
0x80002244: 00 17 87 93 addi	a5, a5, 1
0x80002248: fe e7 9c e3 bne	a5, a4, -8
0x80002240: 00 b7 80 23 sb	a1, 0(a5)
0x80002244: 00 17 87 93 addi	a5, a5, 1
0x80002248: fe e7 9c e3 bne	a5, a4, -8
0x80002240: 00 b7 80 23 sb	a1, 0(a5)
0x80002244: 00 17 87 93 addi	a5, a5, 1
0x80002248: fe e7 9c e3 bne	a5, a4, -8
0x80002240: 00 b7 80 23 sb	a1, 0(a5)
0x80002244: 00 17 87 93 addi	a5, a5, 1
0x80002248: fe e7 9c e3 bne	a5, a4, -8
0x80002240: 00 b7 80 23 sb	a1, 0(a5)
0x80002244: 00 17 87 93 addi	a5, a5, 1
0x80002248: fe e7 9c e3 bne	a5, a4, -8
0x80002240: 00 b7 80 23 sb	a1, 0(a5)
0x80002244: 00 17 87 93 addi	a5, a5, 1
0x80002248: fe e7 9c e3 bne	a5, a4, -8
0x80002240: 00 b7 80 23 sb	a1, 0(a5)
0x80002244: 00 17 87 93 addi	a5, a5, 1
0x80002248: fe e7 9c e3 bne	a5, a4, -8
0x80002240: 00 b7 80 23 sb	a1, 0(a5)
0x80002244: 00 17 87 93 addi	a5, a5, 1
0x80002248: fe e7 9c e3 bne	a5, a4, -8
0x80002240: 00 b7 80 23 sb	a1, 0(a5)
0x80002244: 00 17 87 93 addi	a5, a5, 1
0x80002248: fe e7 9c e3 bne	a5, a4, -8
0x80002240: 00 b7 80 23 sb	a1, 0(a5)
0x80002244: 00 17 87 93 addi	a5, a5, 1
0x80002248: fe e7 9c e3 bne	a5, a4, -8
0x80002240: 00 b7 80 23 sb	a1, 0(a5)
0x80002244: 00 17 87 93 addi	a5, a5, 1
0x80002248: fe e7 9c e3 bne	a5, a4, -8
0x80002240: 00 b7 80 23 sb	a1, 0(a5)
0x80002244: 00 17 87 93 addi	a5, a5, 1
0x80002248: fe e7 9c e3 bne	a5, a4, -8
0x80002240: 00 b7 80 23 sb	a1, 0(a5)
0x80002244: 00 17 87 93 addi	a5, a5, 1
0x80002248: fe e7 9c e3 bne	a5, a4, -8
0x80002240: 00 b7 80 23 sb	a1, 0(a5)
0x80002244: 00 17 87 93 addi	a5, a5, 1
0x80002248: fe e7 9c e3 bne	a5, a4, -8
0x80002240: 00 b7 80 23 sb	a1, 0(a5)
0x80002244: 00 17 87 93 addi	a5, a5, 1
0x80002248: fe e7 9c e3 bne	a5, a4, -8
0x80002240: 00 b7 80 23 sb	a1, 0(a5)
0x80002244: 00 17 87 93 addi	a5, a5, 1
0x80002248: fe e7 9c e3 bne	a5, a4, -8
0x80002240: 00 b7 80 23 sb	a1, 0(a5)
0x80002244: 00 17 87 93 addi	a5, a5, 1
0x80002248: fe e7 9c e3 bne	a5, a4, -8
0x80002240: 00 b7 80 23 sb	a1, 0(a5)
0x80002244: 00 17 87 93 addi	a5, a5, 1
0x80002248: fe e7 9c e3 bne	a5, a4, -8
0x80002240: 00 b7 80 23 sb	a1, 0(a5)
0x80002244: 00 17 87 93 addi	a5, a5, 1
0x80002248: fe e7 9c e3 bne	a5, a4, -8
0x80002240: 00 b7 80 23 sb	a1, 0(a5)
0x80002244: 00 17 87 93 addi	a5, a5, 1
0x80002248: fe e7 9c e3 bne	a5, a4, -8
0x80002240: 00 b7 80 23 sb	a1, 0(a5)
0x80002244: 00 17 87 93 addi	a5, a5, 1
0x80002248: fe e7 9c e3 bne	a5, a4, -8
0x80002240: 00 b7 80 23 sb	a1, 0(a5)
0x80002244: 00 17 87 93 addi	a5, a5, 1
0x80002248: fe e7 9c e3 bne	a5, a4, -8
0x80002240: 00 b7 80 23 sb	a1, 0(a5)
0x80002244: 00 17 87 93 addi	a5, a5, 1
0x80002248: fe e7 9c e3 bne	a5, a4, -8
0x80002240: 00 b7 80 23 sb	a1, 0(a5)
0x80002244: 00 17 87 93 addi	a5, a5, 1
0x80002248: fe e7 9c e3 bne	a5, a4, -8
0x80002240: 00 b7 80 23 sb	a1, 0(a5)
0x80002244: 00 17 87 93 addi	a5, a5, 1
0x80002248: fe e7 9c e3 bne	a5, a4, -8
0x80002240: 00 b7 80 23 sb	a1, 0(a5)
0x80002244: 00 17 87 93 addi	a5, a5, 1
0x80002248: fe e7 9c e3 bne	a5, a4, -8
0x80002240: 00 b7 80 23 sb	a1, 0(a5)
0x80002244: 00 17 87 93 addi	a5, a5, 1
0x80002248: fe e7 9c e3 bne	a5, a4, -8
0x80002240: 00 b7 80 23 sb	a1, 0(a5)
0x80002244: 00 17 87 93 addi	a5, a5, 1
0x80002248: fe e7 9c e3 bne	a5, a4, -8
0x80002240: 00 b7 80 23 sb	a1, 0(a5)
0x80002244: 00 17 87 93 addi	a5, a5, 1
0x80002248: fe e7 9c e3 bne	a5, a4, -8
0x80002240: 00 b7 80 23 sb	a1, 0(a5)
0x80002244: 00 17 87 93 addi	a5, a5, 1
0x80002248: fe e7 9c e3 bne	a5, a4, -8
0x80002240: 00 b7 80 23 sb	a1, 0(a5)
0x80002244: 00 17 87 93 addi	a5, a5, 1
0x80002248: fe e7 9c e3 bne	a5, a4, -8
0x80002240: 00 b7 80 23 sb	a1, 0(a5)
0x80002244: 00 17 87 93 addi	a5, a5, 1
0x80002248: fe e7 9c e3 bne	a5, a4, -8
0x80002240: 00 b7 80 23 sb	a1, 0(a5)
0x80002244: 00 17 87 93 addi	a5, a5, 1
0x80002248: fe e7 9c e3 bne	a5, a4, -8
0x80002240: 00 b7 80 23 sb	a1, 0(a5)
0x80002244: 00 17 87 93 addi	a5, a5, 1
0x80002248: fe e7 9c e3 bne	a5, a4, -8
0x80002240: 00 b7 80 23 sb	a1, 0(a5)
0x80002244: 00 17 87 93 addi	a5, a5, 1
0x80002248: fe e7 9c e3 bne	a5, a4, -8
0x80002240: 00 b7 80 23 sb	a1, 0(a5)
0x80002244: 00 17 87 93 addi	a5, a5, 1
0x80002248: fe e7 9c e3 bne	a5, a4, -8
0x80002240: 00 b7 80 23 sb	a1, 0(a5)
0x80002244: 00 17 87 93 addi	a5, a5, 1
0x80002248: fe e7 9c e3 bne	a5, a4, -8
0x80002240: 00 b7 80 23 sb	a1, 0(a5)
0x80002244: 00 17 87 93 addi	a5, a5, 1
0x80002248: fe e7 9c e3 bne	a5, a4, -8
0x80002240: 00 b7 80 23 sb	a1, 0(a5)
0x80002244: 00 17 87 93 addi	a5, a5, 1
0x80002248: fe e7 9c e3 bne	a5, a4, -8
0x80002240: 00 b7 80 23 sb	a1, 0(a5)
0x80002244: 00 17 87 93 addi	a5, a5, 1
0x80002248: fe e7 9c e3 bne	a5, a4, -8
0x80002240: 00 b7 80 23 sb	a1, 0(a5)
0x80002244: 00 17 87 93 addi	a5, a5, 1
0x80002248: fe e7 9c e3 bne	a5, a4, -8
0x80002240: 00 b7 80 23 sb	a1, 0(a5)
0x80002244: 00 17 87 93 addi	a5, a5, 1
0x80002248: fe e7 9c e3 bne	a5, a4, -8
0x80002240: 00 b7 80 23 sb	a1, 0(a5)
0x80002244: 00 17 87 93 addi	a5, a5, 1
0x80002248: fe e7 9c e3 bne	a5, a4, -8
0x80002240: 00 b7 80 23 sb	a1, 0(a5)
0x80002244: 00 17 87 93 addi	a5, a5, 1
0x80002248: fe e7 9c e3 bne	a5, a4, -8
0x80002240: 00 b7 80 23 sb	a1, 0(a5)
0x80002244: 00 17 87 93 addi	a5, a5, 1
0x80002248: fe e7 9c e3 bne	a5, a4, -8
0x80002240: 00 b7 80 23 sb	a1, 0(a5)
0x80002244: 00 17 87 93 addi	a5, a5, 1
0x80002248: fe e7 9c e3 bne	a5, a4, -8
0x80002240: 00 b7 80 23 sb	a1, 0(a5)
0x80002244: 00 17 87 93 addi	a5, a5, 1
0x80002248: fe e7 9c e3 bne	a5, a4, -8
0x80002240: 00 b7 80 23 sb	a1, 0(a5)
0x80002244: 00 17 87 93 addi	a5, a5, 1
0x80002248: fe e7 9c e3 bne	a5, a4, -8
0x80002240: 00 b7 80 23 sb	a1, 0(a5)
0x80002244: 00 17 87 93 addi	a5, a5, 1
0x80002248: fe e7 9c e3 bne	a5, a4, -8
0x80002240: 00 b7 80 23 sb	a1, 0(a5)
0x80002244: 00 17 87 93 addi	a5, a5, 1
0x80002248: fe e7 9c e3 bne	a5, a4, -8
0x80002240: 00 b7 80 23 sb	a1, 0(a5)
0x80002244: 00 17 87 93 addi	a5, a5, 1
0x80002248: fe e7 9c e3 bne	a5, a4, -8
0x80002240: 00 b7 80 23 sb	a1, 0(a5)
0x80002244: 00 17 87 93 addi	a5, a5, 1
0x80002248: fe e7 9c e3 bne	a5, a4, -8
0x80002240: 00 b7 80 23 sb	a1, 0(a5)
0x80002244: 00 17 87 93 addi	a5, a5, 1
0x80002248: fe e7 9c e3 bne	a5, a4, -8
0x80002240: 00 b7 80 23 sb	a1, 0(a5)
0x80002244: 00 17 87 93 addi	a5, a5, 1
0x80002248: fe e7 9c e3 bne	a5, a4, -8
0x80002240: 00 b7 80 23 sb	a1, 0(a5)
0x80002244: 00 17 87 93 addi	a5, a5, 1
0x80002248: fe e7 9c e3 bne	a5, a4, -8
0x80002240: 00 b7 80 23 sb	a1, 0(a5)
0x80002244: 00 17 87 93 addi	a5, a5, 1
0x80002248: fe e7 9c e3 bne	a5, a4, -8
0x80002240: 00 b7 80 23 sb	a1, 0(a5)
0x80002244: 00 17 87 93 addi	a5, a5, 1
0x80002248: fe e7 9c e3 bne	a5, a4, -8
0x80002240: 00 b7 80 23 sb	a1, 0(a5)
0x80002244: 00 17 87 93 addi	a5, a5, 1
0x80002248: fe e7 9c e3 bne	a5, a4, -8
0x80002240: 00 b7 80 23 sb	a1, 0(a5)
0x80002244: 00 17 87 93 addi	a5, a5, 1
0x80002248: fe e7 9c e3 bne	a5, a4, -8
0x80002240: 00 b7 80 23 sb	a1, 0(a5)
0x80002244: 00 17 87 93 addi	a5, a5, 1
0x80002248: fe e7 9c e3 bne	a5, a4, -8
0x80002240: 00 b7 80 23 sb	a1, 0(a5)
0x80002244: 00 17 87 93 addi	a5, a5, 1
0x80002248: fe e7 9c e3 bne	a5, a4, -8
0x80002240: 00 b7 80 23 sb	a1, 0(a5)
0x80002244: 00 17 87 93 addi	a5, a5, 1
0x80002248: fe e7 9c e3 bne	a5, a4, -8
0x80002240: 00 b7 80 23 sb	a1, 0(a5)
0x80002244: 00 17 87 93 addi	a5, a5, 1
0x80002248: fe e7 9c e3 bne	a5, a4, -8
0x80002240: 00 b7 80 23 sb	a1, 0(a5)
0x80002244: 00 17 87 93 addi	a5, a5, 1
0x80002248: fe e7 9c e3 bne	a5, a4, -8
0x80002240: 00 b7 80 23 sb	a1, 0(a5)
0x80002244: 00 17 87 93 addi	a5, a5, 1
0x80002248: fe e7 9c e3 bne	a5, a4, -8
0x80002240: 00 b7 80 23 sb	a1, 0(a5)
0x80002244: 00 17 87 93 addi	a5, a5, 1
0x80002248: fe e7 9c e3 bne	a5, a4, -8
0x80002240: 00 b7 80 23 sb	a1, 0(a5)
0x80002244: 00 17 87 93 addi	a5, a5, 1
0x80002248: fe e7 9c e3 bne	a5, a4, -8
0x80002240: 00 b7 80 23 sb	a1, 0(a5)
0x80002244: 00 17 87 93 addi	a5, a5, 1
0x80002248: fe e7 9c e3 bne	a5, a4, -8
0x80002240: 00 b7 80 23 sb	a1, 0(a5)
0x80002244: 00 17 87 93 addi	a5, a5, 1
0x80002248: fe e7 9c e3 bne	a5, a4, -8
0x80002240: 00 b7 80 23 sb	a1, 0(a5)
0x80002244: 00 17 87 93 addi	a5, a5, 1
0x80002248: fe e7 9c e3 bne	a5, a4, -8
0x80002240: 00 b7 80 23 sb	a1, 0(a5)
0x80002244: 00 17 87 93 addi	a5, a5, 1
0x80002248: fe e7 9c e3 bne	a5, a4, -8
0x80002240: 00 b7 80 23 sb	a1, 0(a5)
0x80002244: 00 17 87 93 addi	a5, a5, 1
0x80002248: fe e7 9c e3 bne	a5, a4, -8
0x80002240: 00 b7 80 23 sb	a1, 0(a5)
0x80002244: 00 17 87 93 addi	a5, a5, 1
0x80002248: fe e7 9c e3 bne	a5, a4, -8
0x80002240: 00 b7 80 23 sb	a1, 0(a5)
0x80002244: 00 17 87 93 addi	a5, a5, 1
0x80002248: fe e7 9c e3 bne	a5, a4, -8
0x80002240: 00 b7 80 23 sb	a1, 0(a5)
0x80002244: 00 17 87 93 addi	a5, a5, 1
0x80002248: fe e7 9c e3 bne	a5, a4, -8
0x80002240: 00 b7 80 23 sb	a1, 0(a5)
0x80002244: 00 17 87 93 addi	a5, a5, 1
0x80002248: fe e7 9c e3 bne	a5, a4, -8
0x80002240: 00 b7 80 23 sb	a1, 0(a5)
0x80002244: 00 17 87 93 addi	a5, a5, 1
0x80002248: fe e7 9c e3 bne	a5, a4, -8
0x80002240: 00 b7 80 23 sb	a1, 0(a5)
0x80002244: 00 17 87 93 addi	a5, a5, 1
0x80002248: fe e7 9c e3 bne	a5, a4, -8
0x80002240: 00 b7 80 23 sb	a1, 0(a5)
0x80002244: 00 17 87 93 addi	a5, a5, 1
0x80002248: fe e7 9c e3 bne	a5, a4, -8
0x80002240: 00 b7 80 23 sb	a1, 0(a5)
0x80002244: 00 17 87 93 addi	a5, a5, 1
0x80002248: fe e7 9c e3 bne	a5, a4, -8
0x80002240: 00 b7 80 23 sb	a1, 0(a5)
0x80002244: 00 17 87 93 addi	a5, a5, 1
0x80002248: fe e7 9c e3 bne	a5, a4, -8
0x80002240: 00 b7 80 23 sb	a1, 0(a5)
0x80002244: 00 17 87 93 addi	a5, a5, 1
0x80002248: fe e7 9c e3 bne	a5, a4, -8
0x80002240: 00 b7 80 23 sb	a1, 0(a5)
0x80002244: 00 17 87 93 addi	a5, a5, 1
0x80002248: fe e7 9c e3 bne	a5, a4, -8
0x80002240: 00 b7 80 23 sb	a1, 0(a5)
0x80002244: 00 17 87 93 addi	a5, a5, 1
0x80002248: fe e7 9c e3 bne	a5, a4, -8
0x80002240: 00 b7 80 23 sb	a1, 0(a5)
0x80002244: 00 17 87 93 addi	a5, a5, 1
0x80002248: fe e7 9c e3 bne	a5, a4, -8
0x80002240: 00 b7 80 23 sb	a1, 0(a5)
0x80002244: 00 17 87 93 addi	a5, a5, 1
0x80002248: fe e7 9c e3 bne	a5, a4, -8
0x80002240: 00 b7 80 23 sb	a1, 0(a5)
0x80002244: 00 17 87 93 addi	a5, a5, 1
0x80002248: fe e7 9c e3 bne	a5, a4, -8
0x80002240: 00 b7 80 23 sb	a1, 0(a5)
0x80002244: 00 17 87 93 addi	a5, a5, 1
0x80002248: fe e7 9c e3 bne	a5, a4, -8
0x80002240: 00 b7 80 23 sb	a1, 0(a5)
0x80002244: 00 17 87 93 addi	a5, a5, 1
0x80002248: fe e7 9c e3 bne	a5, a4, -8
0x80002240: 00 b7 80 23 sb	a1, 0(a5)
0x80002244: 00 17 87 93 addi	a5, a5, 1
0x80002248: fe e7 9c e3 bne	a5, a4, -8
0x80002240: 00 b7 80 23 sb	a1, 0(a5)
0x80002244: 00 17 87 93 addi	a5, a5, 1
0x80002248: fe e7 9c e3 bne	a5, a4, -8
0x80002240: 00 b7 80 23 sb	a1, 0(a5)
0x80002244: 00 17 87 93 addi	a5, a5, 1
0x80002248: fe e7 9c e3 bne	a5, a4, -8
0x80002240: 00 b7 80 23 sb	a1, 0(a5)
0x80002244: 00 17 87 93 addi	a5, a5, 1
0x80002248: fe e7 9c e3 bne	a5, a4, -8
0x80002240: 00 b7 80 23 sb	a1, 0(a5)
0x80002244: 00 17 87 93 addi	a5, a5, 1
0x80002248: fe e7 9c e3 bne	a5, a4, -8
0x80002240: 00 b7 80 23 sb	a1, 0(a5)
0x80002244: 00 17 87 93 addi	a5, a5, 1
0x80002248: fe e7 9c e3 bne	a5, a4, -8
0x80002240: 00 b7 80 23 sb	a1, 0(a5)
0x80002244: 00 17 87 93 addi	a5, a5, 1
0x80002248: fe e7 9c e3 bne	a5, a4, -8
0x80002240: 00 b7 80 23 sb	a1, 0(a5)
0x80002244: 00 17 87 93 addi	a5, a5, 1
0x80002248: fe e7 9c e3 bne	a5, a4, -8
0x80002240: 00 b7 80 23 sb	a1, 0(a5)
0x80002244: 00 17 87 93 addi	a5, a5, 1
0x80002248: fe e7 9c e3 bne	a5, a4, -8
0x80002240: 00 b7 80 23 sb	a1, 0(a5)
0x80002244: 00 17 87 93 addi	a5, a5, 1
0x80002248: fe e7 9c e3 bne	a5, a4, -8
0x80002240: 00 b7 80 23 sb	a1, 0(a5)
0x80002244: 00 17 87 93 addi	a5, a5, 1
0x80002248: fe e7 9c e3 bne	a5, a4, -8
0x80002240: 00 b7 80 23 sb	a1, 0(a5)
0x80002244: 00 17 87 93 addi	a5, a5, 1
0x80002248: fe e7 9c e3 bne	a5, a4, -8
0x80002240: 00 b7 80 23 sb	a1, 0(a5)
0x80002244: 00 17 87 93 addi	a5, a5, 1
0x80002248: fe e7 9c e3 bne	a5, a4, -8
0x80002240: 00 b7 80 23 sb	a1, 0(a5)
0x80002244: 00 17 87 93 addi	a5, a5, 1
0x80002248: fe e7 9c e3 bne	a5, a4, -8
0x80002240: 00 b7 80 23 sb	a1, 0(a5)
0x80002244: 00 17 87 93 addi	a5, a5, 1
0x80002248: fe e7 9c e3 bne	a5, a4, -8
0x80002240: 00 b7 80 23 sb	a1, 0(a5)
0x80002244: 00 17 87 93 addi	a5, a5, 1
0x80002248: fe e7 9c e3 bne	a5, a4, -8
0x80002240: 00 b7 80 23 sb	a1, 0(a5)
0x80002244: 00 17 87 93 addi	a5, a5, 1
0x80002248: fe e7 9c e3 bne	a5, a4, -8
0x80002240: 00 b7 80 23 sb	a1, 0(a5)
0x80002244: 00 17 87 93 addi	a5, a5, 1
0x80002248: fe e7 9c e3 bne	a5, a4, -8
0x80002240: 00 b7 80 23 sb	a1, 0(a5)
0x80002244: 00 17 87 93 addi	a5, a5, 1
0x80002248: fe e7 9c e3 bne	a5, a4, -8
0x80002240: 00 b7 80 23 sb	a1, 0(a5)
0x80002244: 00 17 87 93 addi	a5, a5, 1
0x80002248: fe e7 9c e3 bne	a5, a4, -8
0x80002240: 00 b7 80 23 sb	a1, 0(a5)
0x80002244: 00 17 87 93 addi	a5, a5, 1
0x80002248: fe e7 9c e3 bne	a5, a4, -8
0x80002240: 00 b7 80 23 sb	a1, 0(a5)
0x80002244: 00 17 87 93 addi	a5, a5, 1
0x80002248: fe e7 9c e3 bne	a5, a4, -8
0x80002240: 00 b7 80 23 sb	a1, 0(a5)
0x80002244: 00 17 87 93 addi	a5, a5, 1
0x80002248: fe e7 9c e3 bne	a5, a4, -8
0x80002240: 00 b7 80 23 sb	a1, 0(a5)
0x80002244: 00 17 87 93 addi	a5, a5, 1
0x80002248: fe e7 9c e3 bne	a5, a4, -8
0x80002240: 00 b7 80 23 sb	a1, 0(a5)
0x80002244: 00 17 87 93 addi	a5, a5, 1
0x80002248: fe e7 9c e3 bne	a5, a4, -8
0x80002240: 00 b7 80 23 sb	a1, 0(a5)
0x80002244: 00 17 87 93 addi	a5, a5, 1
0x80002248: fe e7 9c e3 bne	a5, a4, -8
0x80002240: 00 b7 80 23 sb	a1, 0(a5)
0x80002244: 00 17 87 93 addi	a5, a5, 1
0x80002248: fe e7 9c e3 bne	a5, a4, -8
0x80002240: 00 b7 80 23 sb	a1, 0(a5)
0x80002244: 00 17 87 93 addi	a5, a5, 1
0x80002248: fe e7 9c e3 bne	a5, a4, -8
0x80002240: 00 b7 80 23 sb	a1, 0(a5)
0x80002244: 00 17 87 93 addi	a5, a5, 1
0x80002248: fe e7 9c e3 bne	a5, a4, -8
0x80002240: 00 b7 80 23 sb	a1, 0(a5)
0x80002244: 00 17 87 93 addi	a5, a5, 1
0x80002248: fe e7 9c e3 bne	a5, a4, -8
0x80002240: 00 b7 80 23 sb	a1, 0(a5)
0x80002244: 00 17 87 93 addi	a5, a5, 1
0x80002248: fe e7 9c e3 bne	a5, a4, -8
0x80002240: 00 b7 80 23 sb	a1, 0(a5)
0x80002244: 00 17 87 93 addi	a5, a5, 1
0x80002248: fe e7 9c e3 bne	a5, a4, -8
0x80002240: 00 b7 80 23 sb	a1, 0(a5)
0x80002244: 00 17 87 93 addi	a5, a5, 1
0x80002248: fe e7 9c e3 bne	a5, a4, -8
0x80002240: 00 b7 80 23 sb	a1, 0(a5)
0x80002244: 00 17 87 93 addi	a5, a5, 1
0x80002248: fe e7 9c e3 bne	a5, a4, -8
0x80002240: 00 b7 80 23 sb	a1, 0(a5)
0x80002244: 00 17 87 93 addi	a5, a5, 1
0x80002248: fe e7 9c e3 bne	a5, a4, -8
0x80002240: 00 b7 80 23 sb	a1, 0(a5)
0x80002244: 00 17 87 93 addi	a5, a5, 1
0x80002248: fe e7 9c e3 bne	a5, a4, -8
0x80002240: 00 b7 80 23 sb	a1, 0(a5)
0x80002244: 00 17 87 93 addi	a5, a5, 1
0x80002248: fe e7 9c e3 bne	a5, a4, -8
0x80002240: 00 b7 80 23 sb	a1, 0(a5)
0x80002244: 00 17 87 93 addi	a5, a5, 1
0x80002248: fe e7 9c e3 bne	a5, a4, -8
0x80002240: 00 b7 80 23 sb	a1, 0(a5)
0x80002244: 00 17 87 93 addi	a5, a5, 1
0x80002248: fe e7 9c e3 bne	a5, a4, -8
0x80002240: 00 b7 80 23 sb	a1, 0(a5)
0x80002244: 00 17 87 93 addi	a5, a5, 1
0x80002248: fe e7 9c e3 bne	a5, a4, -8
0x80002240: 00 b7 80 23 sb	a1, 0(a5)
0x80002244: 00 17 87 93 addi	a5, a5, 1
0x80002248: fe e7 9c e3 bne	a5, a4, -8
0x80002240: 00 b7 80 23 sb	a1, 0(a5)
0x80002244: 00 17 87 93 addi	a5, a5, 1
0x80002248: fe e7 9c e3 bne	a5, a4, -8
0x80002240: 00 b7 80 23 sb	a1, 0(a5)
0x80002244: 00 17 87 93 addi	a5, a5, 1
0x80002248: fe e7 9c e3 bne	a5, a4, -8
0x80002240: 00 b7 80 23 sb	a1, 0(a5)
0x80002244: 00 17 87 93 addi	a5, a5, 1
0x80002248: fe e7 9c e3 bne	a5, a4, -8
0x80002240: 00 b7 80 23 sb	a1, 0(a5)
0x80002244: 00 17 87 93 addi	a5, a5, 1
0x80002248: fe e7 9c e3 bne	a5, a4, -8
0x80002240: 00 b7 80 23 sb	a1, 0(a5)
0x80002244: 00 17 87 93 addi	a5, a5, 1
0x80002248: fe e7 9c e3 bne	a5, a4, -8
0x80002240: 00 b7 80 23 sb	a1, 0(a5)
0x80002244: 00 17 87 93 addi	a5, a5, 1
0x80002248: fe e7 9c e3 bne	a5, a4, -8
0x80002240: 00 b7 80 23 sb	a1, 0(a5)
0x80002244: 00 17 87 93 addi	a5, a5, 1
0x80002248: fe e7 9c e3 bne	a5, a4, -8
0x80002240: 00 b7 80 23 sb	a1, 0(a5)
0x80002244: 00 17 87 93 addi	a5, a5, 1
0x80002248: fe e7 9c e3 bne	a5, a4, -8
0x80002240: 00 b7 80 23 sb	a1, 0(a5)
0x80002244: 00 17 87 93 addi	a5, a5, 1
0x80002248: fe e7 9c e3 bne	a5, a4, -8
0x80002240: 00 b7 80 23 sb	a1, 0(a5)
0x80002244: 00 17 87 93 addi	a5, a5, 1
0x80002248: fe e7 9c e3 bne	a5, a4, -8
0x80002240: 00 b7 80 23 sb	a1, 0(a5)
0x80002244: 00 17 87 93 addi	a5, a5, 1
0x80002248: fe e7 9c e3 bne	a5, a4, -8
0x80002240: 00 b7 80 23 sb	a1, 0(a5)
0x80002244: 00 17 87 93 addi	a5, a5, 1
0x80002248: fe e7 9c e3 bne	a5, a4, -8
0x80002240: 00 b7 80 23 sb	a1, 0(a5)
0x80002244: 00 17 87 93 addi	a5, a5, 1
0x80002248: fe e7 9c e3 bne	a5, a4, -8
0x80002240: 00 b7 80 23 sb	a1, 0(a5)
0x80002244: 00 17 87 93 addi	a5, a5, 1
0x80002248: fe e7 9c e3 bne	a5, a4, -8
0x80002240: 00 b7 80 23 sb	a1, 0(a5)
0x80002244: 00 17 87 93 addi	a5, a5, 1
0x80002248: fe e7 9c e3 bne	a5, a4, -8
0x80002240: 00 b7 80 23 sb	a1, 0(a5)
0x80002244: 00 17 87 93 addi	a5, a5, 1
0x80002248: fe e7 9c e3 bne	a5, a4, -8
0x80002240: 00 b7 80 23 sb	a1, 0(a5)
0x80002244: 00 17 87 93 addi	a5, a5, 1
0x80002248: fe e7 9c e3 bne	a5, a4, -8
0x80002240: 00 b7 80 23 sb	a1, 0(a5)
0x80002244: 00 17 87 93 addi	a5, a5, 1
0x80002248: fe e7 9c e3 bne	a5, a4, -8
0x80002240: 00 b7 80 23 sb	a1, 0(a5)
0x80002244: 00 17 87 93 addi	a5, a5, 1
0x80002248: fe e7 9c e3 bne	a5, a4, -8
0x80002240: 00 b7 80 23 sb	a1, 0(a5)
0x80002244: 00 17 87 93 addi	a5, a5, 1
0x80002248: fe e7 9c e3 bne	a5, a4, -8
0x80002240: 00 b7 80 23 sb	a1, 0(a5)
0x80002244: 00 17 87 93 addi	a5, a5, 1
0x80002248: fe e7 9c e3 bne	a5, a4, -8
0x80002240: 00 b7 80 23 sb	a1, 0(a5)
0x80002244: 00 17 87 93 addi	a5, a5, 1
0x80002248: fe e7 9c e3 bne	a5, a4, -8
0x80002240: 00 b7 80 23 sb	a1, 0(a5)
0x80002244: 00 17 87 93 addi	a5, a5, 1
0x80002248: fe e7 9c e3 bne	a5, a4, -8
0x80002240: 00 b7 80 23 sb	a1, 0(a5)
0x80002244: 00 17 87 93 addi	a5, a5, 1
0x80002248: fe e7 9c e3 bne	a5, a4, -8
0x80002240: 00 b7 80 23 sb	a1, 0(a5)
0x80002244: 00 17 87 93 addi	a5, a5, 1
0x80002248: fe e7 9c e3 bne	a5, a4, -8
0x80002240: 00 b7 80 23 sb	a1, 0(a5)
0x80002244: 00 17 87 93 addi	a5, a5, 1
0x80002248: fe e7 9c e3 bne	a5, a4, -8
0x80002240: 00 b7 80 23 sb	a1, 0(a5)
0x80002244: 00 17 87 93 addi	a5, a5, 1
0x80002248: fe e7 9c e3 bne	a5, a4, -8
0x80002240: 00 b7 80 23 sb	a1, 0(a5)
0x80002244: 00 17 87 93 addi	a5, a5, 1
0x80002248: fe e7 9c e3 bne	a5, a4, -8
0x80002240: 00 b7 80 23 sb	a1, 0(a5)
0x80002244: 00 17 87 93 addi	a5, a5, 1
0x80002248: fe e7 9c e3 bne	a5, a4, -8
0x80002240: 00 b7 80 23 sb	a1, 0(a5)
0x80002244: 00 17 87 93 addi	a5, a5, 1
0x80002248: fe e7 9c e3 bne	a5, a4, -8
0x80002240: 00 b7 80 23 sb	a1, 0(a5)
0x80002244: 00 17 87 93 addi	a5, a5, 1
0x80002248: fe e7 9c e3 bne	a5, a4, -8
0x80002240: 00 b7 80 23 sb	a1, 0(a5)
0x80002244: 00 17 87 93 addi	a5, a5, 1
0x80002248: fe e7 9c e3 bne	a5, a4, -8
0x80002240: 00 b7 80 23 sb	a1, 0(a5)
0x80002244: 00 17 87 93 addi	a5, a5, 1
0x80002248: fe e7 9c e3 bne	a5, a4, -8
0x80002240: 00 b7 80 23 sb	a1, 0(a5)
0x80002244: 00 17 87 93 addi	a5, a5, 1
0x80002248: fe e7 9c e3 bne	a5, a4, -8
0x80002240: 00 b7 80 23 sb	a1, 0(a5)
0x80002244: 00 17 87 93 addi	a5, a5, 1
0x80002248: fe e7 9c e3 bne	a5, a4, -8
0x80002240: 00 b7 80 23 sb	a1, 0(a5)
0x80002244: 00 17 87 93 addi	a5, a5, 1
0x80002248: fe e7 9c e3 bne	a5, a4, -8
0x80002240: 00 b7 80 23 sb	a1, 0(a5)
0x80002244: 00 17 87 93 addi	a5, a5, 1
0x80002248: fe e7 9c e3 bne	a5, a4, -8
0x80002240: 00 b7 80 23 sb	a1, 0(a5)
0x80002244: 00 17 87 93 addi	a5, a5, 1
0x80002248: fe e7 9c e3 bne	a5, a4, -8
0x80002240: 00 b7 80 23 sb	a1, 0(a5)
0x80002244: 00 17 87 93 addi	a5, a5, 1
0x80002248: fe e7 9c e3 bne	a5, a4, -8
0x80002240: 00 b7 80 23 sb	a1, 0(a5)
0x80002244: 00 17 87 93 addi	a5, a5, 1
0x80002248: fe e7 9c e3 bne	a5, a4, -8
0x80002240: 00 b7 80 23 sb	a1, 0(a5)
0x80002244: 00 17 87 93 addi	a5, a5, 1
0x80002248: fe e7 9c e3 bne	a5, a4, -8
0x80002240: 00 b7 80 23 sb	a1, 0(a5)
0x80002244: 00 17 87 93 addi	a5, a5, 1
0x80002248: fe e7 9c e3 bne	a5, a4, -8
0x80002240: 00 b7 80 23 sb	a1, 0(a5)
0x80002244: 00 17 87 93 addi	a5, a5, 1
0x80002248: fe e7 9c e3 bne	a5, a4, -8
0x80002240: 00 b7 80 23 sb	a1, 0(a5)
0x80002244: 00 17 87 93 addi	a5, a5, 1
0x80002248: fe e7 9c e3 bne	a5, a4, -8
0x80002240: 00 b7 80 23 sb	a1, 0(a5)
0x80002244: 00 17 87 93 addi	a5, a5, 1
0x80002248: fe e7 9c e3 bne	a5, a4, -8
0x80002240: 00 b7 80 23 sb	a1, 0(a5)
0x80002244: 00 17 87 93 addi	a5, a5, 1
0x80002248: fe e7 9c e3 bne	a5, a4, -8
0x80002240: 00 b7 80 23 sb	a1, 0(a5)
0x80002244: 00 17 87 93 addi	a5, a5, 1
0x80002248: fe e7 9c e3 bne	a5, a4, -8
0x80002240: 00 b7 80 23 sb	a1, 0(a5)
0x80002244: 00 17 87 93 addi	a5, a5, 1
0x80002248: fe e7 9c e3 bne	a5, a4, -8
0x80002240: 00 b7 80 23 sb	a1, 0(a5)
0x80002244: 00 17 87 93 addi	a5, a5, 1
0x80002248: fe e7 9c e3 bne	a5, a4, -8
0x80002240: 00 b7 80 23 sb	a1, 0(a5)
0x80002244: 00 17 87 93 addi	a5, a5, 1
0x80002248: fe e7 9c e3 bne	a5, a4, -8
0x80002240: 00 b7 80 23 sb	a1, 0(a5)
0x80002244: 00 17 87 93 addi	a5, a5, 1
0x80002248: fe e7 9c e3 bne	a5, a4, -8
0x80002240: 00 b7 80 23 sb	a1, 0(a5)
0x80002244: 00 17 87 93 addi	a5, a5, 1
0x80002248: fe e7 9c e3 bne	a5, a4, -8
0x80002240: 00 b7 80 23 sb	a1, 0(a5)
0x80002244: 00 17 87 93 addi	a5, a5, 1
0x80002248: fe e7 9c e3 bne	a5, a4, -8
0x80002240: 00 b7 80 23 sb	a1, 0(a5)
0x80002244: 00 17 87 93 addi	a5, a5, 1
0x80002248: fe e7 9c e3 bne	a5, a4, -8
0x80002240: 00 b7 80 23 sb	a1, 0(a5)
0x80002244: 00 17 87 93 addi	a5, a5, 1
0x80002248: fe e7 9c e3 bne	a5, a4, -8
0x80002240: 00 b7 80 23 sb	a1, 0(a5)
0x80002244: 00 17 87 93 addi	a5, a5, 1
0x80002248: fe e7 9c e3 bne	a5, a4, -8
0x80002240: 00 b7 80 23 sb	a1, 0(a5)
0x80002244: 00 17 87 93 addi	a5, a5, 1
0x80002248: fe e7 9c e3 bne	a5, a4, -8
0x80002240: 00 b7 80 23 sb	a1, 0(a5)
0x80002244: 00 17 87 93 addi	a5, a5, 1
0x80002248: fe e7 9c e3 bne	a5, a4, -8
0x80002240: 00 b7 80 23 sb	a1, 0(a5)
0x80002244: 00 17 87 93 addi	a5, a5, 1
0x80002248: fe e7 9c e3 bne	a5, a4, -8
0x80002240: 00 b7 80 23 sb	a1, 0(a5)
0x80002244: 00 17 87 93 addi	a5, a5, 1
0x80002248: fe e7 9c e3 bne	a5, a4, -8
0x80002240: 00 b7 80 23 sb	a1, 0(a5)
0x80002244: 00 17 87 93 addi	a5, a5, 1
0x80002248: fe e7 9c e3 bne	a5, a4, -8
0x80002240: 00 b7 80 23 sb	a1, 0(a5)
0x80002244: 00 17 87 93 addi	a5, a5, 1
0x80002248: fe e7 9c e3 bne	a5, a4, -8
0x80002240: 00 b7 80 23 sb	a1, 0(a5)
0x80002244: 00 17 87 93 addi	a5, a5, 1
0x80002248: fe e7 9c e3 bne	a5, a4, -8
0x80002240: 00 b7 80 23 sb	a1, 0(a5)
0x80002244: 00 17 87 93 addi	a5, a5, 1
0x80002248: fe e7 9c e3 bne	a5, a4, -8
0x80002240: 00 b7 80 23 sb	a1, 0(a5)
0x80002244: 00 17 87 93 addi	a5, a5, 1
0x80002248: fe e7 9c e3 bne	a5, a4, -8
0x80002240: 00 b7 80 23 sb	a1, 0(a5)
0x80002244: 00 17 87 93 addi	a5, a5, 1
0x80002248: fe e7 9c e3 bne	a5, a4, -8
0x80002240: 00 b7 80 23 sb	a1, 0(a5)
0x80002244: 00 17 87 93 addi	a5, a5, 1
0x80002248: fe e7 9c e3 bne	a5, a4, -8
0x80002240: 00 b7 80 23 sb	a1, 0(a5)
0x80002244: 00 17 87 93 addi	a5, a5, 1
0x80002248: fe e7 9c e3 bne	a5, a4, -8
0x80002240: 00 b7 80 23 sb	a1, 0(a5)
0x80002244: 00 17 87 93 addi	a5, a5, 1
0x80002248: fe e7 9c e3 bne	a5, a4, -8
0x80002240: 00 b7 80 23 sb	a1, 0(a5)
0x80002244: 00 17 87 93 addi	a5, a5, 1
0x80002248: fe e7 9c e3 bne	a5, a4, -8
0x80002240: 00 b7 80 23 sb	a1, 0(a5)
0x80002244: 00 17 87 93 addi	a5, a5, 1
0x80002248: fe e7 9c e3 bne	a5, a4, -8
0x80002240: 00 b7 80 23 sb	a1, 0(a5)
0x80002244: 00 17 87 93 addi	a5, a5, 1
0x80002248: fe e7 9c e3 bne	a5, a4, -8
0x80002240: 00 b7 80 23 sb	a1, 0(a5)
0x80002244: 00 17 87 93 addi	a5, a5, 1
0x80002248: fe e7 9c e3 bne	a5, a4, -8
0x80002240: 00 b7 80 23 sb	a1, 0(a5)
0x80002244: 00 17 87 93 addi	a5, a5, 1
0x80002248: fe e7 9c e3 bne	a5, a4, -8
0x80002240: 00 b7 80 23 sb	a1, 0(a5)
0x80002244: 00 17 87 93 addi	a5, a5, 1
0x80002248: fe e7 9c e3 bne	a5, a4, -8
0x80002240: 00 b7 80 23 sb	a1, 0(a5)
0x80002244: 00 17 87 93 addi	a5, a5, 1
0x80002248: fe e7 9c e3 bne	a5, a4, -8
0x80002240: 00 b7 80 23 sb	a1, 0(a5)
0x80002244: 00 17 87 93 addi	a5, a5, 1
0x80002248: fe e7 9c e3 bne	a5, a4, -8
0x80002240: 00 b7 80 23 sb	a1, 0(a5)
0x80002244: 00 17 87 93 addi	a5, a5, 1
0x80002248: fe e7 9c e3 bne	a5, a4, -8
0x80002240: 00 b7 80 23 sb	a1, 0(a5)
0x80002244: 00 17 87 93 addi	a5, a5, 1
0x80002248: fe e7 9c e3 bne	a5, a4, -8
0x80002240: 00 b7 80 23 sb	a1, 0(a5)
0x80002244: 00 17 87 93 addi	a5, a5, 1
0x80002248: fe e7 9c e3 bne	a5, a4, -8
0x80002240: 00 b7 80 23 sb	a1, 0(a5)
0x80002244: 00 17 87 93 addi	a5, a5, 1
0x80002248: fe e7 9c e3 bne	a5, a4, -8
0x80002240: 00 b7 80 23 sb	a1, 0(a5)
0x80002244: 00 17 87 93 addi	a5, a5, 1
0x80002248: fe e7 9c e3 bne	a5, a4, -8
0x80002240: 00 b7 80 23 sb	a1, 0(a5)
0x80002244: 00 17 87 93 addi	a5, a5, 1
0x80002248: fe e7 9c e3 bne	a5, a4, -8
0x80002240: 00 b7 80 23 sb	a1, 0(a5)
0x80002244: 00 17 87 93 addi	a5, a5, 1
0x80002248: fe e7 9c e3 bne	a5, a4, -8
0x80002240: 00 b7 80 23 sb	a1, 0(a5)
0x80002244: 00 17 87 93 addi	a5, a5, 1
0x80002248: fe e7 9c e3 bne	a5, a4, -8
0x80002240: 00 b7 80 23 sb	a1, 0(a5)
0x80002244: 00 17 87 93 addi	a5, a5, 1
0x80002248: fe e7 9c e3 bne	a5, a4, -8
0x80002240: 00 b7 80 23 sb	a1, 0(a5)
0x80002244: 00 17 87 93 addi	a5, a5, 1
0x80002248: fe e7 9c e3 bne	a5, a4, -8
0x80002240: 00 b7 80 23 sb	a1, 0(a5)
0x80002244: 00 17 87 93 addi	a5, a5, 1
0x80002248: fe e7 9c e3 bne	a5, a4, -8
0x80002240: 00 b7 80 23 sb	a1, 0(a5)
0x80002244: 00 17 87 93 addi	a5, a5, 1
0x80002248: fe e7 9c e3 bne	a5, a4, -8
0x80002240: 00 b7 80 23 sb	a1, 0(a5)
0x80002244: 00 17 87 93 addi	a5, a5, 1
0x80002248: fe e7 9c e3 bne	a5, a4, -8
0x80002240: 00 b7 80 23 sb	a1, 0(a5)
0x80002244: 00 17 87 93 addi	a5, a5, 1
0x80002248: fe e7 9c e3 bne	a5, a4, -8
0x80002240: 00 b7 80 23 sb	a1, 0(a5)
0x80002244: 00 17 87 93 addi	a5, a5, 1
0x80002248: fe e7 9c e3 bne	a5, a4, -8
0x80002240: 00 b7 80 23 sb	a1, 0(a5)
0x80002244: 00 17 87 93 addi	a5, a5, 1
0x80002248: fe e7 9c e3 bne	a5, a4, -8
0x80002240: 00 b7 80 23 sb	a1, 0(a5)
0x80002244: 00 17 87 93 addi	a5, a5, 1
0x80002248: fe e7 9c e3 bne	a5, a4, -8
0x80002240: 00 b7 80 23 sb	a1, 0(a5)
0x80002244: 00 17 87 93 addi	a5, a5, 1
0x80002248: fe e7 9c e3 bne	a5, a4, -8
0x80002240: 00 b7 80 23 sb	a1, 0(a5)
0x80002244: 00 17 87 93 addi	a5, a5, 1
0x80002248: fe e7 9c e3 bne	a5, a4, -8
0x80002240: 00 b7 80 23 sb	a1, 0(a5)
0x80002244: 00 17 87 93 addi	a5, a5, 1
0x80002248: fe e7 9c e3 bne	a5, a4, -8
0x80002240: 00 b7 80 23 sb	a1, 0(a5)
0x80002244: 00 17 87 93 addi	a5, a5, 1
0x80002248: fe e7 9c e3 bne	a5, a4, -8
0x80002240: 00 b7 80 23 sb	a1, 0(a5)
0x80002244: 00 17 87 93 addi	a5, a5, 1
0x80002248: fe e7 9c e3 bne	a5, a4, -8
0x80002240: 00 b7 80 23 sb	a1, 0(a5)
0x80002244: 00 17 87 93 addi	a5, a5, 1
0x80002248: fe e7 9c e3 bne	a5, a4, -8
0x80002240: 00 b7 80 23 sb	a1, 0(a5)
0x80002244: 00 17 87 93 addi	a5, a5, 1
0x80002248: fe e7 9c e3 bne	a5, a4, -8
0x80002240: 00 b7 80 23 sb	a1, 0(a5)
0x80002244: 00 17 87 93 addi	a5, a5, 1
0x80002248: fe e7 9c e3 bne	a5, a4, -8
0x80002240: 00 b7 80 23 sb	a1, 0(a5)
0x80002244: 00 17 87 93 addi	a5, a5, 1
0x80002248: fe e7 9c e3 bne	a5, a4, -8
0x80002240: 00 b7 80 23 sb	a1, 0(a5)
0x80002244: 00 17 87 93 addi	a5, a5, 1
0x80002248: fe e7 9c e3 bne	a5, a4, -8
0x80002240: 00 b7 80 23 sb	a1, 0(a5)
0x80002244: 00 17 87 93 addi	a5, a5, 1
0x80002248: fe e7 9c e3 bne	a5, a4, -8
0x80002240: 00 b7 80 23 sb	a1, 0(a5)
0x80002244: 00 17 87 93 addi	a5, a5, 1
0x80002248: fe e7 9c e3 bne	a5, a4, -8
0x80002240: 00 b7 80 23 sb	a1, 0(a5)
0x80002244: 00 17 87 93 addi	a5, a5, 1
0x80002248: fe e7 9c e3 bne	a5, a4, -8
0x80002240: 00 b7 80 23 sb	a1, 0(a5)
0x80002244: 00 17 87 93 addi	a5, a5, 1
0x80002248: fe e7 9c e3 bne	a5, a4, -8
0x80002240: 00 b7 80 23 sb	a1, 0(a5)
0x80002244: 00 17 87 93 addi	a5, a5, 1
0x80002248: fe e7 9c e3 bne	a5, a4, -8
0x80002240: 00 b7 80 23 sb	a1, 0(a5)
0x80002244: 00 17 87 93 addi	a5, a5, 1
0x80002248: fe e7 9c e3 bne	a5, a4, -8
0x80002240: 00 b7 80 23 sb	a1, 0(a5)
0x80002244: 00 17 87 93 addi	a5, a5, 1
0x80002248: fe e7 9c e3 bne	a5, a4, -8
0x80002240: 00 b7 80 23 sb	a1, 0(a5)
0x80002244: 00 17 87 93 addi	a5, a5, 1
0x80002248: fe e7 9c e3 bne	a5, a4, -8
0x80002240: 00 b7 80 23 sb	a1, 0(a5)
0x80002244: 00 17 87 93 addi	a5, a5, 1
0x80002248: fe e7 9c e3 bne	a5, a4, -8
0x80002240: 00 b7 80 23 sb	a1, 0(a5)
0x80002244: 00 17 87 93 addi	a5, a5, 1
0x80002248: fe e7 9c e3 bne	a5, a4, -8
0x80002240: 00 b7 80 23 sb	a1, 0(a5)
0x80002244: 00 17 87 93 addi	a5, a5, 1
0x80002248: fe e7 9c e3 bne	a5, a4, -8
0x80002240: 00 b7 80 23 sb	a1, 0(a5)
0x80002244: 00 17 87 93 addi	a5, a5, 1
0x80002248: fe e7 9c e3 bne	a5, a4, -8
0x80002240: 00 b7 80 23 sb	a1, 0(a5)
0x80002244: 00 17 87 93 addi	a5, a5, 1
0x80002248: fe e7 9c e3 bne	a5, a4, -8
0x80002240: 00 b7 80 23 sb	a1, 0(a5)
0x80002244: 00 17 87 93 addi	a5, a5, 1
0x80002248: fe e7 9c e3 bne	a5, a4, -8
0x80002240: 00 b7 80 23 sb	a1, 0(a5)
0x80002244: 00 17 87 93 addi	a5, a5, 1
0x80002248: fe e7 9c e3 bne	a5, a4, -8
0x80002240: 00 b7 80 23 sb	a1, 0(a5)
0x80002244: 00 17 87 93 addi	a5, a5, 1
0x80002248: fe e7 9c e3 bne	a5, a4, -8
0x80002240: 00 b7 80 23 sb	a1, 0(a5)
0x80002244: 00 17 87 93 addi	a5, a5, 1
0x80002248: fe e7 9c e3 bne	a5, a4, -8
0x80002240: 00 b7 80 23 sb	a1, 0(a5)
0x80002244: 00 17 87 93 addi	a5, a5, 1
0x80002248: fe e7 9c e3 bne	a5, a4, -8
0x80002240: 00 b7 80 23 sb	a1, 0(a5)
0x80002244: 00 17 87 93 addi	a5, a5, 1
0x80002248: fe e7 9c e3 bne	a5, a4, -8
0x80002240: 00 b7 80 23 sb	a1, 0(a5)
0x80002244: 00 17 87 93 addi	a5, a5, 1
0x80002248: fe e7 9c e3 bne	a5, a4, -8
0x80002240: 00 b7 80 23 sb	a1, 0(a5)
0x80002244: 00 17 87 93 addi	a5, a5, 1
0x80002248: fe e7 9c e3 bne	a5, a4, -8
0x80002240: 00 b7 80 23 sb	a1, 0(a5)
0x80002244: 00 17 87 93 addi	a5, a5, 1
0x80002248: fe e7 9c e3 bne	a5, a4, -8
0x80002240: 00 b7 80 23 sb	a1, 0(a5)
0x80002244: 00 17 87 93 addi	a5, a5, 1
0x80002248: fe e7 9c e3 bne	a5, a4, -8
0x80002240: 00 b7 80 23 sb	a1, 0(a5)
0x80002244: 00 17 87 93 addi	a5, a5, 1
0x80002248: fe e7 9c e3 bne	a5, a4, -8
0x80002240: 00 b7 80 23 sb	a1, 0(a5)
0x80002244: 00 17 87 93 addi	a5, a5, 1
0x80002248: fe e7 9c e3 bne	a5, a4, -8
0x80002240: 00 b7 80 23 sb	a1, 0(a5)
0x80002244: 00 17 87 93 addi	a5, a5, 1
0x80002248: fe e7 9c e3 bne	a5, a4, -8
0x80002240: 00 b7 80 23 sb	a1, 0(a5)
0x80002244: 00 17 87 93 addi	a5, a5, 1
0x80002248: fe e7 9c e3 bne	a5, a4, -8
0x80002240: 00 b7 80 23 sb	a1, 0(a5)
0x80002244: 00 17 87 93 addi	a5, a5, 1
0x80002248: fe e7 9c e3 bne	a5, a4, -8
0x80002240: 00 b7 80 23 sb	a1, 0(a5)
0x80002244: 00 17 87 93 addi	a5, a5, 1
0x80002248: fe e7 9c e3 bne	a5, a4, -8
0x80002240: 00 b7 80 23 sb	a1, 0(a5)
0x80002244: 00 17 87 93 addi	a5, a5, 1
0x80002248: fe e7 9c e3 bne	a5, a4, -8
0x80002240: 00 b7 80 23 sb	a1, 0(a5)
0x80002244: 00 17 87 93 addi	a5, a5, 1
0x80002248: fe e7 9c e3 bne	a5, a4, -8
0x80002240: 00 b7 80 23 sb	a1, 0(a5)
0x80002244: 00 17 87 93 addi	a5, a5, 1
0x80002248: fe e7 9c e3 bne	a5, a4, -8
0x80002240: 00 b7 80 23 sb	a1, 0(a5)
0x80002244: 00 17 87 93 addi	a5, a5, 1
0x80002248: fe e7 9c e3 bne	a5, a4, -8
0x80002240: 00 b7 80 23 sb	a1, 0(a5)
0x80002244: 00 17 87 93 addi	a5, a5, 1
0x80002248: fe e7 9c e3 bne	a5, a4, -8
0x80002240: 00 b7 80 23 sb	a1, 0(a5)
0x80002244: 00 17 87 93 addi	a5, a5, 1
0x80002248: fe e7 9c e3 bne	a5, a4, -8
0x80002240: 00 b7 80 23 sb	a1, 0(a5)
0x80002244: 00 17 87 93 addi	a5, a5, 1
0x80002248: fe e7 9c e3 bne	a5, a4, -8
0x80002240: 00 b7 80 23 sb	a1, 0(a5)
0x80002244: 00 17 87 93 addi	a5, a5, 1
0x80002248: fe e7 9c e3 bne	a5, a4, -8
0x80002240: 00 b7 80 23 sb	a1, 0(a5)
0x80002244: 00 17 87 93 addi	a5, a5, 1
0x80002248: fe e7 9c e3 bne	a5, a4, -8
0x80002240: 00 b7 80 23 sb	a1, 0(a5)
0x80002244: 00 17 87 93 addi	a5, a5, 1
0x80002248: fe e7 9c e3 bne	a5, a4, -8
0x80002240: 00 b7 80 23 sb	a1, 0(a5)
0x80002244: 00 17 87 93 addi	a5, a5, 1
0x80002248: fe e7 9c e3 bne	a5, a4, -8
0x80002240: 00 b7 80 23 sb	a1, 0(a5)
0x80002244: 00 17 87 93 addi	a5, a5, 1
0x80002248: fe e7 9c e3 bne	a5, a4, -8
0x80002240: 00 b7 80 23 sb	a1, 0(a5)
0x80002244: 00 17 87 93 addi	a5, a5, 1
0x80002248: fe e7 9c e3 bne	a5, a4, -8
0x80002240: 00 b7 80 23 sb	a1, 0(a5)
0x80002244: 00 17 87 93 addi	a5, a5, 1
0x80002248: fe e7 9c e3 bne	a5, a4, -8
0x80002240: 00 b7 80 23 sb	a1, 0(a5)
0x80002244: 00 17 87 93 addi	a5, a5, 1
0x80002248: fe e7 9c e3 bne	a5, a4, -8
0x80002240: 00 b7 80 23 sb	a1, 0(a5)
0x80002244: 00 17 87 93 addi	a5, a5, 1
0x80002248: fe e7 9c e3 bne	a5, a4, -8
0x80002240: 00 b7 80 23 sb	a1, 0(a5)
0x80002244: 00 17 87 93 addi	a5, a5, 1
0x80002248: fe e7 9c e3 bne	a5, a4, -8
0x80002240: 00 b7 80 23 sb	a1, 0(a5)
0x80002244: 00 17 87 93 addi	a5, a5, 1
0x80002248: fe e7 9c e3 bne	a5, a4, -8
0x80002240: 00 b7 80 23 sb	a1, 0(a5)
0x80002244: 00 17 87 93 addi	a5, a5, 1
0x80002248: fe e7 9c e3 bne	a5, a4, -8
0x80002240: 00 b7 80 23 sb	a1, 0(a5)
0x80002244: 00 17 87 93 addi	a5, a5, 1
0x80002248: fe e7 9c e3 bne	a5, a4, -8
0x80002240: 00 b7 80 23 sb	a1, 0(a5)
0x80002244: 00 17 87 93 addi	a5, a5, 1
0x80002248: fe e7 9c e3 bne	a5, a4, -8
0x80002240: 00 b7 80 23 sb	a1, 0(a5)
0x80002244: 00 17 87 93 addi	a5, a5, 1
0x80002248: fe e7 9c e3 bne	a5, a4, -8
0x80002240: 00 b7 80 23 sb	a1, 0(a5)
0x80002244: 00 17 87 93 addi	a5, a5, 1
0x80002248: fe e7 9c e3 bne	a5, a4, -8
0x80002240: 00 b7 80 23 sb	a1, 0(a5)
0x80002244: 00 17 87 93 addi	a5, a5, 1
0x80002248: fe e7 9c e3 bne	a5, a4, -8
0x80002240: 00 b7 80 23 sb	a1, 0(a5)
0x80002244: 00 17 87 93 addi	a5, a5, 1
0x80002248: fe e7 9c e3 bne	a5, a4, -8
0x80002240: 00 b7 80 23 sb	a1, 0(a5)
0x80002244: 00 17 87 93 addi	a5, a5, 1
0x80002248: fe e7 9c e3 bne	a5, a4, -8
0x80002240: 00 b7 80 23 sb	a1, 0(a5)
0x80002244: 00 17 87 93 addi	a5, a5, 1
0x80002248: fe e7 9c e3 bne	a5, a4, -8
0x80002240: 00 b7 80 23 sb	a1, 0(a5)
0x80002244: 00 17 87 93 addi	a5, a5, 1
0x80002248: fe e7 9c e3 bne	a5, a4, -8
0x80002240: 00 b7 80 23 sb	a1, 0(a5)
0x80002244: 00 17 87 93 addi	a5, a5, 1
0x80002248: fe e7 9c e3 bne	a5, a4, -8
0x80002240: 00 b7 80 23 sb	a1, 0(a5)
0x80002244: 00 17 87 93 addi	a5, a5, 1
0x80002248: fe e7 9c e3 bne	a5, a4, -8
0x80002240: 00 b7 80 23 sb	a1, 0(a5)
0x80002244: 00 17 87 93 addi	a5, a5, 1
0x80002248: fe e7 9c e3 bne	a5, a4, -8
0x80002240: 00 b7 80 23 sb	a1, 0(a5)
0x80002244: 00 17 87 93 addi	a5, a5, 1
0x80002248: fe e7 9c e3 bne	a5, a4, -8
0x80002240: 00 b7 80 23 sb	a1, 0(a5)
0x80002244: 00 17 87 93 addi	a5, a5, 1
0x80002248: fe e7 9c e3 bne	a5, a4, -8
0x80002240: 00 b7 80 23 sb	a1, 0(a5)
0x80002244: 00 17 87 93 addi	a5, a5, 1
0x80002248: fe e7 9c e3 bne	a5, a4, -8
0x80002240: 00 b7 80 23 sb	a1, 0(a5)
0x80002244: 00 17 87 93 addi	a5, a5, 1
0x80002248: fe e7 9c e3 bne	a5, a4, -8
0x80002240: 00 b7 80 23 sb	a1, 0(a5)
0x80002244: 00 17 87 93 addi	a5, a5, 1
0x80002248: fe e7 9c e3 bne	a5, a4, -8
0x80002240: 00 b7 80 23 sb	a1, 0(a5)
0x80002244: 00 17 87 93 addi	a5, a5, 1
0x80002248: fe e7 9c e3 bne	a5, a4, -8
0x80002240: 00 b7 80 23 sb	a1, 0(a5)
0x80002244: 00 17 87 93 addi	a5, a5, 1
0x80002248: fe e7 9c e3 bne	a5, a4, -8
0x80002240: 00 b7 80 23 sb	a1, 0(a5)
0x80002244: 00 17 87 93 addi	a5, a5, 1
0x80002248: fe e7 9c e3 bne	a5, a4, -8
0x80002240: 00 b7 80 23 sb	a1, 0(a5)
0x80002244: 00 17 87 93 addi	a5, a5, 1
0x80002248: fe e7 9c e3 bne	a5, a4, -8
0x80002240: 00 b7 80 23 sb	a1, 0(a5)
0x80002244: 00 17 87 93 addi	a5, a5, 1
0x80002248: fe e7 9c e3 bne	a5, a4, -8
0x80002240: 00 b7 80 23 sb	a1, 0(a5)
0x80002244: 00 17 87 93 addi	a5, a5, 1
0x80002248: fe e7 9c e3 bne	a5, a4, -8
0x80002240: 00 b7 80 23 sb	a1, 0(a5)
0x80002244: 00 17 87 93 addi	a5, a5, 1
0x80002248: fe e7 9c e3 bne	a5, a4, -8
0x80002240: 00 b7 80 23 sb	a1, 0(a5)
0x80002244: 00 17 87 93 addi	a5, a5, 1
0x80002248: fe e7 9c e3 bne	a5, a4, -8
0x80002240: 00 b7 80 23 sb	a1, 0(a5)
0x80002244: 00 17 87 93 addi	a5, a5, 1
0x80002248: fe e7 9c e3 bne	a5, a4, -8
0x80002240: 00 b7 80 23 sb	a1, 0(a5)
0x80002244: 00 17 87 93 addi	a5, a5, 1
0x80002248: fe e7 9c e3 bne	a5, a4, -8
0x80002240: 00 b7 80 23 sb	a1, 0(a5)
0x80002244: 00 17 87 93 addi	a5, a5, 1
0x80002248: fe e7 9c e3 bne	a5, a4, -8
0x80002240: 00 b7 80 23 sb	a1, 0(a5)
0x80002244: 00 17 87 93 addi	a5, a5, 1
0x80002248: fe e7 9c e3 bne	a5, a4, -8
0x80002240: 00 b7 80 23 sb	a1, 0(a5)
0x80002244: 00 17 87 93 addi	a5, a5, 1
0x80002248: fe e7 9c e3 bne	a5, a4, -8
0x80002240: 00 b7 80 23 sb	a1, 0(a5)
0x80002244: 00 17 87 93 addi	a5, a5, 1
0x80002248: fe e7 9c e3 bne	a5, a4, -8
0x80002240: 00 b7 80 23 sb	a1, 0(a5)
0x80002244: 00 17 87 93 addi	a5, a5, 1
0x80002248: fe e7 9c e3 bne	a5, a4, -8
0x80002240: 00 b7 80 23 sb	a1, 0(a5)
0x80002244: 00 17 87 93 addi	a5, a5, 1
0x80002248: fe e7 9c e3 bne	a5, a4, -8
0x80002240: 00 b7 80 23 sb	a1, 0(a5)
0x80002244: 00 17 87 93 addi	a5, a5, 1
0x80002248: fe e7 9c e3 bne	a5, a4, -8
0x80002240: 00 b7 80 23 sb	a1, 0(a5)
0x80002244: 00 17 87 93 addi	a5, a5, 1
0x80002248: fe e7 9c e3 bne	a5, a4, -8
0x80002240: 00 b7 80 23 sb	a1, 0(a5)
0x80002244: 00 17 87 93 addi	a5, a5, 1
0x80002248: fe e7 9c e3 bne	a5, a4, -8
0x80002240: 00 b7 80 23 sb	a1, 0(a5)
0x80002244: 00 17 87 93 addi	a5, a5, 1
0x80002248: fe e7 9c e3 bne	a5, a4, -8
0x80002240: 00 b7 80 23 sb	a1, 0(a5)
0x80002244: 00 17 87 93 addi	a5, a5, 1
0x80002248: fe e7 9c e3 bne	a5, a4, -8
0x80002240: 00 b7 80 23 sb	a1, 0(a5)
0x80002244: 00 17 87 93 addi	a5, a5, 1
0x80002248: fe e7 9c e3 bne	a5, a4, -8
0x80002240: 00 b7 80 23 sb	a1, 0(a5)
0x80002244: 00 17 87 93 addi	a5, a5, 1
0x80002248: fe e7 9c e3 bne	a5, a4, -8
0x80002240: 00 b7 80 23 sb	a1, 0(a5)
0x80002244: 00 17 87 93 addi	a5, a5, 1
0x80002248: fe e7 9c e3 bne	a5, a4, -8
0x80002240: 00 b7 80 23 sb	a1, 0(a5)
0x80002244: 00 17 87 93 addi	a5, a5, 1
0x80002248: fe e7 9c e3 bne	a5, a4, -8
0x80002240: 00 b7 80 23 sb	a1, 0(a5)
0x80002244: 00 17 87 93 addi	a5, a5, 1
0x80002248: fe e7 9c e3 bne	a5, a4, -8
0x80002240: 00 b7 80 23 sb	a1, 0(a5)
0x80002244: 00 17 87 93 addi	a5, a5, 1
0x80002248: fe e7 9c e3 bne	a5, a4, -8
0x80002240: 00 b7 80 23 sb	a1, 0(a5)
0x80002244: 00 17 87 93 addi	a5, a5, 1
0x80002248: fe e7 9c e3 bne	a5, a4, -8
0x80002240: 00 b7 80 23 sb	a1, 0(a5)
0x80002244: 00 17 87 93 addi	a5, a5, 1
0x80002248: fe e7 9c e3 bne	a5, a4, -8
0x80002240: 00 b7 80 23 sb	a1, 0(a5)
0x80002244: 00 17 87 93 addi	a5, a5, 1
0x80002248: fe e7 9c e3 bne	a5, a4, -8
0x80002240: 00 b7 80 23 sb	a1, 0(a5)
0x80002244: 00 17 87 93 addi	a5, a5, 1
0x80002248: fe e7 9c e3 bne	a5, a4, -8
0x80002240: 00 b7 80 23 sb	a1, 0(a5)
0x80002244: 00 17 87 93 addi	a5, a5, 1
0x80002248: fe e7 9c e3 bne	a5, a4, -8
0x80002240: 00 b7 80 23 sb	a1, 0(a5)
0x80002244: 00 17 87 93 addi	a5, a5, 1
0x80002248: fe e7 9c e3 bne	a5, a4, -8
0x80002240: 00 b7 80 23 sb	a1, 0(a5)
0x80002244: 00 17 87 93 addi	a5, a5, 1
0x80002248: fe e7 9c e3 bne	a5, a4, -8
0x80002240: 00 b7 80 23 sb	a1, 0(a5)
0x80002244: 00 17 87 93 addi	a5, a5, 1
0x80002248: fe e7 9c e3 bne	a5, a4, -8
0x80002240: 00 b7 80 23 sb	a1, 0(a5)
0x80002244: 00 17 87 93 addi	a5, a5, 1
0x80002248: fe e7 9c e3 bne	a5, a4, -8
0x80002240: 00 b7 80 23 sb	a1, 0(a5)
0x80002244: 00 17 87 93 addi	a5, a5, 1
0x80002248: fe e7 9c e3 bne	a5, a4, -8
0x80002240: 00 b7 80 23 sb	a1, 0(a5)
0x80002244: 00 17 87 93 addi	a5, a5, 1
0x80002248: fe e7 9c e3 bne	a5, a4, -8
0x80002240: 00 b7 80 23 sb	a1, 0(a5)
0x80002244: 00 17 87 93 addi	a5, a5, 1
0x80002248: fe e7 9c e3 bne	a5, a4, -8
0x80002240: 00 b7 80 23 sb	a1, 0(a5)
0x80002244: 00 17 87 93 addi	a5, a5, 1
0x80002248: fe e7 9c e3 bne	a5, a4, -8
0x80002240: 00 b7 80 23 sb	a1, 0(a5)
0x80002244: 00 17 87 93 addi	a5, a5, 1
0x80002248: fe e7 9c e3 bne	a5, a4, -8
0x80002240: 00 b7 80 23 sb	a1, 0(a5)
0x80002244: 00 17 87 93 addi	a5, a5, 1
0x80002248: fe e7 9c e3 bne	a5, a4, -8
0x80002240: 00 b7 80 23 sb	a1, 0(a5)
0x80002244: 00 17 87 93 addi	a5, a5, 1
0x80002248: fe e7 9c e3 bne	a5, a4, -8
0x80002240: 00 b7 80 23 sb	a1, 0(a5)
0x80002244: 00 17 87 93 addi	a5, a5, 1
0x80002248: fe e7 9c e3 bne	a5, a4, -8
0x80002240: 00 b7 80 23 sb	a1, 0(a5)
0x80002244: 00 17 87 93 addi	a5, a5, 1
0x80002248: fe e7 9c e3 bne	a5, a4, -8
0x80002240: 00 b7 80 23 sb	a1, 0(a5)
0x80002244: 00 17 87 93 addi	a5, a5, 1
0x80002248: fe e7 9c e3 bne	a5, a4, -8
0x80002240: 00 b7 80 23 sb	a1, 0(a5)
0x80002244: 00 17 87 93 addi	a5, a5, 1
0x80002248: fe e7 9c e3 bne	a5, a4, -8
0x80002240: 00 b7 80 23 sb	a1, 0(a5)
0x80002244: 00 17 87 93 addi	a5, a5, 1
0x80002248: fe e7 9c e3 bne	a5, a4, -8
0x80002240: 00 b7 80 23 sb	a1, 0(a5)
0x80002244: 00 17 87 93 addi	a5, a5, 1
0x80002248: fe e7 9c e3 bne	a5, a4, -8
0x80002240: 00 b7 80 23 sb	a1, 0(a5)
0x80002244: 00 17 87 93 addi	a5, a5, 1
0x80002248: fe e7 9c e3 bne	a5, a4, -8
0x80002240: 00 b7 80 23 sb	a1, 0(a5)
0x80002244: 00 17 87 93 addi	a5, a5, 1
0x80002248: fe e7 9c e3 bne	a5, a4, -8
0x80002240: 00 b7 80 23 sb	a1, 0(a5)
0x80002244: 00 17 87 93 addi	a5, a5, 1
0x80002248: fe e7 9c e3 bne	a5, a4, -8
0x80002240: 00 b7 80 23 sb	a1, 0(a5)
0x80002244: 00 17 87 93 addi	a5, a5, 1
0x80002248: fe e7 9c e3 bne	a5, a4, -8
0x80002240: 00 b7 80 23 sb	a1, 0(a5)
0x80002244: 00 17 87 93 addi	a5, a5, 1
0x80002248: fe e7 9c e3 bne	a5, a4, -8
0x80002240: 00 b7 80 23 sb	a1, 0(a5)
0x80002244: 00 17 87 93 addi	a5, a5, 1
0x80002248: fe e7 9c e3 bne	a5, a4, -8
0x80002240: 00 b7 80 23 sb	a1, 0(a5)
0x80002244: 00 17 87 93 addi	a5, a5, 1
0x80002248: fe e7 9c e3 bne	a5, a4, -8
0x80002240: 00 b7 80 23 sb	a1, 0(a5)
0x80002244: 00 17 87 93 addi	a5, a5, 1
0x80002248: fe e7 9c e3 bne	a5, a4, -8
0x80002240: 00 b7 80 23 sb	a1, 0(a5)
0x80002244: 00 17 87 93 addi	a5, a5, 1
0x80002248: fe e7 9c e3 bne	a5, a4, -8
0x80002240: 00 b7 80 23 sb	a1, 0(a5)
0x80002244: 00 17 87 93 addi	a5, a5, 1
0x80002248: fe e7 9c e3 bne	a5, a4, -8
0x80002240: 00 b7 80 23 sb	a1, 0(a5)
0x80002244: 00 17 87 93 addi	a5, a5, 1
0x80002248: fe e7 9c e3 bne	a5, a4, -8
0x80002240: 00 b7 80 23 sb	a1, 0(a5)
0x80002244: 00 17 87 93 addi	a5, a5, 1
0x80002248: fe e7 9c e3 bne	a5, a4, -8
0x80002240: 00 b7 80 23 sb	a1, 0(a5)
0x80002244: 00 17 87 93 addi	a5, a5, 1
0x80002248: fe e7 9c e3 bne	a5, a4, -8
0x80002240: 00 b7 80 23 sb	a1, 0(a5)
0x80002244: 00 17 87 93 addi	a5, a5, 1
0x80002248: fe e7 9c e3 bne	a5, a4, -8
0x80002240: 00 b7 80 23 sb	a1, 0(a5)
0x80002244: 00 17 87 93 addi	a5, a5, 1
0x80002248: fe e7 9c e3 bne	a5, a4, -8
0x80002240: 00 b7 80 23 sb	a1, 0(a5)
0x80002244: 00 17 87 93 addi	a5, a5, 1
0x80002248: fe e7 9c e3 bne	a5, a4, -8
0x80002240: 00 b7 80 23 sb	a1, 0(a5)
0x80002244: 00 17 87 93 addi	a5, a5, 1
0x80002248: fe e7 9c e3 bne	a5, a4, -8
0x80002240: 00 b7 80 23 sb	a1, 0(a5)
0x80002244: 00 17 87 93 addi	a5, a5, 1
0x80002248: fe e7 9c e3 bne	a5, a4, -8
0x80002240: 00 b7 80 23 sb	a1, 0(a5)
0x80002244: 00 17 87 93 addi	a5, a5, 1
0x80002248: fe e7 9c e3 bne	a5, a4, -8
0x80002240: 00 b7 80 23 sb	a1, 0(a5)
0x80002244: 00 17 87 93 addi	a5, a5, 1
0x80002248: fe e7 9c e3 bne	a5, a4, -8
0x80002240: 00 b7 80 23 sb	a1, 0(a5)
0x80002244: 00 17 87 93 addi	a5, a5, 1
0x80002248: fe e7 9c e3 bne	a5, a4, -8
0x80002240: 00 b7 80 23 sb	a1, 0(a5)
0x80002244: 00 17 87 93 addi	a5, a5, 1
0x80002248: fe e7 9c e3 bne	a5, a4, -8
0x80002240: 00 b7 80 23 sb	a1, 0(a5)
0x80002244: 00 17 87 93 addi	a5, a5, 1
0x80002248: fe e7 9c e3 bne	a5, a4, -8
0x80002240: 00 b7 80 23 sb	a1, 0(a5)
0x80002244: 00 17 87 93 addi	a5, a5, 1
0x80002248: fe e7 9c e3 bne	a5, a4, -8
0x80002240: 00 b7 80 23 sb	a1, 0(a5)
0x80002244: 00 17 87 93 addi	a5, a5, 1
0x80002248: fe e7 9c e3 bne	a5, a4, -8
0x80002240: 00 b7 80 23 sb	a1, 0(a5)
0x80002244: 00 17 87 93 addi	a5, a5, 1
0x80002248: fe e7 9c e3 bne	a5, a4, -8
0x80002240: 00 b7 80 23 sb	a1, 0(a5)
0x80002244: 00 17 87 93 addi	a5, a5, 1
0x80002248: fe e7 9c e3 bne	a5, a4, -8
0x80002240: 00 b7 80 23 sb	a1, 0(a5)
0x80002244: 00 17 87 93 addi	a5, a5, 1
0x80002248: fe e7 9c e3 bne	a5, a4, -8
0x80002240: 00 b7 80 23 sb	a1, 0(a5)
0x80002244: 00 17 87 93 addi	a5, a5, 1
0x80002248: fe e7 9c e3 bne	a5, a4, -8
0x80002240: 00 b7 80 23 sb	a1, 0(a5)
0x80002244: 00 17 87 93 addi	a5, a5, 1
0x80002248: fe e7 9c e3 bne	a5, a4, -8
0x80002240: 00 b7 80 23 sb	a1, 0(a5)
0x80002244: 00 17 87 93 addi	a5, a5, 1
0x80002248: fe e7 9c e3 bne	a5, a4, -8
0x80002240: 00 b7 80 23 sb	a1, 0(a5)
0x80002244: 00 17 87 93 addi	a5, a5, 1
0x80002248: fe e7 9c e3 bne	a5, a4, -8
0x80002240: 00 b7 80 23 sb	a1, 0(a5)
0x80002244: 00 17 87 93 addi	a5, a5, 1
0x80002248: fe e7 9c e3 bne	a5, a4, -8
0x80002240: 00 b7 80 23 sb	a1, 0(a5)
0x80002244: 00 17 87 93 addi	a5, a5, 1
0x80002248: fe e7 9c e3 bne	a5, a4, -8
0x80002240: 00 b7 80 23 sb	a1, 0(a5)
0x80002244: 00 17 87 93 addi	a5, a5, 1
0x80002248: fe e7 9c e3 bne	a5, a4, -8
0x80002240: 00 b7 80 23 sb	a1, 0(a5)
0x80002244: 00 17 87 93 addi	a5, a5, 1
0x80002248: fe e7 9c e3 bne	a5, a4, -8
0x80002240: 00 b7 80 23 sb	a1, 0(a5)
0x80002244: 00 17 87 93 addi	a5, a5, 1
0x80002248: fe e7 9c e3 bne	a5, a4, -8
0x80002240: 00 b7 80 23 sb	a1, 0(a5)
0x80002244: 00 17 87 93 addi	a5, a5, 1
0x80002248: fe e7 9c e3 bne	a5, a4, -8
0x80002240: 00 b7 80 23 sb	a1, 0(a5)
0x80002244: 00 17 87 93 addi	a5, a5, 1
0x80002248: fe e7 9c e3 bne	a5, a4, -8
0x80002240: 00 b7 80 23 sb	a1, 0(a5)
0x80002244: 00 17 87 93 addi	a5, a5, 1
0x80002248: fe e7 9c e3 bne	a5, a4, -8
0x80002240: 00 b7 80 23 sb	a1, 0(a5)
0x80002244: 00 17 87 93 addi	a5, a5, 1
0x80002248: fe e7 9c e3 bne	a5, a4, -8
0x80002240: 00 b7 80 23 sb	a1, 0(a5)
0x80002244: 00 17 87 93 addi	a5, a5, 1
0x80002248: fe e7 9c e3 bne	a5, a4, -8
0x80002240: 00 b7 80 23 sb	a1, 0(a5)
0x80002244: 00 17 87 93 addi	a5, a5, 1
0x80002248: fe e7 9c e3 bne	a5, a4, -8
0x80002240: 00 b7 80 23 sb	a1, 0(a5)
0x80002244: 00 17 87 93 addi	a5, a5, 1
0x80002248: fe e7 9c e3 bne	a5, a4, -8
0x80002240: 00 b7 80 23 sb	a1, 0(a5)
0x80002244: 00 17 87 93 addi	a5, a5, 1
0x80002248: fe e7 9c e3 bne	a5, a4, -8
0x80002240: 00 b7 80 23 sb	a1, 0(a5)
0x80002244: 00 17 87 93 addi	a5, a5, 1
0x80002248: fe e7 9c e3 bne	a5, a4, -8
0x80002240: 00 b7 80 23 sb	a1, 0(a5)
0x80002244: 00 17 87 93 addi	a5, a5, 1
0x80002248: fe e7 9c e3 bne	a5, a4, -8
0x80002240: 00 b7 80 23 sb	a1, 0(a5)
0x80002244: 00 17 87 93 addi	a5, a5, 1
0x80002248: fe e7 9c e3 bne	a5, a4, -8
0x80002240: 00 b7 80 23 sb	a1, 0(a5)
0x80002244: 00 17 87 93 addi	a5, a5, 1
0x80002248: fe e7 9c e3 bne	a5, a4, -8
0x80002240: 00 b7 80 23 sb	a1, 0(a5)
0x80002244: 00 17 87 93 addi	a5, a5, 1
0x80002248: fe e7 9c e3 bne	a5, a4, -8
0x80002240: 00 b7 80 23 sb	a1, 0(a5)
0x80002244: 00 17 87 93 addi	a5, a5, 1
0x80002248: fe e7 9c e3 bne	a5, a4, -8
0x80002240: 00 b7 80 23 sb	a1, 0(a5)
0x80002244: 00 17 87 93 addi	a5, a5, 1
0x80002248: fe e7 9c e3 bne	a5, a4, -8
0x80002240: 00 b7 80 23 sb	a1, 0(a5)
0x80002244: 00 17 87 93 addi	a5, a5, 1
0x80002248: fe e7 9c e3 bne	a5, a4, -8
0x80002240: 00 b7 80 23 sb	a1, 0(a5)
0x80002244: 00 17 87 93 addi	a5, a5, 1
0x80002248: fe e7 9c e3 bne	a5, a4, -8
0x80002240: 00 b7 80 23 sb	a1, 0(a5)
0x80002244: 00 17 87 93 addi	a5, a5, 1
0x80002248: fe e7 9c e3 bne	a5, a4, -8
0x80002240: 00 b7 80 23 sb	a1, 0(a5)
0x80002244: 00 17 87 93 addi	a5, a5, 1
0x80002248: fe e7 9c e3 bne	a5, a4, -8
0x80002240: 00 b7 80 23 sb	a1, 0(a5)
0x80002244: 00 17 87 93 addi	a5, a5, 1
0x80002248: fe e7 9c e3 bne	a5, a4, -8
0x80002240: 00 b7 80 23 sb	a1, 0(a5)
0x80002244: 00 17 87 93 addi	a5, a5, 1
0x80002248: fe e7 9c e3 bne	a5, a4, -8
0x80002240: 00 b7 80 23 sb	a1, 0(a5)
0x80002244: 00 17 87 93 addi	a5, a5, 1
0x80002248: fe e7 9c e3 bne	a5, a4, -8
0x80002240: 00 b7 80 23 sb	a1, 0(a5)
0x80002244: 00 17 87 93 addi	a5, a5, 1
0x80002248: fe e7 9c e3 bne	a5, a4, -8
0x80002240: 00 b7 80 23 sb	a1, 0(a5)
0x80002244: 00 17 87 93 addi	a5, a5, 1
0x80002248: fe e7 9c e3 bne	a5, a4, -8
0x80002240: 00 b7 80 23 sb	a1, 0(a5)
0x80002244: 00 17 87 93 addi	a5, a5, 1
0x80002248: fe e7 9c e3 bne	a5, a4, -8
0x80002240: 00 b7 80 23 sb	a1, 0(a5)
0x80002244: 00 17 87 93 addi	a5, a5, 1
0x80002248: fe e7 9c e3 bne	a5, a4, -8
0x80002240: 00 b7 80 23 sb	a1, 0(a5)
0x80002244: 00 17 87 93 addi	a5, a5, 1
0x80002248: fe e7 9c e3 bne	a5, a4, -8
0x80002240: 00 b7 80 23 sb	a1, 0(a5)
0x80002244: 00 17 87 93 addi	a5, a5, 1
0x80002248: fe e7 9c e3 bne	a5, a4, -8
0x80002240: 00 b7 80 23 sb	a1, 0(a5)
0x80002244: 00 17 87 93 addi	a5, a5, 1
0x80002248: fe e7 9c e3 bne	a5, a4, -8
0x80002240: 00 b7 80 23 sb	a1, 0(a5)
0x80002244: 00 17 87 93 addi	a5, a5, 1
0x80002248: fe e7 9c e3 bne	a5, a4, -8
0x80002240: 00 b7 80 23 sb	a1, 0(a5)
0x80002244: 00 17 87 93 addi	a5, a5, 1
0x80002248: fe e7 9c e3 bne	a5, a4, -8
0x80002240: 00 b7 80 23 sb	a1, 0(a5)
0x80002244: 00 17 87 93 addi	a5, a5, 1
0x80002248: fe e7 9c e3 bne	a5, a4, -8
0x80002240: 00 b7 80 23 sb	a1, 0(a5)
0x80002244: 00 17 87 93 addi	a5, a5, 1
0x80002248: fe e7 9c e3 bne	a5, a4, -8
0x80002240: 00 b7 80 23 sb	a1, 0(a5)
0x80002244: 00 17 87 93 addi	a5, a5, 1
0x80002248: fe e7 9c e3 bne	a5, a4, -8
0x80002240: 00 b7 80 23 sb	a1, 0(a5)
0x80002244: 00 17 87 93 addi	a5, a5, 1
0x80002248: fe e7 9c e3 bne	a5, a4, -8
0x80002240: 00 b7 80 23 sb	a1, 0(a5)
0x80002244: 00 17 87 93 addi	a5, a5, 1
0x80002248: fe e7 9c e3 bne	a5, a4, -8
0x80002240: 00 b7 80 23 sb	a1, 0(a5)
0x80002244: 00 17 87 93 addi	a5, a5, 1
0x80002248: fe e7 9c e3 bne	a5, a4, -8
0x80002240: 00 b7 80 23 sb	a1, 0(a5)
0x80002244: 00 17 87 93 addi	a5, a5, 1
0x80002248: fe e7 9c e3 bne	a5, a4, -8
0x80002240: 00 b7 80 23 sb	a1, 0(a5)
0x80002244: 00 17 87 93 addi	a5, a5, 1
0x80002248: fe e7 9c e3 bne	a5, a4, -8
0x80002240: 00 b7 80 23 sb	a1, 0(a5)
0x80002244: 00 17 87 93 addi	a5, a5, 1
0x80002248: fe e7 9c e3 bne	a5, a4, -8
0x80002240: 00 b7 80 23 sb	a1, 0(a5)
0x80002244: 00 17 87 93 addi	a5, a5, 1
0x80002248: fe e7 9c e3 bne	a5, a4, -8
0x80002240: 00 b7 80 23 sb	a1, 0(a5)
0x80002244: 00 17 87 93 addi	a5, a5, 1
0x80002248: fe e7 9c e3 bne	a5, a4, -8
0x80002240: 00 b7 80 23 sb	a1, 0(a5)
0x80002244: 00 17 87 93 addi	a5, a5, 1
0x80002248: fe e7 9c e3 bne	a5, a4, -8
0x80002240: 00 b7 80 23 sb	a1, 0(a5)
0x80002244: 00 17 87 93 addi	a5, a5, 1
0x80002248: fe e7 9c e3 bne	a5, a4, -8
0x80002240: 00 b7 80 23 sb	a1, 0(a5)
0x80002244: 00 17 87 93 addi	a5, a5, 1
0x80002248: fe e7 9c e3 bne	a5, a4, -8
0x80002240: 00 b7 80 23 sb	a1, 0(a5)
0x80002244: 00 17 87 93 addi	a5, a5, 1
0x80002248: fe e7 9c e3 bne	a5, a4, -8
0x80002240: 00 b7 80 23 sb	a1, 0(a5)
0x80002244: 00 17 87 93 addi	a5, a5, 1
0x80002248: fe e7 9c e3 bne	a5, a4, -8
0x80002240: 00 b7 80 23 sb	a1, 0(a5)
0x80002244: 00 17 87 93 addi	a5, a5, 1
0x80002248: fe e7 9c e3 bne	a5, a4, -8
0x80002240: 00 b7 80 23 sb	a1, 0(a5)
0x80002244: 00 17 87 93 addi	a5, a5, 1
0x80002248: fe e7 9c e3 bne	a5, a4, -8
0x80002240: 00 b7 80 23 sb	a1, 0(a5)
0x80002244: 00 17 87 93 addi	a5, a5, 1
0x80002248: fe e7 9c e3 bne	a5, a4, -8
0x80002240: 00 b7 80 23 sb	a1, 0(a5)
0x80002244: 00 17 87 93 addi	a5, a5, 1
0x80002248: fe e7 9c e3 bne	a5, a4, -8
0x80002240: 00 b7 80 23 sb	a1, 0(a5)
0x80002244: 00 17 87 93 addi	a5, a5, 1
0x80002248: fe e7 9c e3 bne	a5, a4, -8
0x80002240: 00 b7 80 23 sb	a1, 0(a5)
0x80002244: 00 17 87 93 addi	a5, a5, 1
0x80002248: fe e7 9c e3 bne	a5, a4, -8
0x80002240: 00 b7 80 23 sb	a1, 0(a5)
0x80002244: 00 17 87 93 addi	a5, a5, 1
0x80002248: fe e7 9c e3 bne	a5, a4, -8
0x80002240: 00 b7 80 23 sb	a1, 0(a5)
0x80002244: 00 17 87 93 addi	a5, a5, 1
0x80002248: fe e7 9c e3 bne	a5, a4, -8
0x80002240: 00 b7 80 23 sb	a1, 0(a5)
0x80002244: 00 17 87 93 addi	a5, a5, 1
0x80002248: fe e7 9c e3 bne	a5, a4, -8
0x80002240: 00 b7 80 23 sb	a1, 0(a5)
0x80002244: 00 17 87 93 addi	a5, a5, 1
0x80002248: fe e7 9c e3 bne	a5, a4, -8
0x80002240: 00 b7 80 23 sb	a1, 0(a5)
0x80002244: 00 17 87 93 addi	a5, a5, 1
0x80002248: fe e7 9c e3 bne	a5, a4, -8
0x80002240: 00 b7 80 23 sb	a1, 0(a5)
0x80002244: 00 17 87 93 addi	a5, a5, 1
0x80002248: fe e7 9c e3 bne	a5, a4, -8
0x80002240: 00 b7 80 23 sb	a1, 0(a5)
0x80002244: 00 17 87 93 addi	a5, a5, 1
0x80002248: fe e7 9c e3 bne	a5, a4, -8
0x80002240: 00 b7 80 23 sb	a1, 0(a5)
0x80002244: 00 17 87 93 addi	a5, a5, 1
0x80002248: fe e7 9c e3 bne	a5, a4, -8
0x80002240: 00 b7 80 23 sb	a1, 0(a5)
0x80002244: 00 17 87 93 addi	a5, a5, 1
0x80002248: fe e7 9c e3 bne	a5, a4, -8
0x80002240: 00 b7 80 23 sb	a1, 0(a5)
0x80002244: 00 17 87 93 addi	a5, a5, 1
0x80002248: fe e7 9c e3 bne	a5, a4, -8
0x80002240: 00 b7 80 23 sb	a1, 0(a5)
0x80002244: 00 17 87 93 addi	a5, a5, 1
0x80002248: fe e7 9c e3 bne	a5, a4, -8
0x80002240: 00 b7 80 23 sb	a1, 0(a5)
0x80002244: 00 17 87 93 addi	a5, a5, 1
0x80002248: fe e7 9c e3 bne	a5, a4, -8
0x80002240: 00 b7 80 23 sb	a1, 0(a5)
0x80002244: 00 17 87 93 addi	a5, a5, 1
0x80002248: fe e7 9c e3 bne	a5, a4, -8
0x80002240: 00 b7 80 23 sb	a1, 0(a5)
0x80002244: 00 17 87 93 addi	a5, a5, 1
0x80002248: fe e7 9c e3 bne	a5, a4, -8
0x80002240: 00 b7 80 23 sb	a1, 0(a5)
0x80002244: 00 17 87 93 addi	a5, a5, 1
0x80002248: fe e7 9c e3 bne	a5, a4, -8
0x80002240: 00 b7 80 23 sb	a1, 0(a5)
0x80002244: 00 17 87 93 addi	a5, a5, 1
0x80002248: fe e7 9c e3 bne	a5, a4, -8
0x80002240: 00 b7 80 23 sb	a1, 0(a5)
0x80002244: 00 17 87 93 addi	a5, a5, 1
0x80002248: fe e7 9c e3 bne	a5, a4, -8
0x80002240: 00 b7 80 23 sb	a1, 0(a5)
0x80002244: 00 17 87 93 addi	a5, a5, 1
0x80002248: fe e7 9c e3 bne	a5, a4, -8
0x80002240: 00 b7 80 23 sb	a1, 0(a5)
0x80002244: 00 17 87 93 addi	a5, a5, 1
0x80002248: fe e7 9c e3 bne	a5, a4, -8
0x80002240: 00 b7 80 23 sb	a1, 0(a5)
0x80002244: 00 17 87 93 addi	a5, a5, 1
0x80002248: fe e7 9c e3 bne	a5, a4, -8
0x80002240: 00 b7 80 23 sb	a1, 0(a5)
0x80002244: 00 17 87 93 addi	a5, a5, 1
0x80002248: fe e7 9c e3 bne	a5, a4, -8
0x80002240: 00 b7 80 23 sb	a1, 0(a5)
0x80002244: 00 17 87 93 addi	a5, a5, 1
0x80002248: fe e7 9c e3 bne	a5, a4, -8
0x80002240: 00 b7 80 23 sb	a1, 0(a5)
0x80002244: 00 17 87 93 addi	a5, a5, 1
0x80002248: fe e7 9c e3 bne	a5, a4, -8
0x80002240: 00 b7 80 23 sb	a1, 0(a5)
0x80002244: 00 17 87 93 addi	a5, a5, 1
0x80002248: fe e7 9c e3 bne	a5, a4, -8
0x80002240: 00 b7 80 23 sb	a1, 0(a5)
0x80002244: 00 17 87 93 addi	a5, a5, 1
0x80002248: fe e7 9c e3 bne	a5, a4, -8
0x80002240: 00 b7 80 23 sb	a1, 0(a5)
0x80002244: 00 17 87 93 addi	a5, a5, 1
0x80002248: fe e7 9c e3 bne	a5, a4, -8
0x80002240: 00 b7 80 23 sb	a1, 0(a5)
0x80002244: 00 17 87 93 addi	a5, a5, 1
0x80002248: fe e7 9c e3 bne	a5, a4, -8
0x80002240: 00 b7 80 23 sb	a1, 0(a5)
0x80002244: 00 17 87 93 addi	a5, a5, 1
0x80002248: fe e7 9c e3 bne	a5, a4, -8
0x80002240: 00 b7 80 23 sb	a1, 0(a5)
0x80002244: 00 17 87 93 addi	a5, a5, 1
0x80002248: fe e7 9c e3 bne	a5, a4, -8
0x80002240: 00 b7 80 23 sb	a1, 0(a5)
0x80002244: 00 17 87 93 addi	a5, a5, 1
0x80002248: fe e7 9c e3 bne	a5, a4, -8
0x80002240: 00 b7 80 23 sb	a1, 0(a5)
0x80002244: 00 17 87 93 addi	a5, a5, 1
0x80002248: fe e7 9c e3 bne	a5, a4, -8
0x80002240: 00 b7 80 23 sb	a1, 0(a5)
0x80002244: 00 17 87 93 addi	a5, a5, 1
0x80002248: fe e7 9c e3 bne	a5, a4, -8
0x80002240: 00 b7 80 23 sb	a1, 0(a5)
0x80002244: 00 17 87 93 addi	a5, a5, 1
0x80002248: fe e7 9c e3 bne	a5, a4, -8
0x80002240: 00 b7 80 23 sb	a1, 0(a5)
0x80002244: 00 17 87 93 addi	a5, a5, 1
0x80002248: fe e7 9c e3 bne	a5, a4, -8
0x80002240: 00 b7 80 23 sb	a1, 0(a5)
0x80002244: 00 17 87 93 addi	a5, a5, 1
0x80002248: fe e7 9c e3 bne	a5, a4, -8
0x80002240: 00 b7 80 23 sb	a1, 0(a5)
0x80002244: 00 17 87 93 addi	a5, a5, 1
0x80002248: fe e7 9c e3 bne	a5, a4, -8
0x80002240: 00 b7 80 23 sb	a1, 0(a5)
0x80002244: 00 17 87 93 addi	a5, a5, 1
0x80002248: fe e7 9c e3 bne	a5, a4, -8
0x80002240: 00 b7 80 23 sb	a1, 0(a5)
0x80002244: 00 17 87 93 addi	a5, a5, 1
0x80002248: fe e7 9c e3 bne	a5, a4, -8
0x80002240: 00 b7 80 23 sb	a1, 0(a5)
0x80002244: 00 17 87 93 addi	a5, a5, 1
0x80002248: fe e7 9c e3 bne	a5, a4, -8
0x80002240: 00 b7 80 23 sb	a1, 0(a5)
0x80002244: 00 17 87 93 addi	a5, a5, 1
0x80002248: fe e7 9c e3 bne	a5, a4, -8
0x80002240: 00 b7 80 23 sb	a1, 0(a5)
0x80002244: 00 17 87 93 addi	a5, a5, 1
0x80002248: fe e7 9c e3 bne	a5, a4, -8
0x80002240: 00 b7 80 23 sb	a1, 0(a5)
0x80002244: 00 17 87 93 addi	a5, a5, 1
0x80002248: fe e7 9c e3 bne	a5, a4, -8
0x80002240: 00 b7 80 23 sb	a1, 0(a5)
0x80002244: 00 17 87 93 addi	a5, a5, 1
0x80002248: fe e7 9c e3 bne	a5, a4, -8
0x80002240: 00 b7 80 23 sb	a1, 0(a5)
0x80002244: 00 17 87 93 addi	a5, a5, 1
0x80002248: fe e7 9c e3 bne	a5, a4, -8
0x80002240: 00 b7 80 23 sb	a1, 0(a5)
0x80002244: 00 17 87 93 addi	a5, a5, 1
0x80002248: fe e7 9c e3 bne	a5, a4, -8
0x80002240: 00 b7 80 23 sb	a1, 0(a5)
0x80002244: 00 17 87 93 addi	a5, a5, 1
0x80002248: fe e7 9c e3 bne	a5, a4, -8
0x80002240: 00 b7 80 23 sb	a1, 0(a5)
0x80002244: 00 17 87 93 addi	a5, a5, 1
0x80002248: fe e7 9c e3 bne	a5, a4, -8
0x80002240: 00 b7 80 23 sb	a1, 0(a5)
0x80002244: 00 17 87 93 addi	a5, a5, 1
0x80002248: fe e7 9c e3 bne	a5, a4, -8
0x80002240: 00 b7 80 23 sb	a1, 0(a5)
0x80002244: 00 17 87 93 addi	a5, a5, 1
0x80002248: fe e7 9c e3 bne	a5, a4, -8
0x80002240: 00 b7 80 23 sb	a1, 0(a5)
0x80002244: 00 17 87 93 addi	a5, a5, 1
0x80002248: fe e7 9c e3 bne	a5, a4, -8
0x80002240: 00 b7 80 23 sb	a1, 0(a5)
0x80002244: 00 17 87 93 addi	a5, a5, 1
0x80002248: fe e7 9c e3 bne	a5, a4, -8
0x80002240: 00 b7 80 23 sb	a1, 0(a5)
0x80002244: 00 17 87 93 addi	a5, a5, 1
0x80002248: fe e7 9c e3 bne	a5, a4, -8
0x80002240: 00 b7 80 23 sb	a1, 0(a5)
0x80002244: 00 17 87 93 addi	a5, a5, 1
0x80002248: fe e7 9c e3 bne	a5, a4, -8
0x80002240: 00 b7 80 23 sb	a1, 0(a5)
0x80002244: 00 17 87 93 addi	a5, a5, 1
0x80002248: fe e7 9c e3 bne	a5, a4, -8
0x80002240: 00 b7 80 23 sb	a1, 0(a5)
0x80002244: 00 17 87 93 addi	a5, a5, 1
0x80002248: fe e7 9c e3 bne	a5, a4, -8
0x80002240: 00 b7 80 23 sb	a1, 0(a5)
0x80002244: 00 17 87 93 addi	a5, a5, 1
0x80002248: fe e7 9c e3 bne	a5, a4, -8
0x80002240: 00 b7 80 23 sb	a1, 0(a5)
0x80002244: 00 17 87 93 addi	a5, a5, 1
0x80002248: fe e7 9c e3 bne	a5, a4, -8
0x80002240: 00 b7 80 23 sb	a1, 0(a5)
0x80002244: 00 17 87 93 addi	a5, a5, 1
0x80002248: fe e7 9c e3 bne	a5, a4, -8
0x80002240: 00 b7 80 23 sb	a1, 0(a5)
0x80002244: 00 17 87 93 addi	a5, a5, 1
0x80002248: fe e7 9c e3 bne	a5, a4, -8
0x80002240: 00 b7 80 23 sb	a1, 0(a5)
0x80002244: 00 17 87 93 addi	a5, a5, 1
0x80002248: fe e7 9c e3 bne	a5, a4, -8
0x80002240: 00 b7 80 23 sb	a1, 0(a5)
0x80002244: 00 17 87 93 addi	a5, a5, 1
0x80002248: fe e7 9c e3 bne	a5, a4, -8
0x80002240: 00 b7 80 23 sb	a1, 0(a5)
0x80002244: 00 17 87 93 addi	a5, a5, 1
0x80002248: fe e7 9c e3 bne	a5, a4, -8
0x80002240: 00 b7 80 23 sb	a1, 0(a5)
0x80002244: 00 17 87 93 addi	a5, a5, 1
0x80002248: fe e7 9c e3 bne	a5, a4, -8
0x80002240: 00 b7 80 23 sb	a1, 0(a5)
0x80002244: 00 17 87 93 addi	a5, a5, 1
0x80002248: fe e7 9c e3 bne	a5, a4, -8
0x80002240: 00 b7 80 23 sb	a1, 0(a5)
0x80002244: 00 17 87 93 addi	a5, a5, 1
0x80002248: fe e7 9c e3 bne	a5, a4, -8
0x80002240: 00 b7 80 23 sb	a1, 0(a5)
0x80002244: 00 17 87 93 addi	a5, a5, 1
0x80002248: fe e7 9c e3 bne	a5, a4, -8
0x80002240: 00 b7 80 23 sb	a1, 0(a5)
0x80002244: 00 17 87 93 addi	a5, a5, 1
0x80002248: fe e7 9c e3 bne	a5, a4, -8
0x80002240: 00 b7 80 23 sb	a1, 0(a5)
0x80002244: 00 17 87 93 addi	a5, a5, 1
0x80002248: fe e7 9c e3 bne	a5, a4, -8
0x80002240: 00 b7 80 23 sb	a1, 0(a5)
0x80002244: 00 17 87 93 addi	a5, a5, 1
0x80002248: fe e7 9c e3 bne	a5, a4, -8
0x80002240: 00 b7 80 23 sb	a1, 0(a5)
0x80002244: 00 17 87 93 addi	a5, a5, 1
0x80002248: fe e7 9c e3 bne	a5, a4, -8
0x80002240: 00 b7 80 23 sb	a1, 0(a5)
0x80002244: 00 17 87 93 addi	a5, a5, 1
0x80002248: fe e7 9c e3 bne	a5, a4, -8
0x80002240: 00 b7 80 23 sb	a1, 0(a5)
0x80002244: 00 17 87 93 addi	a5, a5, 1
0x80002248: fe e7 9c e3 bne	a5, a4, -8
0x80002240: 00 b7 80 23 sb	a1, 0(a5)
0x80002244: 00 17 87 93 addi	a5, a5, 1
0x80002248: fe e7 9c e3 bne	a5, a4, -8
0x80002240: 00 b7 80 23 sb	a1, 0(a5)
0x80002244: 00 17 87 93 addi	a5, a5, 1
0x80002248: fe e7 9c e3 bne	a5, a4, -8
0x80002240: 00 b7 80 23 sb	a1, 0(a5)
0x80002244: 00 17 87 93 addi	a5, a5, 1
0x80002248: fe e7 9c e3 bne	a5, a4, -8
0x80002240: 00 b7 80 23 sb	a1, 0(a5)
0x80002244: 00 17 87 93 addi	a5, a5, 1
0x80002248: fe e7 9c e3 bne	a5, a4, -8
0x80002240: 00 b7 80 23 sb	a1, 0(a5)
0x80002244: 00 17 87 93 addi	a5, a5, 1
0x80002248: fe e7 9c e3 bne	a5, a4, -8
0x80002240: 00 b7 80 23 sb	a1, 0(a5)
0x80002244: 00 17 87 93 addi	a5, a5, 1
0x80002248: fe e7 9c e3 bne	a5, a4, -8
0x80002240: 00 b7 80 23 sb	a1, 0(a5)
0x80002244: 00 17 87 93 addi	a5, a5, 1
0x80002248: fe e7 9c e3 bne	a5, a4, -8
0x80002240: 00 b7 80 23 sb	a1, 0(a5)
0x80002244: 00 17 87 93 addi	a5, a5, 1
0x80002248: fe e7 9c e3 bne	a5, a4, -8
0x80002240: 00 b7 80 23 sb	a1, 0(a5)
0x80002244: 00 17 87 93 addi	a5, a5, 1
0x80002248: fe e7 9c e3 bne	a5, a4, -8
0x80002240: 00 b7 80 23 sb	a1, 0(a5)
0x80002244: 00 17 87 93 addi	a5, a5, 1
0x80002248: fe e7 9c e3 bne	a5, a4, -8
0x80002240: 00 b7 80 23 sb	a1, 0(a5)
0x80002244: 00 17 87 93 addi	a5, a5, 1
0x80002248: fe e7 9c e3 bne	a5, a4, -8
0x80002240: 00 b7 80 23 sb	a1, 0(a5)
0x80002244: 00 17 87 93 addi	a5, a5, 1
0x80002248: fe e7 9c e3 bne	a5, a4, -8
0x80002240: 00 b7 80 23 sb	a1, 0(a5)
0x80002244: 00 17 87 93 addi	a5, a5, 1
0x80002248: fe e7 9c e3 bne	a5, a4, -8
0x80002240: 00 b7 80 23 sb	a1, 0(a5)
0x80002244: 00 17 87 93 addi	a5, a5, 1
0x80002248: fe e7 9c e3 bne	a5, a4, -8
0x80002240: 00 b7 80 23 sb	a1, 0(a5)
0x80002244: 00 17 87 93 addi	a5, a5, 1
0x80002248: fe e7 9c e3 bne	a5, a4, -8
0x80002240: 00 b7 80 23 sb	a1, 0(a5)
0x80002244: 00 17 87 93 addi	a5, a5, 1
0x80002248: fe e7 9c e3 bne	a5, a4, -8
0x80002240: 00 b7 80 23 sb	a1, 0(a5)
0x80002244: 00 17 87 93 addi	a5, a5, 1
0x80002248: fe e7 9c e3 bne	a5, a4, -8
0x80002240: 00 b7 80 23 sb	a1, 0(a5)
0x80002244: 00 17 87 93 addi	a5, a5, 1
0x80002248: fe e7 9c e3 bne	a5, a4, -8
0x80002240: 00 b7 80 23 sb	a1, 0(a5)
0x80002244: 00 17 87 93 addi	a5, a5, 1
0x80002248: fe e7 9c e3 bne	a5, a4, -8
0x80002240: 00 b7 80 23 sb	a1, 0(a5)
0x80002244: 00 17 87 93 addi	a5, a5, 1
0x80002248: fe e7 9c e3 bne	a5, a4, -8
0x80002240: 00 b7 80 23 sb	a1, 0(a5)
0x80002244: 00 17 87 93 addi	a5, a5, 1
0x80002248: fe e7 9c e3 bne	a5, a4, -8
0x80002240: 00 b7 80 23 sb	a1, 0(a5)
0x80002244: 00 17 87 93 addi	a5, a5, 1
0x80002248: fe e7 9c e3 bne	a5, a4, -8
0x80002240: 00 b7 80 23 sb	a1, 0(a5)
0x80002244: 00 17 87 93 addi	a5, a5, 1
0x80002248: fe e7 9c e3 bne	a5, a4, -8
0x80002240: 00 b7 80 23 sb	a1, 0(a5)
0x80002244: 00 17 87 93 addi	a5, a5, 1
0x80002248: fe e7 9c e3 bne	a5, a4, -8
0x80002240: 00 b7 80 23 sb	a1, 0(a5)
0x80002244: 00 17 87 93 addi	a5, a5, 1
0x80002248: fe e7 9c e3 bne	a5, a4, -8
0x80002240: 00 b7 80 23 sb	a1, 0(a5)
0x80002244: 00 17 87 93 addi	a5, a5, 1
0x80002248: fe e7 9c e3 bne	a5, a4, -8
0x80002240: 00 b7 80 23 sb	a1, 0(a5)
0x80002244: 00 17 87 93 addi	a5, a5, 1
0x80002248: fe e7 9c e3 bne	a5, a4, -8
0x80002240: 00 b7 80 23 sb	a1, 0(a5)
0x80002244: 00 17 87 93 addi	a5, a5, 1
0x80002248: fe e7 9c e3 bne	a5, a4, -8
0x80002240: 00 b7 80 23 sb	a1, 0(a5)
0x80002244: 00 17 87 93 addi	a5, a5, 1
0x80002248: fe e7 9c e3 bne	a5, a4, -8
0x80002240: 00 b7 80 23 sb	a1, 0(a5)
0x80002244: 00 17 87 93 addi	a5, a5, 1
0x80002248: fe e7 9c e3 bne	a5, a4, -8
0x80002240: 00 b7 80 23 sb	a1, 0(a5)
0x80002244: 00 17 87 93 addi	a5, a5, 1
0x80002248: fe e7 9c e3 bne	a5, a4, -8
0x80002240: 00 b7 80 23 sb	a1, 0(a5)
0x80002244: 00 17 87 93 addi	a5, a5, 1
0x80002248: fe e7 9c e3 bne	a5, a4, -8
0x80002240: 00 b7 80 23 sb	a1, 0(a5)
0x80002244: 00 17 87 93 addi	a5, a5, 1
0x80002248: fe e7 9c e3 bne	a5, a4, -8
0x80002240: 00 b7 80 23 sb	a1, 0(a5)
0x80002244: 00 17 87 93 addi	a5, a5, 1
0x80002248: fe e7 9c e3 bne	a5, a4, -8
0x80002240: 00 b7 80 23 sb	a1, 0(a5)
0x80002244: 00 17 87 93 addi	a5, a5, 1
0x80002248: fe e7 9c e3 bne	a5, a4, -8
0x80002240: 00 b7 80 23 sb	a1, 0(a5)
0x80002244: 00 17 87 93 addi	a5, a5, 1
0x80002248: fe e7 9c e3 bne	a5, a4, -8
0x80002240: 00 b7 80 23 sb	a1, 0(a5)
0x80002244: 00 17 87 93 addi	a5, a5, 1
0x80002248: fe e7 9c e3 bne	a5, a4, -8
0x80002240: 00 b7 80 23 sb	a1, 0(a5)
0x80002244: 00 17 87 93 addi	a5, a5, 1
0x80002248: fe e7 9c e3 bne	a5, a4, -8
0x80002240: 00 b7 80 23 sb	a1, 0(a5)
0x80002244: 00 17 87 93 addi	a5, a5, 1
0x80002248: fe e7 9c e3 bne	a5, a4, -8
0x80002240: 00 b7 80 23 sb	a1, 0(a5)
0x80002244: 00 17 87 93 addi	a5, a5, 1
0x80002248: fe e7 9c e3 bne	a5, a4, -8
0x80002240: 00 b7 80 23 sb	a1, 0(a5)
0x80002244: 00 17 87 93 addi	a5, a5, 1
0x80002248: fe e7 9c e3 bne	a5, a4, -8
0x80002240: 00 b7 80 23 sb	a1, 0(a5)
0x80002244: 00 17 87 93 addi	a5, a5, 1
0x80002248: fe e7 9c e3 bne	a5, a4, -8
0x80002240: 00 b7 80 23 sb	a1, 0(a5)
0x80002244: 00 17 87 93 addi	a5, a5, 1
0x80002248: fe e7 9c e3 bne	a5, a4, -8
0x80002240: 00 b7 80 23 sb	a1, 0(a5)
0x80002244: 00 17 87 93 addi	a5, a5, 1
0x80002248: fe e7 9c e3 bne	a5, a4, -8
0x80002240: 00 b7 80 23 sb	a1, 0(a5)
0x80002244: 00 17 87 93 addi	a5, a5, 1
0x80002248: fe e7 9c e3 bne	a5, a4, -8
0x80002240: 00 b7 80 23 sb	a1, 0(a5)
0x80002244: 00 17 87 93 addi	a5, a5, 1
0x80002248: fe e7 9c e3 bne	a5, a4, -8
0x80002240: 00 b7 80 23 sb	a1, 0(a5)
0x80002244: 00 17 87 93 addi	a5, a5, 1
0x80002248: fe e7 9c e3 bne	a5, a4, -8
0x80002240: 00 b7 80 23 sb	a1, 0(a5)
0x80002244: 00 17 87 93 addi	a5, a5, 1
0x80002248: fe e7 9c e3 bne	a5, a4, -8
0x80002240: 00 b7 80 23 sb	a1, 0(a5)
0x80002244: 00 17 87 93 addi	a5, a5, 1
0x80002248: fe e7 9c e3 bne	a5, a4, -8
0x80002240: 00 b7 80 23 sb	a1, 0(a5)
0x80002244: 00 17 87 93 addi	a5, a5, 1
0x80002248: fe e7 9c e3 bne	a5, a4, -8
0x80002240: 00 b7 80 23 sb	a1, 0(a5)
0x80002244: 00 17 87 93 addi	a5, a5, 1
0x80002248: fe e7 9c e3 bne	a5, a4, -8
0x80002240: 00 b7 80 23 sb	a1, 0(a5)
0x80002244: 00 17 87 93 addi	a5, a5, 1
0x80002248: fe e7 9c e3 bne	a5, a4, -8
0x80002240: 00 b7 80 23 sb	a1, 0(a5)
0x80002244: 00 17 87 93 addi	a5, a5, 1
0x80002248: fe e7 9c e3 bne	a5, a4, -8
0x80002240: 00 b7 80 23 sb	a1, 0(a5)
0x80002244: 00 17 87 93 addi	a5, a5, 1
0x80002248: fe e7 9c e3 bne	a5, a4, -8
0x80002240: 00 b7 80 23 sb	a1, 0(a5)
0x80002244: 00 17 87 93 addi	a5, a5, 1
0x80002248: fe e7 9c e3 bne	a5, a4, -8
0x80002240: 00 b7 80 23 sb	a1, 0(a5)
0x80002244: 00 17 87 93 addi	a5, a5, 1
0x80002248: fe e7 9c e3 bne	a5, a4, -8
0x80002240: 00 b7 80 23 sb	a1, 0(a5)
0x80002244: 00 17 87 93 addi	a5, a5, 1
0x80002248: fe e7 9c e3 bne	a5, a4, -8
0x80002240: 00 b7 80 23 sb	a1, 0(a5)
0x80002244: 00 17 87 93 addi	a5, a5, 1
0x80002248: fe e7 9c e3 bne	a5, a4, -8
0x80002240: 00 b7 80 23 sb	a1, 0(a5)
0x80002244: 00 17 87 93 addi	a5, a5, 1
0x80002248: fe e7 9c e3 bne	a5, a4, -8
0x80002240: 00 b7 80 23 sb	a1, 0(a5)
0x80002244: 00 17 87 93 addi	a5, a5, 1
0x80002248: fe e7 9c e3 bne	a5, a4, -8
0x80002240: 00 b7 80 23 sb	a1, 0(a5)
0x80002244: 00 17 87 93 addi	a5, a5, 1
0x80002248: fe e7 9c e3 bne	a5, a4, -8
0x80002240: 00 b7 80 23 sb	a1, 0(a5)
0x80002244: 00 17 87 93 addi	a5, a5, 1
0x80002248: fe e7 9c e3 bne	a5, a4, -8
0x80002240: 00 b7 80 23 sb	a1, 0(a5)
0x80002244: 00 17 87 93 addi	a5, a5, 1
0x80002248: fe e7 9c e3 bne	a5, a4, -8
0x80002240: 00 b7 80 23 sb	a1, 0(a5)
0x80002244: 00 17 87 93 addi	a5, a5, 1
0x80002248: fe e7 9c e3 bne	a5, a4, -8
0x80002240: 00 b7 80 23 sb	a1, 0(a5)
0x80002244: 00 17 87 93 addi	a5, a5, 1
0x80002248: fe e7 9c e3 bne	a5, a4, -8
0x80002240: 00 b7 80 23 sb	a1, 0(a5)
0x80002244: 00 17 87 93 addi	a5, a5, 1
0x80002248: fe e7 9c e3 bne	a5, a4, -8
0x80002240: 00 b7 80 23 sb	a1, 0(a5)
0x80002244: 00 17 87 93 addi	a5, a5, 1
0x80002248: fe e7 9c e3 bne	a5, a4, -8
0x80002240: 00 b7 80 23 sb	a1, 0(a5)
0x80002244: 00 17 87 93 addi	a5, a5, 1
0x80002248: fe e7 9c e3 bne	a5, a4, -8
0x80002240: 00 b7 80 23 sb	a1, 0(a5)
0x80002244: 00 17 87 93 addi	a5, a5, 1
0x80002248: fe e7 9c e3 bne	a5, a4, -8
0x80002240: 00 b7 80 23 sb	a1, 0(a5)
0x80002244: 00 17 87 93 addi	a5, a5, 1
0x80002248: fe e7 9c e3 bne	a5, a4, -8
0x80002240: 00 b7 80 23 sb	a1, 0(a5)
0x80002244: 00 17 87 93 addi	a5, a5, 1
0x80002248: fe e7 9c e3 bne	a5, a4, -8
0x80002240: 00 b7 80 23 sb	a1, 0(a5)
0x80002244: 00 17 87 93 addi	a5, a5, 1
0x80002248: fe e7 9c e3 bne	a5, a4, -8
0x80002240: 00 b7 80 23 sb	a1, 0(a5)
0x80002244: 00 17 87 93 addi	a5, a5, 1
0x80002248: fe e7 9c e3 bne	a5, a4, -8
0x80002240: 00 b7 80 23 sb	a1, 0(a5)
0x80002244: 00 17 87 93 addi	a5, a5, 1
0x80002248: fe e7 9c e3 bne	a5, a4, -8
0x80002240: 00 b7 80 23 sb	a1, 0(a5)
0x80002244: 00 17 87 93 addi	a5, a5, 1
0x80002248: fe e7 9c e3 bne	a5, a4, -8
0x80002240: 00 b7 80 23 sb	a1, 0(a5)
0x80002244: 00 17 87 93 addi	a5, a5, 1
0x80002248: fe e7 9c e3 bne	a5, a4, -8
0x80002240: 00 b7 80 23 sb	a1, 0(a5)
0x80002244: 00 17 87 93 addi	a5, a5, 1
0x80002248: fe e7 9c e3 bne	a5, a4, -8
0x80002240: 00 b7 80 23 sb	a1, 0(a5)
0x80002244: 00 17 87 93 addi	a5, a5, 1
0x80002248: fe e7 9c e3 bne	a5, a4, -8
0x80002240: 00 b7 80 23 sb	a1, 0(a5)
0x80002244: 00 17 87 93 addi	a5, a5, 1
0x80002248: fe e7 9c e3 bne	a5, a4, -8
0x80002240: 00 b7 80 23 sb	a1, 0(a5)
0x80002244: 00 17 87 93 addi	a5, a5, 1
0x80002248: fe e7 9c e3 bne	a5, a4, -8
0x80002240: 00 b7 80 23 sb	a1, 0(a5)
0x80002244: 00 17 87 93 addi	a5, a5, 1
0x80002248: fe e7 9c e3 bne	a5, a4, -8
0x80002240: 00 b7 80 23 sb	a1, 0(a5)
0x80002244: 00 17 87 93 addi	a5, a5, 1
0x80002248: fe e7 9c e3 bne	a5, a4, -8
0x80002240: 00 b7 80 23 sb	a1, 0(a5)
0x80002244: 00 17 87 93 addi	a5, a5, 1
0x80002248: fe e7 9c e3 bne	a5, a4, -8
0x80002240: 00 b7 80 23 sb	a1, 0(a5)
0x80002244: 00 17 87 93 addi	a5, a5, 1
0x80002248: fe e7 9c e3 bne	a5, a4, -8
0x80002240: 00 b7 80 23 sb	a1, 0(a5)
0x80002244: 00 17 87 93 addi	a5, a5, 1
0x80002248: fe e7 9c e3 bne	a5, a4, -8
0x80002240: 00 b7 80 23 sb	a1, 0(a5)
0x80002244: 00 17 87 93 addi	a5, a5, 1
0x80002248: fe e7 9c e3 bne	a5, a4, -8
0x80002240: 00 b7 80 23 sb	a1, 0(a5)
0x80002244: 00 17 87 93 addi	a5, a5, 1
0x80002248: fe e7 9c e3 bne	a5, a4, -8
0x80002240: 00 b7 80 23 sb	a1, 0(a5)
0x80002244: 00 17 87 93 addi	a5, a5, 1
0x80002248: fe e7 9c e3 bne	a5, a4, -8
0x80002240: 00 b7 80 23 sb	a1, 0(a5)
0x80002244: 00 17 87 93 addi	a5, a5, 1
0x80002248: fe e7 9c e3 bne	a5, a4, -8
0x80002240: 00 b7 80 23 sb	a1, 0(a5)
0x80002244: 00 17 87 93 addi	a5, a5, 1
0x80002248: fe e7 9c e3 bne	a5, a4, -8
0x80002240: 00 b7 80 23 sb	a1, 0(a5)
0x80002244: 00 17 87 93 addi	a5, a5, 1
0x80002248: fe e7 9c e3 bne	a5, a4, -8
0x80002240: 00 b7 80 23 sb	a1, 0(a5)
0x80002244: 00 17 87 93 addi	a5, a5, 1
0x80002248: fe e7 9c e3 bne	a5, a4, -8
0x80002240: 00 b7 80 23 sb	a1, 0(a5)
0x80002244: 00 17 87 93 addi	a5, a5, 1
0x80002248: fe e7 9c e3 bne	a5, a4, -8
0x80002240: 00 b7 80 23 sb	a1, 0(a5)
0x80002244: 00 17 87 93 addi	a5, a5, 1
0x80002248: fe e7 9c e3 bne	a5, a4, -8
0x80002240: 00 b7 80 23 sb	a1, 0(a5)
0x80002244: 00 17 87 93 addi	a5, a5, 1
0x80002248: fe e7 9c e3 bne	a5, a4, -8
0x80002240: 00 b7 80 23 sb	a1, 0(a5)
0x80002244: 00 17 87 93 addi	a5, a5, 1
0x80002248: fe e7 9c e3 bne	a5, a4, -8
0x80002240: 00 b7 80 23 sb	a1, 0(a5)
0x80002244: 00 17 87 93 addi	a5, a5, 1
0x80002248: fe e7 9c e3 bne	a5, a4, -8
0x80002240: 00 b7 80 23 sb	a1, 0(a5)
0x80002244: 00 17 87 93 addi	a5, a5, 1
0x80002248: fe e7 9c e3 bne	a5, a4, -8
0x80002240: 00 b7 80 23 sb	a1, 0(a5)
0x80002244: 00 17 87 93 addi	a5, a5, 1
0x80002248: fe e7 9c e3 bne	a5, a4, -8
0x80002240: 00 b7 80 23 sb	a1, 0(a5)
0x80002244: 00 17 87 93 addi	a5, a5, 1
0x80002248: fe e7 9c e3 bne	a5, a4, -8
0x80002240: 00 b7 80 23 sb	a1, 0(a5)
0x80002244: 00 17 87 93 addi	a5, a5, 1
0x80002248: fe e7 9c e3 bne	a5, a4, -8
0x80002240: 00 b7 80 23 sb	a1, 0(a5)
0x80002244: 00 17 87 93 addi	a5, a5, 1
0x80002248: fe e7 9c e3 bne	a5, a4, -8
0x80002240: 00 b7 80 23 sb	a1, 0(a5)
0x80002244: 00 17 87 93 addi	a5, a5, 1
0x80002248: fe e7 9c e3 bne	a5, a4, -8
0x80002240: 00 b7 80 23 sb	a1, 0(a5)
0x80002244: 00 17 87 93 addi	a5, a5, 1
0x80002248: fe e7 9c e3 bne	a5, a4, -8
0x80002240: 00 b7 80 23 sb	a1, 0(a5)
0x80002244: 00 17 87 93 addi	a5, a5, 1
0x80002248: fe e7 9c e3 bne	a5, a4, -8
0x80002240: 00 b7 80 23 sb	a1, 0(a5)
0x80002244: 00 17 87 93 addi	a5, a5, 1
0x80002248: fe e7 9c e3 bne	a5, a4, -8
0x80002240: 00 b7 80 23 sb	a1, 0(a5)
0x80002244: 00 17 87 93 addi	a5, a5, 1
0x80002248: fe e7 9c e3 bne	a5, a4, -8
0x80002240: 00 b7 80 23 sb	a1, 0(a5)
0x80002244: 00 17 87 93 addi	a5, a5, 1
0x80002248: fe e7 9c e3 bne	a5, a4, -8
0x80002240: 00 b7 80 23 sb	a1, 0(a5)
0x80002244: 00 17 87 93 addi	a5, a5, 1
0x80002248: fe e7 9c e3 bne	a5, a4, -8
0x80002240: 00 b7 80 23 sb	a1, 0(a5)
0x80002244: 00 17 87 93 addi	a5, a5, 1
0x80002248: fe e7 9c e3 bne	a5, a4, -8
0x80002240: 00 b7 80 23 sb	a1, 0(a5)
0x80002244: 00 17 87 93 addi	a5, a5, 1
0x80002248: fe e7 9c e3 bne	a5, a4, -8
0x80002240: 00 b7 80 23 sb	a1, 0(a5)
0x80002244: 00 17 87 93 addi	a5, a5, 1
0x80002248: fe e7 9c e3 bne	a5, a4, -8
0x80002240: 00 b7 80 23 sb	a1, 0(a5)
0x80002244: 00 17 87 93 addi	a5, a5, 1
0x80002248: fe e7 9c e3 bne	a5, a4, -8
0x80002240: 00 b7 80 23 sb	a1, 0(a5)
0x80002244: 00 17 87 93 addi	a5, a5, 1
0x80002248: fe e7 9c e3 bne	a5, a4, -8
0x80002240: 00 b7 80 23 sb	a1, 0(a5)
0x80002244: 00 17 87 93 addi	a5, a5, 1
0x80002248: fe e7 9c e3 bne	a5, a4, -8
0x80002240: 00 b7 80 23 sb	a1, 0(a5)
0x80002244: 00 17 87 93 addi	a5, a5, 1
0x80002248: fe e7 9c e3 bne	a5, a4, -8
0x80002240: 00 b7 80 23 sb	a1, 0(a5)
0x80002244: 00 17 87 93 addi	a5, a5, 1
0x80002248: fe e7 9c e3 bne	a5, a4, -8
0x80002240: 00 b7 80 23 sb	a1, 0(a5)
0x80002244: 00 17 87 93 addi	a5, a5, 1
0x80002248: fe e7 9c e3 bne	a5, a4, -8
0x80002240: 00 b7 80 23 sb	a1, 0(a5)
0x80002244: 00 17 87 93 addi	a5, a5, 1
0x80002248: fe e7 9c e3 bne	a5, a4, -8
0x80002240: 00 b7 80 23 sb	a1, 0(a5)
0x80002244: 00 17 87 93 addi	a5, a5, 1
0x80002248: fe e7 9c e3 bne	a5, a4, -8
0x80002240: 00 b7 80 23 sb	a1, 0(a5)
0x80002244: 00 17 87 93 addi	a5, a5, 1
0x80002248: fe e7 9c e3 bne	a5, a4, -8
0x80002240: 00 b7 80 23 sb	a1, 0(a5)
0x80002244: 00 17 87 93 addi	a5, a5, 1
0x80002248: fe e7 9c e3 bne	a5, a4, -8
0x80002240: 00 b7 80 23 sb	a1, 0(a5)
0x80002244: 00 17 87 93 addi	a5, a5, 1
0x80002248: fe e7 9c e3 bne	a5, a4, -8
0x80002240: 00 b7 80 23 sb	a1, 0(a5)
0x80002244: 00 17 87 93 addi	a5, a5, 1
0x80002248: fe e7 9c e3 bne	a5, a4, -8
0x80002240: 00 b7 80 23 sb	a1, 0(a5)
0x80002244: 00 17 87 93 addi	a5, a5, 1
0x80002248: fe e7 9c e3 bne	a5, a4, -8
0x80002240: 00 b7 80 23 sb	a1, 0(a5)
0x80002244: 00 17 87 93 addi	a5, a5, 1
0x80002248: fe e7 9c e3 bne	a5, a4, -8
0x80002240: 00 b7 80 23 sb	a1, 0(a5)
0x80002244: 00 17 87 93 addi	a5, a5, 1
0x80002248: fe e7 9c e3 bne	a5, a4, -8
0x80002240: 00 b7 80 23 sb	a1, 0(a5)
0x80002244: 00 17 87 93 addi	a5, a5, 1
0x80002248: fe e7 9c e3 bne	a5, a4, -8
0x80002240: 00 b7 80 23 sb	a1, 0(a5)
0x80002244: 00 17 87 93 addi	a5, a5, 1
0x80002248: fe e7 9c e3 bne	a5, a4, -8
0x80002240: 00 b7 80 23 sb	a1, 0(a5)
0x80002244: 00 17 87 93 addi	a5, a5, 1
0x80002248: fe e7 9c e3 bne	a5, a4, -8
0x80002240: 00 b7 80 23 sb	a1, 0(a5)
0x80002244: 00 17 87 93 addi	a5, a5, 1
0x80002248: fe e7 9c e3 bne	a5, a4, -8
0x80002240: 00 b7 80 23 sb	a1, 0(a5)
0x80002244: 00 17 87 93 addi	a5, a5, 1
0x80002248: fe e7 9c e3 bne	a5, a4, -8
0x80002240: 00 b7 80 23 sb	a1, 0(a5)
0x80002244: 00 17 87 93 addi	a5, a5, 1
0x80002248: fe e7 9c e3 bne	a5, a4, -8
0x80002240: 00 b7 80 23 sb	a1, 0(a5)
0x80002244: 00 17 87 93 addi	a5, a5, 1
0x80002248: fe e7 9c e3 bne	a5, a4, -8
0x80002240: 00 b7 80 23 sb	a1, 0(a5)
0x80002244: 00 17 87 93 addi	a5, a5, 1
0x80002248: fe e7 9c e3 bne	a5, a4, -8
0x80002240: 00 b7 80 23 sb	a1, 0(a5)
0x80002244: 00 17 87 93 addi	a5, a5, 1
0x80002248: fe e7 9c e3 bne	a5, a4, -8
0x80002240: 00 b7 80 23 sb	a1, 0(a5)
0x80002244: 00 17 87 93 addi	a5, a5, 1
0x80002248: fe e7 9c e3 bne	a5, a4, -8
0x80002240: 00 b7 80 23 sb	a1, 0(a5)
0x80002244: 00 17 87 93 addi	a5, a5, 1
0x80002248: fe e7 9c e3 bne	a5, a4, -8
0x80002240: 00 b7 80 23 sb	a1, 0(a5)
0x80002244: 00 17 87 93 addi	a5, a5, 1
0x80002248: fe e7 9c e3 bne	a5, a4, -8
0x80002240: 00 b7 80 23 sb	a1, 0(a5)
0x80002244: 00 17 87 93 addi	a5, a5, 1
0x80002248: fe e7 9c e3 bne	a5, a4, -8
0x80002240: 00 b7 80 23 sb	a1, 0(a5)
0x80002244: 00 17 87 93 addi	a5, a5, 1
0x80002248: fe e7 9c e3 bne	a5, a4, -8
0x80002240: 00 b7 80 23 sb	a1, 0(a5)
0x80002244: 00 17 87 93 addi	a5, a5, 1
0x80002248: fe e7 9c e3 bne	a5, a4, -8
0x80002240: 00 b7 80 23 sb	a1, 0(a5)
0x80002244: 00 17 87 93 addi	a5, a5, 1
0x80002248: fe e7 9c e3 bne	a5, a4, -8
0x80002240: 00 b7 80 23 sb	a1, 0(a5)
0x80002244: 00 17 87 93 addi	a5, a5, 1
0x80002248: fe e7 9c e3 bne	a5, a4, -8
0x80002240: 00 b7 80 23 sb	a1, 0(a5)
0x80002244: 00 17 87 93 addi	a5, a5, 1
0x80002248: fe e7 9c e3 bne	a5, a4, -8
0x80002240: 00 b7 80 23 sb	a1, 0(a5)
0x80002244: 00 17 87 93 addi	a5, a5, 1
0x80002248: fe e7 9c e3 bne	a5, a4, -8
0x80002240: 00 b7 80 23 sb	a1, 0(a5)
0x80002244: 00 17 87 93 addi	a5, a5, 1
0x80002248: fe e7 9c e3 bne	a5, a4, -8
0x80002240: 00 b7 80 23 sb	a1, 0(a5)
0x80002244: 00 17 87 93 addi	a5, a5, 1
0x80002248: fe e7 9c e3 bne	a5, a4, -8
0x80002240: 00 b7 80 23 sb	a1, 0(a5)
0x80002244: 00 17 87 93 addi	a5, a5, 1
0x80002248: fe e7 9c e3 bne	a5, a4, -8
0x80002240: 00 b7 80 23 sb	a1, 0(a5)
0x80002244: 00 17 87 93 addi	a5, a5, 1
0x80002248: fe e7 9c e3 bne	a5, a4, -8
0x80002240: 00 b7 80 23 sb	a1, 0(a5)
0x80002244: 00 17 87 93 addi	a5, a5, 1
0x80002248: fe e7 9c e3 bne	a5, a4, -8
0x80002240: 00 b7 80 23 sb	a1, 0(a5)
0x80002244: 00 17 87 93 addi	a5, a5, 1
0x80002248: fe e7 9c e3 bne	a5, a4, -8
0x80002240: 00 b7 80 23 sb	a1, 0(a5)
0x80002244: 00 17 87 93 addi	a5, a5, 1
0x80002248: fe e7 9c e3 bne	a5, a4, -8
0x80002240: 00 b7 80 23 sb	a1, 0(a5)
0x80002244: 00 17 87 93 addi	a5, a5, 1
0x80002248: fe e7 9c e3 bne	a5, a4, -8
0x80002240: 00 b7 80 23 sb	a1, 0(a5)
0x80002244: 00 17 87 93 addi	a5, a5, 1
0x80002248: fe e7 9c e3 bne	a5, a4, -8
0x80002240: 00 b7 80 23 sb	a1, 0(a5)
0x80002244: 00 17 87 93 addi	a5, a5, 1
0x80002248: fe e7 9c e3 bne	a5, a4, -8
0x80002240: 00 b7 80 23 sb	a1, 0(a5)
0x80002244: 00 17 87 93 addi	a5, a5, 1
0x80002248: fe e7 9c e3 bne	a5, a4, -8
0x80002240: 00 b7 80 23 sb	a1, 0(a5)
0x80002244: 00 17 87 93 addi	a5, a5, 1
0x80002248: fe e7 9c e3 bne	a5, a4, -8
0x80002240: 00 b7 80 23 sb	a1, 0(a5)
0x80002244: 00 17 87 93 addi	a5, a5, 1
0x80002248: fe e7 9c e3 bne	a5, a4, -8
0x80002240: 00 b7 80 23 sb	a1, 0(a5)
0x80002244: 00 17 87 93 addi	a5, a5, 1
0x80002248: fe e7 9c e3 bne	a5, a4, -8
0x80002240: 00 b7 80 23 sb	a1, 0(a5)
0x80002244: 00 17 87 93 addi	a5, a5, 1
0x80002248: fe e7 9c e3 bne	a5, a4, -8
0x80002240: 00 b7 80 23 sb	a1, 0(a5)
0x80002244: 00 17 87 93 addi	a5, a5, 1
0x80002248: fe e7 9c e3 bne	a5, a4, -8
0x80002240: 00 b7 80 23 sb	a1, 0(a5)
0x80002244: 00 17 87 93 addi	a5, a5, 1
0x80002248: fe e7 9c e3 bne	a5, a4, -8
0x80002240: 00 b7 80 23 sb	a1, 0(a5)
0x80002244: 00 17 87 93 addi	a5, a5, 1
0x80002248: fe e7 9c e3 bne	a5, a4, -8
0x80002240: 00 b7 80 23 sb	a1, 0(a5)
0x80002244: 00 17 87 93 addi	a5, a5, 1
0x80002248: fe e7 9c e3 bne	a5, a4, -8
0x80002240: 00 b7 80 23 sb	a1, 0(a5)
0x80002244: 00 17 87 93 addi	a5, a5, 1
0x80002248: fe e7 9c e3 bne	a5, a4, -8
0x80002240: 00 b7 80 23 sb	a1, 0(a5)
0x80002244: 00 17 87 93 addi	a5, a5, 1
0x80002248: fe e7 9c e3 bne	a5, a4, -8
0x80002240: 00 b7 80 23 sb	a1, 0(a5)
0x80002244: 00 17 87 93 addi	a5, a5, 1
0x80002248: fe e7 9c e3 bne	a5, a4, -8
0x80002240: 00 b7 80 23 sb	a1, 0(a5)
0x80002244: 00 17 87 93 addi	a5, a5, 1
0x80002248: fe e7 9c e3 bne	a5, a4, -8
0x80002240: 00 b7 80 23 sb	a1, 0(a5)
0x80002244: 00 17 87 93 addi	a5, a5, 1
0x80002248: fe e7 9c e3 bne	a5, a4, -8
0x80002240: 00 b7 80 23 sb	a1, 0(a5)
0x80002244: 00 17 87 93 addi	a5, a5, 1
0x80002248: fe e7 9c e3 bne	a5, a4, -8
0x80002240: 00 b7 80 23 sb	a1, 0(a5)
0x80002244: 00 17 87 93 addi	a5, a5, 1
0x80002248: fe e7 9c e3 bne	a5, a4, -8
0x80002240: 00 b7 80 23 sb	a1, 0(a5)
0x80002244: 00 17 87 93 addi	a5, a5, 1
0x80002248: fe e7 9c e3 bne	a5, a4, -8
0x80002240: 00 b7 80 23 sb	a1, 0(a5)
0x80002244: 00 17 87 93 addi	a5, a5, 1
0x80002248: fe e7 9c e3 bne	a5, a4, -8
0x80002240: 00 b7 80 23 sb	a1, 0(a5)
0x80002244: 00 17 87 93 addi	a5, a5, 1
0x80002248: fe e7 9c e3 bne	a5, a4, -8
0x80002240: 00 b7 80 23 sb	a1, 0(a5)
0x80002244: 00 17 87 93 addi	a5, a5, 1
0x80002248: fe e7 9c e3 bne	a5, a4, -8
0x80002240: 00 b7 80 23 sb	a1, 0(a5)
0x80002244: 00 17 87 93 addi	a5, a5, 1
0x80002248: fe e7 9c e3 bne	a5, a4, -8
0x80002240: 00 b7 80 23 sb	a1, 0(a5)
0x80002244: 00 17 87 93 addi	a5, a5, 1
0x80002248: fe e7 9c e3 bne	a5, a4, -8
0x80002240: 00 b7 80 23 sb	a1, 0(a5)
0x80002244: 00 17 87 93 addi	a5, a5, 1
0x80002248: fe e7 9c e3 bne	a5, a4, -8
0x80002240: 00 b7 80 23 sb	a1, 0(a5)
0x80002244: 00 17 87 93 addi	a5, a5, 1
0x80002248: fe e7 9c e3 bne	a5, a4, -8
0x80002240: 00 b7 80 23 sb	a1, 0(a5)
0x80002244: 00 17 87 93 addi	a5, a5, 1
0x80002248: fe e7 9c e3 bne	a5, a4, -8
0x80002240: 00 b7 80 23 sb	a1, 0(a5)
0x80002244: 00 17 87 93 addi	a5, a5, 1
0x80002248: fe e7 9c e3 bne	a5, a4, -8
0x80002240: 00 b7 80 23 sb	a1, 0(a5)
0x80002244: 00 17 87 93 addi	a5, a5, 1
0x80002248: fe e7 9c e3 bne	a5, a4, -8
0x80002240: 00 b7 80 23 sb	a1, 0(a5)
0x80002244: 00 17 87 93 addi	a5, a5, 1
0x80002248: fe e7 9c e3 bne	a5, a4, -8
0x80002240: 00 b7 80 23 sb	a1, 0(a5)
0x80002244: 00 17 87 93 addi	a5, a5, 1
0x80002248: fe e7 9c e3 bne	a5, a4, -8
0x80002240: 00 b7 80 23 sb	a1, 0(a5)
0x80002244: 00 17 87 93 addi	a5, a5, 1
0x80002248: fe e7 9c e3 bne	a5, a4, -8
0x80002240: 00 b7 80 23 sb	a1, 0(a5)
0x80002244: 00 17 87 93 addi	a5, a5, 1
0x80002248: fe e7 9c e3 bne	a5, a4, -8
0x80002240: 00 b7 80 23 sb	a1, 0(a5)
0x80002244: 00 17 87 93 addi	a5, a5, 1
0x80002248: fe e7 9c e3 bne	a5, a4, -8
0x80002240: 00 b7 80 23 sb	a1, 0(a5)
0x80002244: 00 17 87 93 addi	a5, a5, 1
0x80002248: fe e7 9c e3 bne	a5, a4, -8
0x80002240: 00 b7 80 23 sb	a1, 0(a5)
0x80002244: 00 17 87 93 addi	a5, a5, 1
0x80002248: fe e7 9c e3 bne	a5, a4, -8
0x80002240: 00 b7 80 23 sb	a1, 0(a5)
0x80002244: 00 17 87 93 addi	a5, a5, 1
0x80002248: fe e7 9c e3 bne	a5, a4, -8
0x80002240: 00 b7 80 23 sb	a1, 0(a5)
0x80002244: 00 17 87 93 addi	a5, a5, 1
0x80002248: fe e7 9c e3 bne	a5, a4, -8
0x80002240: 00 b7 80 23 sb	a1, 0(a5)
0x80002244: 00 17 87 93 addi	a5, a5, 1
0x80002248: fe e7 9c e3 bne	a5, a4, -8
0x80002240: 00 b7 80 23 sb	a1, 0(a5)
0x80002244: 00 17 87 93 addi	a5, a5, 1
0x80002248: fe e7 9c e3 bne	a5, a4, -8
0x80002240: 00 b7 80 23 sb	a1, 0(a5)
0x80002244: 00 17 87 93 addi	a5, a5, 1
0x80002248: fe e7 9c e3 bne	a5, a4, -8
0x80002240: 00 b7 80 23 sb	a1, 0(a5)
0x80002244: 00 17 87 93 addi	a5, a5, 1
0x80002248: fe e7 9c e3 bne	a5, a4, -8
0x80002240: 00 b7 80 23 sb	a1, 0(a5)
0x80002244: 00 17 87 93 addi	a5, a5, 1
0x80002248: fe e7 9c e3 bne	a5, a4, -8
0x80002240: 00 b7 80 23 sb	a1, 0(a5)
0x80002244: 00 17 87 93 addi	a5, a5, 1
0x80002248: fe e7 9c e3 bne	a5, a4, -8
0x80002240: 00 b7 80 23 sb	a1, 0(a5)
0x80002244: 00 17 87 93 addi	a5, a5, 1
0x80002248: fe e7 9c e3 bne	a5, a4, -8
0x80002240: 00 b7 80 23 sb	a1, 0(a5)
0x80002244: 00 17 87 93 addi	a5, a5, 1
0x80002248: fe e7 9c e3 bne	a5, a4, -8
0x80002240: 00 b7 80 23 sb	a1, 0(a5)
0x80002244: 00 17 87 93 addi	a5, a5, 1
0x80002248: fe e7 9c e3 bne	a5, a4, -8
0x80002240: 00 b7 80 23 sb	a1, 0(a5)
0x80002244: 00 17 87 93 addi	a5, a5, 1
0x80002248: fe e7 9c e3 bne	a5, a4, -8
0x80002240: 00 b7 80 23 sb	a1, 0(a5)
0x80002244: 00 17 87 93 addi	a5, a5, 1
0x80002248: fe e7 9c e3 bne	a5, a4, -8
0x80002240: 00 b7 80 23 sb	a1, 0(a5)
0x80002244: 00 17 87 93 addi	a5, a5, 1
0x80002248: fe e7 9c e3 bne	a5, a4, -8
0x80002240: 00 b7 80 23 sb	a1, 0(a5)
0x80002244: 00 17 87 93 addi	a5, a5, 1
0x80002248: fe e7 9c e3 bne	a5, a4, -8
0x80002240: 00 b7 80 23 sb	a1, 0(a5)
0x80002244: 00 17 87 93 addi	a5, a5, 1
0x80002248: fe e7 9c e3 bne	a5, a4, -8
0x80002240: 00 b7 80 23 sb	a1, 0(a5)
0x80002244: 00 17 87 93 addi	a5, a5, 1
0x80002248: fe e7 9c e3 bne	a5, a4, -8
0x80002240: 00 b7 80 23 sb	a1, 0(a5)
0x80002244: 00 17 87 93 addi	a5, a5, 1
0x80002248: fe e7 9c e3 bne	a5, a4, -8
0x80002240: 00 b7 80 23 sb	a1, 0(a5)
0x80002244: 00 17 87 93 addi	a5, a5, 1
0x80002248: fe e7 9c e3 bne	a5, a4, -8
0x80002240: 00 b7 80 23 sb	a1, 0(a5)
0x80002244: 00 17 87 93 addi	a5, a5, 1
0x80002248: fe e7 9c e3 bne	a5, a4, -8
0x80002240: 00 b7 80 23 sb	a1, 0(a5)
0x80002244: 00 17 87 93 addi	a5, a5, 1
0x80002248: fe e7 9c e3 bne	a5, a4, -8
0x80002240: 00 b7 80 23 sb	a1, 0(a5)
0x80002244: 00 17 87 93 addi	a5, a5, 1
0x80002248: fe e7 9c e3 bne	a5, a4, -8
0x80002240: 00 b7 80 23 sb	a1, 0(a5)
0x80002244: 00 17 87 93 addi	a5, a5, 1
0x80002248: fe e7 9c e3 bne	a5, a4, -8
0x80002240: 00 b7 80 23 sb	a1, 0(a5)
0x80002244: 00 17 87 93 addi	a5, a5, 1
0x80002248: fe e7 9c e3 bne	a5, a4, -8
0x80002240: 00 b7 80 23 sb	a1, 0(a5)
0x80002244: 00 17 87 93 addi	a5, a5, 1
0x80002248: fe e7 9c e3 bne	a5, a4, -8
0x80002240: 00 b7 80 23 sb	a1, 0(a5)
0x80002244: 00 17 87 93 addi	a5, a5, 1
0x80002248: fe e7 9c e3 bne	a5, a4, -8
0x80002240: 00 b7 80 23 sb	a1, 0(a5)
0x80002244: 00 17 87 93 addi	a5, a5, 1
0x80002248: fe e7 9c e3 bne	a5, a4, -8
0x80002240: 00 b7 80 23 sb	a1, 0(a5)
0x80002244: 00 17 87 93 addi	a5, a5, 1
0x80002248: fe e7 9c e3 bne	a5, a4, -8
0x80002240: 00 b7 80 23 sb	a1, 0(a5)
0x80002244: 00 17 87 93 addi	a5, a5, 1
0x80002248: fe e7 9c e3 bne	a5, a4, -8
0x80002240: 00 b7 80 23 sb	a1, 0(a5)
0x80002244: 00 17 87 93 addi	a5, a5, 1
0x80002248: fe e7 9c e3 bne	a5, a4, -8
0x80002240: 00 b7 80 23 sb	a1, 0(a5)
0x80002244: 00 17 87 93 addi	a5, a5, 1
0x80002248: fe e7 9c e3 bne	a5, a4, -8
0x80002240: 00 b7 80 23 sb	a1, 0(a5)
0x80002244: 00 17 87 93 addi	a5, a5, 1
0x80002248: fe e7 9c e3 bne	a5, a4, -8
0x80002240: 00 b7 80 23 sb	a1, 0(a5)
0x80002244: 00 17 87 93 addi	a5, a5, 1
0x80002248: fe e7 9c e3 bne	a5, a4, -8
0x80002240: 00 b7 80 23 sb	a1, 0(a5)
0x80002244: 00 17 87 93 addi	a5, a5, 1
0x80002248: fe e7 9c e3 bne	a5, a4, -8
0x80002240: 00 b7 80 23 sb	a1, 0(a5)
0x80002244: 00 17 87 93 addi	a5, a5, 1
0x80002248: fe e7 9c e3 bne	a5, a4, -8
0x80002240: 00 b7 80 23 sb	a1, 0(a5)
0x80002244: 00 17 87 93 addi	a5, a5, 1
0x80002248: fe e7 9c e3 bne	a5, a4, -8
0x80002240: 00 b7 80 23 sb	a1, 0(a5)
0x80002244: 00 17 87 93 addi	a5, a5, 1
0x80002248: fe e7 9c e3 bne	a5, a4, -8
0x80002240: 00 b7 80 23 sb	a1, 0(a5)
0x80002244: 00 17 87 93 addi	a5, a5, 1
0x80002248: fe e7 9c e3 bne	a5, a4, -8
0x80002240: 00 b7 80 23 sb	a1, 0(a5)
0x80002244: 00 17 87 93 addi	a5, a5, 1
0x80002248: fe e7 9c e3 bne	a5, a4, -8
0x80002240: 00 b7 80 23 sb	a1, 0(a5)
0x80002244: 00 17 87 93 addi	a5, a5, 1
0x80002248: fe e7 9c e3 bne	a5, a4, -8
0x80002240: 00 b7 80 23 sb	a1, 0(a5)
0x80002244: 00 17 87 93 addi	a5, a5, 1
0x80002248: fe e7 9c e3 bne	a5, a4, -8
0x80002240: 00 b7 80 23 sb	a1, 0(a5)
0x80002244: 00 17 87 93 addi	a5, a5, 1
0x80002248: fe e7 9c e3 bne	a5, a4, -8
0x80002240: 00 b7 80 23 sb	a1, 0(a5)
0x80002244: 00 17 87 93 addi	a5, a5, 1
0x80002248: fe e7 9c e3 bne	a5, a4, -8
0x80002240: 00 b7 80 23 sb	a1, 0(a5)
0x80002244: 00 17 87 93 addi	a5, a5, 1
0x80002248: fe e7 9c e3 bne	a5, a4, -8
0x80002240: 00 b7 80 23 sb	a1, 0(a5)
0x80002244: 00 17 87 93 addi	a5, a5, 1
0x80002248: fe e7 9c e3 bne	a5, a4, -8
0x80002240: 00 b7 80 23 sb	a1, 0(a5)
0x80002244: 00 17 87 93 addi	a5, a5, 1
0x80002248: fe e7 9c e3 bne	a5, a4, -8
0x80002240: 00 b7 80 23 sb	a1, 0(a5)
0x80002244: 00 17 87 93 addi	a5, a5, 1
0x80002248: fe e7 9c e3 bne	a5, a4, -8
0x80002240: 00 b7 80 23 sb	a1, 0(a5)
0x80002244: 00 17 87 93 addi	a5, a5, 1
0x80002248: fe e7 9c e3 bne	a5, a4, -8
0x80002240: 00 b7 80 23 sb	a1, 0(a5)
0x80002244: 00 17 87 93 addi	a5, a5, 1
0x80002248: fe e7 9c e3 bne	a5, a4, -8
0x80002240: 00 b7 80 23 sb	a1, 0(a5)
0x80002244: 00 17 87 93 addi	a5, a5, 1
0x80002248: fe e7 9c e3 bne	a5, a4, -8
0x80002240: 00 b7 80 23 sb	a1, 0(a5)
0x80002244: 00 17 87 93 addi	a5, a5, 1
0x80002248: fe e7 9c e3 bne	a5, a4, -8
0x80002240: 00 b7 80 23 sb	a1, 0(a5)
0x80002244: 00 17 87 93 addi	a5, a5, 1
0x80002248: fe e7 9c e3 bne	a5, a4, -8
0x80002240: 00 b7 80 23 sb	a1, 0(a5)
0x80002244: 00 17 87 93 addi	a5, a5, 1
0x80002248: fe e7 9c e3 bne	a5, a4, -8
0x80002240: 00 b7 80 23 sb	a1, 0(a5)
0x80002244: 00 17 87 93 addi	a5, a5, 1
0x80002248: fe e7 9c e3 bne	a5, a4, -8
0x80002240: 00 b7 80 23 sb	a1, 0(a5)
0x80002244: 00 17 87 93 addi	a5, a5, 1
0x80002248: fe e7 9c e3 bne	a5, a4, -8
0x80002240: 00 b7 80 23 sb	a1, 0(a5)
0x80002244: 00 17 87 93 addi	a5, a5, 1
0x80002248: fe e7 9c e3 bne	a5, a4, -8
0x80002240: 00 b7 80 23 sb	a1, 0(a5)
0x80002244: 00 17 87 93 addi	a5, a5, 1
0x80002248: fe e7 9c e3 bne	a5, a4, -8
0x80002240: 00 b7 80 23 sb	a1, 0(a5)
0x80002244: 00 17 87 93 addi	a5, a5, 1
0x80002248: fe e7 9c e3 bne	a5, a4, -8
0x80002240: 00 b7 80 23 sb	a1, 0(a5)
0x80002244: 00 17 87 93 addi	a5, a5, 1
0x80002248: fe e7 9c e3 bne	a5, a4, -8
0x80002240: 00 b7 80 23 sb	a1, 0(a5)
0x80002244: 00 17 87 93 addi	a5, a5, 1
0x80002248: fe e7 9c e3 bne	a5, a4, -8
0x80002240: 00 b7 80 23 sb	a1, 0(a5)
0x80002244: 00 17 87 93 addi	a5, a5, 1
0x80002248: fe e7 9c e3 bne	a5, a4, -8
0x80002240: 00 b7 80 23 sb	a1, 0(a5)
0x80002244: 00 17 87 93 addi	a5, a5, 1
0x80002248: fe e7 9c e3 bne	a5, a4, -8
0x80002240: 00 b7 80 23 sb	a1, 0(a5)
0x80002244: 00 17 87 93 addi	a5, a5, 1
0x80002248: fe e7 9c e3 bne	a5, a4, -8
0x80002240: 00 b7 80 23 sb	a1, 0(a5)
0x80002244: 00 17 87 93 addi	a5, a5, 1
0x80002248: fe e7 9c e3 bne	a5, a4, -8
0x80002240: 00 b7 80 23 sb	a1, 0(a5)
0x80002244: 00 17 87 93 addi	a5, a5, 1
0x80002248: fe e7 9c e3 bne	a5, a4, -8
0x80002240: 00 b7 80 23 sb	a1, 0(a5)
0x80002244: 00 17 87 93 addi	a5, a5, 1
0x80002248: fe e7 9c e3 bne	a5, a4, -8
0x80002240: 00 b7 80 23 sb	a1, 0(a5)
0x80002244: 00 17 87 93 addi	a5, a5, 1
0x80002248: fe e7 9c e3 bne	a5, a4, -8
0x80002240: 00 b7 80 23 sb	a1, 0(a5)
0x80002244: 00 17 87 93 addi	a5, a5, 1
0x80002248: fe e7 9c e3 bne	a5, a4, -8
0x80002240: 00 b7 80 23 sb	a1, 0(a5)
0x80002244: 00 17 87 93 addi	a5, a5, 1
0x80002248: fe e7 9c e3 bne	a5, a4, -8
0x80002240: 00 b7 80 23 sb	a1, 0(a5)
0x80002244: 00 17 87 93 addi	a5, a5, 1
0x80002248: fe e7 9c e3 bne	a5, a4, -8
0x80002240: 00 b7 80 23 sb	a1, 0(a5)
0x80002244: 00 17 87 93 addi	a5, a5, 1
0x80002248: fe e7 9c e3 bne	a5, a4, -8
0x80002240: 00 b7 80 23 sb	a1, 0(a5)
0x80002244: 00 17 87 93 addi	a5, a5, 1
0x80002248: fe e7 9c e3 bne	a5, a4, -8
0x80002240: 00 b7 80 23 sb	a1, 0(a5)
0x80002244: 00 17 87 93 addi	a5, a5, 1
0x80002248: fe e7 9c e3 bne	a5, a4, -8
0x80002240: 00 b7 80 23 sb	a1, 0(a5)
0x80002244: 00 17 87 93 addi	a5, a5, 1
0x80002248: fe e7 9c e3 bne	a5, a4, -8
0x80002240: 00 b7 80 23 sb	a1, 0(a5)
0x80002244: 00 17 87 93 addi	a5, a5, 1
0x80002248: fe e7 9c e3 bne	a5, a4, -8
0x80002240: 00 b7 80 23 sb	a1, 0(a5)
0x80002244: 00 17 87 93 addi	a5, a5, 1
0x80002248: fe e7 9c e3 bne	a5, a4, -8
0x80002240: 00 b7 80 23 sb	a1, 0(a5)
0x80002244: 00 17 87 93 addi	a5, a5, 1
0x80002248: fe e7 9c e3 bne	a5, a4, -8
0x80002240: 00 b7 80 23 sb	a1, 0(a5)
0x80002244: 00 17 87 93 addi	a5, a5, 1
0x80002248: fe e7 9c e3 bne	a5, a4, -8
0x80002240: 00 b7 80 23 sb	a1, 0(a5)
0x80002244: 00 17 87 93 addi	a5, a5, 1
0x80002248: fe e7 9c e3 bne	a5, a4, -8
0x80002240: 00 b7 80 23 sb	a1, 0(a5)
0x80002244: 00 17 87 93 addi	a5, a5, 1
0x80002248: fe e7 9c e3 bne	a5, a4, -8
0x80002240: 00 b7 80 23 sb	a1, 0(a5)
0x80002244: 00 17 87 93 addi	a5, a5, 1
0x80002248: fe e7 9c e3 bne	a5, a4, -8
0x80002240: 00 b7 80 23 sb	a1, 0(a5)
0x80002244: 00 17 87 93 addi	a5, a5, 1
0x80002248: fe e7 9c e3 bne	a5, a4, -8
0x80002240: 00 b7 80 23 sb	a1, 0(a5)
0x80002244: 00 17 87 93 addi	a5, a5, 1
0x80002248: fe e7 9c e3 bne	a5, a4, -8
0x80002240: 00 b7 80 23 sb	a1, 0(a5)
0x80002244: 00 17 87 93 addi	a5, a5, 1
0x80002248: fe e7 9c e3 bne	a5, a4, -8
0x80002240: 00 b7 80 23 sb	a1, 0(a5)
0x80002244: 00 17 87 93 addi	a5, a5, 1
0x80002248: fe e7 9c e3 bne	a5, a4, -8
0x80002240: 00 b7 80 23 sb	a1, 0(a5)
0x80002244: 00 17 87 93 addi	a5, a5, 1
0x80002248: fe e7 9c e3 bne	a5, a4, -8
0x80002240: 00 b7 80 23 sb	a1, 0(a5)
0x80002244: 00 17 87 93 addi	a5, a5, 1
0x80002248: fe e7 9c e3 bne	a5, a4, -8
0x80002240: 00 b7 80 23 sb	a1, 0(a5)
0x80002244: 00 17 87 93 addi	a5, a5, 1
0x80002248: fe e7 9c e3 bne	a5, a4, -8
0x80002240: 00 b7 80 23 sb	a1, 0(a5)
0x80002244: 00 17 87 93 addi	a5, a5, 1
0x80002248: fe e7 9c e3 bne	a5, a4, -8
0x80002240: 00 b7 80 23 sb	a1, 0(a5)
0x80002244: 00 17 87 93 addi	a5, a5, 1
0x80002248: fe e7 9c e3 bne	a5, a4, -8
0x80002240: 00 b7 80 23 sb	a1, 0(a5)
0x80002244: 00 17 87 93 addi	a5, a5, 1
0x80002248: fe e7 9c e3 bne	a5, a4, -8
0x80002240: 00 b7 80 23 sb	a1, 0(a5)
0x80002244: 00 17 87 93 addi	a5, a5, 1
0x80002248: fe e7 9c e3 bne	a5, a4, -8
0x80002240: 00 b7 80 23 sb	a1, 0(a5)
0x80002244: 00 17 87 93 addi	a5, a5, 1
0x80002248: fe e7 9c e3 bne	a5, a4, -8
0x80002240: 00 b7 80 23 sb	a1, 0(a5)
0x80002244: 00 17 87 93 addi	a5, a5, 1
0x80002248: fe e7 9c e3 bne	a5, a4, -8
0x80002240: 00 b7 80 23 sb	a1, 0(a5)
0x80002244: 00 17 87 93 addi	a5, a5, 1
0x80002248: fe e7 9c e3 bne	a5, a4, -8
0x80002240: 00 b7 80 23 sb	a1, 0(a5)
0x80002244: 00 17 87 93 addi	a5, a5, 1
0x80002248: fe e7 9c e3 bne	a5, a4, -8
0x80002240: 00 b7 80 23 sb	a1, 0(a5)
0x80002244: 00 17 87 93 addi	a5, a5, 1
0x80002248: fe e7 9c e3 bne	a5, a4, -8
0x80002240: 00 b7 80 23 sb	a1, 0(a5)
0x80002244: 00 17 87 93 addi	a5, a5, 1
0x80002248: fe e7 9c e3 bne	a5, a4, -8
0x80002240: 00 b7 80 23 sb	a1, 0(a5)
0x80002244: 00 17 87 93 addi	a5, a5, 1
0x80002248: fe e7 9c e3 bne	a5, a4, -8
0x80002240: 00 b7 80 23 sb	a1, 0(a5)
0x80002244: 00 17 87 93 addi	a5, a5, 1
0x80002248: fe e7 9c e3 bne	a5, a4, -8
0x80002240: 00 b7 80 23 sb	a1, 0(a5)
0x80002244: 00 17 87 93 addi	a5, a5, 1
0x80002248: fe e7 9c e3 bne	a5, a4, -8
0x80002240: 00 b7 80 23 sb	a1, 0(a5)
0x80002244: 00 17 87 93 addi	a5, a5, 1
0x80002248: fe e7 9c e3 bne	a5, a4, -8
0x80002240: 00 b7 80 23 sb	a1, 0(a5)
0x80002244: 00 17 87 93 addi	a5, a5, 1
0x80002248: fe e7 9c e3 bne	a5, a4, -8
0x80002240: 00 b7 80 23 sb	a1, 0(a5)
0x80002244: 00 17 87 93 addi	a5, a5, 1
0x80002248: fe e7 9c e3 bne	a5, a4, -8
0x80002240: 00 b7 80 23 sb	a1, 0(a5)
0x80002244: 00 17 87 93 addi	a5, a5, 1
0x80002248: fe e7 9c e3 bne	a5, a4, -8
0x80002240: 00 b7 80 23 sb	a1, 0(a5)
0x80002244: 00 17 87 93 addi	a5, a5, 1
0x80002248: fe e7 9c e3 bne	a5, a4, -8
0x80002240: 00 b7 80 23 sb	a1, 0(a5)
0x80002244: 00 17 87 93 addi	a5, a5, 1
0x80002248: fe e7 9c e3 bne	a5, a4, -8
0x80002240: 00 b7 80 23 sb	a1, 0(a5)
0x80002244: 00 17 87 93 addi	a5, a5, 1
0x80002248: fe e7 9c e3 bne	a5, a4, -8
0x80002240: 00 b7 80 23 sb	a1, 0(a5)
0x80002244: 00 17 87 93 addi	a5, a5, 1
0x80002248: fe e7 9c e3 bne	a5, a4, -8
0x80002240: 00 b7 80 23 sb	a1, 0(a5)
0x80002244: 00 17 87 93 addi	a5, a5, 1
0x80002248: fe e7 9c e3 bne	a5, a4, -8
0x80002240: 00 b7 80 23 sb	a1, 0(a5)
0x80002244: 00 17 87 93 addi	a5, a5, 1
0x80002248: fe e7 9c e3 bne	a5, a4, -8
0x80002240: 00 b7 80 23 sb	a1, 0(a5)
0x80002244: 00 17 87 93 addi	a5, a5, 1
0x80002248: fe e7 9c e3 bne	a5, a4, -8
0x80002240: 00 b7 80 23 sb	a1, 0(a5)
0x80002244: 00 17 87 93 addi	a5, a5, 1
0x80002248: fe e7 9c e3 bne	a5, a4, -8
0x80002240: 00 b7 80 23 sb	a1, 0(a5)
0x80002244: 00 17 87 93 addi	a5, a5, 1
0x80002248: fe e7 9c e3 bne	a5, a4, -8
0x80002240: 00 b7 80 23 sb	a1, 0(a5)
0x80002244: 00 17 87 93 addi	a5, a5, 1
0x80002248: fe e7 9c e3 bne	a5, a4, -8
0x80002240: 00 b7 80 23 sb	a1, 0(a5)
0x80002244: 00 17 87 93 addi	a5, a5, 1
0x80002248: fe e7 9c e3 bne	a5, a4, -8
0x80002240: 00 b7 80 23 sb	a1, 0(a5)
0x80002244: 00 17 87 93 addi	a5, a5, 1
0x80002248: fe e7 9c e3 bne	a5, a4, -8
0x80002240: 00 b7 80 23 sb	a1, 0(a5)
0x80002244: 00 17 87 93 addi	a5, a5, 1
0x80002248: fe e7 9c e3 bne	a5, a4, -8
0x80002240: 00 b7 80 23 sb	a1, 0(a5)
0x80002244: 00 17 87 93 addi	a5, a5, 1
0x80002248: fe e7 9c e3 bne	a5, a4, -8
0x80002240: 00 b7 80 23 sb	a1, 0(a5)
0x80002244: 00 17 87 93 addi	a5, a5, 1
0x80002248: fe e7 9c e3 bne	a5, a4, -8
0x80002240: 00 b7 80 23 sb	a1, 0(a5)
0x80002244: 00 17 87 93 addi	a5, a5, 1
0x80002248: fe e7 9c e3 bne	a5, a4, -8
0x80002240: 00 b7 80 23 sb	a1, 0(a5)
0x80002244: 00 17 87 93 addi	a5, a5, 1
0x80002248: fe e7 9c e3 bne	a5, a4, -8
0x80002240: 00 b7 80 23 sb	a1, 0(a5)
0x80002244: 00 17 87 93 addi	a5, a5, 1
0x80002248: fe e7 9c e3 bne	a5, a4, -8
0x80002240: 00 b7 80 23 sb	a1, 0(a5)
0x80002244: 00 17 87 93 addi	a5, a5, 1
0x80002248: fe e7 9c e3 bne	a5, a4, -8
0x80002240: 00 b7 80 23 sb	a1, 0(a5)
0x80002244: 00 17 87 93 addi	a5, a5, 1
0x80002248: fe e7 9c e3 bne	a5, a4, -8
0x80002240: 00 b7 80 23 sb	a1, 0(a5)
0x80002244: 00 17 87 93 addi	a5, a5, 1
0x80002248: fe e7 9c e3 bne	a5, a4, -8
0x80002240: 00 b7 80 23 sb	a1, 0(a5)
0x80002244: 00 17 87 93 addi	a5, a5, 1
0x80002248: fe e7 9c e3 bne	a5, a4, -8
0x80002240: 00 b7 80 23 sb	a1, 0(a5)
0x80002244: 00 17 87 93 addi	a5, a5, 1
0x80002248: fe e7 9c e3 bne	a5, a4, -8
0x80002240: 00 b7 80 23 sb	a1, 0(a5)
0x80002244: 00 17 87 93 addi	a5, a5, 1
0x80002248: fe e7 9c e3 bne	a5, a4, -8
0x80002240: 00 b7 80 23 sb	a1, 0(a5)
0x80002244: 00 17 87 93 addi	a5, a5, 1
0x80002248: fe e7 9c e3 bne	a5, a4, -8
0x80002240: 00 b7 80 23 sb	a1, 0(a5)
0x80002244: 00 17 87 93 addi	a5, a5, 1
0x80002248: fe e7 9c e3 bne	a5, a4, -8
0x80002240: 00 b7 80 23 sb	a1, 0(a5)
0x80002244: 00 17 87 93 addi	a5, a5, 1
0x80002248: fe e7 9c e3 bne	a5, a4, -8
0x80002240: 00 b7 80 23 sb	a1, 0(a5)
0x80002244: 00 17 87 93 addi	a5, a5, 1
0x80002248: fe e7 9c e3 bne	a5, a4, -8
0x80002240: 00 b7 80 23 sb	a1, 0(a5)
0x80002244: 00 17 87 93 addi	a5, a5, 1
0x80002248: fe e7 9c e3 bne	a5, a4, -8
0x80002240: 00 b7 80 23 sb	a1, 0(a5)
0x80002244: 00 17 87 93 addi	a5, a5, 1
0x80002248: fe e7 9c e3 bne	a5, a4, -8
0x80002240: 00 b7 80 23 sb	a1, 0(a5)
0x80002244: 00 17 87 93 addi	a5, a5, 1
0x80002248: fe e7 9c e3 bne	a5, a4, -8
0x80002240: 00 b7 80 23 sb	a1, 0(a5)
0x80002244: 00 17 87 93 addi	a5, a5, 1
0x80002248: fe e7 9c e3 bne	a5, a4, -8
0x80002240: 00 b7 80 23 sb	a1, 0(a5)
0x80002244: 00 17 87 93 addi	a5, a5, 1
0x80002248: fe e7 9c e3 bne	a5, a4, -8
0x80002240: 00 b7 80 23 sb	a1, 0(a5)
0x80002244: 00 17 87 93 addi	a5, a5, 1
0x80002248: fe e7 9c e3 bne	a5, a4, -8
0x80002240: 00 b7 80 23 sb	a1, 0(a5)
0x80002244: 00 17 87 93 addi	a5, a5, 1
0x80002248: fe e7 9c e3 bne	a5, a4, -8
0x80002240: 00 b7 80 23 sb	a1, 0(a5)
0x80002244: 00 17 87 93 addi	a5, a5, 1
0x80002248: fe e7 9c e3 bne	a5, a4, -8
0x80002240: 00 b7 80 23 sb	a1, 0(a5)
0x80002244: 00 17 87 93 addi	a5, a5, 1
0x80002248: fe e7 9c e3 bne	a5, a4, -8
0x80002240: 00 b7 80 23 sb	a1, 0(a5)
0x80002244: 00 17 87 93 addi	a5, a5, 1
0x80002248: fe e7 9c e3 bne	a5, a4, -8
0x80002240: 00 b7 80 23 sb	a1, 0(a5)
0x80002244: 00 17 87 93 addi	a5, a5, 1
0x80002248: fe e7 9c e3 bne	a5, a4, -8
0x80002240: 00 b7 80 23 sb	a1, 0(a5)
0x80002244: 00 17 87 93 addi	a5, a5, 1
0x80002248: fe e7 9c e3 bne	a5, a4, -8
0x80002240: 00 b7 80 23 sb	a1, 0(a5)
0x80002244: 00 17 87 93 addi	a5, a5, 1
0x80002248: fe e7 9c e3 bne	a5, a4, -8
0x80002240: 00 b7 80 23 sb	a1, 0(a5)
0x80002244: 00 17 87 93 addi	a5, a5, 1
0x80002248: fe e7 9c e3 bne	a5, a4, -8
0x80002240: 00 b7 80 23 sb	a1, 0(a5)
0x80002244: 00 17 87 93 addi	a5, a5, 1
0x80002248: fe e7 9c e3 bne	a5, a4, -8
0x80002240: 00 b7 80 23 sb	a1, 0(a5)
0x80002244: 00 17 87 93 addi	a5, a5, 1
0x80002248: fe e7 9c e3 bne	a5, a4, -8
0x80002240: 00 b7 80 23 sb	a1, 0(a5)
0x80002244: 00 17 87 93 addi	a5, a5, 1
0x80002248: fe e7 9c e3 bne	a5, a4, -8
0x80002240: 00 b7 80 23 sb	a1, 0(a5)
0x80002244: 00 17 87 93 addi	a5, a5, 1
0x80002248: fe e7 9c e3 bne	a5, a4, -8
0x80002240: 00 b7 80 23 sb	a1, 0(a5)
0x80002244: 00 17 87 93 addi	a5, a5, 1
0x80002248: fe e7 9c e3 bne	a5, a4, -8
0x80002240: 00 b7 80 23 sb	a1, 0(a5)
0x80002244: 00 17 87 93 addi	a5, a5, 1
0x80002248: fe e7 9c e3 bne	a5, a4, -8
0x80002240: 00 b7 80 23 sb	a1, 0(a5)
0x80002244: 00 17 87 93 addi	a5, a5, 1
0x80002248: fe e7 9c e3 bne	a5, a4, -8
0x80002240: 00 b7 80 23 sb	a1, 0(a5)
0x80002244: 00 17 87 93 addi	a5, a5, 1
0x80002248: fe e7 9c e3 bne	a5, a4, -8
0x80002240: 00 b7 80 23 sb	a1, 0(a5)
0x80002244: 00 17 87 93 addi	a5, a5, 1
0x80002248: fe e7 9c e3 bne	a5, a4, -8
0x80002240: 00 b7 80 23 sb	a1, 0(a5)
0x80002244: 00 17 87 93 addi	a5, a5, 1
0x80002248: fe e7 9c e3 bne	a5, a4, -8
0x80002240: 00 b7 80 23 sb	a1, 0(a5)
0x80002244: 00 17 87 93 addi	a5, a5, 1
0x80002248: fe e7 9c e3 bne	a5, a4, -8
0x80002240: 00 b7 80 23 sb	a1, 0(a5)
0x80002244: 00 17 87 93 addi	a5, a5, 1
0x80002248: fe e7 9c e3 bne	a5, a4, -8
0x80002240: 00 b7 80 23 sb	a1, 0(a5)
0x80002244: 00 17 87 93 addi	a5, a5, 1
0x80002248: fe e7 9c e3 bne	a5, a4, -8
0x80002240: 00 b7 80 23 sb	a1, 0(a5)
0x80002244: 00 17 87 93 addi	a5, a5, 1
0x80002248: fe e7 9c e3 bne	a5, a4, -8
0x80002240: 00 b7 80 23 sb	a1, 0(a5)
0x80002244: 00 17 87 93 addi	a5, a5, 1
0x80002248: fe e7 9c e3 bne	a5, a4, -8
0x80002240: 00 b7 80 23 sb	a1, 0(a5)
0x80002244: 00 17 87 93 addi	a5, a5, 1
0x80002248: fe e7 9c e3 bne	a5, a4, -8
0x80002240: 00 b7 80 23 sb	a1, 0(a5)
0x80002244: 00 17 87 93 addi	a5, a5, 1
0x80002248: fe e7 9c e3 bne	a5, a4, -8
0x80002240: 00 b7 80 23 sb	a1, 0(a5)
0x80002244: 00 17 87 93 addi	a5, a5, 1
0x80002248: fe e7 9c e3 bne	a5, a4, -8
0x80002240: 00 b7 80 23 sb	a1, 0(a5)
0x80002244: 00 17 87 93 addi	a5, a5, 1
0x80002248: fe e7 9c e3 bne	a5, a4, -8
0x80002240: 00 b7 80 23 sb	a1, 0(a5)
0x80002244: 00 17 87 93 addi	a5, a5, 1
0x80002248: fe e7 9c e3 bne	a5, a4, -8
0x80002240: 00 b7 80 23 sb	a1, 0(a5)
0x80002244: 00 17 87 93 addi	a5, a5, 1
0x80002248: fe e7 9c e3 bne	a5, a4, -8
0x80002240: 00 b7 80 23 sb	a1, 0(a5)
0x80002244: 00 17 87 93 addi	a5, a5, 1
0x80002248: fe e7 9c e3 bne	a5, a4, -8
0x80002240: 00 b7 80 23 sb	a1, 0(a5)
0x80002244: 00 17 87 93 addi	a5, a5, 1
0x80002248: fe e7 9c e3 bne	a5, a4, -8
0x80002240: 00 b7 80 23 sb	a1, 0(a5)
0x80002244: 00 17 87 93 addi	a5, a5, 1
0x80002248: fe e7 9c e3 bne	a5, a4, -8
0x80002240: 00 b7 80 23 sb	a1, 0(a5)
0x80002244: 00 17 87 93 addi	a5, a5, 1
0x80002248: fe e7 9c e3 bne	a5, a4, -8
0x80002240: 00 b7 80 23 sb	a1, 0(a5)
0x80002244: 00 17 87 93 addi	a5, a5, 1
0x80002248: fe e7 9c e3 bne	a5, a4, -8
0x80002240: 00 b7 80 23 sb	a1, 0(a5)
0x80002244: 00 17 87 93 addi	a5, a5, 1
0x80002248: fe e7 9c e3 bne	a5, a4, -8
0x80002240: 00 b7 80 23 sb	a1, 0(a5)
0x80002244: 00 17 87 93 addi	a5, a5, 1
0x80002248: fe e7 9c e3 bne	a5, a4, -8
0x80002240: 00 b7 80 23 sb	a1, 0(a5)
0x80002244: 00 17 87 93 addi	a5, a5, 1
0x80002248: fe e7 9c e3 bne	a5, a4, -8
0x80002240: 00 b7 80 23 sb	a1, 0(a5)
0x80002244: 00 17 87 93 addi	a5, a5, 1
0x80002248: fe e7 9c e3 bne	a5, a4, -8
0x80002240: 00 b7 80 23 sb	a1, 0(a5)
0x80002244: 00 17 87 93 addi	a5, a5, 1
0x80002248: fe e7 9c e3 bne	a5, a4, -8
0x80002240: 00 b7 80 23 sb	a1, 0(a5)
0x80002244: 00 17 87 93 addi	a5, a5, 1
0x80002248: fe e7 9c e3 bne	a5, a4, -8
0x80002240: 00 b7 80 23 sb	a1, 0(a5)
0x80002244: 00 17 87 93 addi	a5, a5, 1
0x80002248: fe e7 9c e3 bne	a5, a4, -8
0x80002240: 00 b7 80 23 sb	a1, 0(a5)
0x80002244: 00 17 87 93 addi	a5, a5, 1
0x80002248: fe e7 9c e3 bne	a5, a4, -8
0x80002240: 00 b7 80 23 sb	a1, 0(a5)
0x80002244: 00 17 87 93 addi	a5, a5, 1
0x80002248: fe e7 9c e3 bne	a5, a4, -8
0x80002240: 00 b7 80 23 sb	a1, 0(a5)
0x80002244: 00 17 87 93 addi	a5, a5, 1
0x80002248: fe e7 9c e3 bne	a5, a4, -8
0x80002240: 00 b7 80 23 sb	a1, 0(a5)
0x80002244: 00 17 87 93 addi	a5, a5, 1
0x80002248: fe e7 9c e3 bne	a5, a4, -8
0x80002240: 00 b7 80 23 sb	a1, 0(a5)
0x80002244: 00 17 87 93 addi	a5, a5, 1
0x80002248: fe e7 9c e3 bne	a5, a4, -8
0x80002240: 00 b7 80 23 sb	a1, 0(a5)
0x80002244: 00 17 87 93 addi	a5, a5, 1
0x80002248: fe e7 9c e3 bne	a5, a4, -8
0x80002240: 00 b7 80 23 sb	a1, 0(a5)
0x80002244: 00 17 87 93 addi	a5, a5, 1
0x80002248: fe e7 9c e3 bne	a5, a4, -8
0x80002240: 00 b7 80 23 sb	a1, 0(a5)
0x80002244: 00 17 87 93 addi	a5, a5, 1
0x80002248: fe e7 9c e3 bne	a5, a4, -8
0x80002240: 00 b7 80 23 sb	a1, 0(a5)
0x80002244: 00 17 87 93 addi	a5, a5, 1
0x80002248: fe e7 9c e3 bne	a5, a4, -8
0x80002240: 00 b7 80 23 sb	a1, 0(a5)
0x80002244: 00 17 87 93 addi	a5, a5, 1
0x80002248: fe e7 9c e3 bne	a5, a4, -8
0x80002240: 00 b7 80 23 sb	a1, 0(a5)
0x80002244: 00 17 87 93 addi	a5, a5, 1
0x80002248: fe e7 9c e3 bne	a5, a4, -8
0x80002240: 00 b7 80 23 sb	a1, 0(a5)
0x80002244: 00 17 87 93 addi	a5, a5, 1
0x80002248: fe e7 9c e3 bne	a5, a4, -8
0x80002240: 00 b7 80 23 sb	a1, 0(a5)
0x80002244: 00 17 87 93 addi	a5, a5, 1
0x80002248: fe e7 9c e3 bne	a5, a4, -8
0x80002240: 00 b7 80 23 sb	a1, 0(a5)
0x80002244: 00 17 87 93 addi	a5, a5, 1
0x80002248: fe e7 9c e3 bne	a5, a4, -8
0x80002240: 00 b7 80 23 sb	a1, 0(a5)
0x80002244: 00 17 87 93 addi	a5, a5, 1
0x80002248: fe e7 9c e3 bne	a5, a4, -8
0x80002240: 00 b7 80 23 sb	a1, 0(a5)
0x80002244: 00 17 87 93 addi	a5, a5, 1
0x80002248: fe e7 9c e3 bne	a5, a4, -8
0x80002240: 00 b7 80 23 sb	a1, 0(a5)
0x80002244: 00 17 87 93 addi	a5, a5, 1
0x80002248: fe e7 9c e3 bne	a5, a4, -8
0x80002240: 00 b7 80 23 sb	a1, 0(a5)
0x80002244: 00 17 87 93 addi	a5, a5, 1
0x80002248: fe e7 9c e3 bne	a5, a4, -8
0x80002240: 00 b7 80 23 sb	a1, 0(a5)
0x80002244: 00 17 87 93 addi	a5, a5, 1
0x80002248: fe e7 9c e3 bne	a5, a4, -8
0x80002240: 00 b7 80 23 sb	a1, 0(a5)
0x80002244: 00 17 87 93 addi	a5, a5, 1
0x80002248: fe e7 9c e3 bne	a5, a4, -8
0x80002240: 00 b7 80 23 sb	a1, 0(a5)
0x80002244: 00 17 87 93 addi	a5, a5, 1
0x80002248: fe e7 9c e3 bne	a5, a4, -8
0x80002240: 00 b7 80 23 sb	a1, 0(a5)
0x80002244: 00 17 87 93 addi	a5, a5, 1
0x80002248: fe e7 9c e3 bne	a5, a4, -8
0x80002240: 00 b7 80 23 sb	a1, 0(a5)
0x80002244: 00 17 87 93 addi	a5, a5, 1
0x80002248: fe e7 9c e3 bne	a5, a4, -8
0x80002240: 00 b7 80 23 sb	a1, 0(a5)
0x80002244: 00 17 87 93 addi	a5, a5, 1
0x80002248: fe e7 9c e3 bne	a5, a4, -8
0x80002240: 00 b7 80 23 sb	a1, 0(a5)
0x80002244: 00 17 87 93 addi	a5, a5, 1
0x80002248: fe e7 9c e3 bne	a5, a4, -8
0x80002240: 00 b7 80 23 sb	a1, 0(a5)
0x80002244: 00 17 87 93 addi	a5, a5, 1
0x80002248: fe e7 9c e3 bne	a5, a4, -8
0x80002240: 00 b7 80 23 sb	a1, 0(a5)
0x80002244: 00 17 87 93 addi	a5, a5, 1
0x80002248: fe e7 9c e3 bne	a5, a4, -8
0x80002240: 00 b7 80 23 sb	a1, 0(a5)
0x80002244: 00 17 87 93 addi	a5, a5, 1
0x80002248: fe e7 9c e3 bne	a5, a4, -8
0x80002240: 00 b7 80 23 sb	a1, 0(a5)
0x80002244: 00 17 87 93 addi	a5, a5, 1
0x80002248: fe e7 9c e3 bne	a5, a4, -8
0x80002240: 00 b7 80 23 sb	a1, 0(a5)
0x80002244: 00 17 87 93 addi	a5, a5, 1
0x80002248: fe e7 9c e3 bne	a5, a4, -8
0x80002240: 00 b7 80 23 sb	a1, 0(a5)
0x80002244: 00 17 87 93 addi	a5, a5, 1
0x80002248: fe e7 9c e3 bne	a5, a4, -8
0x80002240: 00 b7 80 23 sb	a1, 0(a5)
0x80002244: 00 17 87 93 addi	a5, a5, 1
0x80002248: fe e7 9c e3 bne	a5, a4, -8
0x80002240: 00 b7 80 23 sb	a1, 0(a5)
0x80002244: 00 17 87 93 addi	a5, a5, 1
0x80002248: fe e7 9c e3 bne	a5, a4, -8
0x80002240: 00 b7 80 23 sb	a1, 0(a5)
0x80002244: 00 17 87 93 addi	a5, a5, 1
0x80002248: fe e7 9c e3 bne	a5, a4, -8
0x80002240: 00 b7 80 23 sb	a1, 0(a5)
0x80002244: 00 17 87 93 addi	a5, a5, 1
0x80002248: fe e7 9c e3 bne	a5, a4, -8
0x80002240: 00 b7 80 23 sb	a1, 0(a5)
0x80002244: 00 17 87 93 addi	a5, a5, 1
0x80002248: fe e7 9c e3 bne	a5, a4, -8
0x80002240: 00 b7 80 23 sb	a1, 0(a5)
0x80002244: 00 17 87 93 addi	a5, a5, 1
0x80002248: fe e7 9c e3 bne	a5, a4, -8
0x80002240: 00 b7 80 23 sb	a1, 0(a5)
0x80002244: 00 17 87 93 addi	a5, a5, 1
0x80002248: fe e7 9c e3 bne	a5, a4, -8
0x80002240: 00 b7 80 23 sb	a1, 0(a5)
0x80002244: 00 17 87 93 addi	a5, a5, 1
0x80002248: fe e7 9c e3 bne	a5, a4, -8
0x80002240: 00 b7 80 23 sb	a1, 0(a5)
0x80002244: 00 17 87 93 addi	a5, a5, 1
0x80002248: fe e7 9c e3 bne	a5, a4, -8
0x80002240: 00 b7 80 23 sb	a1, 0(a5)
0x80002244: 00 17 87 93 addi	a5, a5, 1
0x80002248: fe e7 9c e3 bne	a5, a4, -8
0x80002240: 00 b7 80 23 sb	a1, 0(a5)
0x80002244: 00 17 87 93 addi	a5, a5, 1
0x80002248: fe e7 9c e3 bne	a5, a4, -8
0x80002240: 00 b7 80 23 sb	a1, 0(a5)
0x80002244: 00 17 87 93 addi	a5, a5, 1
0x80002248: fe e7 9c e3 bne	a5, a4, -8
0x80002240: 00 b7 80 23 sb	a1, 0(a5)
0x80002244: 00 17 87 93 addi	a5, a5, 1
0x80002248: fe e7 9c e3 bne	a5, a4, -8
0x80002240: 00 b7 80 23 sb	a1, 0(a5)
0x80002244: 00 17 87 93 addi	a5, a5, 1
0x80002248: fe e7 9c e3 bne	a5, a4, -8
0x80002240: 00 b7 80 23 sb	a1, 0(a5)
0x80002244: 00 17 87 93 addi	a5, a5, 1
0x80002248: fe e7 9c e3 bne	a5, a4, -8
0x80002240: 00 b7 80 23 sb	a1, 0(a5)
0x80002244: 00 17 87 93 addi	a5, a5, 1
0x80002248: fe e7 9c e3 bne	a5, a4, -8
0x80002240: 00 b7 80 23 sb	a1, 0(a5)
0x80002244: 00 17 87 93 addi	a5, a5, 1
0x80002248: fe e7 9c e3 bne	a5, a4, -8
0x80002240: 00 b7 80 23 sb	a1, 0(a5)
0x80002244: 00 17 87 93 addi	a5, a5, 1
0x80002248: fe e7 9c e3 bne	a5, a4, -8
0x80002240: 00 b7 80 23 sb	a1, 0(a5)
0x80002244: 00 17 87 93 addi	a5, a5, 1
0x80002248: fe e7 9c e3 bne	a5, a4, -8
0x80002240: 00 b7 80 23 sb	a1, 0(a5)
0x80002244: 00 17 87 93 addi	a5, a5, 1
0x80002248: fe e7 9c e3 bne	a5, a4, -8
0x80002240: 00 b7 80 23 sb	a1, 0(a5)
0x80002244: 00 17 87 93 addi	a5, a5, 1
0x80002248: fe e7 9c e3 bne	a5, a4, -8
0x80002240: 00 b7 80 23 sb	a1, 0(a5)
0x80002244: 00 17 87 93 addi	a5, a5, 1
0x80002248: fe e7 9c e3 bne	a5, a4, -8
0x80002240: 00 b7 80 23 sb	a1, 0(a5)
0x80002244: 00 17 87 93 addi	a5, a5, 1
0x80002248: fe e7 9c e3 bne	a5, a4, -8
0x80002240: 00 b7 80 23 sb	a1, 0(a5)
0x80002244: 00 17 87 93 addi	a5, a5, 1
0x80002248: fe e7 9c e3 bne	a5, a4, -8
0x80002240: 00 b7 80 23 sb	a1, 0(a5)
0x80002244: 00 17 87 93 addi	a5, a5, 1
0x80002248: fe e7 9c e3 bne	a5, a4, -8
0x80002240: 00 b7 80 23 sb	a1, 0(a5)
0x80002244: 00 17 87 93 addi	a5, a5, 1
0x80002248: fe e7 9c e3 bne	a5, a4, -8
0x80002240: 00 b7 80 23 sb	a1, 0(a5)
0x80002244: 00 17 87 93 addi	a5, a5, 1
0x80002248: fe e7 9c e3 bne	a5, a4, -8
0x80002240: 00 b7 80 23 sb	a1, 0(a5)
0x80002244: 00 17 87 93 addi	a5, a5, 1
0x80002248: fe e7 9c e3 bne	a5, a4, -8
0x80002240: 00 b7 80 23 sb	a1, 0(a5)
0x80002244: 00 17 87 93 addi	a5, a5, 1
0x80002248: fe e7 9c e3 bne	a5, a4, -8
0x80002240: 00 b7 80 23 sb	a1, 0(a5)
0x80002244: 00 17 87 93 addi	a5, a5, 1
0x80002248: fe e7 9c e3 bne	a5, a4, -8
0x80002240: 00 b7 80 23 sb	a1, 0(a5)
0x80002244: 00 17 87 93 addi	a5, a5, 1
0x80002248: fe e7 9c e3 bne	a5, a4, -8
0x80002240: 00 b7 80 23 sb	a1, 0(a5)
0x80002244: 00 17 87 93 addi	a5, a5, 1
0x80002248: fe e7 9c e3 bne	a5, a4, -8
0x80002240: 00 b7 80 23 sb	a1, 0(a5)
0x80002244: 00 17 87 93 addi	a5, a5, 1
0x80002248: fe e7 9c e3 bne	a5, a4, -8
0x80002240: 00 b7 80 23 sb	a1, 0(a5)
0x80002244: 00 17 87 93 addi	a5, a5, 1
0x80002248: fe e7 9c e3 bne	a5, a4, -8
0x80002240: 00 b7 80 23 sb	a1, 0(a5)
0x80002244: 00 17 87 93 addi	a5, a5, 1
0x80002248: fe e7 9c e3 bne	a5, a4, -8
0x80002240: 00 b7 80 23 sb	a1, 0(a5)
0x80002244: 00 17 87 93 addi	a5, a5, 1
0x80002248: fe e7 9c e3 bne	a5, a4, -8
0x80002240: 00 b7 80 23 sb	a1, 0(a5)
0x80002244: 00 17 87 93 addi	a5, a5, 1
0x80002248: fe e7 9c e3 bne	a5, a4, -8
0x80002240: 00 b7 80 23 sb	a1, 0(a5)
0x80002244: 00 17 87 93 addi	a5, a5, 1
0x80002248: fe e7 9c e3 bne	a5, a4, -8
0x80002240: 00 b7 80 23 sb	a1, 0(a5)
0x80002244: 00 17 87 93 addi	a5, a5, 1
0x80002248: fe e7 9c e3 bne	a5, a4, -8
0x80002240: 00 b7 80 23 sb	a1, 0(a5)
0x80002244: 00 17 87 93 addi	a5, a5, 1
0x80002248: fe e7 9c e3 bne	a5, a4, -8
0x80002240: 00 b7 80 23 sb	a1, 0(a5)
0x80002244: 00 17 87 93 addi	a5, a5, 1
0x80002248: fe e7 9c e3 bne	a5, a4, -8
0x80002240: 00 b7 80 23 sb	a1, 0(a5)
0x80002244: 00 17 87 93 addi	a5, a5, 1
0x80002248: fe e7 9c e3 bne	a5, a4, -8
0x80002240: 00 b7 80 23 sb	a1, 0(a5)
0x80002244: 00 17 87 93 addi	a5, a5, 1
0x80002248: fe e7 9c e3 bne	a5, a4, -8
0x80002240: 00 b7 80 23 sb	a1, 0(a5)
0x80002244: 00 17 87 93 addi	a5, a5, 1
0x80002248: fe e7 9c e3 bne	a5, a4, -8
0x80002240: 00 b7 80 23 sb	a1, 0(a5)
0x80002244: 00 17 87 93 addi	a5, a5, 1
0x80002248: fe e7 9c e3 bne	a5, a4, -8
0x80002240: 00 b7 80 23 sb	a1, 0(a5)
0x80002244: 00 17 87 93 addi	a5, a5, 1
0x80002248: fe e7 9c e3 bne	a5, a4, -8
0x80002240: 00 b7 80 23 sb	a1, 0(a5)
0x80002244: 00 17 87 93 addi	a5, a5, 1
0x80002248: fe e7 9c e3 bne	a5, a4, -8
0x80002240: 00 b7 80 23 sb	a1, 0(a5)
0x80002244: 00 17 87 93 addi	a5, a5, 1
0x80002248: fe e7 9c e3 bne	a5, a4, -8
0x80002240: 00 b7 80 23 sb	a1, 0(a5)
0x80002244: 00 17 87 93 addi	a5, a5, 1
0x80002248: fe e7 9c e3 bne	a5, a4, -8
0x80002240: 00 b7 80 23 sb	a1, 0(a5)
0x80002244: 00 17 87 93 addi	a5, a5, 1
0x80002248: fe e7 9c e3 bne	a5, a4, -8
0x80002240: 00 b7 80 23 sb	a1, 0(a5)
0x80002244: 00 17 87 93 addi	a5, a5, 1
0x80002248: fe e7 9c e3 bne	a5, a4, -8
0x80002240: 00 b7 80 23 sb	a1, 0(a5)
0x80002244: 00 17 87 93 addi	a5, a5, 1
0x80002248: fe e7 9c e3 bne	a5, a4, -8
0x80002240: 00 b7 80 23 sb	a1, 0(a5)
0x80002244: 00 17 87 93 addi	a5, a5, 1
0x80002248: fe e7 9c e3 bne	a5, a4, -8
0x80002240: 00 b7 80 23 sb	a1, 0(a5)
0x80002244: 00 17 87 93 addi	a5, a5, 1
0x80002248: fe e7 9c e3 bne	a5, a4, -8
0x80002240: 00 b7 80 23 sb	a1, 0(a5)
0x80002244: 00 17 87 93 addi	a5, a5, 1
0x80002248: fe e7 9c e3 bne	a5, a4, -8
0x80002240: 00 b7 80 23 sb	a1, 0(a5)
0x80002244: 00 17 87 93 addi	a5, a5, 1
0x80002248: fe e7 9c e3 bne	a5, a4, -8
0x80002240: 00 b7 80 23 sb	a1, 0(a5)
0x80002244: 00 17 87 93 addi	a5, a5, 1
0x80002248: fe e7 9c e3 bne	a5, a4, -8
0x80002240: 00 b7 80 23 sb	a1, 0(a5)
0x80002244: 00 17 87 93 addi	a5, a5, 1
0x80002248: fe e7 9c e3 bne	a5, a4, -8
0x80002240: 00 b7 80 23 sb	a1, 0(a5)
0x80002244: 00 17 87 93 addi	a5, a5, 1
0x80002248: fe e7 9c e3 bne	a5, a4, -8
0x80002240: 00 b7 80 23 sb	a1, 0(a5)
0x80002244: 00 17 87 93 addi	a5, a5, 1
0x80002248: fe e7 9c e3 bne	a5, a4, -8
0x80002240: 00 b7 80 23 sb	a1, 0(a5)
0x80002244: 00 17 87 93 addi	a5, a5, 1
0x80002248: fe e7 9c e3 bne	a5, a4, -8
0x80002240: 00 b7 80 23 sb	a1, 0(a5)
0x80002244: 00 17 87 93 addi	a5, a5, 1
0x80002248: fe e7 9c e3 bne	a5, a4, -8
0x80002240: 00 b7 80 23 sb	a1, 0(a5)
0x80002244: 00 17 87 93 addi	a5, a5, 1
0x80002248: fe e7 9c e3 bne	a5, a4, -8
0x80002240: 00 b7 80 23 sb	a1, 0(a5)
0x80002244: 00 17 87 93 addi	a5, a5, 1
0x80002248: fe e7 9c e3 bne	a5, a4, -8
0x80002240: 00 b7 80 23 sb	a1, 0(a5)
0x80002244: 00 17 87 93 addi	a5, a5, 1
0x80002248: fe e7 9c e3 bne	a5, a4, -8
0x80002240: 00 b7 80 23 sb	a1, 0(a5)
0x80002244: 00 17 87 93 addi	a5, a5, 1
0x80002248: fe e7 9c e3 bne	a5, a4, -8
0x80002240: 00 b7 80 23 sb	a1, 0(a5)
0x80002244: 00 17 87 93 addi	a5, a5, 1
0x80002248: fe e7 9c e3 bne	a5, a4, -8
0x80002240: 00 b7 80 23 sb	a1, 0(a5)
0x80002244: 00 17 87 93 addi	a5, a5, 1
0x80002248: fe e7 9c e3 bne	a5, a4, -8
0x80002240: 00 b7 80 23 sb	a1, 0(a5)
0x80002244: 00 17 87 93 addi	a5, a5, 1
0x80002248: fe e7 9c e3 bne	a5, a4, -8
0x80002240: 00 b7 80 23 sb	a1, 0(a5)
0x80002244: 00 17 87 93 addi	a5, a5, 1
0x80002248: fe e7 9c e3 bne	a5, a4, -8
0x80002240: 00 b7 80 23 sb	a1, 0(a5)
0x80002244: 00 17 87 93 addi	a5, a5, 1
0x80002248: fe e7 9c e3 bne	a5, a4, -8
0x80002240: 00 b7 80 23 sb	a1, 0(a5)
0x80002244: 00 17 87 93 addi	a5, a5, 1
0x80002248: fe e7 9c e3 bne	a5, a4, -8
0x80002240: 00 b7 80 23 sb	a1, 0(a5)
0x80002244: 00 17 87 93 addi	a5, a5, 1
0x80002248: fe e7 9c e3 bne	a5, a4, -8
0x80002240: 00 b7 80 23 sb	a1, 0(a5)
0x80002244: 00 17 87 93 addi	a5, a5, 1
0x80002248: fe e7 9c e3 bne	a5, a4, -8
0x80002240: 00 b7 80 23 sb	a1, 0(a5)
0x80002244: 00 17 87 93 addi	a5, a5, 1
0x80002248: fe e7 9c e3 bne	a5, a4, -8
0x80002240: 00 b7 80 23 sb	a1, 0(a5)
0x80002244: 00 17 87 93 addi	a5, a5, 1
0x80002248: fe e7 9c e3 bne	a5, a4, -8
0x80002240: 00 b7 80 23 sb	a1, 0(a5)
0x80002244: 00 17 87 93 addi	a5, a5, 1
0x80002248: fe e7 9c e3 bne	a5, a4, -8
0x80002240: 00 b7 80 23 sb	a1, 0(a5)
0x80002244: 00 17 87 93 addi	a5, a5, 1
0x80002248: fe e7 9c e3 bne	a5, a4, -8
0x80002240: 00 b7 80 23 sb	a1, 0(a5)
0x80002244: 00 17 87 93 addi	a5, a5, 1
0x80002248: fe e7 9c e3 bne	a5, a4, -8
0x80002240: 00 b7 80 23 sb	a1, 0(a5)
0x80002244: 00 17 87 93 addi	a5, a5, 1
0x80002248: fe e7 9c e3 bne	a5, a4, -8
0x80002240: 00 b7 80 23 sb	a1, 0(a5)
0x80002244: 00 17 87 93 addi	a5, a5, 1
0x80002248: fe e7 9c e3 bne	a5, a4, -8
0x80002240: 00 b7 80 23 sb	a1, 0(a5)
0x80002244: 00 17 87 93 addi	a5, a5, 1
0x80002248: fe e7 9c e3 bne	a5, a4, -8
0x80002240: 00 b7 80 23 sb	a1, 0(a5)
0x80002244: 00 17 87 93 addi	a5, a5, 1
0x80002248: fe e7 9c e3 bne	a5, a4, -8
0x80002240: 00 b7 80 23 sb	a1, 0(a5)
0x80002244: 00 17 87 93 addi	a5, a5, 1
0x80002248: fe e7 9c e3 bne	a5, a4, -8
0x80002240: 00 b7 80 23 sb	a1, 0(a5)
0x80002244: 00 17 87 93 addi	a5, a5, 1
0x80002248: fe e7 9c e3 bne	a5, a4, -8
0x80002240: 00 b7 80 23 sb	a1, 0(a5)
0x80002244: 00 17 87 93 addi	a5, a5, 1
0x80002248: fe e7 9c e3 bne	a5, a4, -8
0x80002240: 00 b7 80 23 sb	a1, 0(a5)
0x80002244: 00 17 87 93 addi	a5, a5, 1
0x80002248: fe e7 9c e3 bne	a5, a4, -8
0x80002240: 00 b7 80 23 sb	a1, 0(a5)
0x80002244: 00 17 87 93 addi	a5, a5, 1
0x80002248: fe e7 9c e3 bne	a5, a4, -8
0x80002240: 00 b7 80 23 sb	a1, 0(a5)
0x80002244: 00 17 87 93 addi	a5, a5, 1
0x80002248: fe e7 9c e3 bne	a5, a4, -8
0x80002240: 00 b7 80 23 sb	a1, 0(a5)
0x80002244: 00 17 87 93 addi	a5, a5, 1
0x80002248: fe e7 9c e3 bne	a5, a4, -8
0x80002240: 00 b7 80 23 sb	a1, 0(a5)
0x80002244: 00 17 87 93 addi	a5, a5, 1
0x80002248: fe e7 9c e3 bne	a5, a4, -8
0x80002240: 00 b7 80 23 sb	a1, 0(a5)
0x80002244: 00 17 87 93 addi	a5, a5, 1
0x80002248: fe e7 9c e3 bne	a5, a4, -8
0x80002240: 00 b7 80 23 sb	a1, 0(a5)
0x80002244: 00 17 87 93 addi	a5, a5, 1
0x80002248: fe e7 9c e3 bne	a5, a4, -8
0x80002240: 00 b7 80 23 sb	a1, 0(a5)
0x80002244: 00 17 87 93 addi	a5, a5, 1
0x80002248: fe e7 9c e3 bne	a5, a4, -8
0x80002240: 00 b7 80 23 sb	a1, 0(a5)
0x80002244: 00 17 87 93 addi	a5, a5, 1
0x80002248: fe e7 9c e3 bne	a5, a4, -8
0x80002240: 00 b7 80 23 sb	a1, 0(a5)
0x80002244: 00 17 87 93 addi	a5, a5, 1
0x80002248: fe e7 9c e3 bne	a5, a4, -8
0x80002240: 00 b7 80 23 sb	a1, 0(a5)
0x80002244: 00 17 87 93 addi	a5, a5, 1
0x80002248: fe e7 9c e3 bne	a5, a4, -8
0x80002240: 00 b7 80 23 sb	a1, 0(a5)
0x80002244: 00 17 87 93 addi	a5, a5, 1
0x80002248: fe e7 9c e3 bne	a5, a4, -8
0x80002240: 00 b7 80 23 sb	a1, 0(a5)
0x80002244: 00 17 87 93 addi	a5, a5, 1
0x80002248: fe e7 9c e3 bne	a5, a4, -8
0x80002240: 00 b7 80 23 sb	a1, 0(a5)
0x80002244: 00 17 87 93 addi	a5, a5, 1
0x80002248: fe e7 9c e3 bne	a5, a4, -8
0x80002240: 00 b7 80 23 sb	a1, 0(a5)
0x80002244: 00 17 87 93 addi	a5, a5, 1
0x80002248: fe e7 9c e3 bne	a5, a4, -8
0x80002240: 00 b7 80 23 sb	a1, 0(a5)
0x80002244: 00 17 87 93 addi	a5, a5, 1
0x80002248: fe e7 9c e3 bne	a5, a4, -8
0x80002240: 00 b7 80 23 sb	a1, 0(a5)
0x80002244: 00 17 87 93 addi	a5, a5, 1
0x80002248: fe e7 9c e3 bne	a5, a4, -8
0x80002240: 00 b7 80 23 sb	a1, 0(a5)
0x80002244: 00 17 87 93 addi	a5, a5, 1
0x80002248: fe e7 9c e3 bne	a5, a4, -8
0x80002240: 00 b7 80 23 sb	a1, 0(a5)
0x80002244: 00 17 87 93 addi	a5, a5, 1
0x80002248: fe e7 9c e3 bne	a5, a4, -8
0x80002240: 00 b7 80 23 sb	a1, 0(a5)
0x80002244: 00 17 87 93 addi	a5, a5, 1
0x80002248: fe e7 9c e3 bne	a5, a4, -8
0x80002240: 00 b7 80 23 sb	a1, 0(a5)
0x80002244: 00 17 87 93 addi	a5, a5, 1
0x80002248: fe e7 9c e3 bne	a5, a4, -8
0x80002240: 00 b7 80 23 sb	a1, 0(a5)
0x80002244: 00 17 87 93 addi	a5, a5, 1
0x80002248: fe e7 9c e3 bne	a5, a4, -8
0x80002240: 00 b7 80 23 sb	a1, 0(a5)
0x80002244: 00 17 87 93 addi	a5, a5, 1
0x80002248: fe e7 9c e3 bne	a5, a4, -8
0x80002240: 00 b7 80 23 sb	a1, 0(a5)
0x80002244: 00 17 87 93 addi	a5, a5, 1
0x80002248: fe e7 9c e3 bne	a5, a4, -8
0x80002240: 00 b7 80 23 sb	a1, 0(a5)
0x80002244: 00 17 87 93 addi	a5, a5, 1
0x80002248: fe e7 9c e3 bne	a5, a4, -8
0x80002240: 00 b7 80 23 sb	a1, 0(a5)
0x80002244: 00 17 87 93 addi	a5, a5, 1
0x80002248: fe e7 9c e3 bne	a5, a4, -8
0x80002240: 00 b7 80 23 sb	a1, 0(a5)
0x80002244: 00 17 87 93 addi	a5, a5, 1
0x80002248: fe e7 9c e3 bne	a5, a4, -8
0x80002240: 00 b7 80 23 sb	a1, 0(a5)
0x80002244: 00 17 87 93 addi	a5, a5, 1
0x80002248: fe e7 9c e3 bne	a5, a4, -8
0x80002240: 00 b7 80 23 sb	a1, 0(a5)
0x80002244: 00 17 87 93 addi	a5, a5, 1
0x80002248: fe e7 9c e3 bne	a5, a4, -8
0x80002240: 00 b7 80 23 sb	a1, 0(a5)
0x80002244: 00 17 87 93 addi	a5, a5, 1
0x80002248: fe e7 9c e3 bne	a5, a4, -8
0x80002240: 00 b7 80 23 sb	a1, 0(a5)
0x80002244: 00 17 87 93 addi	a5, a5, 1
0x80002248: fe e7 9c e3 bne	a5, a4, -8
0x80002240: 00 b7 80 23 sb	a1, 0(a5)
0x80002244: 00 17 87 93 addi	a5, a5, 1
0x80002248: fe e7 9c e3 bne	a5, a4, -8
0x80002240: 00 b7 80 23 sb	a1, 0(a5)
0x80002244: 00 17 87 93 addi	a5, a5, 1
0x80002248: fe e7 9c e3 bne	a5, a4, -8
0x80002240: 00 b7 80 23 sb	a1, 0(a5)
0x80002244: 00 17 87 93 addi	a5, a5, 1
0x80002248: fe e7 9c e3 bne	a5, a4, -8
0x80002240: 00 b7 80 23 sb	a1, 0(a5)
0x80002244: 00 17 87 93 addi	a5, a5, 1
0x80002248: fe e7 9c e3 bne	a5, a4, -8
0x80002240: 00 b7 80 23 sb	a1, 0(a5)
0x80002244: 00 17 87 93 addi	a5, a5, 1
0x80002248: fe e7 9c e3 bne	a5, a4, -8
0x80002240: 00 b7 80 23 sb	a1, 0(a5)
0x80002244: 00 17 87 93 addi	a5, a5, 1
0x80002248: fe e7 9c e3 bne	a5, a4, -8
0x80002240: 00 b7 80 23 sb	a1, 0(a5)
0x80002244: 00 17 87 93 addi	a5, a5, 1
0x80002248: fe e7 9c e3 bne	a5, a4, -8
0x80002240: 00 b7 80 23 sb	a1, 0(a5)
0x80002244: 00 17 87 93 addi	a5, a5, 1
0x80002248: fe e7 9c e3 bne	a5, a4, -8
0x80002240: 00 b7 80 23 sb	a1, 0(a5)
0x80002244: 00 17 87 93 addi	a5, a5, 1
0x80002248: fe e7 9c e3 bne	a5, a4, -8
0x80002240: 00 b7 80 23 sb	a1, 0(a5)
0x80002244: 00 17 87 93 addi	a5, a5, 1
0x80002248: fe e7 9c e3 bne	a5, a4, -8
0x80002240: 00 b7 80 23 sb	a1, 0(a5)
0x80002244: 00 17 87 93 addi	a5, a5, 1
0x80002248: fe e7 9c e3 bne	a5, a4, -8
0x80002240: 00 b7 80 23 sb	a1, 0(a5)
0x80002244: 00 17 87 93 addi	a5, a5, 1
0x80002248: fe e7 9c e3 bne	a5, a4, -8
0x80002240: 00 b7 80 23 sb	a1, 0(a5)
0x80002244: 00 17 87 93 addi	a5, a5, 1
0x80002248: fe e7 9c e3 bne	a5, a4, -8
0x80002240: 00 b7 80 23 sb	a1, 0(a5)
0x80002244: 00 17 87 93 addi	a5, a5, 1
0x80002248: fe e7 9c e3 bne	a5, a4, -8
0x80002240: 00 b7 80 23 sb	a1, 0(a5)
0x80002244: 00 17 87 93 addi	a5, a5, 1
0x80002248: fe e7 9c e3 bne	a5, a4, -8
0x80002240: 00 b7 80 23 sb	a1, 0(a5)
0x80002244: 00 17 87 93 addi	a5, a5, 1
0x80002248: fe e7 9c e3 bne	a5, a4, -8
0x80002240: 00 b7 80 23 sb	a1, 0(a5)
0x80002244: 00 17 87 93 addi	a5, a5, 1
0x80002248: fe e7 9c e3 bne	a5, a4, -8
0x80002240: 00 b7 80 23 sb	a1, 0(a5)
0x80002244: 00 17 87 93 addi	a5, a5, 1
0x80002248: fe e7 9c e3 bne	a5, a4, -8
0x80002240: 00 b7 80 23 sb	a1, 0(a5)
0x80002244: 00 17 87 93 addi	a5, a5, 1
0x80002248: fe e7 9c e3 bne	a5, a4, -8
0x80002240: 00 b7 80 23 sb	a1, 0(a5)
0x80002244: 00 17 87 93 addi	a5, a5, 1
0x80002248: fe e7 9c e3 bne	a5, a4, -8
0x80002240: 00 b7 80 23 sb	a1, 0(a5)
0x80002244: 00 17 87 93 addi	a5, a5, 1
0x80002248: fe e7 9c e3 bne	a5, a4, -8
0x80002240: 00 b7 80 23 sb	a1, 0(a5)
0x80002244: 00 17 87 93 addi	a5, a5, 1
0x80002248: fe e7 9c e3 bne	a5, a4, -8
0x80002240: 00 b7 80 23 sb	a1, 0(a5)
0x80002244: 00 17 87 93 addi	a5, a5, 1
0x80002248: fe e7 9c e3 bne	a5, a4, -8
0x80002240: 00 b7 80 23 sb	a1, 0(a5)
0x80002244: 00 17 87 93 addi	a5, a5, 1
0x80002248: fe e7 9c e3 bne	a5, a4, -8
0x80002240: 00 b7 80 23 sb	a1, 0(a5)
0x80002244: 00 17 87 93 addi	a5, a5, 1
0x80002248: fe e7 9c e3 bne	a5, a4, -8
0x80002240: 00 b7 80 23 sb	a1, 0(a5)
0x80002244: 00 17 87 93 addi	a5, a5, 1
0x80002248: fe e7 9c e3 bne	a5, a4, -8
0x80002240: 00 b7 80 23 sb	a1, 0(a5)
0x80002244: 00 17 87 93 addi	a5, a5, 1
0x80002248: fe e7 9c e3 bne	a5, a4, -8
0x80002240: 00 b7 80 23 sb	a1, 0(a5)
0x80002244: 00 17 87 93 addi	a5, a5, 1
0x80002248: fe e7 9c e3 bne	a5, a4, -8
0x80002240: 00 b7 80 23 sb	a1, 0(a5)
0x80002244: 00 17 87 93 addi	a5, a5, 1
0x80002248: fe e7 9c e3 bne	a5, a4, -8
0x80002240: 00 b7 80 23 sb	a1, 0(a5)
0x80002244: 00 17 87 93 addi	a5, a5, 1
0x80002248: fe e7 9c e3 bne	a5, a4, -8
0x80002240: 00 b7 80 23 sb	a1, 0(a5)
0x80002244: 00 17 87 93 addi	a5, a5, 1
0x80002248: fe e7 9c e3 bne	a5, a4, -8
0x80002240: 00 b7 80 23 sb	a1, 0(a5)
0x80002244: 00 17 87 93 addi	a5, a5, 1
0x80002248: fe e7 9c e3 bne	a5, a4, -8
0x80002240: 00 b7 80 23 sb	a1, 0(a5)
0x80002244: 00 17 87 93 addi	a5, a5, 1
0x80002248: fe e7 9c e3 bne	a5, a4, -8
0x80002240: 00 b7 80 23 sb	a1, 0(a5)
0x80002244: 00 17 87 93 addi	a5, a5, 1
0x80002248: fe e7 9c e3 bne	a5, a4, -8
0x80002240: 00 b7 80 23 sb	a1, 0(a5)
0x80002244: 00 17 87 93 addi	a5, a5, 1
0x80002248: fe e7 9c e3 bne	a5, a4, -8
0x80002240: 00 b7 80 23 sb	a1, 0(a5)
0x80002244: 00 17 87 93 addi	a5, a5, 1
0x80002248: fe e7 9c e3 bne	a5, a4, -8
0x80002240: 00 b7 80 23 sb	a1, 0(a5)
0x80002244: 00 17 87 93 addi	a5, a5, 1
0x80002248: fe e7 9c e3 bne	a5, a4, -8
0x80002240: 00 b7 80 23 sb	a1, 0(a5)
0x80002244: 00 17 87 93 addi	a5, a5, 1
0x80002248: fe e7 9c e3 bne	a5, a4, -8
0x80002240: 00 b7 80 23 sb	a1, 0(a5)
0x80002244: 00 17 87 93 addi	a5, a5, 1
0x80002248: fe e7 9c e3 bne	a5, a4, -8
0x80002240: 00 b7 80 23 sb	a1, 0(a5)
0x80002244: 00 17 87 93 addi	a5, a5, 1
0x80002248: fe e7 9c e3 bne	a5, a4, -8
0x80002240: 00 b7 80 23 sb	a1, 0(a5)
0x80002244: 00 17 87 93 addi	a5, a5, 1
0x80002248: fe e7 9c e3 bne	a5, a4, -8
0x80002240: 00 b7 80 23 sb	a1, 0(a5)
0x80002244: 00 17 87 93 addi	a5, a5, 1
0x80002248: fe e7 9c e3 bne	a5, a4, -8
0x80002240: 00 b7 80 23 sb	a1, 0(a5)
0x80002244: 00 17 87 93 addi	a5, a5, 1
0x80002248: fe e7 9c e3 bne	a5, a4, -8
0x80002240: 00 b7 80 23 sb	a1, 0(a5)
0x80002244: 00 17 87 93 addi	a5, a5, 1
0x80002248: fe e7 9c e3 bne	a5, a4, -8
0x80002240: 00 b7 80 23 sb	a1, 0(a5)
0x80002244: 00 17 87 93 addi	a5, a5, 1
0x80002248: fe e7 9c e3 bne	a5, a4, -8
0x80002240: 00 b7 80 23 sb	a1, 0(a5)
0x80002244: 00 17 87 93 addi	a5, a5, 1
0x80002248: fe e7 9c e3 bne	a5, a4, -8
0x80002240: 00 b7 80 23 sb	a1, 0(a5)
0x80002244: 00 17 87 93 addi	a5, a5, 1
0x80002248: fe e7 9c e3 bne	a5, a4, -8
0x80002240: 00 b7 80 23 sb	a1, 0(a5)
0x80002244: 00 17 87 93 addi	a5, a5, 1
0x80002248: fe e7 9c e3 bne	a5, a4, -8
0x80002240: 00 b7 80 23 sb	a1, 0(a5)
0x80002244: 00 17 87 93 addi	a5, a5, 1
0x80002248: fe e7 9c e3 bne	a5, a4, -8
0x80002240: 00 b7 80 23 sb	a1, 0(a5)
0x80002244: 00 17 87 93 addi	a5, a5, 1
0x80002248: fe e7 9c e3 bne	a5, a4, -8
0x80002240: 00 b7 80 23 sb	a1, 0(a5)
0x80002244: 00 17 87 93 addi	a5, a5, 1
0x80002248: fe e7 9c e3 bne	a5, a4, -8
0x80002240: 00 b7 80 23 sb	a1, 0(a5)
0x80002244: 00 17 87 93 addi	a5, a5, 1
0x80002248: fe e7 9c e3 bne	a5, a4, -8
0x80002240: 00 b7 80 23 sb	a1, 0(a5)
0x80002244: 00 17 87 93 addi	a5, a5, 1
0x80002248: fe e7 9c e3 bne	a5, a4, -8
0x80002240: 00 b7 80 23 sb	a1, 0(a5)
0x80002244: 00 17 87 93 addi	a5, a5, 1
0x80002248: fe e7 9c e3 bne	a5, a4, -8
0x80002240: 00 b7 80 23 sb	a1, 0(a5)
0x80002244: 00 17 87 93 addi	a5, a5, 1
0x80002248: fe e7 9c e3 bne	a5, a4, -8
0x80002240: 00 b7 80 23 sb	a1, 0(a5)
0x80002244: 00 17 87 93 addi	a5, a5, 1
0x80002248: fe e7 9c e3 bne	a5, a4, -8
0x80002240: 00 b7 80 23 sb	a1, 0(a5)
0x80002244: 00 17 87 93 addi	a5, a5, 1
0x80002248: fe e7 9c e3 bne	a5, a4, -8
0x80002240: 00 b7 80 23 sb	a1, 0(a5)
0x80002244: 00 17 87 93 addi	a5, a5, 1
0x80002248: fe e7 9c e3 bne	a5, a4, -8
0x80002240: 00 b7 80 23 sb	a1, 0(a5)
0x80002244: 00 17 87 93 addi	a5, a5, 1
0x80002248: fe e7 9c e3 bne	a5, a4, -8
0x80002240: 00 b7 80 23 sb	a1, 0(a5)
0x80002244: 00 17 87 93 addi	a5, a5, 1
0x80002248: fe e7 9c e3 bne	a5, a4, -8
0x80002240: 00 b7 80 23 sb	a1, 0(a5)
0x80002244: 00 17 87 93 addi	a5, a5, 1
0x80002248: fe e7 9c e3 bne	a5, a4, -8
0x80002240: 00 b7 80 23 sb	a1, 0(a5)
0x80002244: 00 17 87 93 addi	a5, a5, 1
0x80002248: fe e7 9c e3 bne	a5, a4, -8
0x80002240: 00 b7 80 23 sb	a1, 0(a5)
0x80002244: 00 17 87 93 addi	a5, a5, 1
0x80002248: fe e7 9c e3 bne	a5, a4, -8
0x80002240: 00 b7 80 23 sb	a1, 0(a5)
0x80002244: 00 17 87 93 addi	a5, a5, 1
0x80002248: fe e7 9c e3 bne	a5, a4, -8
0x80002240: 00 b7 80 23 sb	a1, 0(a5)
0x80002244: 00 17 87 93 addi	a5, a5, 1
0x80002248: fe e7 9c e3 bne	a5, a4, -8
0x80002240: 00 b7 80 23 sb	a1, 0(a5)
0x80002244: 00 17 87 93 addi	a5, a5, 1
0x80002248: fe e7 9c e3 bne	a5, a4, -8
0x80002240: 00 b7 80 23 sb	a1, 0(a5)
0x80002244: 00 17 87 93 addi	a5, a5, 1
0x80002248: fe e7 9c e3 bne	a5, a4, -8
0x80002240: 00 b7 80 23 sb	a1, 0(a5)
0x80002244: 00 17 87 93 addi	a5, a5, 1
0x80002248: fe e7 9c e3 bne	a5, a4, -8
0x80002240: 00 b7 80 23 sb	a1, 0(a5)
0x80002244: 00 17 87 93 addi	a5, a5, 1
0x80002248: fe e7 9c e3 bne	a5, a4, -8
0x80002240: 00 b7 80 23 sb	a1, 0(a5)
0x80002244: 00 17 87 93 addi	a5, a5, 1
0x80002248: fe e7 9c e3 bne	a5, a4, -8
0x80002240: 00 b7 80 23 sb	a1, 0(a5)
0x80002244: 00 17 87 93 addi	a5, a5, 1
0x80002248: fe e7 9c e3 bne	a5, a4, -8
0x80002240: 00 b7 80 23 sb	a1, 0(a5)
0x80002244: 00 17 87 93 addi	a5, a5, 1
0x80002248: fe e7 9c e3 bne	a5, a4, -8
0x80002240: 00 b7 80 23 sb	a1, 0(a5)
0x80002244: 00 17 87 93 addi	a5, a5, 1
0x80002248: fe e7 9c e3 bne	a5, a4, -8
0x80002240: 00 b7 80 23 sb	a1, 0(a5)
0x80002244: 00 17 87 93 addi	a5, a5, 1
0x80002248: fe e7 9c e3 bne	a5, a4, -8
0x80002240: 00 b7 80 23 sb	a1, 0(a5)
0x80002244: 00 17 87 93 addi	a5, a5, 1
0x80002248: fe e7 9c e3 bne	a5, a4, -8
0x80002240: 00 b7 80 23 sb	a1, 0(a5)
0x80002244: 00 17 87 93 addi	a5, a5, 1
0x80002248: fe e7 9c e3 bne	a5, a4, -8
0x80002240: 00 b7 80 23 sb	a1, 0(a5)
0x80002244: 00 17 87 93 addi	a5, a5, 1
0x80002248: fe e7 9c e3 bne	a5, a4, -8
0x80002240: 00 b7 80 23 sb	a1, 0(a5)
0x80002244: 00 17 87 93 addi	a5, a5, 1
0x80002248: fe e7 9c e3 bne	a5, a4, -8
0x80002240: 00 b7 80 23 sb	a1, 0(a5)
0x80002244: 00 17 87 93 addi	a5, a5, 1
0x80002248: fe e7 9c e3 bne	a5, a4, -8
0x80002240: 00 b7 80 23 sb	a1, 0(a5)
0x80002244: 00 17 87 93 addi	a5, a5, 1
0x80002248: fe e7 9c e3 bne	a5, a4, -8
0x80002240: 00 b7 80 23 sb	a1, 0(a5)
0x80002244: 00 17 87 93 addi	a5, a5, 1
0x80002248: fe e7 9c e3 bne	a5, a4, -8
0x80002240: 00 b7 80 23 sb	a1, 0(a5)
0x80002244: 00 17 87 93 addi	a5, a5, 1
0x80002248: fe e7 9c e3 bne	a5, a4, -8
0x80002240: 00 b7 80 23 sb	a1, 0(a5)
0x80002244: 00 17 87 93 addi	a5, a5, 1
0x80002248: fe e7 9c e3 bne	a5, a4, -8
0x80002240: 00 b7 80 23 sb	a1, 0(a5)
0x80002244: 00 17 87 93 addi	a5, a5, 1
0x80002248: fe e7 9c e3 bne	a5, a4, -8
0x80002240: 00 b7 80 23 sb	a1, 0(a5)
0x80002244: 00 17 87 93 addi	a5, a5, 1
0x80002248: fe e7 9c e3 bne	a5, a4, -8
0x80002240: 00 b7 80 23 sb	a1, 0(a5)
0x80002244: 00 17 87 93 addi	a5, a5, 1
0x80002248: fe e7 9c e3 bne	a5, a4, -8
0x80002240: 00 b7 80 23 sb	a1, 0(a5)
0x80002244: 00 17 87 93 addi	a5, a5, 1
0x80002248: fe e7 9c e3 bne	a5, a4, -8
0x80002240: 00 b7 80 23 sb	a1, 0(a5)
0x80002244: 00 17 87 93 addi	a5, a5, 1
0x80002248: fe e7 9c e3 bne	a5, a4, -8
0x80002240: 00 b7 80 23 sb	a1, 0(a5)
0x80002244: 00 17 87 93 addi	a5, a5, 1
0x80002248: fe e7 9c e3 bne	a5, a4, -8
0x80002240: 00 b7 80 23 sb	a1, 0(a5)
0x80002244: 00 17 87 93 addi	a5, a5, 1
0x80002248: fe e7 9c e3 bne	a5, a4, -8
0x80002240: 00 b7 80 23 sb	a1, 0(a5)
0x80002244: 00 17 87 93 addi	a5, a5, 1
0x80002248: fe e7 9c e3 bne	a5, a4, -8
0x80002240: 00 b7 80 23 sb	a1, 0(a5)
0x80002244: 00 17 87 93 addi	a5, a5, 1
0x80002248: fe e7 9c e3 bne	a5, a4, -8
0x80002240: 00 b7 80 23 sb	a1, 0(a5)
0x80002244: 00 17 87 93 addi	a5, a5, 1
0x80002248: fe e7 9c e3 bne	a5, a4, -8
0x80002240: 00 b7 80 23 sb	a1, 0(a5)
0x80002244: 00 17 87 93 addi	a5, a5, 1
0x80002248: fe e7 9c e3 bne	a5, a4, -8
0x80002240: 00 b7 80 23 sb	a1, 0(a5)
0x80002244: 00 17 87 93 addi	a5, a5, 1
0x80002248: fe e7 9c e3 bne	a5, a4, -8
0x80002240: 00 b7 80 23 sb	a1, 0(a5)
0x80002244: 00 17 87 93 addi	a5, a5, 1
0x80002248: fe e7 9c e3 bne	a5, a4, -8
0x80002240: 00 b7 80 23 sb	a1, 0(a5)
0x80002244: 00 17 87 93 addi	a5, a5, 1
0x80002248: fe e7 9c e3 bne	a5, a4, -8
0x80002240: 00 b7 80 23 sb	a1, 0(a5)
0x80002244: 00 17 87 93 addi	a5, a5, 1
0x80002248: fe e7 9c e3 bne	a5, a4, -8
0x80002240: 00 b7 80 23 sb	a1, 0(a5)
0x80002244: 00 17 87 93 addi	a5, a5, 1
0x80002248: fe e7 9c e3 bne	a5, a4, -8
0x80002240: 00 b7 80 23 sb	a1, 0(a5)
0x80002244: 00 17 87 93 addi	a5, a5, 1
0x80002248: fe e7 9c e3 bne	a5, a4, -8
0x80002240: 00 b7 80 23 sb	a1, 0(a5)
0x80002244: 00 17 87 93 addi	a5, a5, 1
0x80002248: fe e7 9c e3 bne	a5, a4, -8
0x80002240: 00 b7 80 23 sb	a1, 0(a5)
0x80002244: 00 17 87 93 addi	a5, a5, 1
0x80002248: fe e7 9c e3 bne	a5, a4, -8
0x80002240: 00 b7 80 23 sb	a1, 0(a5)
0x80002244: 00 17 87 93 addi	a5, a5, 1
0x80002248: fe e7 9c e3 bne	a5, a4, -8
0x80002240: 00 b7 80 23 sb	a1, 0(a5)
0x80002244: 00 17 87 93 addi	a5, a5, 1
0x80002248: fe e7 9c e3 bne	a5, a4, -8
0x80002240: 00 b7 80 23 sb	a1, 0(a5)
0x80002244: 00 17 87 93 addi	a5, a5, 1
0x80002248: fe e7 9c e3 bne	a5, a4, -8
0x80002240: 00 b7 80 23 sb	a1, 0(a5)
0x80002244: 00 17 87 93 addi	a5, a5, 1
0x80002248: fe e7 9c e3 bne	a5, a4, -8
0x80002240: 00 b7 80 23 sb	a1, 0(a5)
0x80002244: 00 17 87 93 addi	a5, a5, 1
0x80002248: fe e7 9c e3 bne	a5, a4, -8
0x80002240: 00 b7 80 23 sb	a1, 0(a5)
0x80002244: 00 17 87 93 addi	a5, a5, 1
0x80002248: fe e7 9c e3 bne	a5, a4, -8
0x80002240: 00 b7 80 23 sb	a1, 0(a5)
0x80002244: 00 17 87 93 addi	a5, a5, 1
0x80002248: fe e7 9c e3 bne	a5, a4, -8
0x80002240: 00 b7 80 23 sb	a1, 0(a5)
0x80002244: 00 17 87 93 addi	a5, a5, 1
0x80002248: fe e7 9c e3 bne	a5, a4, -8
0x80002240: 00 b7 80 23 sb	a1, 0(a5)
0x80002244: 00 17 87 93 addi	a5, a5, 1
0x80002248: fe e7 9c e3 bne	a5, a4, -8
0x80002240: 00 b7 80 23 sb	a1, 0(a5)
0x80002244: 00 17 87 93 addi	a5, a5, 1
0x80002248: fe e7 9c e3 bne	a5, a4, -8
0x80002240: 00 b7 80 23 sb	a1, 0(a5)
0x80002244: 00 17 87 93 addi	a5, a5, 1
0x80002248: fe e7 9c e3 bne	a5, a4, -8
0x80002240: 00 b7 80 23 sb	a1, 0(a5)
0x80002244: 00 17 87 93 addi	a5, a5, 1
0x80002248: fe e7 9c e3 bne	a5, a4, -8
0x80002240: 00 b7 80 23 sb	a1, 0(a5)
0x80002244: 00 17 87 93 addi	a5, a5, 1
0x80002248: fe e7 9c e3 bne	a5, a4, -8
0x80002240: 00 b7 80 23 sb	a1, 0(a5)
0x80002244: 00 17 87 93 addi	a5, a5, 1
0x80002248: fe e7 9c e3 bne	a5, a4, -8
0x80002240: 00 b7 80 23 sb	a1, 0(a5)
0x80002244: 00 17 87 93 addi	a5, a5, 1
0x80002248: fe e7 9c e3 bne	a5, a4, -8
0x80002240: 00 b7 80 23 sb	a1, 0(a5)
0x80002244: 00 17 87 93 addi	a5, a5, 1
0x80002248: fe e7 9c e3 bne	a5, a4, -8
0x80002240: 00 b7 80 23 sb	a1, 0(a5)
0x80002244: 00 17 87 93 addi	a5, a5, 1
0x80002248: fe e7 9c e3 bne	a5, a4, -8
0x80002240: 00 b7 80 23 sb	a1, 0(a5)
0x80002244: 00 17 87 93 addi	a5, a5, 1
0x80002248: fe e7 9c e3 bne	a5, a4, -8
0x80002240: 00 b7 80 23 sb	a1, 0(a5)
0x80002244: 00 17 87 93 addi	a5, a5, 1
0x80002248: fe e7 9c e3 bne	a5, a4, -8
0x80002240: 00 b7 80 23 sb	a1, 0(a5)
0x80002244: 00 17 87 93 addi	a5, a5, 1
0x80002248: fe e7 9c e3 bne	a5, a4, -8
0x80002240: 00 b7 80 23 sb	a1, 0(a5)
0x80002244: 00 17 87 93 addi	a5, a5, 1
0x80002248: fe e7 9c e3 bne	a5, a4, -8
0x80002240: 00 b7 80 23 sb	a1, 0(a5)
0x80002244: 00 17 87 93 addi	a5, a5, 1
0x80002248: fe e7 9c e3 bne	a5, a4, -8
0x80002240: 00 b7 80 23 sb	a1, 0(a5)
0x80002244: 00 17 87 93 addi	a5, a5, 1
0x80002248: fe e7 9c e3 bne	a5, a4, -8
0x80002240: 00 b7 80 23 sb	a1, 0(a5)
0x80002244: 00 17 87 93 addi	a5, a5, 1
0x80002248: fe e7 9c e3 bne	a5, a4, -8
0x80002240: 00 b7 80 23 sb	a1, 0(a5)
0x80002244: 00 17 87 93 addi	a5, a5, 1
0x80002248: fe e7 9c e3 bne	a5, a4, -8
0x80002240: 00 b7 80 23 sb	a1, 0(a5)
0x80002244: 00 17 87 93 addi	a5, a5, 1
0x80002248: fe e7 9c e3 bne	a5, a4, -8
0x80002240: 00 b7 80 23 sb	a1, 0(a5)
0x80002244: 00 17 87 93 addi	a5, a5, 1
0x80002248: fe e7 9c e3 bne	a5, a4, -8
0x80002240: 00 b7 80 23 sb	a1, 0(a5)
0x80002244: 00 17 87 93 addi	a5, a5, 1
0x80002248: fe e7 9c e3 bne	a5, a4, -8
0x80002240: 00 b7 80 23 sb	a1, 0(a5)
0x80002244: 00 17 87 93 addi	a5, a5, 1
0x80002248: fe e7 9c e3 bne	a5, a4, -8
0x80002240: 00 b7 80 23 sb	a1, 0(a5)
0x80002244: 00 17 87 93 addi	a5, a5, 1
0x80002248: fe e7 9c e3 bne	a5, a4, -8
0x80002240: 00 b7 80 23 sb	a1, 0(a5)
0x80002244: 00 17 87 93 addi	a5, a5, 1
0x80002248: fe e7 9c e3 bne	a5, a4, -8
0x80002240: 00 b7 80 23 sb	a1, 0(a5)
0x80002244: 00 17 87 93 addi	a5, a5, 1
0x80002248: fe e7 9c e3 bne	a5, a4, -8
0x80002240: 00 b7 80 23 sb	a1, 0(a5)
0x80002244: 00 17 87 93 addi	a5, a5, 1
0x80002248: fe e7 9c e3 bne	a5, a4, -8
0x80002240: 00 b7 80 23 sb	a1, 0(a5)
0x80002244: 00 17 87 93 addi	a5, a5, 1
0x80002248: fe e7 9c e3 bne	a5, a4, -8
0x80002240: 00 b7 80 23 sb	a1, 0(a5)
0x80002244: 00 17 87 93 addi	a5, a5, 1
0x80002248: fe e7 9c e3 bne	a5, a4, -8
0x80002240: 00 b7 80 23 sb	a1, 0(a5)
0x80002244: 00 17 87 93 addi	a5, a5, 1
0x80002248: fe e7 9c e3 bne	a5, a4, -8
0x80002240: 00 b7 80 23 sb	a1, 0(a5)
0x80002244: 00 17 87 93 addi	a5, a5, 1
0x80002248: fe e7 9c e3 bne	a5, a4, -8
0x80002240: 00 b7 80 23 sb	a1, 0(a5)
0x80002244: 00 17 87 93 addi	a5, a5, 1
0x80002248: fe e7 9c e3 bne	a5, a4, -8
0x80002240: 00 b7 80 23 sb	a1, 0(a5)
0x80002244: 00 17 87 93 addi	a5, a5, 1
0x80002248: fe e7 9c e3 bne	a5, a4, -8
0x80002240: 00 b7 80 23 sb	a1, 0(a5)
0x80002244: 00 17 87 93 addi	a5, a5, 1
0x80002248: fe e7 9c e3 bne	a5, a4, -8
0x80002240: 00 b7 80 23 sb	a1, 0(a5)
0x80002244: 00 17 87 93 addi	a5, a5, 1
0x80002248: fe e7 9c e3 bne	a5, a4, -8
0x80002240: 00 b7 80 23 sb	a1, 0(a5)
0x80002244: 00 17 87 93 addi	a5, a5, 1
0x80002248: fe e7 9c e3 bne	a5, a4, -8
0x80002240: 00 b7 80 23 sb	a1, 0(a5)
0x80002244: 00 17 87 93 addi	a5, a5, 1
0x80002248: fe e7 9c e3 bne	a5, a4, -8
0x80002240: 00 b7 80 23 sb	a1, 0(a5)
0x80002244: 00 17 87 93 addi	a5, a5, 1
0x80002248: fe e7 9c e3 bne	a5, a4, -8
0x80002240: 00 b7 80 23 sb	a1, 0(a5)
0x80002244: 00 17 87 93 addi	a5, a5, 1
0x80002248: fe e7 9c e3 bne	a5, a4, -8
0x80002240: 00 b7 80 23 sb	a1, 0(a5)
0x80002244: 00 17 87 93 addi	a5, a5, 1
0x80002248: fe e7 9c e3 bne	a5, a4, -8
0x80002240: 00 b7 80 23 sb	a1, 0(a5)
0x80002244: 00 17 87 93 addi	a5, a5, 1
0x80002248: fe e7 9c e3 bne	a5, a4, -8
0x80002240: 00 b7 80 23 sb	a1, 0(a5)
0x80002244: 00 17 87 93 addi	a5, a5, 1
0x80002248: fe e7 9c e3 bne	a5, a4, -8
0x80002240: 00 b7 80 23 sb	a1, 0(a5)
0x80002244: 00 17 87 93 addi	a5, a5, 1
0x80002248: fe e7 9c e3 bne	a5, a4, -8
0x80002240: 00 b7 80 23 sb	a1, 0(a5)
0x80002244: 00 17 87 93 addi	a5, a5, 1
0x80002248: fe e7 9c e3 bne	a5, a4, -8
0x80002240: 00 b7 80 23 sb	a1, 0(a5)
0x80002244: 00 17 87 93 addi	a5, a5, 1
0x80002248: fe e7 9c e3 bne	a5, a4, -8
0x80002240: 00 b7 80 23 sb	a1, 0(a5)
0x80002244: 00 17 87 93 addi	a5, a5, 1
0x80002248: fe e7 9c e3 bne	a5, a4, -8
0x80002240: 00 b7 80 23 sb	a1, 0(a5)
0x80002244: 00 17 87 93 addi	a5, a5, 1
0x80002248: fe e7 9c e3 bne	a5, a4, -8
0x80002240: 00 b7 80 23 sb	a1, 0(a5)
0x80002244: 00 17 87 93 addi	a5, a5, 1
0x80002248: fe e7 9c e3 bne	a5, a4, -8
0x80002240: 00 b7 80 23 sb	a1, 0(a5)
0x80002244: 00 17 87 93 addi	a5, a5, 1
0x80002248: fe e7 9c e3 bne	a5, a4, -8
0x80002240: 00 b7 80 23 sb	a1, 0(a5)
0x80002244: 00 17 87 93 addi	a5, a5, 1
0x80002248: fe e7 9c e3 bne	a5, a4, -8
0x80002240: 00 b7 80 23 sb	a1, 0(a5)
0x80002244: 00 17 87 93 addi	a5, a5, 1
0x80002248: fe e7 9c e3 bne	a5, a4, -8
0x80002240: 00 b7 80 23 sb	a1, 0(a5)
0x80002244: 00 17 87 93 addi	a5, a5, 1
0x80002248: fe e7 9c e3 bne	a5, a4, -8
0x80002240: 00 b7 80 23 sb	a1, 0(a5)
0x80002244: 00 17 87 93 addi	a5, a5, 1
0x80002248: fe e7 9c e3 bne	a5, a4, -8
0x80002240: 00 b7 80 23 sb	a1, 0(a5)
0x80002244: 00 17 87 93 addi	a5, a5, 1
0x80002248: fe e7 9c e3 bne	a5, a4, -8
0x80002240: 00 b7 80 23 sb	a1, 0(a5)
0x80002244: 00 17 87 93 addi	a5, a5, 1
0x80002248: fe e7 9c e3 bne	a5, a4, -8
0x80002240: 00 b7 80 23 sb	a1, 0(a5)
0x80002244: 00 17 87 93 addi	a5, a5, 1
0x80002248: fe e7 9c e3 bne	a5, a4, -8
0x80002240: 00 b7 80 23 sb	a1, 0(a5)
0x80002244: 00 17 87 93 addi	a5, a5, 1
0x80002248: fe e7 9c e3 bne	a5, a4, -8
0x80002240: 00 b7 80 23 sb	a1, 0(a5)
0x80002244: 00 17 87 93 addi	a5, a5, 1
0x80002248: fe e7 9c e3 bne	a5, a4, -8
0x80002240: 00 b7 80 23 sb	a1, 0(a5)
0x80002244: 00 17 87 93 addi	a5, a5, 1
0x80002248: fe e7 9c e3 bne	a5, a4, -8
0x80002240: 00 b7 80 23 sb	a1, 0(a5)
0x80002244: 00 17 87 93 addi	a5, a5, 1
0x80002248: fe e7 9c e3 bne	a5, a4, -8
0x80002240: 00 b7 80 23 sb	a1, 0(a5)
0x80002244: 00 17 87 93 addi	a5, a5, 1
0x80002248: fe e7 9c e3 bne	a5, a4, -8
0x80002240: 00 b7 80 23 sb	a1, 0(a5)
0x80002244: 00 17 87 93 addi	a5, a5, 1
0x80002248: fe e7 9c e3 bne	a5, a4, -8
0x80002240: 00 b7 80 23 sb	a1, 0(a5)
0x80002244: 00 17 87 93 addi	a5, a5, 1
0x80002248: fe e7 9c e3 bne	a5, a4, -8
0x80002240: 00 b7 80 23 sb	a1, 0(a5)
0x80002244: 00 17 87 93 addi	a5, a5, 1
0x80002248: fe e7 9c e3 bne	a5, a4, -8
0x80002240: 00 b7 80 23 sb	a1, 0(a5)
0x80002244: 00 17 87 93 addi	a5, a5, 1
0x80002248: fe e7 9c e3 bne	a5, a4, -8
0x80002240: 00 b7 80 23 sb	a1, 0(a5)
0x80002244: 00 17 87 93 addi	a5, a5, 1
0x80002248: fe e7 9c e3 bne	a5, a4, -8
0x80002240: 00 b7 80 23 sb	a1, 0(a5)
0x80002244: 00 17 87 93 addi	a5, a5, 1
0x80002248: fe e7 9c e3 bne	a5, a4, -8
0x80002240: 00 b7 80 23 sb	a1, 0(a5)
0x80002244: 00 17 87 93 addi	a5, a5, 1
0x80002248: fe e7 9c e3 bne	a5, a4, -8
0x80002240: 00 b7 80 23 sb	a1, 0(a5)
0x80002244: 00 17 87 93 addi	a5, a5, 1
0x80002248: fe e7 9c e3 bne	a5, a4, -8
0x80002240: 00 b7 80 23 sb	a1, 0(a5)
0x80002244: 00 17 87 93 addi	a5, a5, 1
0x80002248: fe e7 9c e3 bne	a5, a4, -8
0x80002240: 00 b7 80 23 sb	a1, 0(a5)
0x80002244: 00 17 87 93 addi	a5, a5, 1
0x80002248: fe e7 9c e3 bne	a5, a4, -8
0x80002240: 00 b7 80 23 sb	a1, 0(a5)
0x80002244: 00 17 87 93 addi	a5, a5, 1
0x80002248: fe e7 9c e3 bne	a5, a4, -8
0x80002240: 00 b7 80 23 sb	a1, 0(a5)
0x80002244: 00 17 87 93 addi	a5, a5, 1
0x80002248: fe e7 9c e3 bne	a5, a4, -8
0x80002240: 00 b7 80 23 sb	a1, 0(a5)
0x80002244: 00 17 87 93 addi	a5, a5, 1
0x80002248: fe e7 9c e3 bne	a5, a4, -8
0x80002240: 00 b7 80 23 sb	a1, 0(a5)
0x80002244: 00 17 87 93 addi	a5, a5, 1
0x80002248: fe e7 9c e3 bne	a5, a4, -8
0x80002240: 00 b7 80 23 sb	a1, 0(a5)
0x80002244: 00 17 87 93 addi	a5, a5, 1
0x80002248: fe e7 9c e3 bne	a5, a4, -8
0x80002240: 00 b7 80 23 sb	a1, 0(a5)
0x80002244: 00 17 87 93 addi	a5, a5, 1
0x80002248: fe e7 9c e3 bne	a5, a4, -8
0x80002240: 00 b7 80 23 sb	a1, 0(a5)
0x80002244: 00 17 87 93 addi	a5, a5, 1
0x80002248: fe e7 9c e3 bne	a5, a4, -8
0x80002240: 00 b7 80 23 sb	a1, 0(a5)
0x80002244: 00 17 87 93 addi	a5, a5, 1
0x80002248: fe e7 9c e3 bne	a5, a4, -8
0x80002240: 00 b7 80 23 sb	a1, 0(a5)
0x80002244: 00 17 87 93 addi	a5, a5, 1
0x80002248: fe e7 9c e3 bne	a5, a4, -8
0x80002240: 00 b7 80 23 sb	a1, 0(a5)
0x80002244: 00 17 87 93 addi	a5, a5, 1
0x80002248: fe e7 9c e3 bne	a5, a4, -8
0x80002240: 00 b7 80 23 sb	a1, 0(a5)
0x80002244: 00 17 87 93 addi	a5, a5, 1
0x80002248: fe e7 9c e3 bne	a5, a4, -8
0x80002240: 00 b7 80 23 sb	a1, 0(a5)
0x80002244: 00 17 87 93 addi	a5, a5, 1
0x80002248: fe e7 9c e3 bne	a5, a4, -8
0x80002240: 00 b7 80 23 sb	a1, 0(a5)
0x80002244: 00 17 87 93 addi	a5, a5, 1
0x80002248: fe e7 9c e3 bne	a5, a4, -8
0x80002240: 00 b7 80 23 sb	a1, 0(a5)
0x80002244: 00 17 87 93 addi	a5, a5, 1
0x80002248: fe e7 9c e3 bne	a5, a4, -8
0x80002240: 00 b7 80 23 sb	a1, 0(a5)
0x80002244: 00 17 87 93 addi	a5, a5, 1
0x80002248: fe e7 9c e3 bne	a5, a4, -8
0x80002240: 00 b7 80 23 sb	a1, 0(a5)
0x80002244: 00 17 87 93 addi	a5, a5, 1
0x80002248: fe e7 9c e3 bne	a5, a4, -8
0x80002240: 00 b7 80 23 sb	a1, 0(a5)
0x80002244: 00 17 87 93 addi	a5, a5, 1
0x80002248: fe e7 9c e3 bne	a5, a4, -8
0x80002240: 00 b7 80 23 sb	a1, 0(a5)
0x80002244: 00 17 87 93 addi	a5, a5, 1
0x80002248: fe e7 9c e3 bne	a5, a4, -8
0x80002240: 00 b7 80 23 sb	a1, 0(a5)
0x80002244: 00 17 87 93 addi	a5, a5, 1
0x80002248: fe e7 9c e3 bne	a5, a4, -8
0x80002240: 00 b7 80 23 sb	a1, 0(a5)
0x80002244: 00 17 87 93 addi	a5, a5, 1
0x80002248: fe e7 9c e3 bne	a5, a4, -8
0x80002240: 00 b7 80 23 sb	a1, 0(a5)
0x80002244: 00 17 87 93 addi	a5, a5, 1
0x80002248: fe e7 9c e3 bne	a5, a4, -8
0x80002240: 00 b7 80 23 sb	a1, 0(a5)
0x80002244: 00 17 87 93 addi	a5, a5, 1
0x80002248: fe e7 9c e3 bne	a5, a4, -8
0x80002240: 00 b7 80 23 sb	a1, 0(a5)
0x80002244: 00 17 87 93 addi	a5, a5, 1
0x80002248: fe e7 9c e3 bne	a5, a4, -8
0x80002240: 00 b7 80 23 sb	a1, 0(a5)
0x80002244: 00 17 87 93 addi	a5, a5, 1
0x80002248: fe e7 9c e3 bne	a5, a4, -8
0x80002240: 00 b7 80 23 sb	a1, 0(a5)
0x80002244: 00 17 87 93 addi	a5, a5, 1
0x80002248: fe e7 9c e3 bne	a5, a4, -8
0x80002240: 00 b7 80 23 sb	a1, 0(a5)
0x80002244: 00 17 87 93 addi	a5, a5, 1
0x80002248: fe e7 9c e3 bne	a5, a4, -8
0x80002240: 00 b7 80 23 sb	a1, 0(a5)
0x80002244: 00 17 87 93 addi	a5, a5, 1
0x80002248: fe e7 9c e3 bne	a5, a4, -8
0x80002240: 00 b7 80 23 sb	a1, 0(a5)
0x80002244: 00 17 87 93 addi	a5, a5, 1
0x80002248: fe e7 9c e3 bne	a5, a4, -8
0x80002240: 00 b7 80 23 sb	a1, 0(a5)
0x80002244: 00 17 87 93 addi	a5, a5, 1
0x80002248: fe e7 9c e3 bne	a5, a4, -8
0x80002240: 00 b7 80 23 sb	a1, 0(a5)
0x80002244: 00 17 87 93 addi	a5, a5, 1
0x80002248: fe e7 9c e3 bne	a5, a4, -8
0x80002240: 00 b7 80 23 sb	a1, 0(a5)
0x80002244: 00 17 87 93 addi	a5, a5, 1
0x80002248: fe e7 9c e3 bne	a5, a4, -8
0x80002240: 00 b7 80 23 sb	a1, 0(a5)
0x80002244: 00 17 87 93 addi	a5, a5, 1
0x80002248: fe e7 9c e3 bne	a5, a4, -8
0x80002240: 00 b7 80 23 sb	a1, 0(a5)
0x80002244: 00 17 87 93 addi	a5, a5, 1
0x80002248: fe e7 9c e3 bne	a5, a4, -8
0x80002240: 00 b7 80 23 sb	a1, 0(a5)
0x80002244: 00 17 87 93 addi	a5, a5, 1
0x80002248: fe e7 9c e3 bne	a5, a4, -8
0x80002240: 00 b7 80 23 sb	a1, 0(a5)
0x80002244: 00 17 87 93 addi	a5, a5, 1
0x80002248: fe e7 9c e3 bne	a5, a4, -8
0x80002240: 00 b7 80 23 sb	a1, 0(a5)
0x80002244: 00 17 87 93 addi	a5, a5, 1
0x80002248: fe e7 9c e3 bne	a5, a4, -8
0x80002240: 00 b7 80 23 sb	a1, 0(a5)
0x80002244: 00 17 87 93 addi	a5, a5, 1
0x80002248: fe e7 9c e3 bne	a5, a4, -8
0x80002240: 00 b7 80 23 sb	a1, 0(a5)
0x80002244: 00 17 87 93 addi	a5, a5, 1
0x80002248: fe e7 9c e3 bne	a5, a4, -8
0x80002240: 00 b7 80 23 sb	a1, 0(a5)
0x80002244: 00 17 87 93 addi	a5, a5, 1
0x80002248: fe e7 9c e3 bne	a5, a4, -8
0x80002240: 00 b7 80 23 sb	a1, 0(a5)
0x80002244: 00 17 87 93 addi	a5, a5, 1
0x80002248: fe e7 9c e3 bne	a5, a4, -8
0x80002240: 00 b7 80 23 sb	a1, 0(a5)
0x80002244: 00 17 87 93 addi	a5, a5, 1
0x80002248: fe e7 9c e3 bne	a5, a4, -8
0x80002240: 00 b7 80 23 sb	a1, 0(a5)
0x80002244: 00 17 87 93 addi	a5, a5, 1
0x80002248: fe e7 9c e3 bne	a5, a4, -8
0x80002240: 00 b7 80 23 sb	a1, 0(a5)
0x80002244: 00 17 87 93 addi	a5, a5, 1
0x80002248: fe e7 9c e3 bne	a5, a4, -8
0x80002240: 00 b7 80 23 sb	a1, 0(a5)
0x80002244: 00 17 87 93 addi	a5, a5, 1
0x80002248: fe e7 9c e3 bne	a5, a4, -8
0x80002240: 00 b7 80 23 sb	a1, 0(a5)
0x80002244: 00 17 87 93 addi	a5, a5, 1
0x80002248: fe e7 9c e3 bne	a5, a4, -8
0x80002240: 00 b7 80 23 sb	a1, 0(a5)
0x80002244: 00 17 87 93 addi	a5, a5, 1
0x80002248: fe e7 9c e3 bne	a5, a4, -8
0x80002240: 00 b7 80 23 sb	a1, 0(a5)
0x80002244: 00 17 87 93 addi	a5, a5, 1
0x80002248: fe e7 9c e3 bne	a5, a4, -8
0x80002240: 00 b7 80 23 sb	a1, 0(a5)
0x80002244: 00 17 87 93 addi	a5, a5, 1
0x80002248: fe e7 9c e3 bne	a5, a4, -8
0x80002240: 00 b7 80 23 sb	a1, 0(a5)
0x80002244: 00 17 87 93 addi	a5, a5, 1
0x80002248: fe e7 9c e3 bne	a5, a4, -8
0x80002240: 00 b7 80 23 sb	a1, 0(a5)
0x80002244: 00 17 87 93 addi	a5, a5, 1
0x80002248: fe e7 9c e3 bne	a5, a4, -8
0x80002240: 00 b7 80 23 sb	a1, 0(a5)
0x80002244: 00 17 87 93 addi	a5, a5, 1
0x80002248: fe e7 9c e3 bne	a5, a4, -8
0x80002240: 00 b7 80 23 sb	a1, 0(a5)
0x80002244: 00 17 87 93 addi	a5, a5, 1
0x80002248: fe e7 9c e3 bne	a5, a4, -8
0x80002240: 00 b7 80 23 sb	a1, 0(a5)
0x80002244: 00 17 87 93 addi	a5, a5, 1
0x80002248: fe e7 9c e3 bne	a5, a4, -8
0x80002240: 00 b7 80 23 sb	a1, 0(a5)
0x80002244: 00 17 87 93 addi	a5, a5, 1
0x80002248: fe e7 9c e3 bne	a5, a4, -8
0x80002240: 00 b7 80 23 sb	a1, 0(a5)
0x80002244: 00 17 87 93 addi	a5, a5, 1
0x80002248: fe e7 9c e3 bne	a5, a4, -8
0x80002240: 00 b7 80 23 sb	a1, 0(a5)
0x80002244: 00 17 87 93 addi	a5, a5, 1
0x80002248: fe e7 9c e3 bne	a5, a4, -8
0x80002240: 00 b7 80 23 sb	a1, 0(a5)
0x80002244: 00 17 87 93 addi	a5, a5, 1
0x80002248: fe e7 9c e3 bne	a5, a4, -8
0x80002240: 00 b7 80 23 sb	a1, 0(a5)
0x80002244: 00 17 87 93 addi	a5, a5, 1
0x80002248: fe e7 9c e3 bne	a5, a4, -8
0x80002240: 00 b7 80 23 sb	a1, 0(a5)
0x80002244: 00 17 87 93 addi	a5, a5, 1
0x80002248: fe e7 9c e3 bne	a5, a4, -8
0x80002240: 00 b7 80 23 sb	a1, 0(a5)
0x80002244: 00 17 87 93 addi	a5, a5, 1
0x80002248: fe e7 9c e3 bne	a5, a4, -8
0x80002240: 00 b7 80 23 sb	a1, 0(a5)
0x80002244: 00 17 87 93 addi	a5, a5, 1
0x80002248: fe e7 9c e3 bne	a5, a4, -8
0x80002240: 00 b7 80 23 sb	a1, 0(a5)
0x80002244: 00 17 87 93 addi	a5, a5, 1
0x80002248: fe e7 9c e3 bne	a5, a4, -8
0x80002240: 00 b7 80 23 sb	a1, 0(a5)
0x80002244: 00 17 87 93 addi	a5, a5, 1
0x80002248: fe e7 9c e3 bne	a5, a4, -8
0x80002240: 00 b7 80 23 sb	a1, 0(a5)
0x80002244: 00 17 87 93 addi	a5, a5, 1
0x80002248: fe e7 9c e3 bne	a5, a4, -8
0x80002240: 00 b7 80 23 sb	a1, 0(a5)
0x80002244: 00 17 87 93 addi	a5, a5, 1
0x80002248: fe e7 9c e3 bne	a5, a4, -8
0x80002240: 00 b7 80 23 sb	a1, 0(a5)
0x80002244: 00 17 87 93 addi	a5, a5, 1
0x80002248: fe e7 9c e3 bne	a5, a4, -8
0x80002240: 00 b7 80 23 sb	a1, 0(a5)
0x80002244: 00 17 87 93 addi	a5, a5, 1
0x80002248: fe e7 9c e3 bne	a5, a4, -8
0x80002240: 00 b7 80 23 sb	a1, 0(a5)
0x80002244: 00 17 87 93 addi	a5, a5, 1
0x80002248: fe e7 9c e3 bne	a5, a4, -8
0x80002240: 00 b7 80 23 sb	a1, 0(a5)
0x80002244: 00 17 87 93 addi	a5, a5, 1
0x80002248: fe e7 9c e3 bne	a5, a4, -8
0x80002240: 00 b7 80 23 sb	a1, 0(a5)
0x80002244: 00 17 87 93 addi	a5, a5, 1
0x80002248: fe e7 9c e3 bne	a5, a4, -8
0x80002240: 00 b7 80 23 sb	a1, 0(a5)
0x80002244: 00 17 87 93 addi	a5, a5, 1
0x80002248: fe e7 9c e3 bne	a5, a4, -8
0x80002240: 00 b7 80 23 sb	a1, 0(a5)
0x80002244: 00 17 87 93 addi	a5, a5, 1
0x80002248: fe e7 9c e3 bne	a5, a4, -8
0x80002240: 00 b7 80 23 sb	a1, 0(a5)
0x80002244: 00 17 87 93 addi	a5, a5, 1
0x80002248: fe e7 9c e3 bne	a5, a4, -8
0x80002240: 00 b7 80 23 sb	a1, 0(a5)
0x80002244: 00 17 87 93 addi	a5, a5, 1
0x80002248: fe e7 9c e3 bne	a5, a4, -8
0x80002240: 00 b7 80 23 sb	a1, 0(a5)
0x80002244: 00 17 87 93 addi	a5, a5, 1
0x80002248: fe e7 9c e3 bne	a5, a4, -8
0x80002240: 00 b7 80 23 sb	a1, 0(a5)
0x80002244: 00 17 87 93 addi	a5, a5, 1
0x80002248: fe e7 9c e3 bne	a5, a4, -8
0x80002240: 00 b7 80 23 sb	a1, 0(a5)
0x80002244: 00 17 87 93 addi	a5, a5, 1
0x80002248: fe e7 9c e3 bne	a5, a4, -8
0x80002240: 00 b7 80 23 sb	a1, 0(a5)
0x80002244: 00 17 87 93 addi	a5, a5, 1
0x80002248: fe e7 9c e3 bne	a5, a4, -8
0x80002240: 00 b7 80 23 sb	a1, 0(a5)
0x80002244: 00 17 87 93 addi	a5, a5, 1
0x80002248: fe e7 9c e3 bne	a5, a4, -8
0x80002240: 00 b7 80 23 sb	a1, 0(a5)
0x80002244: 00 17 87 93 addi	a5, a5, 1
0x80002248: fe e7 9c e3 bne	a5, a4, -8
0x80002240: 00 b7 80 23 sb	a1, 0(a5)
0x80002244: 00 17 87 93 addi	a5, a5, 1
0x80002248: fe e7 9c e3 bne	a5, a4, -8
0x80002240: 00 b7 80 23 sb	a1, 0(a5)
0x80002244: 00 17 87 93 addi	a5, a5, 1
0x80002248: fe e7 9c e3 bne	a5, a4, -8
0x80002240: 00 b7 80 23 sb	a1, 0(a5)
0x80002244: 00 17 87 93 addi	a5, a5, 1
0x80002248: fe e7 9c e3 bne	a5, a4, -8
0x80002240: 00 b7 80 23 sb	a1, 0(a5)
0x80002244: 00 17 87 93 addi	a5, a5, 1
0x80002248: fe e7 9c e3 bne	a5, a4, -8
0x80002240: 00 b7 80 23 sb	a1, 0(a5)
0x80002244: 00 17 87 93 addi	a5, a5, 1
0x80002248: fe e7 9c e3 bne	a5, a4, -8
0x80002240: 00 b7 80 23 sb	a1, 0(a5)
0x80002244: 00 17 87 93 addi	a5, a5, 1
0x80002248: fe e7 9c e3 bne	a5, a4, -8
0x80002240: 00 b7 80 23 sb	a1, 0(a5)
0x80002244: 00 17 87 93 addi	a5, a5, 1
0x80002248: fe e7 9c e3 bne	a5, a4, -8
0x80002240: 00 b7 80 23 sb	a1, 0(a5)
0x80002244: 00 17 87 93 addi	a5, a5, 1
0x80002248: fe e7 9c e3 bne	a5, a4, -8
0x80002240: 00 b7 80 23 sb	a1, 0(a5)
0x80002244: 00 17 87 93 addi	a5, a5, 1
0x80002248: fe e7 9c e3 bne	a5, a4, -8
0x80002240: 00 b7 80 23 sb	a1, 0(a5)
0x80002244: 00 17 87 93 addi	a5, a5, 1
0x80002248: fe e7 9c e3 bne	a5, a4, -8
0x80002240: 00 b7 80 23 sb	a1, 0(a5)
0x80002244: 00 17 87 93 addi	a5, a5, 1
0x80002248: fe e7 9c e3 bne	a5, a4, -8
0x80002240: 00 b7 80 23 sb	a1, 0(a5)
0x80002244: 00 17 87 93 addi	a5, a5, 1
0x80002248: fe e7 9c e3 bne	a5, a4, -8
0x80002240: 00 b7 80 23 sb	a1, 0(a5)
0x80002244: 00 17 87 93 addi	a5, a5, 1
0x80002248: fe e7 9c e3 bne	a5, a4, -8
0x80002240: 00 b7 80 23 sb	a1, 0(a5)
0x80002244: 00 17 87 93 addi	a5, a5, 1
0x80002248: fe e7 9c e3 bne	a5, a4, -8
0x80002240: 00 b7 80 23 sb	a1, 0(a5)
0x80002244: 00 17 87 93 addi	a5, a5, 1
0x80002248: fe e7 9c e3 bne	a5, a4, -8
0x80002240: 00 b7 80 23 sb	a1, 0(a5)
0x80002244: 00 17 87 93 addi	a5, a5, 1
0x80002248: fe e7 9c e3 bne	a5, a4, -8
0x80002240: 00 b7 80 23 sb	a1, 0(a5)
0x80002244: 00 17 87 93 addi	a5, a5, 1
0x80002248: fe e7 9c e3 bne	a5, a4, -8
0x80002240: 00 b7 80 23 sb	a1, 0(a5)
0x80002244: 00 17 87 93 addi	a5, a5, 1
0x80002248: fe e7 9c e3 bne	a5, a4, -8
0x80002240: 00 b7 80 23 sb	a1, 0(a5)
0x80002244: 00 17 87 93 addi	a5, a5, 1
0x80002248: fe e7 9c e3 bne	a5, a4, -8
0x80002240: 00 b7 80 23 sb	a1, 0(a5)
0x80002244: 00 17 87 93 addi	a5, a5, 1
0x80002248: fe e7 9c e3 bne	a5, a4, -8
0x80002240: 00 b7 80 23 sb	a1, 0(a5)
0x80002244: 00 17 87 93 addi	a5, a5, 1
0x80002248: fe e7 9c e3 bne	a5, a4, -8
0x80002240: 00 b7 80 23 sb	a1, 0(a5)
0x80002244: 00 17 87 93 addi	a5, a5, 1
0x80002248: fe e7 9c e3 bne	a5, a4, -8
0x80002240: 00 b7 80 23 sb	a1, 0(a5)
0x80002244: 00 17 87 93 addi	a5, a5, 1
0x80002248: fe e7 9c e3 bne	a5, a4, -8
0x80002240: 00 b7 80 23 sb	a1, 0(a5)
0x80002244: 00 17 87 93 addi	a5, a5, 1
0x80002248: fe e7 9c e3 bne	a5, a4, -8
0x80002240: 00 b7 80 23 sb	a1, 0(a5)
0x80002244: 00 17 87 93 addi	a5, a5, 1
0x80002248: fe e7 9c e3 bne	a5, a4, -8
0x80002240: 00 b7 80 23 sb	a1, 0(a5)
0x80002244: 00 17 87 93 addi	a5, a5, 1
0x80002248: fe e7 9c e3 bne	a5, a4, -8
0x80002240: 00 b7 80 23 sb	a1, 0(a5)
0x80002244: 00 17 87 93 addi	a5, a5, 1
0x80002248: fe e7 9c e3 bne	a5, a4, -8
0x80002240: 00 b7 80 23 sb	a1, 0(a5)
0x80002244: 00 17 87 93 addi	a5, a5, 1
0x80002248: fe e7 9c e3 bne	a5, a4, -8
0x80002240: 00 b7 80 23 sb	a1, 0(a5)
0x80002244: 00 17 87 93 addi	a5, a5, 1
0x80002248: fe e7 9c e3 bne	a5, a4, -8
0x80002240: 00 b7 80 23 sb	a1, 0(a5)
0x80002244: 00 17 87 93 addi	a5, a5, 1
0x80002248: fe e7 9c e3 bne	a5, a4, -8
0x80002240: 00 b7 80 23 sb	a1, 0(a5)
0x80002244: 00 17 87 93 addi	a5, a5, 1
0x80002248: fe e7 9c e3 bne	a5, a4, -8
0x80002240: 00 b7 80 23 sb	a1, 0(a5)
0x80002244: 00 17 87 93 addi	a5, a5, 1
0x80002248: fe e7 9c e3 bne	a5, a4, -8
0x80002240: 00 b7 80 23 sb	a1, 0(a5)
0x80002244: 00 17 87 93 addi	a5, a5, 1
0x80002248: fe e7 9c e3 bne	a5, a4, -8
0x80002240: 00 b7 80 23 sb	a1, 0(a5)
0x80002244: 00 17 87 93 addi	a5, a5, 1
0x80002248: fe e7 9c e3 bne	a5, a4, -8
0x80002240: 00 b7 80 23 sb	a1, 0(a5)
0x80002244: 00 17 87 93 addi	a5, a5, 1
0x80002248: fe e7 9c e3 bne	a5, a4, -8
0x80002240: 00 b7 80 23 sb	a1, 0(a5)
0x80002244: 00 17 87 93 addi	a5, a5, 1
0x80002248: fe e7 9c e3 bne	a5, a4, -8
0x80002240: 00 b7 80 23 sb	a1, 0(a5)
0x80002244: 00 17 87 93 addi	a5, a5, 1
0x80002248: fe e7 9c e3 bne	a5, a4, -8
0x80002240: 00 b7 80 23 sb	a1, 0(a5)
0x80002244: 00 17 87 93 addi	a5, a5, 1
0x80002248: fe e7 9c e3 bne	a5, a4, -8
0x80002240: 00 b7 80 23 sb	a1, 0(a5)
0x80002244: 00 17 87 93 addi	a5, a5, 1
0x80002248: fe e7 9c e3 bne	a5, a4, -8
0x80002240: 00 b7 80 23 sb	a1, 0(a5)
0x80002244: 00 17 87 93 addi	a5, a5, 1
0x80002248: fe e7 9c e3 bne	a5, a4, -8
0x80002240: 00 b7 80 23 sb	a1, 0(a5)
0x80002244: 00 17 87 93 addi	a5, a5, 1
0x80002248: fe e7 9c e3 bne	a5, a4, -8
0x80002240: 00 b7 80 23 sb	a1, 0(a5)
0x80002244: 00 17 87 93 addi	a5, a5, 1
0x80002248: fe e7 9c e3 bne	a5, a4, -8
0x80002240: 00 b7 80 23 sb	a1, 0(a5)
0x80002244: 00 17 87 93 addi	a5, a5, 1
0x80002248: fe e7 9c e3 bne	a5, a4, -8
0x80002240: 00 b7 80 23 sb	a1, 0(a5)
0x80002244: 00 17 87 93 addi	a5, a5, 1
0x80002248: fe e7 9c e3 bne	a5, a4, -8
0x80002240: 00 b7 80 23 sb	a1, 0(a5)
0x80002244: 00 17 87 93 addi	a5, a5, 1
0x80002248: fe e7 9c e3 bne	a5, a4, -8
0x80002240: 00 b7 80 23 sb	a1, 0(a5)
0x80002244: 00 17 87 93 addi	a5, a5, 1
0x80002248: fe e7 9c e3 bne	a5, a4, -8
0x80002240: 00 b7 80 23 sb	a1, 0(a5)
0x80002244: 00 17 87 93 addi	a5, a5, 1
0x80002248: fe e7 9c e3 bne	a5, a4, -8
0x80002240: 00 b7 80 23 sb	a1, 0(a5)
0x80002244: 00 17 87 93 addi	a5, a5, 1
0x80002248: fe e7 9c e3 bne	a5, a4, -8
0x80002240: 00 b7 80 23 sb	a1, 0(a5)
0x80002244: 00 17 87 93 addi	a5, a5, 1
0x80002248: fe e7 9c e3 bne	a5, a4, -8
0x80002240: 00 b7 80 23 sb	a1, 0(a5)
0x80002244: 00 17 87 93 addi	a5, a5, 1
0x80002248: fe e7 9c e3 bne	a5, a4, -8
0x80002240: 00 b7 80 23 sb	a1, 0(a5)
0x80002244: 00 17 87 93 addi	a5, a5, 1
0x80002248: fe e7 9c e3 bne	a5, a4, -8
0x80002240: 00 b7 80 23 sb	a1, 0(a5)
0x80002244: 00 17 87 93 addi	a5, a5, 1
0x80002248: fe e7 9c e3 bne	a5, a4, -8
0x80002240: 00 b7 80 23 sb	a1, 0(a5)
0x80002244: 00 17 87 93 addi	a5, a5, 1
0x80002248: fe e7 9c e3 bne	a5, a4, -8
0x80002240: 00 b7 80 23 sb	a1, 0(a5)
0x80002244: 00 17 87 93 addi	a5, a5, 1
0x80002248: fe e7 9c e3 bne	a5, a4, -8
0x80002240: 00 b7 80 23 sb	a1, 0(a5)
0x80002244: 00 17 87 93 addi	a5, a5, 1
0x80002248: fe e7 9c e3 bne	a5, a4, -8
0x80002240: 00 b7 80 23 sb	a1, 0(a5)
0x80002244: 00 17 87 93 addi	a5, a5, 1
0x80002248: fe e7 9c e3 bne	a5, a4, -8
0x80002240: 00 b7 80 23 sb	a1, 0(a5)
0x80002244: 00 17 87 93 addi	a5, a5, 1
0x80002248: fe e7 9c e3 bne	a5, a4, -8
0x80002240: 00 b7 80 23 sb	a1, 0(a5)
0x80002244: 00 17 87 93 addi	a5, a5, 1
0x80002248: fe e7 9c e3 bne	a5, a4, -8
0x80002240: 00 b7 80 23 sb	a1, 0(a5)
0x80002244: 00 17 87 93 addi	a5, a5, 1
0x80002248: fe e7 9c e3 bne	a5, a4, -8
0x80002240: 00 b7 80 23 sb	a1, 0(a5)
0x80002244: 00 17 87 93 addi	a5, a5, 1
0x80002248: fe e7 9c e3 bne	a5, a4, -8
0x80002240: 00 b7 80 23 sb	a1, 0(a5)
0x80002244: 00 17 87 93 addi	a5, a5, 1
0x80002248: fe e7 9c e3 bne	a5, a4, -8
0x80002240: 00 b7 80 23 sb	a1, 0(a5)
0x80002244: 00 17 87 93 addi	a5, a5, 1
0x80002248: fe e7 9c e3 bne	a5, a4, -8
0x80002240: 00 b7 80 23 sb	a1, 0(a5)
0x80002244: 00 17 87 93 addi	a5, a5, 1
0x80002248: fe e7 9c e3 bne	a5, a4, -8
0x80002240: 00 b7 80 23 sb	a1, 0(a5)
0x80002244: 00 17 87 93 addi	a5, a5, 1
0x80002248: fe e7 9c e3 bne	a5, a4, -8
0x80002240: 00 b7 80 23 sb	a1, 0(a5)
0x80002244: 00 17 87 93 addi	a5, a5, 1
0x80002248: fe e7 9c e3 bne	a5, a4, -8
0x80002240: 00 b7 80 23 sb	a1, 0(a5)
0x80002244: 00 17 87 93 addi	a5, a5, 1
0x80002248: fe e7 9c e3 bne	a5, a4, -8
0x80002240: 00 b7 80 23 sb	a1, 0(a5)
0x80002244: 00 17 87 93 addi	a5, a5, 1
0x80002248: fe e7 9c e3 bne	a5, a4, -8
0x80002240: 00 b7 80 23 sb	a1, 0(a5)
0x80002244: 00 17 87 93 addi	a5, a5, 1
0x80002248: fe e7 9c e3 bne	a5, a4, -8
0x80002240: 00 b7 80 23 sb	a1, 0(a5)
0x80002244: 00 17 87 93 addi	a5, a5, 1
0x80002248: fe e7 9c e3 bne	a5, a4, -8
0x80002240: 00 b7 80 23 sb	a1, 0(a5)
0x80002244: 00 17 87 93 addi	a5, a5, 1
0x80002248: fe e7 9c e3 bne	a5, a4, -8
0x80002240: 00 b7 80 23 sb	a1, 0(a5)
0x80002244: 00 17 87 93 addi	a5, a5, 1
0x80002248: fe e7 9c e3 bne	a5, a4, -8
0x80002240: 00 b7 80 23 sb	a1, 0(a5)
0x80002244: 00 17 87 93 addi	a5, a5, 1
0x80002248: fe e7 9c e3 bne	a5, a4, -8
0x80002240: 00 b7 80 23 sb	a1, 0(a5)
0x80002244: 00 17 87 93 addi	a5, a5, 1
0x80002248: fe e7 9c e3 bne	a5, a4, -8
0x80002240: 00 b7 80 23 sb	a1, 0(a5)
0x80002244: 00 17 87 93 addi	a5, a5, 1
0x80002248: fe e7 9c e3 bne	a5, a4, -8
0x80002240: 00 b7 80 23 sb	a1, 0(a5)
0x80002244: 00 17 87 93 addi	a5, a5, 1
0x80002248: fe e7 9c e3 bne	a5, a4, -8
0x80002240: 00 b7 80 23 sb	a1, 0(a5)
0x80002244: 00 17 87 93 addi	a5, a5, 1
0x80002248: fe e7 9c e3 bne	a5, a4, -8
0x80002240: 00 b7 80 23 sb	a1, 0(a5)
0x80002244: 00 17 87 93 addi	a5, a5, 1
0x80002248: fe e7 9c e3 bne	a5, a4, -8
0x80002240: 00 b7 80 23 sb	a1, 0(a5)
0x80002244: 00 17 87 93 addi	a5, a5, 1
0x80002248: fe e7 9c e3 bne	a5, a4, -8
0x80002240: 00 b7 80 23 sb	a1, 0(a5)
0x80002244: 00 17 87 93 addi	a5, a5, 1
0x80002248: fe e7 9c e3 bne	a5, a4, -8
0x80002240: 00 b7 80 23 sb	a1, 0(a5)
0x80002244: 00 17 87 93 addi	a5, a5, 1
0x80002248: fe e7 9c e3 bne	a5, a4, -8
0x80002240: 00 b7 80 23 sb	a1, 0(a5)
0x80002244: 00 17 87 93 addi	a5, a5, 1
0x80002248: fe e7 9c e3 bne	a5, a4, -8
0x80002240: 00 b7 80 23 sb	a1, 0(a5)
0x80002244: 00 17 87 93 addi	a5, a5, 1
0x80002248: fe e7 9c e3 bne	a5, a4, -8
0x80002240: 00 b7 80 23 sb	a1, 0(a5)
0x80002244: 00 17 87 93 addi	a5, a5, 1
0x80002248: fe e7 9c e3 bne	a5, a4, -8
0x80002240: 00 b7 80 23 sb	a1, 0(a5)
0x80002244: 00 17 87 93 addi	a5, a5, 1
0x80002248: fe e7 9c e3 bne	a5, a4, -8
0x80002240: 00 b7 80 23 sb	a1, 0(a5)
0x80002244: 00 17 87 93 addi	a5, a5, 1
0x80002248: fe e7 9c e3 bne	a5, a4, -8
0x80002240: 00 b7 80 23 sb	a1, 0(a5)
0x80002244: 00 17 87 93 addi	a5, a5, 1
0x80002248: fe e7 9c e3 bne	a5, a4, -8
0x80002240: 00 b7 80 23 sb	a1, 0(a5)
0x80002244: 00 17 87 93 addi	a5, a5, 1
0x80002248: fe e7 9c e3 bne	a5, a4, -8
0x80002240: 00 b7 80 23 sb	a1, 0(a5)
0x80002244: 00 17 87 93 addi	a5, a5, 1
0x80002248: fe e7 9c e3 bne	a5, a4, -8
0x80002240: 00 b7 80 23 sb	a1, 0(a5)
0x80002244: 00 17 87 93 addi	a5, a5, 1
0x80002248: fe e7 9c e3 bne	a5, a4, -8
0x80002240: 00 b7 80 23 sb	a1, 0(a5)
0x80002244: 00 17 87 93 addi	a5, a5, 1
0x80002248: fe e7 9c e3 bne	a5, a4, -8
0x80002240: 00 b7 80 23 sb	a1, 0(a5)
0x80002244: 00 17 87 93 addi	a5, a5, 1
0x80002248: fe e7 9c e3 bne	a5, a4, -8
0x80002240: 00 b7 80 23 sb	a1, 0(a5)
0x80002244: 00 17 87 93 addi	a5, a5, 1
0x80002248: fe e7 9c e3 bne	a5, a4, -8
0x80002240: 00 b7 80 23 sb	a1, 0(a5)
0x80002244: 00 17 87 93 addi	a5, a5, 1
0x80002248: fe e7 9c e3 bne	a5, a4, -8
0x80002240: 00 b7 80 23 sb	a1, 0(a5)
0x80002244: 00 17 87 93 addi	a5, a5, 1
0x80002248: fe e7 9c e3 bne	a5, a4, -8
0x80002240: 00 b7 80 23 sb	a1, 0(a5)
0x80002244: 00 17 87 93 addi	a5, a5, 1
0x80002248: fe e7 9c e3 bne	a5, a4, -8
0x80002240: 00 b7 80 23 sb	a1, 0(a5)
0x80002244: 00 17 87 93 addi	a5, a5, 1
0x80002248: fe e7 9c e3 bne	a5, a4, -8
0x80002240: 00 b7 80 23 sb	a1, 0(a5)
0x80002244: 00 17 87 93 addi	a5, a5, 1
0x80002248: fe e7 9c e3 bne	a5, a4, -8
0x80002240: 00 b7 80 23 sb	a1, 0(a5)
0x80002244: 00 17 87 93 addi	a5, a5, 1
0x80002248: fe e7 9c e3 bne	a5, a4, -8
0x80002240: 00 b7 80 23 sb	a1, 0(a5)
0x80002244: 00 17 87 93 addi	a5, a5, 1
0x80002248: fe e7 9c e3 bne	a5, a4, -8
0x80002240: 00 b7 80 23 sb	a1, 0(a5)
0x80002244: 00 17 87 93 addi	a5, a5, 1
0x80002248: fe e7 9c e3 bne	a5, a4, -8
0x80002240: 00 b7 80 23 sb	a1, 0(a5)
0x80002244: 00 17 87 93 addi	a5, a5, 1
0x80002248: fe e7 9c e3 bne	a5, a4, -8
0x80002240: 00 b7 80 23 sb	a1, 0(a5)
0x80002244: 00 17 87 93 addi	a5, a5, 1
0x80002248: fe e7 9c e3 bne	a5, a4, -8
0x80002240: 00 b7 80 23 sb	a1, 0(a5)
0x80002244: 00 17 87 93 addi	a5, a5, 1
0x80002248: fe e7 9c e3 bne	a5, a4, -8
0x80002240: 00 b7 80 23 sb	a1, 0(a5)
0x80002244: 00 17 87 93 addi	a5, a5, 1
0x80002248: fe e7 9c e3 bne	a5, a4, -8
0x80002240: 00 b7 80 23 sb	a1, 0(a5)
0x80002244: 00 17 87 93 addi	a5, a5, 1
0x80002248: fe e7 9c e3 bne	a5, a4, -8
0x80002240: 00 b7 80 23 sb	a1, 0(a5)
0x80002244: 00 17 87 93 addi	a5, a5, 1
0x80002248: fe e7 9c e3 bne	a5, a4, -8
0x80002240: 00 b7 80 23 sb	a1, 0(a5)
0x80002244: 00 17 87 93 addi	a5, a5, 1
0x80002248: fe e7 9c e3 bne	a5, a4, -8
0x80002240: 00 b7 80 23 sb	a1, 0(a5)
0x80002244: 00 17 87 93 addi	a5, a5, 1
0x80002248: fe e7 9c e3 bne	a5, a4, -8
0x80002240: 00 b7 80 23 sb	a1, 0(a5)
0x80002244: 00 17 87 93 addi	a5, a5, 1
0x80002248: fe e7 9c e3 bne	a5, a4, -8
0x80002240: 00 b7 80 23 sb	a1, 0(a5)
0x80002244: 00 17 87 93 addi	a5, a5, 1
0x80002248: fe e7 9c e3 bne	a5, a4, -8
0x80002240: 00 b7 80 23 sb	a1, 0(a5)
0x80002244: 00 17 87 93 addi	a5, a5, 1
0x80002248: fe e7 9c e3 bne	a5, a4, -8
0x80002240: 00 b7 80 23 sb	a1, 0(a5)
0x80002244: 00 17 87 93 addi	a5, a5, 1
0x80002248: fe e7 9c e3 bne	a5, a4, -8
0x80002240: 00 b7 80 23 sb	a1, 0(a5)
0x80002244: 00 17 87 93 addi	a5, a5, 1
0x80002248: fe e7 9c e3 bne	a5, a4, -8
0x80002240: 00 b7 80 23 sb	a1, 0(a5)
0x80002244: 00 17 87 93 addi	a5, a5, 1
0x80002248: fe e7 9c e3 bne	a5, a4, -8
0x80002240: 00 b7 80 23 sb	a1, 0(a5)
0x80002244: 00 17 87 93 addi	a5, a5, 1
0x80002248: fe e7 9c e3 bne	a5, a4, -8
0x80002240: 00 b7 80 23 sb	a1, 0(a5)
0x80002244: 00 17 87 93 addi	a5, a5, 1
0x80002248: fe e7 9c e3 bne	a5, a4, -8
0x80002240: 00 b7 80 23 sb	a1, 0(a5)
0x80002244: 00 17 87 93 addi	a5, a5, 1
0x80002248: fe e7 9c e3 bne	a5, a4, -8
0x80002240: 00 b7 80 23 sb	a1, 0(a5)
0x80002244: 00 17 87 93 addi	a5, a5, 1
0x80002248: fe e7 9c e3 bne	a5, a4, -8
0x80002240: 00 b7 80 23 sb	a1, 0(a5)
0x80002244: 00 17 87 93 addi	a5, a5, 1
0x80002248: fe e7 9c e3 bne	a5, a4, -8
0x80002240: 00 b7 80 23 sb	a1, 0(a5)
0x80002244: 00 17 87 93 addi	a5, a5, 1
0x80002248: fe e7 9c e3 bne	a5, a4, -8
0x80002240: 00 b7 80 23 sb	a1, 0(a5)
0x80002244: 00 17 87 93 addi	a5, a5, 1
0x80002248: fe e7 9c e3 bne	a5, a4, -8
0x80002240: 00 b7 80 23 sb	a1, 0(a5)
0x80002244: 00 17 87 93 addi	a5, a5, 1
0x80002248: fe e7 9c e3 bne	a5, a4, -8
0x80002240: 00 b7 80 23 sb	a1, 0(a5)
0x80002244: 00 17 87 93 addi	a5, a5, 1
0x80002248: fe e7 9c e3 bne	a5, a4, -8
0x80002240: 00 b7 80 23 sb	a1, 0(a5)
0x80002244: 00 17 87 93 addi	a5, a5, 1
0x80002248: fe e7 9c e3 bne	a5, a4, -8
0x80002240: 00 b7 80 23 sb	a1, 0(a5)
0x80002244: 00 17 87 93 addi	a5, a5, 1
0x80002248: fe e7 9c e3 bne	a5, a4, -8
0x80002240: 00 b7 80 23 sb	a1, 0(a5)
0x80002244: 00 17 87 93 addi	a5, a5, 1
0x80002248: fe e7 9c e3 bne	a5, a4, -8
0x80002240: 00 b7 80 23 sb	a1, 0(a5)
0x80002244: 00 17 87 93 addi	a5, a5, 1
0x80002248: fe e7 9c e3 bne	a5, a4, -8
0x80002240: 00 b7 80 23 sb	a1, 0(a5)
0x80002244: 00 17 87 93 addi	a5, a5, 1
0x80002248: fe e7 9c e3 bne	a5, a4, -8
0x80002240: 00 b7 80 23 sb	a1, 0(a5)
0x80002244: 00 17 87 93 addi	a5, a5, 1
0x80002248: fe e7 9c e3 bne	a5, a4, -8
0x80002240: 00 b7 80 23 sb	a1, 0(a5)
0x80002244: 00 17 87 93 addi	a5, a5, 1
0x80002248: fe e7 9c e3 bne	a5, a4, -8
0x80002240: 00 b7 80 23 sb	a1, 0(a5)
0x80002244: 00 17 87 93 addi	a5, a5, 1
0x80002248: fe e7 9c e3 bne	a5, a4, -8
0x80002240: 00 b7 80 23 sb	a1, 0(a5)
0x80002244: 00 17 87 93 addi	a5, a5, 1
0x80002248: fe e7 9c e3 bne	a5, a4, -8
0x80002240: 00 b7 80 23 sb	a1, 0(a5)
0x80002244: 00 17 87 93 addi	a5, a5, 1
0x80002248: fe e7 9c e3 bne	a5, a4, -8
0x80002240: 00 b7 80 23 sb	a1, 0(a5)
0x80002244: 00 17 87 93 addi	a5, a5, 1
0x80002248: fe e7 9c e3 bne	a5, a4, -8
0x80002240: 00 b7 80 23 sb	a1, 0(a5)
0x80002244: 00 17 87 93 addi	a5, a5, 1
0x80002248: fe e7 9c e3 bne	a5, a4, -8
0x80002240: 00 b7 80 23 sb	a1, 0(a5)
0x80002244: 00 17 87 93 addi	a5, a5, 1
0x80002248: fe e7 9c e3 bne	a5, a4, -8
0x80002240: 00 b7 80 23 sb	a1, 0(a5)
0x80002244: 00 17 87 93 addi	a5, a5, 1
0x80002248: fe e7 9c e3 bne	a5, a4, -8
0x80002240: 00 b7 80 23 sb	a1, 0(a5)
0x80002244: 00 17 87 93 addi	a5, a5, 1
0x80002248: fe e7 9c e3 bne	a5, a4, -8
0x80002240: 00 b7 80 23 sb	a1, 0(a5)
0x80002244: 00 17 87 93 addi	a5, a5, 1
0x80002248: fe e7 9c e3 bne	a5, a4, -8
0x80002240: 00 b7 80 23 sb	a1, 0(a5)
0x80002244: 00 17 87 93 addi	a5, a5, 1
0x80002248: fe e7 9c e3 bne	a5, a4, -8
0x80002240: 00 b7 80 23 sb	a1, 0(a5)
0x80002244: 00 17 87 93 addi	a5, a5, 1
0x80002248: fe e7 9c e3 bne	a5, a4, -8
0x80002240: 00 b7 80 23 sb	a1, 0(a5)
0x80002244: 00 17 87 93 addi	a5, a5, 1
0x80002248: fe e7 9c e3 bne	a5, a4, -8
0x80002240: 00 b7 80 23 sb	a1, 0(a5)
0x80002244: 00 17 87 93 addi	a5, a5, 1
0x80002248: fe e7 9c e3 bne	a5, a4, -8
0x80002240: 00 b7 80 23 sb	a1, 0(a5)
0x80002244: 00 17 87 93 addi	a5, a5, 1
0x80002248: fe e7 9c e3 bne	a5, a4, -8
0x80002240: 00 b7 80 23 sb	a1, 0(a5)
0x80002244: 00 17 87 93 addi	a5, a5, 1
0x80002248: fe e7 9c e3 bne	a5, a4, -8
0x80002240: 00 b7 80 23 sb	a1, 0(a5)
0x80002244: 00 17 87 93 addi	a5, a5, 1
0x80002248: fe e7 9c e3 bne	a5, a4, -8
0x80002240: 00 b7 80 23 sb	a1, 0(a5)
0x80002244: 00 17 87 93 addi	a5, a5, 1
0x80002248: fe e7 9c e3 bne	a5, a4, -8
0x80002240: 00 b7 80 23 sb	a1, 0(a5)
0x80002244: 00 17 87 93 addi	a5, a5, 1
0x80002248: fe e7 9c e3 bne	a5, a4, -8
0x80002240: 00 b7 80 23 sb	a1, 0(a5)
0x80002244: 00 17 87 93 addi	a5, a5, 1
0x80002248: fe e7 9c e3 bne	a5, a4, -8
0x80002240: 00 b7 80 23 sb	a1, 0(a5)
0x80002244: 00 17 87 93 addi	a5, a5, 1
0x80002248: fe e7 9c e3 bne	a5, a4, -8
0x80002240: 00 b7 80 23 sb	a1, 0(a5)
0x80002244: 00 17 87 93 addi	a5, a5, 1
0x80002248: fe e7 9c e3 bne	a5, a4, -8
0x80002240: 00 b7 80 23 sb	a1, 0(a5)
0x80002244: 00 17 87 93 addi	a5, a5, 1
0x80002248: fe e7 9c e3 bne	a5, a4, -8
0x80002240: 00 b7 80 23 sb	a1, 0(a5)
0x80002244: 00 17 87 93 addi	a5, a5, 1
0x80002248: fe e7 9c e3 bne	a5, a4, -8
0x80002240: 00 b7 80 23 sb	a1, 0(a5)
0x80002244: 00 17 87 93 addi	a5, a5, 1
0x80002248: fe e7 9c e3 bne	a5, a4, -8
0x80002240: 00 b7 80 23 sb	a1, 0(a5)
0x80002244: 00 17 87 93 addi	a5, a5, 1
0x80002248: fe e7 9c e3 bne	a5, a4, -8
0x80002240: 00 b7 80 23 sb	a1, 0(a5)
0x80002244: 00 17 87 93 addi	a5, a5, 1
0x80002248: fe e7 9c e3 bne	a5, a4, -8
0x80002240: 00 b7 80 23 sb	a1, 0(a5)
0x80002244: 00 17 87 93 addi	a5, a5, 1
0x80002248: fe e7 9c e3 bne	a5, a4, -8
0x80002240: 00 b7 80 23 sb	a1, 0(a5)
0x80002244: 00 17 87 93 addi	a5, a5, 1
0x80002248: fe e7 9c e3 bne	a5, a4, -8
0x80002240: 00 b7 80 23 sb	a1, 0(a5)
0x80002244: 00 17 87 93 addi	a5, a5, 1
0x80002248: fe e7 9c e3 bne	a5, a4, -8
0x80002240: 00 b7 80 23 sb	a1, 0(a5)
0x80002244: 00 17 87 93 addi	a5, a5, 1
0x80002248: fe e7 9c e3 bne	a5, a4, -8
0x80002240: 00 b7 80 23 sb	a1, 0(a5)
0x80002244: 00 17 87 93 addi	a5, a5, 1
0x80002248: fe e7 9c e3 bne	a5, a4, -8
0x80002240: 00 b7 80 23 sb	a1, 0(a5)
0x80002244: 00 17 87 93 addi	a5, a5, 1
0x80002248: fe e7 9c e3 bne	a5, a4, -8
0x80002240: 00 b7 80 23 sb	a1, 0(a5)
0x80002244: 00 17 87 93 addi	a5, a5, 1
0x80002248: fe e7 9c e3 bne	a5, a4, -8
0x80002240: 00 b7 80 23 sb	a1, 0(a5)
0x80002244: 00 17 87 93 addi	a5, a5, 1
0x80002248: fe e7 9c e3 bne	a5, a4, -8
0x80002240: 00 b7 80 23 sb	a1, 0(a5)
0x80002244: 00 17 87 93 addi	a5, a5, 1
0x80002248: fe e7 9c e3 bne	a5, a4, -8
0x80002240: 00 b7 80 23 sb	a1, 0(a5)
0x80002244: 00 17 87 93 addi	a5, a5, 1
0x80002248: fe e7 9c e3 bne	a5, a4, -8
0x80002240: 00 b7 80 23 sb	a1, 0(a5)
0x80002244: 00 17 87 93 addi	a5, a5, 1
0x80002248: fe e7 9c e3 bne	a5, a4, -8
0x80002240: 00 b7 80 23 sb	a1, 0(a5)
0x80002244: 00 17 87 93 addi	a5, a5, 1
0x80002248: fe e7 9c e3 bne	a5, a4, -8
0x80002240: 00 b7 80 23 sb	a1, 0(a5)
0x80002244: 00 17 87 93 addi	a5, a5, 1
0x80002248: fe e7 9c e3 bne	a5, a4, -8
0x80002240: 00 b7 80 23 sb	a1, 0(a5)
0x80002244: 00 17 87 93 addi	a5, a5, 1
0x80002248: fe e7 9c e3 bne	a5, a4, -8
0x80002240: 00 b7 80 23 sb	a1, 0(a5)
0x80002244: 00 17 87 93 addi	a5, a5, 1
0x80002248: fe e7 9c e3 bne	a5, a4, -8
0x80002240: 00 b7 80 23 sb	a1, 0(a5)
0x80002244: 00 17 87 93 addi	a5, a5, 1
0x80002248: fe e7 9c e3 bne	a5, a4, -8
0x80002240: 00 b7 80 23 sb	a1, 0(a5)
0x80002244: 00 17 87 93 addi	a5, a5, 1
0x80002248: fe e7 9c e3 bne	a5, a4, -8
0x80002240: 00 b7 80 23 sb	a1, 0(a5)
0x80002244: 00 17 87 93 addi	a5, a5, 1
0x80002248: fe e7 9c e3 bne	a5, a4, -8
0x80002240: 00 b7 80 23 sb	a1, 0(a5)
0x80002244: 00 17 87 93 addi	a5, a5, 1
0x80002248: fe e7 9c e3 bne	a5, a4, -8
0x80002240: 00 b7 80 23 sb	a1, 0(a5)
0x80002244: 00 17 87 93 addi	a5, a5, 1
0x80002248: fe e7 9c e3 bne	a5, a4, -8
0x80002240: 00 b7 80 23 sb	a1, 0(a5)
0x80002244: 00 17 87 93 addi	a5, a5, 1
0x80002248: fe e7 9c e3 bne	a5, a4, -8
0x80002240: 00 b7 80 23 sb	a1, 0(a5)
0x80002244: 00 17 87 93 addi	a5, a5, 1
0x80002248: fe e7 9c e3 bne	a5, a4, -8
0x80002240: 00 b7 80 23 sb	a1, 0(a5)
0x80002244: 00 17 87 93 addi	a5, a5, 1
0x80002248: fe e7 9c e3 bne	a5, a4, -8
0x80002240: 00 b7 80 23 sb	a1, 0(a5)
0x80002244: 00 17 87 93 addi	a5, a5, 1
0x80002248: fe e7 9c e3 bne	a5, a4, -8
0x80002240: 00 b7 80 23 sb	a1, 0(a5)
0x80002244: 00 17 87 93 addi	a5, a5, 1
0x80002248: fe e7 9c e3 bne	a5, a4, -8
0x80002240: 00 b7 80 23 sb	a1, 0(a5)
0x80002244: 00 17 87 93 addi	a5, a5, 1
0x80002248: fe e7 9c e3 bne	a5, a4, -8
0x80002240: 00 b7 80 23 sb	a1, 0(a5)
0x80002244: 00 17 87 93 addi	a5, a5, 1
0x80002248: fe e7 9c e3 bne	a5, a4, -8
0x80002240: 00 b7 80 23 sb	a1, 0(a5)
0x80002244: 00 17 87 93 addi	a5, a5, 1
0x80002248: fe e7 9c e3 bne	a5, a4, -8
0x80002240: 00 b7 80 23 sb	a1, 0(a5)
0x80002244: 00 17 87 93 addi	a5, a5, 1
0x80002248: fe e7 9c e3 bne	a5, a4, -8
0x80002240: 00 b7 80 23 sb	a1, 0(a5)
0x80002244: 00 17 87 93 addi	a5, a5, 1
0x80002248: fe e7 9c e3 bne	a5, a4, -8
0x80002240: 00 b7 80 23 sb	a1, 0(a5)
0x80002244: 00 17 87 93 addi	a5, a5, 1
0x80002248: fe e7 9c e3 bne	a5, a4, -8
0x80002240: 00 b7 80 23 sb	a1, 0(a5)
0x80002244: 00 17 87 93 addi	a5, a5, 1
0x80002248: fe e7 9c e3 bne	a5, a4, -8
0x80002240: 00 b7 80 23 sb	a1, 0(a5)
0x80002244: 00 17 87 93 addi	a5, a5, 1
0x80002248: fe e7 9c e3 bne	a5, a4, -8
0x80002240: 00 b7 80 23 sb	a1, 0(a5)
0x80002244: 00 17 87 93 addi	a5, a5, 1
0x80002248: fe e7 9c e3 bne	a5, a4, -8
0x80002240: 00 b7 80 23 sb	a1, 0(a5)
0x80002244: 00 17 87 93 addi	a5, a5, 1
0x80002248: fe e7 9c e3 bne	a5, a4, -8
0x80002240: 00 b7 80 23 sb	a1, 0(a5)
0x80002244: 00 17 87 93 addi	a5, a5, 1
0x80002248: fe e7 9c e3 bne	a5, a4, -8
0x80002240: 00 b7 80 23 sb	a1, 0(a5)
0x80002244: 00 17 87 93 addi	a5, a5, 1
0x80002248: fe e7 9c e3 bne	a5, a4, -8
0x80002240: 00 b7 80 23 sb	a1, 0(a5)
0x80002244: 00 17 87 93 addi	a5, a5, 1
0x80002248: fe e7 9c e3 bne	a5, a4, -8
0x80002240: 00 b7 80 23 sb	a1, 0(a5)
0x80002244: 00 17 87 93 addi	a5, a5, 1
0x80002248: fe e7 9c e3 bne	a5, a4, -8
0x80002240: 00 b7 80 23 sb	a1, 0(a5)
0x80002244: 00 17 87 93 addi	a5, a5, 1
0x80002248: fe e7 9c e3 bne	a5, a4, -8
0x80002240: 00 b7 80 23 sb	a1, 0(a5)
0x80002244: 00 17 87 93 addi	a5, a5, 1
0x80002248: fe e7 9c e3 bne	a5, a4, -8
0x80002240: 00 b7 80 23 sb	a1, 0(a5)
0x80002244: 00 17 87 93 addi	a5, a5, 1
0x80002248: fe e7 9c e3 bne	a5, a4, -8
0x80002240: 00 b7 80 23 sb	a1, 0(a5)
0x80002244: 00 17 87 93 addi	a5, a5, 1
0x80002248: fe e7 9c e3 bne	a5, a4, -8
0x80002240: 00 b7 80 23 sb	a1, 0(a5)
0x80002244: 00 17 87 93 addi	a5, a5, 1
0x80002248: fe e7 9c e3 bne	a5, a4, -8
0x80002240: 00 b7 80 23 sb	a1, 0(a5)
0x80002244: 00 17 87 93 addi	a5, a5, 1
0x80002248: fe e7 9c e3 bne	a5, a4, -8
0x80002240: 00 b7 80 23 sb	a1, 0(a5)
0x80002244: 00 17 87 93 addi	a5, a5, 1
0x80002248: fe e7 9c e3 bne	a5, a4, -8
0x80002240: 00 b7 80 23 sb	a1, 0(a5)
0x80002244: 00 17 87 93 addi	a5, a5, 1
0x80002248: fe e7 9c e3 bne	a5, a4, -8
0x80002240: 00 b7 80 23 sb	a1, 0(a5)
0x80002244: 00 17 87 93 addi	a5, a5, 1
0x80002248: fe e7 9c e3 bne	a5, a4, -8
0x80002240: 00 b7 80 23 sb	a1, 0(a5)
0x80002244: 00 17 87 93 addi	a5, a5, 1
0x80002248: fe e7 9c e3 bne	a5, a4, -8
0x80002240: 00 b7 80 23 sb	a1, 0(a5)
0x80002244: 00 17 87 93 addi	a5, a5, 1
0x80002248: fe e7 9c e3 bne	a5, a4, -8
0x80002240: 00 b7 80 23 sb	a1, 0(a5)
0x80002244: 00 17 87 93 addi	a5, a5, 1
0x80002248: fe e7 9c e3 bne	a5, a4, -8
0x80002240: 00 b7 80 23 sb	a1, 0(a5)
0x80002244: 00 17 87 93 addi	a5, a5, 1
0x80002248: fe e7 9c e3 bne	a5, a4, -8
0x80002240: 00 b7 80 23 sb	a1, 0(a5)
0x80002244: 00 17 87 93 addi	a5, a5, 1
0x80002248: fe e7 9c e3 bne	a5, a4, -8
0x80002240: 00 b7 80 23 sb	a1, 0(a5)
0x80002244: 00 17 87 93 addi	a5, a5, 1
0x80002248: fe e7 9c e3 bne	a5, a4, -8
0x80002240: 00 b7 80 23 sb	a1, 0(a5)
0x80002244: 00 17 87 93 addi	a5, a5, 1
0x80002248: fe e7 9c e3 bne	a5, a4, -8
0x80002240: 00 b7 80 23 sb	a1, 0(a5)
0x80002244: 00 17 87 93 addi	a5, a5, 1
0x80002248: fe e7 9c e3 bne	a5, a4, -8
0x80002240: 00 b7 80 23 sb	a1, 0(a5)
0x80002244: 00 17 87 93 addi	a5, a5, 1
0x80002248: fe e7 9c e3 bne	a5, a4, -8
0x80002240: 00 b7 80 23 sb	a1, 0(a5)
0x80002244: 00 17 87 93 addi	a5, a5, 1
0x80002248: fe e7 9c e3 bne	a5, a4, -8
0x80002240: 00 b7 80 23 sb	a1, 0(a5)
0x80002244: 00 17 87 93 addi	a5, a5, 1
0x80002248: fe e7 9c e3 bne	a5, a4, -8
0x80002240: 00 b7 80 23 sb	a1, 0(a5)
0x80002244: 00 17 87 93 addi	a5, a5, 1
0x80002248: fe e7 9c e3 bne	a5, a4, -8
0x80002240: 00 b7 80 23 sb	a1, 0(a5)
0x80002244: 00 17 87 93 addi	a5, a5, 1
0x80002248: fe e7 9c e3 bne	a5, a4, -8
0x80002240: 00 b7 80 23 sb	a1, 0(a5)
0x80002244: 00 17 87 93 addi	a5, a5, 1
0x80002248: fe e7 9c e3 bne	a5, a4, -8
0x80002240: 00 b7 80 23 sb	a1, 0(a5)
0x80002244: 00 17 87 93 addi	a5, a5, 1
0x80002248: fe e7 9c e3 bne	a5, a4, -8
0x80002240: 00 b7 80 23 sb	a1, 0(a5)
0x80002244: 00 17 87 93 addi	a5, a5, 1
0x80002248: fe e7 9c e3 bne	a5, a4, -8
0x80002240: 00 b7 80 23 sb	a1, 0(a5)
0x80002244: 00 17 87 93 addi	a5, a5, 1
0x80002248: fe e7 9c e3 bne	a5, a4, -8
0x80002240: 00 b7 80 23 sb	a1, 0(a5)
0x80002244: 00 17 87 93 addi	a5, a5, 1
0x80002248: fe e7 9c e3 bne	a5, a4, -8
0x80002240: 00 b7 80 23 sb	a1, 0(a5)
0x80002244: 00 17 87 93 addi	a5, a5, 1
0x80002248: fe e7 9c e3 bne	a5, a4, -8
0x80002240: 00 b7 80 23 sb	a1, 0(a5)
0x80002244: 00 17 87 93 addi	a5, a5, 1
0x80002248: fe e7 9c e3 bne	a5, a4, -8
0x80002240: 00 b7 80 23 sb	a1, 0(a5)
0x80002244: 00 17 87 93 addi	a5, a5, 1
0x80002248: fe e7 9c e3 bne	a5, a4, -8
0x80002240: 00 b7 80 23 sb	a1, 0(a5)
0x80002244: 00 17 87 93 addi	a5, a5, 1
0x80002248: fe e7 9c e3 bne	a5, a4, -8
0x80002240: 00 b7 80 23 sb	a1, 0(a5)
0x80002244: 00 17 87 93 addi	a5, a5, 1
0x80002248: fe e7 9c e3 bne	a5, a4, -8
0x80002240: 00 b7 80 23 sb	a1, 0(a5)
0x80002244: 00 17 87 93 addi	a5, a5, 1
0x80002248: fe e7 9c e3 bne	a5, a4, -8
0x80002240: 00 b7 80 23 sb	a1, 0(a5)
0x80002244: 00 17 87 93 addi	a5, a5, 1
0x80002248: fe e7 9c e3 bne	a5, a4, -8
0x80002240: 00 b7 80 23 sb	a1, 0(a5)
0x80002244: 00 17 87 93 addi	a5, a5, 1
0x80002248: fe e7 9c e3 bne	a5, a4, -8
0x80002240: 00 b7 80 23 sb	a1, 0(a5)
0x80002244: 00 17 87 93 addi	a5, a5, 1
0x80002248: fe e7 9c e3 bne	a5, a4, -8
0x80002240: 00 b7 80 23 sb	a1, 0(a5)
0x80002244: 00 17 87 93 addi	a5, a5, 1
0x80002248: fe e7 9c e3 bne	a5, a4, -8
0x80002240: 00 b7 80 23 sb	a1, 0(a5)
0x80002244: 00 17 87 93 addi	a5, a5, 1
0x80002248: fe e7 9c e3 bne	a5, a4, -8
0x80002240: 00 b7 80 23 sb	a1, 0(a5)
0x80002244: 00 17 87 93 addi	a5, a5, 1
0x80002248: fe e7 9c e3 bne	a5, a4, -8
0x80002240: 00 b7 80 23 sb	a1, 0(a5)
0x80002244: 00 17 87 93 addi	a5, a5, 1
0x80002248: fe e7 9c e3 bne	a5, a4, -8
0x80002240: 00 b7 80 23 sb	a1, 0(a5)
0x80002244: 00 17 87 93 addi	a5, a5, 1
0x80002248: fe e7 9c e3 bne	a5, a4, -8
0x80002240: 00 b7 80 23 sb	a1, 0(a5)
0x80002244: 00 17 87 93 addi	a5, a5, 1
0x80002248: fe e7 9c e3 bne	a5, a4, -8
0x80002240: 00 b7 80 23 sb	a1, 0(a5)
0x80002244: 00 17 87 93 addi	a5, a5, 1
0x80002248: fe e7 9c e3 bne	a5, a4, -8
0x80002240: 00 b7 80 23 sb	a1, 0(a5)
0x80002244: 00 17 87 93 addi	a5, a5, 1
0x80002248: fe e7 9c e3 bne	a5, a4, -8
0x80002240: 00 b7 80 23 sb	a1, 0(a5)
0x80002244: 00 17 87 93 addi	a5, a5, 1
0x80002248: fe e7 9c e3 bne	a5, a4, -8
0x80002240: 00 b7 80 23 sb	a1, 0(a5)
0x80002244: 00 17 87 93 addi	a5, a5, 1
0x80002248: fe e7 9c e3 bne	a5, a4, -8
0x80002240: 00 b7 80 23 sb	a1, 0(a5)
0x80002244: 00 17 87 93 addi	a5, a5, 1
0x80002248: fe e7 9c e3 bne	a5, a4, -8
0x80002240: 00 b7 80 23 sb	a1, 0(a5)
0x80002244: 00 17 87 93 addi	a5, a5, 1
0x80002248: fe e7 9c e3 bne	a5, a4, -8
0x80002240: 00 b7 80 23 sb	a1, 0(a5)
0x80002244: 00 17 87 93 addi	a5, a5, 1
0x80002248: fe e7 9c e3 bne	a5, a4, -8
0x80002240: 00 b7 80 23 sb	a1, 0(a5)
0x80002244: 00 17 87 93 addi	a5, a5, 1
0x80002248: fe e7 9c e3 bne	a5, a4, -8
0x80002240: 00 b7 80 23 sb	a1, 0(a5)
0x80002244: 00 17 87 93 addi	a5, a5, 1
0x80002248: fe e7 9c e3 bne	a5, a4, -8
0x80002240: 00 b7 80 23 sb	a1, 0(a5)
0x80002244: 00 17 87 93 addi	a5, a5, 1
0x80002248: fe e7 9c e3 bne	a5, a4, -8
0x80002240: 00 b7 80 23 sb	a1, 0(a5)
0x80002244: 00 17 87 93 addi	a5, a5, 1
0x80002248: fe e7 9c e3 bne	a5, a4, -8
0x80002240: 00 b7 80 23 sb	a1, 0(a5)
0x80002244: 00 17 87 93 addi	a5, a5, 1
0x80002248: fe e7 9c e3 bne	a5, a4, -8
0x80002240: 00 b7 80 23 sb	a1, 0(a5)
0x80002244: 00 17 87 93 addi	a5, a5, 1
0x80002248: fe e7 9c e3 bne	a5, a4, -8
0x80002240: 00 b7 80 23 sb	a1, 0(a5)
0x80002244: 00 17 87 93 addi	a5, a5, 1
0x80002248: fe e7 9c e3 bne	a5, a4, -8
0x80002240: 00 b7 80 23 sb	a1, 0(a5)
0x80002244: 00 17 87 93 addi	a5, a5, 1
0x80002248: fe e7 9c e3 bne	a5, a4, -8
0x80002240: 00 b7 80 23 sb	a1, 0(a5)
0x80002244: 00 17 87 93 addi	a5, a5, 1
0x80002248: fe e7 9c e3 bne	a5, a4, -8
0x80002240: 00 b7 80 23 sb	a1, 0(a5)
0x80002244: 00 17 87 93 addi	a5, a5, 1
0x80002248: fe e7 9c e3 bne	a5, a4, -8
0x80002240: 00 b7 80 23 sb	a1, 0(a5)
0x80002244: 00 17 87 93 addi	a5, a5, 1
0x80002248: fe e7 9c e3 bne	a5, a4, -8
0x80002240: 00 b7 80 23 sb	a1, 0(a5)
0x80002244: 00 17 87 93 addi	a5, a5, 1
0x80002248: fe e7 9c e3 bne	a5, a4, -8
0x80002240: 00 b7 80 23 sb	a1, 0(a5)
0x80002244: 00 17 87 93 addi	a5, a5, 1
0x80002248: fe e7 9c e3 bne	a5, a4, -8
0x80002240: 00 b7 80 23 sb	a1, 0(a5)
0x80002244: 00 17 87 93 addi	a5, a5, 1
0x80002248: fe e7 9c e3 bne	a5, a4, -8
0x80002240: 00 b7 80 23 sb	a1, 0(a5)
0x80002244: 00 17 87 93 addi	a5, a5, 1
0x80002248: fe e7 9c e3 bne	a5, a4, -8
0x80002240: 00 b7 80 23 sb	a1, 0(a5)
0x80002244: 00 17 87 93 addi	a5, a5, 1
0x80002248: fe e7 9c e3 bne	a5, a4, -8
0x80002240: 00 b7 80 23 sb	a1, 0(a5)
0x80002244: 00 17 87 93 addi	a5, a5, 1
0x80002248: fe e7 9c e3 bne	a5, a4, -8
0x80002240: 00 b7 80 23 sb	a1, 0(a5)
0x80002244: 00 17 87 93 addi	a5, a5, 1
0x80002248: fe e7 9c e3 bne	a5, a4, -8
0x80002240: 00 b7 80 23 sb	a1, 0(a5)
0x80002244: 00 17 87 93 addi	a5, a5, 1
0x80002248: fe e7 9c e3 bne	a5, a4, -8
0x80002240: 00 b7 80 23 sb	a1, 0(a5)
0x80002244: 00 17 87 93 addi	a5, a5, 1
0x80002248: fe e7 9c e3 bne	a5, a4, -8
0x80002240: 00 b7 80 23 sb	a1, 0(a5)
0x80002244: 00 17 87 93 addi	a5, a5, 1
0x80002248: fe e7 9c e3 bne	a5, a4, -8
0x80002240: 00 b7 80 23 sb	a1, 0(a5)
0x80002244: 00 17 87 93 addi	a5, a5, 1
0x80002248: fe e7 9c e3 bne	a5, a4, -8
0x80002240: 00 b7 80 23 sb	a1, 0(a5)
0x80002244: 00 17 87 93 addi	a5, a5, 1
0x80002248: fe e7 9c e3 bne	a5, a4, -8
0x80002240: 00 b7 80 23 sb	a1, 0(a5)
0x80002244: 00 17 87 93 addi	a5, a5, 1
0x80002248: fe e7 9c e3 bne	a5, a4, -8
0x80002240: 00 b7 80 23 sb	a1, 0(a5)
0x80002244: 00 17 87 93 addi	a5, a5, 1
0x80002248: fe e7 9c e3 bne	a5, a4, -8
0x80002240: 00 b7 80 23 sb	a1, 0(a5)
0x80002244: 00 17 87 93 addi	a5, a5, 1
0x80002248: fe e7 9c e3 bne	a5, a4, -8
0x80002240: 00 b7 80 23 sb	a1, 0(a5)
0x80002244: 00 17 87 93 addi	a5, a5, 1
0x80002248: fe e7 9c e3 bne	a5, a4, -8
0x80002240: 00 b7 80 23 sb	a1, 0(a5)
0x80002244: 00 17 87 93 addi	a5, a5, 1
0x80002248: fe e7 9c e3 bne	a5, a4, -8
0x80002240: 00 b7 80 23 sb	a1, 0(a5)
0x80002244: 00 17 87 93 addi	a5, a5, 1
0x80002248: fe e7 9c e3 bne	a5, a4, -8
0x80002240: 00 b7 80 23 sb	a1, 0(a5)
0x80002244: 00 17 87 93 addi	a5, a5, 1
0x80002248: fe e7 9c e3 bne	a5, a4, -8
0x80002240: 00 b7 80 23 sb	a1, 0(a5)
0x80002244: 00 17 87 93 addi	a5, a5, 1
0x80002248: fe e7 9c e3 bne	a5, a4, -8
0x80002240: 00 b7 80 23 sb	a1, 0(a5)
0x80002244: 00 17 87 93 addi	a5, a5, 1
0x80002248: fe e7 9c e3 bne	a5, a4, -8
0x80002240: 00 b7 80 23 sb	a1, 0(a5)
0x80002244: 00 17 87 93 addi	a5, a5, 1
0x80002248: fe e7 9c e3 bne	a5, a4, -8
0x80002240: 00 b7 80 23 sb	a1, 0(a5)
0x80002244: 00 17 87 93 addi	a5, a5, 1
0x80002248: fe e7 9c e3 bne	a5, a4, -8
0x80002240: 00 b7 80 23 sb	a1, 0(a5)
0x80002244: 00 17 87 93 addi	a5, a5, 1
0x80002248: fe e7 9c e3 bne	a5, a4, -8
0x80002240: 00 b7 80 23 sb	a1, 0(a5)
0x80002244: 00 17 87 93 addi	a5, a5, 1
0x80002248: fe e7 9c e3 bne	a5, a4, -8
0x80002240: 00 b7 80 23 sb	a1, 0(a5)
0x80002244: 00 17 87 93 addi	a5, a5, 1
0x80002248: fe e7 9c e3 bne	a5, a4, -8
0x80002240: 00 b7 80 23 sb	a1, 0(a5)
0x80002244: 00 17 87 93 addi	a5, a5, 1
0x80002248: fe e7 9c e3 bne	a5, a4, -8
0x80002240: 00 b7 80 23 sb	a1, 0(a5)
0x80002244: 00 17 87 93 addi	a5, a5, 1
0x80002248: fe e7 9c e3 bne	a5, a4, -8
0x80002240: 00 b7 80 23 sb	a1, 0(a5)
0x80002244: 00 17 87 93 addi	a5, a5, 1
0x80002248: fe e7 9c e3 bne	a5, a4, -8
0x80002240: 00 b7 80 23 sb	a1, 0(a5)
0x80002244: 00 17 87 93 addi	a5, a5, 1
0x80002248: fe e7 9c e3 bne	a5, a4, -8
0x80002240: 00 b7 80 23 sb	a1, 0(a5)
0x80002244: 00 17 87 93 addi	a5, a5, 1
0x80002248: fe e7 9c e3 bne	a5, a4, -8
0x80002240: 00 b7 80 23 sb	a1, 0(a5)
0x80002244: 00 17 87 93 addi	a5, a5, 1
0x80002248: fe e7 9c e3 bne	a5, a4, -8
0x80002240: 00 b7 80 23 sb	a1, 0(a5)
0x80002244: 00 17 87 93 addi	a5, a5, 1
0x80002248: fe e7 9c e3 bne	a5, a4, -8
0x80002240: 00 b7 80 23 sb	a1, 0(a5)
0x80002244: 00 17 87 93 addi	a5, a5, 1
0x80002248: fe e7 9c e3 bne	a5, a4, -8
0x80002240: 00 b7 80 23 sb	a1, 0(a5)
0x80002244: 00 17 87 93 addi	a5, a5, 1
0x80002248: fe e7 9c e3 bne	a5, a4, -8
0x80002240: 00 b7 80 23 sb	a1, 0(a5)
0x80002244: 00 17 87 93 addi	a5, a5, 1
0x80002248: fe e7 9c e3 bne	a5, a4, -8
0x80002240: 00 b7 80 23 sb	a1, 0(a5)
0x80002244: 00 17 87 93 addi	a5, a5, 1
0x80002248: fe e7 9c e3 bne	a5, a4, -8
0x80002240: 00 b7 80 23 sb	a1, 0(a5)
0x80002244: 00 17 87 93 addi	a5, a5, 1
0x80002248: fe e7 9c e3 bne	a5, a4, -8
0x80002240: 00 b7 80 23 sb	a1, 0(a5)
0x80002244: 00 17 87 93 addi	a5, a5, 1
0x80002248: fe e7 9c e3 bne	a5, a4, -8
0x80002240: 00 b7 80 23 sb	a1, 0(a5)
0x80002244: 00 17 87 93 addi	a5, a5, 1
0x80002248: fe e7 9c e3 bne	a5, a4, -8
0x80002240: 00 b7 80 23 sb	a1, 0(a5)
0x80002244: 00 17 87 93 addi	a5, a5, 1
0x80002248: fe e7 9c e3 bne	a5, a4, -8
0x80002240: 00 b7 80 23 sb	a1, 0(a5)
0x80002244: 00 17 87 93 addi	a5, a5, 1
0x80002248: fe e7 9c e3 bne	a5, a4, -8
0x80002240: 00 b7 80 23 sb	a1, 0(a5)
0x80002244: 00 17 87 93 addi	a5, a5, 1
0x80002248: fe e7 9c e3 bne	a5, a4, -8
0x80002240: 00 b7 80 23 sb	a1, 0(a5)
0x80002244: 00 17 87 93 addi	a5, a5, 1
0x80002248: fe e7 9c e3 bne	a5, a4, -8
0x80002240: 00 b7 80 23 sb	a1, 0(a5)
0x80002244: 00 17 87 93 addi	a5, a5, 1
0x80002248: fe e7 9c e3 bne	a5, a4, -8
0x80002240: 00 b7 80 23 sb	a1, 0(a5)
0x80002244: 00 17 87 93 addi	a5, a5, 1
0x80002248: fe e7 9c e3 bne	a5, a4, -8
0x80002240: 00 b7 80 23 sb	a1, 0(a5)
0x80002244: 00 17 87 93 addi	a5, a5, 1
0x80002248: fe e7 9c e3 bne	a5, a4, -8
0x80002240: 00 b7 80 23 sb	a1, 0(a5)
0x80002244: 00 17 87 93 addi	a5, a5, 1
0x80002248: fe e7 9c e3 bne	a5, a4, -8
0x80002240: 00 b7 80 23 sb	a1, 0(a5)
0x80002244: 00 17 87 93 addi	a5, a5, 1
0x80002248: fe e7 9c e3 bne	a5, a4, -8
0x80002240: 00 b7 80 23 sb	a1, 0(a5)
0x80002244: 00 17 87 93 addi	a5, a5, 1
0x80002248: fe e7 9c e3 bne	a5, a4, -8
0x80002240: 00 b7 80 23 sb	a1, 0(a5)
0x80002244: 00 17 87 93 addi	a5, a5, 1
0x80002248: fe e7 9c e3 bne	a5, a4, -8
0x80002240: 00 b7 80 23 sb	a1, 0(a5)
0x80002244: 00 17 87 93 addi	a5, a5, 1
0x80002248: fe e7 9c e3 bne	a5, a4, -8
0x80002240: 00 b7 80 23 sb	a1, 0(a5)
0x80002244: 00 17 87 93 addi	a5, a5, 1
0x80002248: fe e7 9c e3 bne	a5, a4, -8
0x80002240: 00 b7 80 23 sb	a1, 0(a5)
0x80002244: 00 17 87 93 addi	a5, a5, 1
0x80002248: fe e7 9c e3 bne	a5, a4, -8
0x80002240: 00 b7 80 23 sb	a1, 0(a5)
0x80002244: 00 17 87 93 addi	a5, a5, 1
0x80002248: fe e7 9c e3 bne	a5, a4, -8
0x80002240: 00 b7 80 23 sb	a1, 0(a5)
0x80002244: 00 17 87 93 addi	a5, a5, 1
0x80002248: fe e7 9c e3 bne	a5, a4, -8
0x80002240: 00 b7 80 23 sb	a1, 0(a5)
0x80002244: 00 17 87 93 addi	a5, a5, 1
0x80002248: fe e7 9c e3 bne	a5, a4, -8
0x80002240: 00 b7 80 23 sb	a1, 0(a5)
0x80002244: 00 17 87 93 addi	a5, a5, 1
0x80002248: fe e7 9c e3 bne	a5, a4, -8
0x80002240: 00 b7 80 23 sb	a1, 0(a5)
0x80002244: 00 17 87 93 addi	a5, a5, 1
0x80002248: fe e7 9c e3 bne	a5, a4, -8
0x80002240: 00 b7 80 23 sb	a1, 0(a5)
0x80002244: 00 17 87 93 addi	a5, a5, 1
0x80002248: fe e7 9c e3 bne	a5, a4, -8
0x80002240: 00 b7 80 23 sb	a1, 0(a5)
0x80002244: 00 17 87 93 addi	a5, a5, 1
0x80002248: fe e7 9c e3 bne	a5, a4, -8
0x80002240: 00 b7 80 23 sb	a1, 0(a5)
0x80002244: 00 17 87 93 addi	a5, a5, 1
0x80002248: fe e7 9c e3 bne	a5, a4, -8
0x80002240: 00 b7 80 23 sb	a1, 0(a5)
0x80002244: 00 17 87 93 addi	a5, a5, 1
0x80002248: fe e7 9c e3 bne	a5, a4, -8
0x80002240: 00 b7 80 23 sb	a1, 0(a5)
0x80002244: 00 17 87 93 addi	a5, a5, 1
0x80002248: fe e7 9c e3 bne	a5, a4, -8
0x80002240: 00 b7 80 23 sb	a1, 0(a5)
0x80002244: 00 17 87 93 addi	a5, a5, 1
0x80002248: fe e7 9c e3 bne	a5, a4, -8
0x80002240: 00 b7 80 23 sb	a1, 0(a5)
0x80002244: 00 17 87 93 addi	a5, a5, 1
0x80002248: fe e7 9c e3 bne	a5, a4, -8
0x80002240: 00 b7 80 23 sb	a1, 0(a5)
0x80002244: 00 17 87 93 addi	a5, a5, 1
0x80002248: fe e7 9c e3 bne	a5, a4, -8
0x80002240: 00 b7 80 23 sb	a1, 0(a5)
0x80002244: 00 17 87 93 addi	a5, a5, 1
0x80002248: fe e7 9c e3 bne	a5, a4, -8
0x80002240: 00 b7 80 23 sb	a1, 0(a5)
0x80002244: 00 17 87 93 addi	a5, a5, 1
0x80002248: fe e7 9c e3 bne	a5, a4, -8
0x80002240: 00 b7 80 23 sb	a1, 0(a5)
0x80002244: 00 17 87 93 addi	a5, a5, 1
0x80002248: fe e7 9c e3 bne	a5, a4, -8
0x80002240: 00 b7 80 23 sb	a1, 0(a5)
0x80002244: 00 17 87 93 addi	a5, a5, 1
0x80002248: fe e7 9c e3 bne	a5, a4, -8
0x80002240: 00 b7 80 23 sb	a1, 0(a5)
0x80002244: 00 17 87 93 addi	a5, a5, 1
0x80002248: fe e7 9c e3 bne	a5, a4, -8
0x80002240: 00 b7 80 23 sb	a1, 0(a5)
0x80002244: 00 17 87 93 addi	a5, a5, 1
0x80002248: fe e7 9c e3 bne	a5, a4, -8
0x80002240: 00 b7 80 23 sb	a1, 0(a5)
0x80002244: 00 17 87 93 addi	a5, a5, 1
0x80002248: fe e7 9c e3 bne	a5, a4, -8
0x80002240: 00 b7 80 23 sb	a1, 0(a5)
0x80002244: 00 17 87 93 addi	a5, a5, 1
0x80002248: fe e7 9c e3 bne	a5, a4, -8
0x80002240: 00 b7 80 23 sb	a1, 0(a5)
0x80002244: 00 17 87 93 addi	a5, a5, 1
0x80002248: fe e7 9c e3 bne	a5, a4, -8
0x80002240: 00 b7 80 23 sb	a1, 0(a5)
0x80002244: 00 17 87 93 addi	a5, a5, 1
0x80002248: fe e7 9c e3 bne	a5, a4, -8
0x80002240: 00 b7 80 23 sb	a1, 0(a5)
0x80002244: 00 17 87 93 addi	a5, a5, 1
0x80002248: fe e7 9c e3 bne	a5, a4, -8
0x80002240: 00 b7 80 23 sb	a1, 0(a5)
0x80002244: 00 17 87 93 addi	a5, a5, 1
0x80002248: fe e7 9c e3 bne	a5, a4, -8
0x80002240: 00 b7 80 23 sb	a1, 0(a5)
0x80002244: 00 17 87 93 addi	a5, a5, 1
0x80002248: fe e7 9c e3 bne	a5, a4, -8
0x80002240: 00 b7 80 23 sb	a1, 0(a5)
0x80002244: 00 17 87 93 addi	a5, a5, 1
0x80002248: fe e7 9c e3 bne	a5, a4, -8
0x80002240: 00 b7 80 23 sb	a1, 0(a5)
0x80002244: 00 17 87 93 addi	a5, a5, 1
0x80002248: fe e7 9c e3 bne	a5, a4, -8
0x80002240: 00 b7 80 23 sb	a1, 0(a5)
0x80002244: 00 17 87 93 addi	a5, a5, 1
0x80002248: fe e7 9c e3 bne	a5, a4, -8
0x80002240: 00 b7 80 23 sb	a1, 0(a5)
0x80002244: 00 17 87 93 addi	a5, a5, 1
0x80002248: fe e7 9c e3 bne	a5, a4, -8
0x80002240: 00 b7 80 23 sb	a1, 0(a5)
0x80002244: 00 17 87 93 addi	a5, a5, 1
0x80002248: fe e7 9c e3 bne	a5, a4, -8
0x80002240: 00 b7 80 23 sb	a1, 0(a5)
0x80002244: 00 17 87 93 addi	a5, a5, 1
0x80002248: fe e7 9c e3 bne	a5, a4, -8
0x80002240: 00 b7 80 23 sb	a1, 0(a5)
0x80002244: 00 17 87 93 addi	a5, a5, 1
0x80002248: fe e7 9c e3 bne	a5, a4, -8
0x80002240: 00 b7 80 23 sb	a1, 0(a5)
0x80002244: 00 17 87 93 addi	a5, a5, 1
0x80002248: fe e7 9c e3 bne	a5, a4, -8
0x80002240: 00 b7 80 23 sb	a1, 0(a5)
0x80002244: 00 17 87 93 addi	a5, a5, 1
0x80002248: fe e7 9c e3 bne	a5, a4, -8
0x80002240: 00 b7 80 23 sb	a1, 0(a5)
0x80002244: 00 17 87 93 addi	a5, a5, 1
0x80002248: fe e7 9c e3 bne	a5, a4, -8
0x80002240: 00 b7 80 23 sb	a1, 0(a5)
0x80002244: 00 17 87 93 addi	a5, a5, 1
0x80002248: fe e7 9c e3 bne	a5, a4, -8
0x80002240: 00 b7 80 23 sb	a1, 0(a5)
0x80002244: 00 17 87 93 addi	a5, a5, 1
0x80002248: fe e7 9c e3 bne	a5, a4, -8
0x80002240: 00 b7 80 23 sb	a1, 0(a5)
0x80002244: 00 17 87 93 addi	a5, a5, 1
0x80002248: fe e7 9c e3 bne	a5, a4, -8
0x80002240: 00 b7 80 23 sb	a1, 0(a5)
0x80002244: 00 17 87 93 addi	a5, a5, 1
0x80002248: fe e7 9c e3 bne	a5, a4, -8
0x80002240: 00 b7 80 23 sb	a1, 0(a5)
0x80002244: 00 17 87 93 addi	a5, a5, 1
0x80002248: fe e7 9c e3 bne	a5, a4, -8
0x80002240: 00 b7 80 23 sb	a1, 0(a5)
0x80002244: 00 17 87 93 addi	a5, a5, 1
0x80002248: fe e7 9c e3 bne	a5, a4, -8
0x80002240: 00 b7 80 23 sb	a1, 0(a5)
0x80002244: 00 17 87 93 addi	a5, a5, 1
0x80002248: fe e7 9c e3 bne	a5, a4, -8
0x80002240: 00 b7 80 23 sb	a1, 0(a5)
0x80002244: 00 17 87 93 addi	a5, a5, 1
0x80002248: fe e7 9c e3 bne	a5, a4, -8
0x80002240: 00 b7 80 23 sb	a1, 0(a5)
0x80002244: 00 17 87 93 addi	a5, a5, 1
0x80002248: fe e7 9c e3 bne	a5, a4, -8
0x80002240: 00 b7 80 23 sb	a1, 0(a5)
0x80002244: 00 17 87 93 addi	a5, a5, 1
0x80002248: fe e7 9c e3 bne	a5, a4, -8
0x80002240: 00 b7 80 23 sb	a1, 0(a5)
0x80002244: 00 17 87 93 addi	a5, a5, 1
0x80002248: fe e7 9c e3 bne	a5, a4, -8
0x80002240: 00 b7 80 23 sb	a1, 0(a5)
0x80002244: 00 17 87 93 addi	a5, a5, 1
0x80002248: fe e7 9c e3 bne	a5, a4, -8
0x80002240: 00 b7 80 23 sb	a1, 0(a5)
0x80002244: 00 17 87 93 addi	a5, a5, 1
0x80002248: fe e7 9c e3 bne	a5, a4, -8
0x80002240: 00 b7 80 23 sb	a1, 0(a5)
0x80002244: 00 17 87 93 addi	a5, a5, 1
0x80002248: fe e7 9c e3 bne	a5, a4, -8
0x80002240: 00 b7 80 23 sb	a1, 0(a5)
0x80002244: 00 17 87 93 addi	a5, a5, 1
0x80002248: fe e7 9c e3 bne	a5, a4, -8
0x80002240: 00 b7 80 23 sb	a1, 0(a5)
0x80002244: 00 17 87 93 addi	a5, a5, 1
0x80002248: fe e7 9c e3 bne	a5, a4, -8
0x80002240: 00 b7 80 23 sb	a1, 0(a5)
0x80002244: 00 17 87 93 addi	a5, a5, 1
0x80002248: fe e7 9c e3 bne	a5, a4, -8
0x80002240: 00 b7 80 23 sb	a1, 0(a5)
0x80002244: 00 17 87 93 addi	a5, a5, 1
0x80002248: fe e7 9c e3 bne	a5, a4, -8
0x80002240: 00 b7 80 23 sb	a1, 0(a5)
0x80002244: 00 17 87 93 addi	a5, a5, 1
0x80002248: fe e7 9c e3 bne	a5, a4, -8
0x80002240: 00 b7 80 23 sb	a1, 0(a5)
0x80002244: 00 17 87 93 addi	a5, a5, 1
0x80002248: fe e7 9c e3 bne	a5, a4, -8
0x80002240: 00 b7 80 23 sb	a1, 0(a5)
0x80002244: 00 17 87 93 addi	a5, a5, 1
0x80002248: fe e7 9c e3 bne	a5, a4, -8
0x80002240: 00 b7 80 23 sb	a1, 0(a5)
0x80002244: 00 17 87 93 addi	a5, a5, 1
0x80002248: fe e7 9c e3 bne	a5, a4, -8
0x80002240: 00 b7 80 23 sb	a1, 0(a5)
0x80002244: 00 17 87 93 addi	a5, a5, 1
0x80002248: fe e7 9c e3 bne	a5, a4, -8
0x80002240: 00 b7 80 23 sb	a1, 0(a5)
0x80002244: 00 17 87 93 addi	a5, a5, 1
0x80002248: fe e7 9c e3 bne	a5, a4, -8
0x80002240: 00 b7 80 23 sb	a1, 0(a5)
0x80002244: 00 17 87 93 addi	a5, a5, 1
0x80002248: fe e7 9c e3 bne	a5, a4, -8
0x80002240: 00 b7 80 23 sb	a1, 0(a5)
0x80002244: 00 17 87 93 addi	a5, a5, 1
0x80002248: fe e7 9c e3 bne	a5, a4, -8
0x80002240: 00 b7 80 23 sb	a1, 0(a5)
0x80002244: 00 17 87 93 addi	a5, a5, 1
0x80002248: fe e7 9c e3 bne	a5, a4, -8
0x80002240: 00 b7 80 23 sb	a1, 0(a5)
0x80002244: 00 17 87 93 addi	a5, a5, 1
0x80002248: fe e7 9c e3 bne	a5, a4, -8
0x80002240: 00 b7 80 23 sb	a1, 0(a5)
0x80002244: 00 17 87 93 addi	a5, a5, 1
0x80002248: fe e7 9c e3 bne	a5, a4, -8
0x80002240: 00 b7 80 23 sb	a1, 0(a5)
0x80002244: 00 17 87 93 addi	a5, a5, 1
0x80002248: fe e7 9c e3 bne	a5, a4, -8
0x80002240: 00 b7 80 23 sb	a1, 0(a5)
0x80002244: 00 17 87 93 addi	a5, a5, 1
0x80002248: fe e7 9c e3 bne	a5, a4, -8
0x80002240: 00 b7 80 23 sb	a1, 0(a5)
0x80002244: 00 17 87 93 addi	a5, a5, 1
0x80002248: fe e7 9c e3 bne	a5, a4, -8
0x80002240: 00 b7 80 23 sb	a1, 0(a5)
0x80002244: 00 17 87 93 addi	a5, a5, 1
0x80002248: fe e7 9c e3 bne	a5, a4, -8
0x80002240: 00 b7 80 23 sb	a1, 0(a5)
0x80002244: 00 17 87 93 addi	a5, a5, 1
0x80002248: fe e7 9c e3 bne	a5, a4, -8
0x80002240: 00 b7 80 23 sb	a1, 0(a5)
0x80002244: 00 17 87 93 addi	a5, a5, 1
0x80002248: fe e7 9c e3 bne	a5, a4, -8
0x80002240: 00 b7 80 23 sb	a1, 0(a5)
0x80002244: 00 17 87 93 addi	a5, a5, 1
0x80002248: fe e7 9c e3 bne	a5, a4, -8
0x80002240: 00 b7 80 23 sb	a1, 0(a5)
0x80002244: 00 17 87 93 addi	a5, a5, 1
0x80002248: fe e7 9c e3 bne	a5, a4, -8
0x80002240: 00 b7 80 23 sb	a1, 0(a5)
0x80002244: 00 17 87 93 addi	a5, a5, 1
0x80002248: fe e7 9c e3 bne	a5, a4, -8
0x80002240: 00 b7 80 23 sb	a1, 0(a5)
0x80002244: 00 17 87 93 addi	a5, a5, 1
0x80002248: fe e7 9c e3 bne	a5, a4, -8
0x80002240: 00 b7 80 23 sb	a1, 0(a5)
0x80002244: 00 17 87 93 addi	a5, a5, 1
0x80002248: fe e7 9c e3 bne	a5, a4, -8
0x80002240: 00 b7 80 23 sb	a1, 0(a5)
0x80002244: 00 17 87 93 addi	a5, a5, 1
0x80002248: fe e7 9c e3 bne	a5, a4, -8
0x80002240: 00 b7 80 23 sb	a1, 0(a5)
0x80002244: 00 17 87 93 addi	a5, a5, 1
0x80002248: fe e7 9c e3 bne	a5, a4, -8
0x80002240: 00 b7 80 23 sb	a1, 0(a5)
0x80002244: 00 17 87 93 addi	a5, a5, 1
0x80002248: fe e7 9c e3 bne	a5, a4, -8
0x80002240: 00 b7 80 23 sb	a1, 0(a5)
0x80002244: 00 17 87 93 addi	a5, a5, 1
0x80002248: fe e7 9c e3 bne	a5, a4, -8
0x80002240: 00 b7 80 23 sb	a1, 0(a5)
0x80002244: 00 17 87 93 addi	a5, a5, 1
0x80002248: fe e7 9c e3 bne	a5, a4, -8
0x80002240: 00 b7 80 23 sb	a1, 0(a5)
0x80002244: 00 17 87 93 addi	a5, a5, 1
0x80002248: fe e7 9c e3 bne	a5, a4, -8
0x80002240: 00 b7 80 23 sb	a1, 0(a5)
0x80002244: 00 17 87 93 addi	a5, a5, 1
0x80002248: fe e7 9c e3 bne	a5, a4, -8
0x80002240: 00 b7 80 23 sb	a1, 0(a5)
0x80002244: 00 17 87 93 addi	a5, a5, 1
0x80002248: fe e7 9c e3 bne	a5, a4, -8
0x80002240: 00 b7 80 23 sb	a1, 0(a5)
0x80002244: 00 17 87 93 addi	a5, a5, 1
0x80002248: fe e7 9c e3 bne	a5, a4, -8
0x80002240: 00 b7 80 23 sb	a1, 0(a5)
0x80002244: 00 17 87 93 addi	a5, a5, 1
0x80002248: fe e7 9c e3 bne	a5, a4, -8
0x80002240: 00 b7 80 23 sb	a1, 0(a5)
0x80002244: 00 17 87 93 addi	a5, a5, 1
0x80002248: fe e7 9c e3 bne	a5, a4, -8
0x80002240: 00 b7 80 23 sb	a1, 0(a5)
0x80002244: 00 17 87 93 addi	a5, a5, 1
0x80002248: fe e7 9c e3 bne	a5, a4, -8
0x80002240: 00 b7 80 23 sb	a1, 0(a5)
0x80002244: 00 17 87 93 addi	a5, a5, 1
0x80002248: fe e7 9c e3 bne	a5, a4, -8
0x80002240: 00 b7 80 23 sb	a1, 0(a5)
0x80002244: 00 17 87 93 addi	a5, a5, 1
0x80002248: fe e7 9c e3 bne	a5, a4, -8
0x80002240: 00 b7 80 23 sb	a1, 0(a5)
0x80002244: 00 17 87 93 addi	a5, a5, 1
0x80002248: fe e7 9c e3 bne	a5, a4, -8
0x80002240: 00 b7 80 23 sb	a1, 0(a5)
0x80002244: 00 17 87 93 addi	a5, a5, 1
0x80002248: fe e7 9c e3 bne	a5, a4, -8
0x80002240: 00 b7 80 23 sb	a1, 0(a5)
0x80002244: 00 17 87 93 addi	a5, a5, 1
0x80002248: fe e7 9c e3 bne	a5, a4, -8
0x80002240: 00 b7 80 23 sb	a1, 0(a5)
0x80002244: 00 17 87 93 addi	a5, a5, 1
0x80002248: fe e7 9c e3 bne	a5, a4, -8
0x80002240: 00 b7 80 23 sb	a1, 0(a5)
0x80002244: 00 17 87 93 addi	a5, a5, 1
0x80002248: fe e7 9c e3 bne	a5, a4, -8
0x80002240: 00 b7 80 23 sb	a1, 0(a5)
0x80002244: 00 17 87 93 addi	a5, a5, 1
0x80002248: fe e7 9c e3 bne	a5, a4, -8
0x80002240: 00 b7 80 23 sb	a1, 0(a5)
0x80002244: 00 17 87 93 addi	a5, a5, 1
0x80002248: fe e7 9c e3 bne	a5, a4, -8
0x80002240: 00 b7 80 23 sb	a1, 0(a5)
0x80002244: 00 17 87 93 addi	a5, a5, 1
0x80002248: fe e7 9c e3 bne	a5, a4, -8
0x80002240: 00 b7 80 23 sb	a1, 0(a5)
0x80002244: 00 17 87 93 addi	a5, a5, 1
0x80002248: fe e7 9c e3 bne	a5, a4, -8
0x80002240: 00 b7 80 23 sb	a1, 0(a5)
0x80002244: 00 17 87 93 addi	a5, a5, 1
0x80002248: fe e7 9c e3 bne	a5, a4, -8
0x80002240: 00 b7 80 23 sb	a1, 0(a5)
0x80002244: 00 17 87 93 addi	a5, a5, 1
0x80002248: fe e7 9c e3 bne	a5, a4, -8
0x80002240: 00 b7 80 23 sb	a1, 0(a5)
0x80002244: 00 17 87 93 addi	a5, a5, 1
0x80002248: fe e7 9c e3 bne	a5, a4, -8
0x80002240: 00 b7 80 23 sb	a1, 0(a5)
0x80002244: 00 17 87 93 addi	a5, a5, 1
0x80002248: fe e7 9c e3 bne	a5, a4, -8
0x80002240: 00 b7 80 23 sb	a1, 0(a5)
0x80002244: 00 17 87 93 addi	a5, a5, 1
0x80002248: fe e7 9c e3 bne	a5, a4, -8
0x80002240: 00 b7 80 23 sb	a1, 0(a5)
0x80002244: 00 17 87 93 addi	a5, a5, 1
0x80002248: fe e7 9c e3 bne	a5, a4, -8
0x80002240: 00 b7 80 23 sb	a1, 0(a5)
0x80002244: 00 17 87 93 addi	a5, a5, 1
0x80002248: fe e7 9c e3 bne	a5, a4, -8
0x80002240: 00 b7 80 23 sb	a1, 0(a5)
0x80002244: 00 17 87 93 addi	a5, a5, 1
0x80002248: fe e7 9c e3 bne	a5, a4, -8
0x80002240: 00 b7 80 23 sb	a1, 0(a5)
0x80002244: 00 17 87 93 addi	a5, a5, 1
0x80002248: fe e7 9c e3 bne	a5, a4, -8
0x80002240: 00 b7 80 23 sb	a1, 0(a5)
0x80002244: 00 17 87 93 addi	a5, a5, 1
0x80002248: fe e7 9c e3 bne	a5, a4, -8
0x80002240: 00 b7 80 23 sb	a1, 0(a5)
0x80002244: 00 17 87 93 addi	a5, a5, 1
0x80002248: fe e7 9c e3 bne	a5, a4, -8
0x80002240: 00 b7 80 23 sb	a1, 0(a5)
0x80002244: 00 17 87 93 addi	a5, a5, 1
0x80002248: fe e7 9c e3 bne	a5, a4, -8
0x80002240: 00 b7 80 23 sb	a1, 0(a5)
0x80002244: 00 17 87 93 addi	a5, a5, 1
0x80002248: fe e7 9c e3 bne	a5, a4, -8
0x80002240: 00 b7 80 23 sb	a1, 0(a5)
0x80002244: 00 17 87 93 addi	a5, a5, 1
0x80002248: fe e7 9c e3 bne	a5, a4, -8
0x80002240: 00 b7 80 23 sb	a1, 0(a5)
0x80002244: 00 17 87 93 addi	a5, a5, 1
0x80002248: fe e7 9c e3 bne	a5, a4, -8
0x80002240: 00 b7 80 23 sb	a1, 0(a5)
0x80002244: 00 17 87 93 addi	a5, a5, 1
0x80002248: fe e7 9c e3 bne	a5, a4, -8
0x80002240: 00 b7 80 23 sb	a1, 0(a5)
0x80002244: 00 17 87 93 addi	a5, a5, 1
0x80002248: fe e7 9c e3 bne	a5, a4, -8
0x80002240: 00 b7 80 23 sb	a1, 0(a5)
0x80002244: 00 17 87 93 addi	a5, a5, 1
0x80002248: fe e7 9c e3 bne	a5, a4, -8
0x80002240: 00 b7 80 23 sb	a1, 0(a5)
0x80002244: 00 17 87 93 addi	a5, a5, 1
0x80002248: fe e7 9c e3 bne	a5, a4, -8
0x80002240: 00 b7 80 23 sb	a1, 0(a5)
0x80002244: 00 17 87 93 addi	a5, a5, 1
0x80002248: fe e7 9c e3 bne	a5, a4, -8
0x80002240: 00 b7 80 23 sb	a1, 0(a5)
0x80002244: 00 17 87 93 addi	a5, a5, 1
0x80002248: fe e7 9c e3 bne	a5, a4, -8
0x80002240: 00 b7 80 23 sb	a1, 0(a5)
0x80002244: 00 17 87 93 addi	a5, a5, 1
0x80002248: fe e7 9c e3 bne	a5, a4, -8
0x80002240: 00 b7 80 23 sb	a1, 0(a5)
0x80002244: 00 17 87 93 addi	a5, a5, 1
0x80002248: fe e7 9c e3 bne	a5, a4, -8
0x80002240: 00 b7 80 23 sb	a1, 0(a5)
0x80002244: 00 17 87 93 addi	a5, a5, 1
0x80002248: fe e7 9c e3 bne	a5, a4, -8
0x80002240: 00 b7 80 23 sb	a1, 0(a5)
0x80002244: 00 17 87 93 addi	a5, a5, 1
0x80002248: fe e7 9c e3 bne	a5, a4, -8
0x80002240: 00 b7 80 23 sb	a1, 0(a5)
0x80002244: 00 17 87 93 addi	a5, a5, 1
0x80002248: fe e7 9c e3 bne	a5, a4, -8
0x80002240: 00 b7 80 23 sb	a1, 0(a5)
0x80002244: 00 17 87 93 addi	a5, a5, 1
0x80002248: fe e7 9c e3 bne	a5, a4, -8
0x80002240: 00 b7 80 23 sb	a1, 0(a5)
0x80002244: 00 17 87 93 addi	a5, a5, 1
0x80002248: fe e7 9c e3 bne	a5, a4, -8
0x80002240: 00 b7 80 23 sb	a1, 0(a5)
0x80002244: 00 17 87 93 addi	a5, a5, 1
0x80002248: fe e7 9c e3 bne	a5, a4, -8
0x80002240: 00 b7 80 23 sb	a1, 0(a5)
0x80002244: 00 17 87 93 addi	a5, a5, 1
0x80002248: fe e7 9c e3 bne	a5, a4, -8
0x80002240: 00 b7 80 23 sb	a1, 0(a5)
0x80002244: 00 17 87 93 addi	a5, a5, 1
0x80002248: fe e7 9c e3 bne	a5, a4, -8
0x80002240: 00 b7 80 23 sb	a1, 0(a5)
0x80002244: 00 17 87 93 addi	a5, a5, 1
0x80002248: fe e7 9c e3 bne	a5, a4, -8
0x80002240: 00 b7 80 23 sb	a1, 0(a5)
0x80002244: 00 17 87 93 addi	a5, a5, 1
0x80002248: fe e7 9c e3 bne	a5, a4, -8
0x80002240: 00 b7 80 23 sb	a1, 0(a5)
0x80002244: 00 17 87 93 addi	a5, a5, 1
0x80002248: fe e7 9c e3 bne	a5, a4, -8
0x80002240: 00 b7 80 23 sb	a1, 0(a5)
0x80002244: 00 17 87 93 addi	a5, a5, 1
0x80002248: fe e7 9c e3 bne	a5, a4, -8
0x80002240: 00 b7 80 23 sb	a1, 0(a5)
0x80002244: 00 17 87 93 addi	a5, a5, 1
0x80002248: fe e7 9c e3 bne	a5, a4, -8
0x80002240: 00 b7 80 23 sb	a1, 0(a5)
0x80002244: 00 17 87 93 addi	a5, a5, 1
0x80002248: fe e7 9c e3 bne	a5, a4, -8
0x80002240: 00 b7 80 23 sb	a1, 0(a5)
0x80002244: 00 17 87 93 addi	a5, a5, 1
0x80002248: fe e7 9c e3 bne	a5, a4, -8
0x80002240: 00 b7 80 23 sb	a1, 0(a5)
0x80002244: 00 17 87 93 addi	a5, a5, 1
0x80002248: fe e7 9c e3 bne	a5, a4, -8
0x80002240: 00 b7 80 23 sb	a1, 0(a5)
0x80002244: 00 17 87 93 addi	a5, a5, 1
0x80002248: fe e7 9c e3 bne	a5, a4, -8
0x80002240: 00 b7 80 23 sb	a1, 0(a5)
0x80002244: 00 17 87 93 addi	a5, a5, 1
0x80002248: fe e7 9c e3 bne	a5, a4, -8
0x80002240: 00 b7 80 23 sb	a1, 0(a5)
0x80002244: 00 17 87 93 addi	a5, a5, 1
0x80002248: fe e7 9c e3 bne	a5, a4, -8
0x80002240: 00 b7 80 23 sb	a1, 0(a5)
0x80002244: 00 17 87 93 addi	a5, a5, 1
0x80002248: fe e7 9c e3 bne	a5, a4, -8
0x80002240: 00 b7 80 23 sb	a1, 0(a5)
0x80002244: 00 17 87 93 addi	a5, a5, 1
0x80002248: fe e7 9c e3 bne	a5, a4, -8
0x80002240: 00 b7 80 23 sb	a1, 0(a5)
0x80002244: 00 17 87 93 addi	a5, a5, 1
0x80002248: fe e7 9c e3 bne	a5, a4, -8
0x80002240: 00 b7 80 23 sb	a1, 0(a5)
0x80002244: 00 17 87 93 addi	a5, a5, 1
0x80002248: fe e7 9c e3 bne	a5, a4, -8
0x80002240: 00 b7 80 23 sb	a1, 0(a5)
0x80002244: 00 17 87 93 addi	a5, a5, 1
0x80002248: fe e7 9c e3 bne	a5, a4, -8
0x80002240: 00 b7 80 23 sb	a1, 0(a5)
0x80002244: 00 17 87 93 addi	a5, a5, 1
0x80002248: fe e7 9c e3 bne	a5, a4, -8
0x80002240: 00 b7 80 23 sb	a1, 0(a5)
0x80002244: 00 17 87 93 addi	a5, a5, 1
0x80002248: fe e7 9c e3 bne	a5, a4, -8
0x80002240: 00 b7 80 23 sb	a1, 0(a5)
0x80002244: 00 17 87 93 addi	a5, a5, 1
0x80002248: fe e7 9c e3 bne	a5, a4, -8
0x80002240: 00 b7 80 23 sb	a1, 0(a5)
0x80002244: 00 17 87 93 addi	a5, a5, 1
0x80002248: fe e7 9c e3 bne	a5, a4, -8
0x80002240: 00 b7 80 23 sb	a1, 0(a5)
0x80002244: 00 17 87 93 addi	a5, a5, 1
0x80002248: fe e7 9c e3 bne	a5, a4, -8
0x80002240: 00 b7 80 23 sb	a1, 0(a5)
0x80002244: 00 17 87 93 addi	a5, a5, 1
0x80002248: fe e7 9c e3 bne	a5, a4, -8
0x80002240: 00 b7 80 23 sb	a1, 0(a5)
0x80002244: 00 17 87 93 addi	a5, a5, 1
0x80002248: fe e7 9c e3 bne	a5, a4, -8
0x80002240: 00 b7 80 23 sb	a1, 0(a5)
0x80002244: 00 17 87 93 addi	a5, a5, 1
0x80002248: fe e7 9c e3 bne	a5, a4, -8
0x80002240: 00 b7 80 23 sb	a1, 0(a5)
0x80002244: 00 17 87 93 addi	a5, a5, 1
0x80002248: fe e7 9c e3 bne	a5, a4, -8
0x80002240: 00 b7 80 23 sb	a1, 0(a5)
0x80002244: 00 17 87 93 addi	a5, a5, 1
0x80002248: fe e7 9c e3 bne	a5, a4, -8
0x80002240: 00 b7 80 23 sb	a1, 0(a5)
0x80002244: 00 17 87 93 addi	a5, a5, 1
0x80002248: fe e7 9c e3 bne	a5, a4, -8
0x80002240: 00 b7 80 23 sb	a1, 0(a5)
0x80002244: 00 17 87 93 addi	a5, a5, 1
0x80002248: fe e7 9c e3 bne	a5, a4, -8
0x80002240: 00 b7 80 23 sb	a1, 0(a5)
0x80002244: 00 17 87 93 addi	a5, a5, 1
0x80002248: fe e7 9c e3 bne	a5, a4, -8
0x80002240: 00 b7 80 23 sb	a1, 0(a5)
0x80002244: 00 17 87 93 addi	a5, a5, 1
0x80002248: fe e7 9c e3 bne	a5, a4, -8
0x80002240: 00 b7 80 23 sb	a1, 0(a5)
0x80002244: 00 17 87 93 addi	a5, a5, 1
0x80002248: fe e7 9c e3 bne	a5, a4, -8
0x80002240: 00 b7 80 23 sb	a1, 0(a5)
0x80002244: 00 17 87 93 addi	a5, a5, 1
0x80002248: fe e7 9c e3 bne	a5, a4, -8
0x80002240: 00 b7 80 23 sb	a1, 0(a5)
0x80002244: 00 17 87 93 addi	a5, a5, 1
0x80002248: fe e7 9c e3 bne	a5, a4, -8
0x80002240: 00 b7 80 23 sb	a1, 0(a5)
0x80002244: 00 17 87 93 addi	a5, a5, 1
0x80002248: fe e7 9c e3 bne	a5, a4, -8
0x80002240: 00 b7 80 23 sb	a1, 0(a5)
0x80002244: 00 17 87 93 addi	a5, a5, 1
0x80002248: fe e7 9c e3 bne	a5, a4, -8
0x80002240: 00 b7 80 23 sb	a1, 0(a5)
0x80002244: 00 17 87 93 addi	a5, a5, 1
0x80002248: fe e7 9c e3 bne	a5, a4, -8
0x80002240: 00 b7 80 23 sb	a1, 0(a5)
0x80002244: 00 17 87 93 addi	a5, a5, 1
0x80002248: fe e7 9c e3 bne	a5, a4, -8
0x80002240: 00 b7 80 23 sb	a1, 0(a5)
0x80002244: 00 17 87 93 addi	a5, a5, 1
0x80002248: fe e7 9c e3 bne	a5, a4, -8
0x80002240: 00 b7 80 23 sb	a1, 0(a5)
0x80002244: 00 17 87 93 addi	a5, a5, 1
0x80002248: fe e7 9c e3 bne	a5, a4, -8
0x80002240: 00 b7 80 23 sb	a1, 0(a5)
0x80002244: 00 17 87 93 addi	a5, a5, 1
0x80002248: fe e7 9c e3 bne	a5, a4, -8
0x80002240: 00 b7 80 23 sb	a1, 0(a5)
0x80002244: 00 17 87 93 addi	a5, a5, 1
0x80002248: fe e7 9c e3 bne	a5, a4, -8
0x80002240: 00 b7 80 23 sb	a1, 0(a5)
0x80002244: 00 17 87 93 addi	a5, a5, 1
0x80002248: fe e7 9c e3 bne	a5, a4, -8
0x80002240: 00 b7 80 23 sb	a1, 0(a5)
0x80002244: 00 17 87 93 addi	a5, a5, 1
0x80002248: fe e7 9c e3 bne	a5, a4, -8
0x80002240: 00 b7 80 23 sb	a1, 0(a5)
0x80002244: 00 17 87 93 addi	a5, a5, 1
0x80002248: fe e7 9c e3 bne	a5, a4, -8
0x80002240: 00 b7 80 23 sb	a1, 0(a5)
0x80002244: 00 17 87 93 addi	a5, a5, 1
0x80002248: fe e7 9c e3 bne	a5, a4, -8
0x80002240: 00 b7 80 23 sb	a1, 0(a5)
0x80002244: 00 17 87 93 addi	a5, a5, 1
0x80002248: fe e7 9c e3 bne	a5, a4, -8
0x80002240: 00 b7 80 23 sb	a1, 0(a5)
0x80002244: 00 17 87 93 addi	a5, a5, 1
0x80002248: fe e7 9c e3 bne	a5, a4, -8
0x80002240: 00 b7 80 23 sb	a1, 0(a5)
0x80002244: 00 17 87 93 addi	a5, a5, 1
0x80002248: fe e7 9c e3 bne	a5, a4, -8
0x80002240: 00 b7 80 23 sb	a1, 0(a5)
0x80002244: 00 17 87 93 addi	a5, a5, 1
0x80002248: fe e7 9c e3 bne	a5, a4, -8
0x80002240: 00 b7 80 23 sb	a1, 0(a5)
0x80002244: 00 17 87 93 addi	a5, a5, 1
0x80002248: fe e7 9c e3 bne	a5, a4, -8
0x80002240: 00 b7 80 23 sb	a1, 0(a5)
0x80002244: 00 17 87 93 addi	a5, a5, 1
0x80002248: fe e7 9c e3 bne	a5, a4, -8
0x80002240: 00 b7 80 23 sb	a1, 0(a5)
0x80002244: 00 17 87 93 addi	a5, a5, 1
0x80002248: fe e7 9c e3 bne	a5, a4, -8
0x80002240: 00 b7 80 23 sb	a1, 0(a5)
0x80002244: 00 17 87 93 addi	a5, a5, 1
0x80002248: fe e7 9c e3 bne	a5, a4, -8
0x80002240: 00 b7 80 23 sb	a1, 0(a5)
0x80002244: 00 17 87 93 addi	a5, a5, 1
0x80002248: fe e7 9c e3 bne	a5, a4, -8
0x80002240: 00 b7 80 23 sb	a1, 0(a5)
0x80002244: 00 17 87 93 addi	a5, a5, 1
0x80002248: fe e7 9c e3 bne	a5, a4, -8
0x80002240: 00 b7 80 23 sb	a1, 0(a5)
0x80002244: 00 17 87 93 addi	a5, a5, 1
0x80002248: fe e7 9c e3 bne	a5, a4, -8
0x80002240: 00 b7 80 23 sb	a1, 0(a5)
0x80002244: 00 17 87 93 addi	a5, a5, 1
0x80002248: fe e7 9c e3 bne	a5, a4, -8
0x80002240: 00 b7 80 23 sb	a1, 0(a5)
0x80002244: 00 17 87 93 addi	a5, a5, 1
0x80002248: fe e7 9c e3 bne	a5, a4, -8
0x80002240: 00 b7 80 23 sb	a1, 0(a5)
0x80002244: 00 17 87 93 addi	a5, a5, 1
0x80002248: fe e7 9c e3 bne	a5, a4, -8
0x80002240: 00 b7 80 23 sb	a1, 0(a5)
0x80002244: 00 17 87 93 addi	a5, a5, 1
0x80002248: fe e7 9c e3 bne	a5, a4, -8
0x80002240: 00 b7 80 23 sb	a1, 0(a5)
0x80002244: 00 17 87 93 addi	a5, a5, 1
0x80002248: fe e7 9c e3 bne	a5, a4, -8
0x80002240: 00 b7 80 23 sb	a1, 0(a5)
0x80002244: 00 17 87 93 addi	a5, a5, 1
0x80002248: fe e7 9c e3 bne	a5, a4, -8
0x80002240: 00 b7 80 23 sb	a1, 0(a5)
0x80002244: 00 17 87 93 addi	a5, a5, 1
0x80002248: fe e7 9c e3 bne	a5, a4, -8
0x80002240: 00 b7 80 23 sb	a1, 0(a5)
0x80002244: 00 17 87 93 addi	a5, a5, 1
0x80002248: fe e7 9c e3 bne	a5, a4, -8
0x80002240: 00 b7 80 23 sb	a1, 0(a5)
0x80002244: 00 17 87 93 addi	a5, a5, 1
0x80002248: fe e7 9c e3 bne	a5, a4, -8
0x80002240: 00 b7 80 23 sb	a1, 0(a5)
0x80002244: 00 17 87 93 addi	a5, a5, 1
0x80002248: fe e7 9c e3 bne	a5, a4, -8
0x80002240: 00 b7 80 23 sb	a1, 0(a5)
0x80002244: 00 17 87 93 addi	a5, a5, 1
0x80002248: fe e7 9c e3 bne	a5, a4, -8
0x80002240: 00 b7 80 23 sb	a1, 0(a5)
0x80002244: 00 17 87 93 addi	a5, a5, 1
0x80002248: fe e7 9c e3 bne	a5, a4, -8
0x80002240: 00 b7 80 23 sb	a1, 0(a5)
0x80002244: 00 17 87 93 addi	a5, a5, 1
0x80002248: fe e7 9c e3 bne	a5, a4, -8
0x80002240: 00 b7 80 23 sb	a1, 0(a5)
0x80002244: 00 17 87 93 addi	a5, a5, 1
0x80002248: fe e7 9c e3 bne	a5, a4, -8
0x80002240: 00 b7 80 23 sb	a1, 0(a5)
0x80002244: 00 17 87 93 addi	a5, a5, 1
0x80002248: fe e7 9c e3 bne	a5, a4, -8
0x80002240: 00 b7 80 23 sb	a1, 0(a5)
0x80002244: 00 17 87 93 addi	a5, a5, 1
0x80002248: fe e7 9c e3 bne	a5, a4, -8
0x80002240: 00 b7 80 23 sb	a1, 0(a5)
0x80002244: 00 17 87 93 addi	a5, a5, 1
0x80002248: fe e7 9c e3 bne	a5, a4, -8
0x80002240: 00 b7 80 23 sb	a1, 0(a5)
0x80002244: 00 17 87 93 addi	a5, a5, 1
0x80002248: fe e7 9c e3 bne	a5, a4, -8
0x80002240: 00 b7 80 23 sb	a1, 0(a5)
0x80002244: 00 17 87 93 addi	a5, a5, 1
0x80002248: fe e7 9c e3 bne	a5, a4, -8
0x80002240: 00 b7 80 23 sb	a1, 0(a5)
0x80002244: 00 17 87 93 addi	a5, a5, 1
0x80002248: fe e7 9c e3 bne	a5, a4, -8
0x80002240: 00 b7 80 23 sb	a1, 0(a5)
0x80002244: 00 17 87 93 addi	a5, a5, 1
0x80002248: fe e7 9c e3 bne	a5, a4, -8
0x80002240: 00 b7 80 23 sb	a1, 0(a5)
0x80002244: 00 17 87 93 addi	a5, a5, 1
0x80002248: fe e7 9c e3 bne	a5, a4, -8
0x80002240: 00 b7 80 23 sb	a1, 0(a5)
0x80002244: 00 17 87 93 addi	a5, a5, 1
0x80002248: fe e7 9c e3 bne	a5, a4, -8
0x80002240: 00 b7 80 23 sb	a1, 0(a5)
0x80002244: 00 17 87 93 addi	a5, a5, 1
0x80002248: fe e7 9c e3 bne	a5, a4, -8
0x80002240: 00 b7 80 23 sb	a1, 0(a5)
0x80002244: 00 17 87 93 addi	a5, a5, 1
0x80002248: fe e7 9c e3 bne	a5, a4, -8
0x80002240: 00 b7 80 23 sb	a1, 0(a5)
0x80002244: 00 17 87 93 addi	a5, a5, 1
0x80002248: fe e7 9c e3 bne	a5, a4, -8
0x80002240: 00 b7 80 23 sb	a1, 0(a5)
0x80002244: 00 17 87 93 addi	a5, a5, 1
0x80002248: fe e7 9c e3 bne	a5, a4, -8
0x80002240: 00 b7 80 23 sb	a1, 0(a5)
0x80002244: 00 17 87 93 addi	a5, a5, 1
0x80002248: fe e7 9c e3 bne	a5, a4, -8
0x80002240: 00 b7 80 23 sb	a1, 0(a5)
0x80002244: 00 17 87 93 addi	a5, a5, 1
0x80002248: fe e7 9c e3 bne	a5, a4, -8
0x80002240: 00 b7 80 23 sb	a1, 0(a5)
0x80002244: 00 17 87 93 addi	a5, a5, 1
0x80002248: fe e7 9c e3 bne	a5, a4, -8
0x80002240: 00 b7 80 23 sb	a1, 0(a5)
0x80002244: 00 17 87 93 addi	a5, a5, 1
0x80002248: fe e7 9c e3 bne	a5, a4, -8
0x80002240: 00 b7 80 23 sb	a1, 0(a5)
0x80002244: 00 17 87 93 addi	a5, a5, 1
0x80002248: fe e7 9c e3 bne	a5, a4, -8
0x80002240: 00 b7 80 23 sb	a1, 0(a5)
0x80002244: 00 17 87 93 addi	a5, a5, 1
0x80002248: fe e7 9c e3 bne	a5, a4, -8
0x80002240: 00 b7 80 23 sb	a1, 0(a5)
0x80002244: 00 17 87 93 addi	a5, a5, 1
0x80002248: fe e7 9c e3 bne	a5, a4, -8
0x80002240: 00 b7 80 23 sb	a1, 0(a5)
0x80002244: 00 17 87 93 addi	a5, a5, 1
0x80002248: fe e7 9c e3 bne	a5, a4, -8
0x80002240: 00 b7 80 23 sb	a1, 0(a5)
0x80002244: 00 17 87 93 addi	a5, a5, 1
0x80002248: fe e7 9c e3 bne	a5, a4, -8
0x80002240: 00 b7 80 23 sb	a1, 0(a5)
0x80002244: 00 17 87 93 addi	a5, a5, 1
0x80002248: fe e7 9c e3 bne	a5, a4, -8
0x80002240: 00 b7 80 23 sb	a1, 0(a5)
0x80002244: 00 17 87 93 addi	a5, a5, 1
0x80002248: fe e7 9c e3 bne	a5, a4, -8
0x80002240: 00 b7 80 23 sb	a1, 0(a5)
0x80002244: 00 17 87 93 addi	a5, a5, 1
0x80002248: fe e7 9c e3 bne	a5, a4, -8
0x80002240: 00 b7 80 23 sb	a1, 0(a5)
0x80002244: 00 17 87 93 addi	a5, a5, 1
0x80002248: fe e7 9c e3 bne	a5, a4, -8
0x80002240: 00 b7 80 23 sb	a1, 0(a5)
0x80002244: 00 17 87 93 addi	a5, a5, 1
0x80002248: fe e7 9c e3 bne	a5, a4, -8
0x80002240: 00 b7 80 23 sb	a1, 0(a5)
0x80002244: 00 17 87 93 addi	a5, a5, 1
0x80002248: fe e7 9c e3 bne	a5, a4, -8
0x80002240: 00 b7 80 23 sb	a1, 0(a5)
0x80002244: 00 17 87 93 addi	a5, a5, 1
0x80002248: fe e7 9c e3 bne	a5, a4, -8
0x80002240: 00 b7 80 23 sb	a1, 0(a5)
0x80002244: 00 17 87 93 addi	a5, a5, 1
0x80002248: fe e7 9c e3 bne	a5, a4, -8
0x80002240: 00 b7 80 23 sb	a1, 0(a5)
0x80002244: 00 17 87 93 addi	a5, a5, 1
0x80002248: fe e7 9c e3 bne	a5, a4, -8
0x80002240: 00 b7 80 23 sb	a1, 0(a5)
0x80002244: 00 17 87 93 addi	a5, a5, 1
0x80002248: fe e7 9c e3 bne	a5, a4, -8
0x80002240: 00 b7 80 23 sb	a1, 0(a5)
0x80002244: 00 17 87 93 addi	a5, a5, 1
0x80002248: fe e7 9c e3 bne	a5, a4, -8
0x80002240: 00 b7 80 23 sb	a1, 0(a5)
0x80002244: 00 17 87 93 addi	a5, a5, 1
0x80002248: fe e7 9c e3 bne	a5, a4, -8
0x80002240: 00 b7 80 23 sb	a1, 0(a5)
0x80002244: 00 17 87 93 addi	a5, a5, 1
0x80002248: fe e7 9c e3 bne	a5, a4, -8
0x80002240: 00 b7 80 23 sb	a1, 0(a5)
0x80002244: 00 17 87 93 addi	a5, a5, 1
0x80002248: fe e7 9c e3 bne	a5, a4, -8
0x80002240: 00 b7 80 23 sb	a1, 0(a5)
0x80002244: 00 17 87 93 addi	a5, a5, 1
0x80002248: fe e7 9c e3 bne	a5, a4, -8
0x80002240: 00 b7 80 23 sb	a1, 0(a5)
0x80002244: 00 17 87 93 addi	a5, a5, 1
0x80002248: fe e7 9c e3 bne	a5, a4, -8
0x80002240: 00 b7 80 23 sb	a1, 0(a5)
0x80002244: 00 17 87 93 addi	a5, a5, 1
0x80002248: fe e7 9c e3 bne	a5, a4, -8
0x80002240: 00 b7 80 23 sb	a1, 0(a5)
0x80002244: 00 17 87 93 addi	a5, a5, 1
0x80002248: fe e7 9c e3 bne	a5, a4, -8
0x80002240: 00 b7 80 23 sb	a1, 0(a5)
0x80002244: 00 17 87 93 addi	a5, a5, 1
0x80002248: fe e7 9c e3 bne	a5, a4, -8
0x80002240: 00 b7 80 23 sb	a1, 0(a5)
0x80002244: 00 17 87 93 addi	a5, a5, 1
0x80002248: fe e7 9c e3 bne	a5, a4, -8
0x80002240: 00 b7 80 23 sb	a1, 0(a5)
0x80002244: 00 17 87 93 addi	a5, a5, 1
0x80002248: fe e7 9c e3 bne	a5, a4, -8
0x80002240: 00 b7 80 23 sb	a1, 0(a5)
0x80002244: 00 17 87 93 addi	a5, a5, 1
0x80002248: fe e7 9c e3 bne	a5, a4, -8
0x80002240: 00 b7 80 23 sb	a1, 0(a5)
0x80002244: 00 17 87 93 addi	a5, a5, 1
0x80002248: fe e7 9c e3 bne	a5, a4, -8
0x80002240: 00 b7 80 23 sb	a1, 0(a5)
0x80002244: 00 17 87 93 addi	a5, a5, 1
0x80002248: fe e7 9c e3 bne	a5, a4, -8
0x80002240: 00 b7 80 23 sb	a1, 0(a5)
0x80002244: 00 17 87 93 addi	a5, a5, 1
0x80002248: fe e7 9c e3 bne	a5, a4, -8
0x80002240: 00 b7 80 23 sb	a1, 0(a5)
0x80002244: 00 17 87 93 addi	a5, a5, 1
0x80002248: fe e7 9c e3 bne	a5, a4, -8
0x8000224c: 00 00 80 67 ret
0x80000ff8: 00 00 15 17 auipc	a0, 1
0x80000ffc: 7f 45 05 13 addi	a0, a0, 0x7f4
0x80001000: 37 00 10 ef jal	0x1370
0x80002370: fc 01 01 13 addi	sp, sp, -0x40
0x80002374: 02 41 03 13 addi	t1, sp, 0x24
0x80002378: 02 b1 22 23 sw	a1, 0x24(sp)
0x8000237c: 02 c1 24 23 sw	a2, 0x28(sp)
0x80002380: 00 05 05 93 mv	a1, a0
0x80002384: 00 03 06 13 mv	a2, t1
0x80002388: 00 00 05 17 auipc	a0, 0
0x8000238c: cb 05 05 13 addi	a0, a0, -0x350
0x80002390: 00 11 2e 23 sw	ra, 0x1c(sp)
0x80002394: 02 d1 26 23 sw	a3, 0x2c(sp)
0x80002398: 02 e1 28 23 sw	a4, 0x30(sp)
0x8000239c: 02 f1 2a 23 sw	a5, 0x34(sp)
0x800023a0: 03 01 2c 23 sw	a6, 0x38(sp)
0x800023a4: 03 11 2e 23 sw	a7, 0x3c(sp)
0x800023a8: 00 61 26 23 sw	t1, 0xc(sp)
0x800023ac: 01 00 00 ef jal	0x10
0x800023bc: f7 01 01 13 addi	sp, sp, -0x90
0x800023c0: 08 11 26 23 sw	ra, 0x8c(sp)
0x800023c4: 08 81 24 23 sw	s0, 0x88(sp)
0x800023c8: 08 91 22 23 sw	s1, 0x84(sp)
0x800023cc: 09 21 20 23 sw	s2, 0x80(sp)
0x800023d0: 07 31 2e 23 sw	s3, 0x7c(sp)
0x800023d4: 07 41 2c 23 sw	s4, 0x78(sp)
0x800023d8: 07 51 2a 23 sw	s5, 0x74(sp)
0x800023dc: 07 61 28 23 sw	s6, 0x70(sp)
0x800023e0: 07 71 26 23 sw	s7, 0x6c(sp)
0x800023e4: 07 81 24 23 sw	s8, 0x68(sp)
0x800023e8: 07 91 22 23 sw	s9, 0x64(sp)
0x800023ec: 07 a1 20 23 sw	s10, 0x60(sp)
0x800023f0: 05 b1 2e 23 sw	s11, 0x5c(sp)
0x800023f4: 00 05 c7 83 lbu	a5, 0(a1)
0x800023f8: 3a 07 8a 63 beqz	a5, 0x3b4
0x800023fc: cc cc dc 37 lui	s8, 0xccccd
0x80002400: 10 00 09 b7 lui	s3, 0x10000
0x80002404: cc dc 04 93 addi	s1, s8, -0x333
0x80002408: 00 05 84 13 mv	s0, a1
0x8000240c: 00 05 0a 13 mv	s4, a0
0x80002410: 00 06 0a 93 mv	s5, a2
0x80002414: 00 00 09 13 mv	s2, zero
0x80002418: 00 00 0d 13 mv	s10, zero
0x8000241c: 00 00 0d 93 mv	s11, zero
0x80002420: 02 50 0b 93 addi	s7, zero, 0x25
0x80002424: 00 00 5c 97 auipc	s9, 5
0x80002428: 1d 0c 8c 93 addi	s9, s9, 0x1d0
0x8000242c: 01 01 0b 13 addi	s6, sp, 0x10
0x80002430: ff f9 89 93 addi	s3, s3, -1
0x80002434: cc cc 0c 13 addi	s8, s8, -0x334
0x80002438: 07 77 80 63 beq	a5, s7, 0x60
0x8000243c: 06 0d 92 63 bnez	s11, 0x64
0x80002440: 00 07 85 13 mv	a0, a5
0x80002444: 00 0a 00 e7 jalr	s4
0x80002038: a0 00 07 b7 lui	a5, 0xa0000
0x8000203c: 3e a7 8c 23 sb	a0, 0x3f8(a5)
0x80002040: 00 00 80 67 ret
0x80002448: 00 19 09 13 addi	s2, s2, 1
0x8000244c: 00 14 47 83 lbu	a5, 1(s0)
0x80002450: 00 14 04 13 addi	s0, s0, 1
0x80002454: fe 07 92 e3 bnez	a5, -0x1c
0x80002438: 07 77 80 63 beq	a5, s7, 0x60
0x8000243c: 06 0d 92 63 bnez	s11, 0x64
0x80002440: 00 07 85 13 mv	a0, a5
0x80002444: 00 0a 00 e7 jalr	s4
0x80002038: a0 00 07 b7 lui	a5, 0xa0000
0x8000203c: 3e a7 8c 23 sb	a0, 0x3f8(a5)
0x80002040: 00 00 80 67 ret
0x80002448: 00 19 09 13 addi	s2, s2, 1
0x8000244c: 00 14 47 83 lbu	a5, 1(s0)
0x80002450: 00 14 04 13 addi	s0, s0, 1
0x80002454: fe 07 92 e3 bnez	a5, -0x1c
0x80002438: 07 77 80 63 beq	a5, s7, 0x60
0x8000243c: 06 0d 92 63 bnez	s11, 0x64
0x80002440: 00 07 85 13 mv	a0, a5
0x80002444: 00 0a 00 e7 jalr	s4
0x80002038: a0 00 07 b7 lui	a5, 0xa0000
0x8000203c: 3e a7 8c 23 sb	a0, 0x3f8(a5)
0x80002040: 00 00 80 67 ret
0x80002448: 00 19 09 13 addi	s2, s2, 1
0x8000244c: 00 14 47 83 lbu	a5, 1(s0)
0x80002450: 00 14 04 13 addi	s0, s0, 1
0x80002454: fe 07 92 e3 bnez	a5, -0x1c
0x80002438: 07 77 80 63 beq	a5, s7, 0x60
0x8000243c: 06 0d 92 63 bnez	s11, 0x64
0x80002440: 00 07 85 13 mv	a0, a5
0x80002444: 00 0a 00 e7 jalr	s4
0x80002038: a0 00 07 b7 lui	a5, 0xa0000
0x8000203c: 3e a7 8c 23 sb	a0, 0x3f8(a5)
0x80002040: 00 00 80 67 ret
0x80002448: 00 19 09 13 addi	s2, s2, 1
0x8000244c: 00 14 47 83 lbu	a5, 1(s0)
0x80002450: 00 14 04 13 addi	s0, s0, 1
0x80002454: fe 07 92 e3 bnez	a5, -0x1c
0x80002438: 07 77 80 63 beq	a5, s7, 0x60
0x8000243c: 06 0d 92 63 bnez	s11, 0x64
0x80002440: 00 07 85 13 mv	a0, a5
0x80002444: 00 0a 00 e7 jalr	s4
0x80002038: a0 00 07 b7 lui	a5, 0xa0000
0x8000203c: 3e a7 8c 23 sb	a0, 0x3f8(a5)
0x80002040: 00 00 80 67 ret
0x80002448: 00 19 09 13 addi	s2, s2, 1
0x8000244c: 00 14 47 83 lbu	a5, 1(s0)
0x80002450: 00 14 04 13 addi	s0, s0, 1
0x80002454: fe 07 92 e3 bnez	a5, -0x1c
0x80002438: 07 77 80 63 beq	a5, s7, 0x60
0x8000243c: 06 0d 92 63 bnez	s11, 0x64
0x80002440: 00 07 85 13 mv	a0, a5
0x80002444: 00 0a 00 e7 jalr	s4
0x80002038: a0 00 07 b7 lui	a5, 0xa0000
0x8000203c: 3e a7 8c 23 sb	a0, 0x3f8(a5)
0x80002040: 00 00 80 67 ret
0x80002448: 00 19 09 13 addi	s2, s2, 1
0x8000244c: 00 14 47 83 lbu	a5, 1(s0)
0x80002450: 00 14 04 13 addi	s0, s0, 1
0x80002454: fe 07 92 e3 bnez	a5, -0x1c
0x80002458: 08 c1 20 83 lw	ra, 0x8c(sp)
0x8000245c: 08 81 24 03 lw	s0, 0x88(sp)
0x80002460: 08 41 24 83 lw	s1, 0x84(sp)
0x80002464: 07 c1 29 83 lw	s3, 0x7c(sp)
0x80002468: 07 81 2a 03 lw	s4, 0x78(sp)
0x8000246c: 07 41 2a 83 lw	s5, 0x74(sp)
0x80002470: 07 01 2b 03 lw	s6, 0x70(sp)
0x80002474: 06 c1 2b 83 lw	s7, 0x6c(sp)
0x80002478: 06 81 2c 03 lw	s8, 0x68(sp)
0x8000247c: 06 41 2c 83 lw	s9, 0x64(sp)
0x80002480: 06 01 2d 03 lw	s10, 0x60(sp)
0x80002484: 05 c1 2d 83 lw	s11, 0x5c(sp)
0x80002488: 00 09 05 13 mv	a0, s2
0x8000248c: 08 01 29 03 lw	s2, 0x80(sp)
0x80002490: 09 01 01 13 addi	sp, sp, 0x90
0x80002494: 00 00 80 67 ret
0x800023b0: 01 c1 20 83 lw	ra, 0x1c(sp)
0x800023b4: 04 01 01 13 addi	sp, sp, 0x40
0x800023b8: 00 00 80 67 ret
0x80001004: 00 00 27 b7 lui	a5, 2
0x80001008: 71 07 87 93 addi	a5, a5, 0x710
0x8000100c: 00 c0 0a 93 addi	s5, zero, 0xc
0x80001010: 02 80 0b 13 addi	s6, zero, 0x28
0x80001014: 00 10 0d 13 addi	s10, zero, 1
0x80001018: 00 00 0c 93 mv	s9, zero
0x8000101c: 02 a0 0c 13 addi	s8, zero, 0x2a
0x80001020: 00 e0 0b 93 addi	s7, zero, 0xe
0x80001024: 00 00 14 97 auipc	s1, 1
0x80001028: 7d 84 84 93 addi	s1, s1, 0x7d8
0x8000102c: 00 f1 26 23 sw	a5, 0xc(sp)
0x80001030: 00 04 27 83 lw	a5, 0(s0)
0x80001034: 00 09 27 03 lw	a4, 0(s2)
0x80001038: 02 fa 87 b3 mul	a5, s5, a5
0x8000103c: 01 67 87 b3 add	a5, a5, s6
0x80001040: 00 f7 07 b3 add	a5, a4, a5
0x80001044: 00 07 c7 03 lbu	a4, 0(a5)
0x80001048: 0e 07 04 63 beqz	a4, 0xe8
0x80001130: 41 90 06 33 neg	a2, s9
0x80001134: 06 f0 06 93 addi	a3, zero, 0x6f
0x80001138: 00 0d 0c 93 mv	s9, s10
0x8000113c: 00 10 07 13 addi	a4, zero, 1
0x80001140: 00 06 0d 13 mv	s10, a2
0x80001144: f1 df f0 6f j	-0xe4
0x80001060: 00 0b 85 93 mv	a1, s7
0x80001064: 00 e7 80 23 sb	a4, 0(a5)
0x80001068: 00 0c 06 13 mv	a2, s8
0x8000106c: 00 04 85 13 mv	a0, s1
0x80001070: 01 9b 0b 33 add	s6, s6, s9
0x80001074: 2f c0 10 ef jal	0x12fc
0x80002370: fc 01 01 13 addi	sp, sp, -0x40
0x80002374: 02 41 03 13 addi	t1, sp, 0x24
0x80002378: 02 b1 22 23 sw	a1, 0x24(sp)
0x8000237c: 02 c1 24 23 sw	a2, 0x28(sp)
0x80002380: 00 05 05 93 mv	a1, a0
0x80002384: 00 03 06 13 mv	a2, t1
0x80002388: 00 00 05 17 auipc	a0, 0
0x8000238c: cb 05 05 13 addi	a0, a0, -0x350
0x80002390: 00 11 2e 23 sw	ra, 0x1c(sp)
0x80002394: 02 d1 26 23 sw	a3, 0x2c(sp)
0x80002398: 02 e1 28 23 sw	a4, 0x30(sp)
0x8000239c: 02 f1 2a 23 sw	a5, 0x34(sp)
0x800023a0: 03 01 2c 23 sw	a6, 0x38(sp)
0x800023a4: 03 11 2e 23 sw	a7, 0x3c(sp)
0x800023a8: 00 61 26 23 sw	t1, 0xc(sp)
0x800023ac: 01 00 00 ef jal	0x10
0x800023bc: f7 01 01 13 addi	sp, sp, -0x90
0x800023c0: 08 11 26 23 sw	ra, 0x8c(sp)
0x800023c4: 08 81 24 23 sw	s0, 0x88(sp)
0x800023c8: 08 91 22 23 sw	s1, 0x84(sp)
0x800023cc: 09 21 20 23 sw	s2, 0x80(sp)
0x800023d0: 07 31 2e 23 sw	s3, 0x7c(sp)
0x800023d4: 07 41 2c 23 sw	s4, 0x78(sp)
0x800023d8: 07 51 2a 23 sw	s5, 0x74(sp)
0x800023dc: 07 61 28 23 sw	s6, 0x70(sp)
0x800023e0: 07 71 26 23 sw	s7, 0x6c(sp)
0x800023e4: 07 81 24 23 sw	s8, 0x68(sp)
0x800023e8: 07 91 22 23 sw	s9, 0x64(sp)
0x800023ec: 07 a1 20 23 sw	s10, 0x60(sp)
0x800023f0: 05 b1 2e 23 sw	s11, 0x5c(sp)
0x800023f4: 00 05 c7 83 lbu	a5, 0(a1)
0x800023f8: 3a 07 8a 63 beqz	a5, 0x3b4
0x800023fc: cc cc dc 37 lui	s8, 0xccccd
0x80002400: 10 00 09 b7 lui	s3, 0x10000
0x80002404: cc dc 04 93 addi	s1, s8, -0x333
0x80002408: 00 05 84 13 mv	s0, a1
0x8000240c: 00 05 0a 13 mv	s4, a0
0x80002410: 00 06 0a 93 mv	s5, a2
0x80002414: 00 00 09 13 mv	s2, zero
0x80002418: 00 00 0d 13 mv	s10, zero
0x8000241c: 00 00 0d 93 mv	s11, zero
0x80002420: 02 50 0b 93 addi	s7, zero, 0x25
0x80002424: 00 00 5c 97 auipc	s9, 5
0x80002428: 1d 0c 8c 93 addi	s9, s9, 0x1d0
0x8000242c: 01 01 0b 13 addi	s6, sp, 0x10
0x80002430: ff f9 89 93 addi	s3, s3, -1
0x80002434: cc cc 0c 13 addi	s8, s8, -0x334
0x80002438: 07 77 80 63 beq	a5, s7, 0x60
0x8000243c: 06 0d 92 63 bnez	s11, 0x64
0x80002440: 00 07 85 13 mv	a0, a5
0x80002444: 00 0a 00 e7 jalr	s4
0x80002038: a0 00 07 b7 lui	a5, 0xa0000
0x8000203c: 3e a7 8c 23 sb	a0, 0x3f8(a5)
0x80002040: 00 00 80 67 ret
0x80002448: 00 19 09 13 addi	s2, s2, 1
0x8000244c: 00 14 47 83 lbu	a5, 1(s0)
0x80002450: 00 14 04 13 addi	s0, s0, 1
0x80002454: fe 07 92 e3 bnez	a5, -0x1c
0x80002438: 07 77 80 63 beq	a5, s7, 0x60
0x8000243c: 06 0d 92 63 bnez	s11, 0x64
0x80002440: 00 07 85 13 mv	a0, a5
0x80002444: 00 0a 00 e7 jalr	s4
0x80002038: a0 00 07 b7 lui	a5, 0xa0000
0x8000203c: 3e a7 8c 23 sb	a0, 0x3f8(a5)
0x80002040: 00 00 80 67 ret
0x80002448: 00 19 09 13 addi	s2, s2, 1
0x8000244c: 00 14 47 83 lbu	a5, 1(s0)
0x80002450: 00 14 04 13 addi	s0, s0, 1
0x80002454: fe 07 92 e3 bnez	a5, -0x1c
0x80002438: 07 77 80 63 beq	a5, s7, 0x60
0x80002498: 00 1d bd 93 seqz	s11, s11
0x8000249c: 01 b4 04 33 add	s0, s0, s11
0x800024a0: 00 04 47 83 lbu	a5, 0(s0)
0x800024a4: 11 77 86 63 beq	a5, s7, 0x10c
0x800024a8: f9 d7 87 93 addi	a5, a5, -0x63
0x800024ac: 0f f7 f7 93 andi	a5, a5, 0xff
0x800024b0: 01 20 07 13 addi	a4, zero, 0x12
0x800024b4: 00 f7 6c 63 bltu	a4, a5, 0x18
0x800024b8: 00 27 97 93 slli	a5, a5, 2
0x800024bc: 01 97 87 b3 add	a5, a5, s9
0x800024c0: 00 07 a7 83 lw	a5, 0(a5)
0x800024c4: 01 97 87 b3 add	a5, a5, s9
0x800024c8: 00 07 80 67 jr	a5
0x8000255c: 00 20 07 93 addi	a5, zero, 2
0x80002560: 25 a7 ca 63 blt	a5, s10, 0x254
0x80002564: 22 fd 00 63 beq	s10, a5, 0x220
0x80002568: 00 0a ad 83 lw	s11, 0(s5)
0x8000256c: 00 4a 8a 93 addi	s5, s5, 4
0x80002570: 41 fd d7 13 srai	a4, s11, 0x1f
0x80002574: 00 19 0d 13 addi	s10, s2, 1
0x80002578: 10 07 4a 63 bltz	a4, 0x114
0x8000257c: 00 ed e7 b3 or	a5, s11, a4
0x80002580: 22 07 92 63 bnez	a5, 0x224
0x800027a4: 00 09 0d 13 mv	s10, s2
0x800027a8: f0 5f f0 6f j	-0xfc
0x800026ac: 00 0b 06 93 mv	a3, s6
0x800026b0: 00 00 06 13 mv	a2, zero
0x800026b4: 00 50 05 93 addi	a1, zero, 5
0x800026b8: 00 47 17 93 slli	a5, a4, 4
0x800026bc: 01 cd d5 13 srli	a0, s11, 0x1c
0x800026c0: 00 a7 e5 33 or	a0, a5, a0
0x800026c4: 01 35 75 33 and	a0, a0, s3
0x800026c8: 01 3d f7 b3 and	a5, s11, s3
0x800026cc: 01 87 58 13 srli	a6, a4, 0x18
0x800026d0: 00 a7 87 b3 add	a5, a5, a0
0x800026d4: 01 07 87 b3 add	a5, a5, a6
0x800026d8: 02 b7 f7 b3 remu	a5, a5, a1
0x800026dc: 00 16 86 93 addi	a3, a3, 1
0x800026e0: 00 06 09 13 mv	s2, a2
0x800026e4: 00 16 06 13 addi	a2, a2, 1
0x800026e8: 40 fd 87 b3 sub	a5, s11, a5
0x800026ec: 00 fd b5 33 sltu	a0, s11, a5
0x800026f0: 40 a7 07 33 sub	a4, a4, a0
0x800026f4: 03 87 88 33 mul	a6, a5, s8
0x800026f8: 02 97 07 33 mul	a4, a4, s1
0x800026fc: 02 97 b5 33 mulhu	a0, a5, s1
0x80002700: 01 07 07 33 add	a4, a4, a6
0x80002704: 02 97 87 b3 mul	a5, a5, s1
0x80002708: 00 a7 07 33 add	a4, a4, a0
0x8000270c: 01 f7 15 13 slli	a0, a4, 0x1f
0x80002710: 00 17 57 13 srli	a4, a4, 1
0x80002714: 00 17 d7 93 srli	a5, a5, 1
0x80002718: 00 f5 67 b3 or	a5, a0, a5
0x8000271c: 00 27 95 13 slli	a0, a5, 2
0x80002720: 00 f5 05 33 add	a0, a0, a5
0x80002724: 00 15 15 13 slli	a0, a0, 1
0x80002728: 40 ad 85 33 sub	a0, s11, a0
0x8000272c: 03 05 05 13 addi	a0, a0, 0x30
0x80002730: 0f f5 75 13 andi	a0, a0, 0xff
0x80002734: 00 07 8d 93 mv	s11, a5
0x80002738: fe a6 8f a3 sb	a0, -1(a3)
0x8000273c: 00 e7 e7 b3 or	a5, a5, a4
0x80002740: f6 07 9c e3 bnez	a5, -0x88
0x800026b8: 00 47 17 93 slli	a5, a4, 4
0x800026bc: 01 cd d5 13 srli	a0, s11, 0x1c
0x800026c0: 00 a7 e5 33 or	a0, a5, a0
0x800026c4: 01 35 75 33 and	a0, a0, s3
0x800026c8: 01 3d f7 b3 and	a5, s11, s3
0x800026cc: 01 87 58 13 srli	a6, a4, 0x18
0x800026d0: 00 a7 87 b3 add	a5, a5, a0
0x800026d4: 01 07 87 b3 add	a5, a5, a6
0x800026d8: 02 b7 f7 b3 remu	a5, a5, a1
0x800026dc: 00 16 86 93 addi	a3, a3, 1
0x800026e0: 00 06 09 13 mv	s2, a2
0x800026e4: 00 16 06 13 addi	a2, a2, 1
0x800026e8: 40 fd 87 b3 sub	a5, s11, a5
0x800026ec: 00 fd b5 33 sltu	a0, s11, a5
0x800026f0: 40 a7 07 33 sub	a4, a4, a0
0x800026f4: 03 87 88 33 mul	a6, a5, s8
0x800026f8: 02 97 07 33 mul	a4, a4, s1
0x800026fc: 02 97 b5 33 mulhu	a0, a5, s1
0x80002700: 01 07 07 33 add	a4, a4, a6
0x80002704: 02 97 87 b3 mul	a5, a5, s1
0x80002708: 00 a7 07 33 add	a4, a4, a0
0x8000270c: 01 f7 15 13 slli	a0, a4, 0x1f
0x80002710: 00 17 57 13 srli	a4, a4, 1
0x80002714: 00 17 d7 93 srli	a5, a5, 1
0x80002718: 00 f5 67 b3 or	a5, a0, a5
0x8000271c: 00 27 95 13 slli	a0, a5, 2
0x80002720: 00 f5 05 33 add	a0, a0, a5
0x80002724: 00 15 15 13 slli	a0, a0, 1
0x80002728: 40 ad 85 33 sub	a0, s11, a0
0x8000272c: 03 05 05 13 addi	a0, a0, 0x30
0x80002730: 0f f5 75 13 andi	a0, a0, 0xff
0x80002734: 00 07 8d 93 mv	s11, a5
0x80002738: fe a6 8f a3 sb	a0, -1(a3)
0x8000273c: 00 e7 e7 b3 or	a5, a5, a4
0x80002740: f6 07 9c e3 bnez	a5, -0x88
0x80002744: 01 2b 0d b3 add	s11, s6, s2
0x80002748: 00 c0 00 6f j	0xc
0x80002754: 00 0a 00 e7 jalr	s4
0x80002038: a0 00 07 b7 lui	a5, 0xa0000
0x8000203c: 3e a7 8c 23 sb	a0, 0x3f8(a5)
0x80002040: 00 00 80 67 ret
0x80002758: ff fd 87 93 addi	a5, s11, -1
0x8000275c: ff bb 18 e3 bne	s6, s11, -0x10
0x8000274c: ff fd c5 03 lbu	a0, -1(s11)
0x80002750: 00 07 8d 93 mv	s11, a5
0x80002754: 00 0a 00 e7 jalr	s4
0x80002038: a0 00 07 b7 lui	a5, 0xa0000
0x8000203c: 3e a7 8c 23 sb	a0, 0x3f8(a5)
0x80002040: 00 00 80 67 ret
0x80002758: ff fd 87 93 addi	a5, s11, -1
0x8000275c: ff bb 18 e3 bne	s6, s11, -0x10
0x80002760: 00 1d 0d 13 addi	s10, s10, 1
0x80002764: 01 2d 09 33 add	s2, s10, s2
0x80002768: d9 9f f0 6f j	-0x268
0x80002500: 00 00 0d 13 mv	s10, zero
0x80002504: 00 00 0d 93 mv	s11, zero
0x80002508: f4 5f f0 6f j	-0xbc
0x8000244c: 00 14 47 83 lbu	a5, 1(s0)
0x80002450: 00 14 04 13 addi	s0, s0, 1
0x80002454: fe 07 92 e3 bnez	a5, -0x1c
0x80002438: 07 77 80 63 beq	a5, s7, 0x60
0x8000243c: 06 0d 92 63 bnez	s11, 0x64
0x80002440: 00 07 85 13 mv	a0, a5
0x80002444: 00 0a 00 e7 jalr	s4
0x80002038: a0 00 07 b7 lui	a5, 0xa0000
0x8000203c: 3e a7 8c 23 sb	a0, 0x3f8(a5)
0x80002040: 00 00 80 67 ret
0x80002448: 00 19 09 13 addi	s2, s2, 1
0x8000244c: 00 14 47 83 lbu	a5, 1(s0)
0x80002450: 00 14 04 13 addi	s0, s0, 1
0x80002454: fe 07 92 e3 bnez	a5, -0x1c
0x80002438: 07 77 80 63 beq	a5, s7, 0x60
0x80002498: 00 1d bd 93 seqz	s11, s11
0x8000249c: 01 b4 04 33 add	s0, s0, s11
0x800024a0: 00 04 47 83 lbu	a5, 0(s0)
0x800024a4: 11 77 86 63 beq	a5, s7, 0x10c
0x800024a8: f9 d7 87 93 addi	a5, a5, -0x63
0x800024ac: 0f f7 f7 93 andi	a5, a5, 0xff
0x800024b0: 01 20 07 13 addi	a4, zero, 0x12
0x800024b4: 00 f7 6c 63 bltu	a4, a5, 0x18
0x800024b8: 00 27 97 93 slli	a5, a5, 2
0x800024bc: 01 97 87 b3 add	a5, a5, s9
0x800024c0: 00 07 a7 83 lw	a5, 0(a5)
0x800024c4: 01 97 87 b3 add	a5, a5, s9
0x800024c8: 00 07 80 67 jr	a5
0x8000255c: 00 20 07 93 addi	a5, zero, 2
0x80002560: 25 a7 ca 63 blt	a5, s10, 0x254
0x80002564: 22 fd 00 63 beq	s10, a5, 0x220
0x80002568: 00 0a ad 83 lw	s11, 0(s5)
0x8000256c: 00 4a 8a 93 addi	s5, s5, 4
0x80002570: 41 fd d7 13 srai	a4, s11, 0x1f
0x80002574: 00 19 0d 13 addi	s10, s2, 1
0x80002578: 10 07 4a 63 bltz	a4, 0x114
0x8000257c: 00 ed e7 b3 or	a5, s11, a4
0x80002580: 22 07 92 63 bnez	a5, 0x224
0x800027a4: 00 09 0d 13 mv	s10, s2
0x800027a8: f0 5f f0 6f j	-0xfc
0x800026ac: 00 0b 06 93 mv	a3, s6
0x800026b0: 00 00 06 13 mv	a2, zero
0x800026b4: 00 50 05 93 addi	a1, zero, 5
0x800026b8: 00 47 17 93 slli	a5, a4, 4
0x800026bc: 01 cd d5 13 srli	a0, s11, 0x1c
0x800026c0: 00 a7 e5 33 or	a0, a5, a0
0x800026c4: 01 35 75 33 and	a0, a0, s3
0x800026c8: 01 3d f7 b3 and	a5, s11, s3
0x800026cc: 01 87 58 13 srli	a6, a4, 0x18
0x800026d0: 00 a7 87 b3 add	a5, a5, a0
0x800026d4: 01 07 87 b3 add	a5, a5, a6
0x800026d8: 02 b7 f7 b3 remu	a5, a5, a1
0x800026dc: 00 16 86 93 addi	a3, a3, 1
0x800026e0: 00 06 09 13 mv	s2, a2
0x800026e4: 00 16 06 13 addi	a2, a2, 1
0x800026e8: 40 fd 87 b3 sub	a5, s11, a5
0x800026ec: 00 fd b5 33 sltu	a0, s11, a5
0x800026f0: 40 a7 07 33 sub	a4, a4, a0
0x800026f4: 03 87 88 33 mul	a6, a5, s8
0x800026f8: 02 97 07 33 mul	a4, a4, s1
0x800026fc: 02 97 b5 33 mulhu	a0, a5, s1
0x80002700: 01 07 07 33 add	a4, a4, a6
0x80002704: 02 97 87 b3 mul	a5, a5, s1
0x80002708: 00 a7 07 33 add	a4, a4, a0
0x8000270c: 01 f7 15 13 slli	a0, a4, 0x1f
0x80002710: 00 17 57 13 srli	a4, a4, 1
0x80002714: 00 17 d7 93 srli	a5, a5, 1
0x80002718: 00 f5 67 b3 or	a5, a0, a5
0x8000271c: 00 27 95 13 slli	a0, a5, 2
0x80002720: 00 f5 05 33 add	a0, a0, a5
0x80002724: 00 15 15 13 slli	a0, a0, 1
0x80002728: 40 ad 85 33 sub	a0, s11, a0
0x8000272c: 03 05 05 13 addi	a0, a0, 0x30
0x80002730: 0f f5 75 13 andi	a0, a0, 0xff
0x80002734: 00 07 8d 93 mv	s11, a5
0x80002738: fe a6 8f a3 sb	a0, -1(a3)
0x8000273c: 00 e7 e7 b3 or	a5, a5, a4
0x80002740: f6 07 9c e3 bnez	a5, -0x88
0x800026b8: 00 47 17 93 slli	a5, a4, 4
0x800026bc: 01 cd d5 13 srli	a0, s11, 0x1c
0x800026c0: 00 a7 e5 33 or	a0, a5, a0
0x800026c4: 01 35 75 33 and	a0, a0, s3
0x800026c8: 01 3d f7 b3 and	a5, s11, s3
0x800026cc: 01 87 58 13 srli	a6, a4, 0x18
0x800026d0: 00 a7 87 b3 add	a5, a5, a0
0x800026d4: 01 07 87 b3 add	a5, a5, a6
0x800026d8: 02 b7 f7 b3 remu	a5, a5, a1
0x800026dc: 00 16 86 93 addi	a3, a3, 1
0x800026e0: 00 06 09 13 mv	s2, a2
0x800026e4: 00 16 06 13 addi	a2, a2, 1
0x800026e8: 40 fd 87 b3 sub	a5, s11, a5
0x800026ec: 00 fd b5 33 sltu	a0, s11, a5
0x800026f0: 40 a7 07 33 sub	a4, a4, a0
0x800026f4: 03 87 88 33 mul	a6, a5, s8
0x800026f8: 02 97 07 33 mul	a4, a4, s1
0x800026fc: 02 97 b5 33 mulhu	a0, a5, s1
0x80002700: 01 07 07 33 add	a4, a4, a6
0x80002704: 02 97 87 b3 mul	a5, a5, s1
0x80002708: 00 a7 07 33 add	a4, a4, a0
0x8000270c: 01 f7 15 13 slli	a0, a4, 0x1f
0x80002710: 00 17 57 13 srli	a4, a4, 1
0x80002714: 00 17 d7 93 srli	a5, a5, 1
0x80002718: 00 f5 67 b3 or	a5, a0, a5
0x8000271c: 00 27 95 13 slli	a0, a5, 2
0x80002720: 00 f5 05 33 add	a0, a0, a5
0x80002724: 00 15 15 13 slli	a0, a0, 1
0x80002728: 40 ad 85 33 sub	a0, s11, a0
0x8000272c: 03 05 05 13 addi	a0, a0, 0x30
0x80002730: 0f f5 75 13 andi	a0, a0, 0xff
0x80002734: 00 07 8d 93 mv	s11, a5
0x80002738: fe a6 8f a3 sb	a0, -1(a3)
0x8000273c: 00 e7 e7 b3 or	a5, a5, a4
0x80002740: f6 07 9c e3 bnez	a5, -0x88
0x80002744: 01 2b 0d b3 add	s11, s6, s2
0x80002748: 00 c0 00 6f j	0xc
0x80002754: 00 0a 00 e7 jalr	s4
0x80002038: a0 00 07 b7 lui	a5, 0xa0000
0x8000203c: 3e a7 8c 23 sb	a0, 0x3f8(a5)
0x80002040: 00 00 80 67 ret
0x80002758: ff fd 87 93 addi	a5, s11, -1
0x8000275c: ff bb 18 e3 bne	s6, s11, -0x10
0x8000274c: ff fd c5 03 lbu	a0, -1(s11)
0x80002750: 00 07 8d 93 mv	s11, a5
0x80002754: 00 0a 00 e7 jalr	s4
0x80002038: a0 00 07 b7 lui	a5, 0xa0000
0x8000203c: 3e a7 8c 23 sb	a0, 0x3f8(a5)
0x80002040: 00 00 80 67 ret
0x80002758: ff fd 87 93 addi	a5, s11, -1
0x8000275c: ff bb 18 e3 bne	s6, s11, -0x10
0x80002760: 00 1d 0d 13 addi	s10, s10, 1
0x80002764: 01 2d 09 33 add	s2, s10, s2
0x80002768: d9 9f f0 6f j	-0x268
0x80002500: 00 00 0d 13 mv	s10, zero
0x80002504: 00 00 0d 93 mv	s11, zero
0x80002508: f4 5f f0 6f j	-0xbc
0x8000244c: 00 14 47 83 lbu	a5, 1(s0)
0x80002450: 00 14 04 13 addi	s0, s0, 1
0x80002454: fe 07 92 e3 bnez	a5, -0x1c
0x80002438: 07 77 80 63 beq	a5, s7, 0x60
0x8000243c: 06 0d 92 63 bnez	s11, 0x64
0x80002440: 00 07 85 13 mv	a0, a5
0x80002444: 00 0a 00 e7 jalr	s4
0x80002038: a0 00 07 b7 lui	a5, 0xa0000
0x8000203c: 3e a7 8c 23 sb	a0, 0x3f8(a5)
0x80002040: 00 00 80 67 ret
0x80002448: 00 19 09 13 addi	s2, s2, 1
0x8000244c: 00 14 47 83 lbu	a5, 1(s0)
0x80002450: 00 14 04 13 addi	s0, s0, 1
0x80002454: fe 07 92 e3 bnez	a5, -0x1c
0x80002438: 07 77 80 63 beq	a5, s7, 0x60
0x80002498: 00 1d bd 93 seqz	s11, s11
0x8000249c: 01 b4 04 33 add	s0, s0, s11
0x800024a0: 00 04 47 83 lbu	a5, 0(s0)
0x800024a4: 11 77 86 63 beq	a5, s7, 0x10c
0x800024a8: f9 d7 87 93 addi	a5, a5, -0x63
0x800024ac: 0f f7 f7 93 andi	a5, a5, 0xff
0x800024b0: 01 20 07 13 addi	a4, zero, 0x12
0x800024b4: 00 f7 6c 63 bltu	a4, a5, 0x18
0x800024b8: 00 27 97 93 slli	a5, a5, 2
0x800024bc: 01 97 87 b3 add	a5, a5, s9
0x800024c0: 00 07 a7 83 lw	a5, 0(a5)
0x800024c4: 01 97 87 b3 add	a5, a5, s9
0x800024c8: 00 07 80 67 jr	a5
0x80002594: 24 0d 10 63 bnez	s10, 0x240
0x80002598: 00 0a c5 03 lbu	a0, 0(s5)
0x8000259c: 00 19 09 13 addi	s2, s2, 1
0x800025a0: 00 4a 8a 93 addi	s5, s5, 4
0x800025a4: 00 0a 00 e7 jalr	s4
0x80002038: a0 00 07 b7 lui	a5, 0xa0000
0x8000203c: 3e a7 8c 23 sb	a0, 0x3f8(a5)
0x80002040: 00 00 80 67 ret
0x800025a8: 00 00 0d 93 mv	s11, zero
0x800025ac: ea 1f f0 6f j	-0x160
0x8000244c: 00 14 47 83 lbu	a5, 1(s0)
0x80002450: 00 14 04 13 addi	s0, s0, 1
0x80002454: fe 07 92 e3 bnez	a5, -0x1c
0x80002458: 08 c1 20 83 lw	ra, 0x8c(sp)
0x8000245c: 08 81 24 03 lw	s0, 0x88(sp)
0x80002460: 08 41 24 83 lw	s1, 0x84(sp)
0x80002464: 07 c1 29 83 lw	s3, 0x7c(sp)
0x80002468: 07 81 2a 03 lw	s4, 0x78(sp)
0x8000246c: 07 41 2a 83 lw	s5, 0x74(sp)
0x80002470: 07 01 2b 03 lw	s6, 0x70(sp)
0x80002474: 06 c1 2b 83 lw	s7, 0x6c(sp)
0x80002478: 06 81 2c 03 lw	s8, 0x68(sp)
0x8000247c: 06 41 2c 83 lw	s9, 0x64(sp)
0x80002480: 06 01 2d 03 lw	s10, 0x60(sp)
0x80002484: 05 c1 2d 83 lw	s11, 0x5c(sp)
0x80002488: 00 09 05 13 mv	a0, s2
0x8000248c: 08 01 29 03 lw	s2, 0x80(sp)
0x80002490: 09 01 01 13 addi	sp, sp, 0x90
0x80002494: 00 00 80 67 ret
0x800023b0: 01 c1 20 83 lw	ra, 0x1c(sp)
0x800023b4: 04 01 01 13 addi	sp, sp, 0x40
0x800023b8: 00 00 80 67 ret
0x80001078: 01 aa 8a b3 add	s5, s5, s10
0x8000107c: 00 04 29 83 lw	s3, 0(s0)
0x80001080: 00 0a 2b 83 lw	s7, 0(s4)
0x80001084: 1c 0b 4c 63 bltz	s6, 0x1d8
0x80001088: 17 3b 52 63 bge	s6, s3, 0x164
0x8000108c: 0b 7a de 63 bge	s5, s7, 0xbc
0x80001090: 1c 0a c2 63 bltz	s5, 0x1c4
0x80001094: 01 f0 05 93 addi	a1, zero, 0x1f
0x80001098: 00 00 15 17 auipc	a0, 1
0x8000109c: 75 c5 05 13 addi	a0, a0, 0x75c
0x800010a0: 2d 00 10 ef jal	0x12d0
0x80002370: fc 01 01 13 addi	sp, sp, -0x40
0x80002374: 02 41 03 13 addi	t1, sp, 0x24
0x80002378: 02 b1 22 23 sw	a1, 0x24(sp)
0x8000237c: 02 c1 24 23 sw	a2, 0x28(sp)
0x80002380: 00 05 05 93 mv	a1, a0
0x80002384: 00 03 06 13 mv	a2, t1
0x80002388: 00 00 05 17 auipc	a0, 0
0x8000238c: cb 05 05 13 addi	a0, a0, -0x350
0x80002390: 00 11 2e 23 sw	ra, 0x1c(sp)
0x80002394: 02 d1 26 23 sw	a3, 0x2c(sp)
0x80002398: 02 e1 28 23 sw	a4, 0x30(sp)
0x8000239c: 02 f1 2a 23 sw	a5, 0x34(sp)
0x800023a0: 03 01 2c 23 sw	a6, 0x38(sp)
0x800023a4: 03 11 2e 23 sw	a7, 0x3c(sp)
0x800023a8: 00 61 26 23 sw	t1, 0xc(sp)
0x800023ac: 01 00 00 ef jal	0x10
0x800023bc: f7 01 01 13 addi	sp, sp, -0x90
0x800023c0: 08 11 26 23 sw	ra, 0x8c(sp)
0x800023c4: 08 81 24 23 sw	s0, 0x88(sp)
0x800023c8: 08 91 22 23 sw	s1, 0x84(sp)
0x800023cc: 09 21 20 23 sw	s2, 0x80(sp)
0x800023d0: 07 31 2e 23 sw	s3, 0x7c(sp)
0x800023d4: 07 41 2c 23 sw	s4, 0x78(sp)
0x800023d8: 07 51 2a 23 sw	s5, 0x74(sp)
0x800023dc: 07 61 28 23 sw	s6, 0x70(sp)
0x800023e0: 07 71 26 23 sw	s7, 0x6c(sp)
0x800023e4: 07 81 24 23 sw	s8, 0x68(sp)
0x800023e8: 07 91 22 23 sw	s9, 0x64(sp)
0x800023ec: 07 a1 20 23 sw	s10, 0x60(sp)
0x800023f0: 05 b1 2e 23 sw	s11, 0x5c(sp)
0x800023f4: 00 05 c7 83 lbu	a5, 0(a1)
0x800023f8: 3a 07 8a 63 beqz	a5, 0x3b4
0x800023fc: cc cc dc 37 lui	s8, 0xccccd
0x80002400: 10 00 09 b7 lui	s3, 0x10000
0x80002404: cc dc 04 93 addi	s1, s8, -0x333
0x80002408: 00 05 84 13 mv	s0, a1
0x8000240c: 00 05 0a 13 mv	s4, a0
0x80002410: 00 06 0a 93 mv	s5, a2
0x80002414: 00 00 09 13 mv	s2, zero
0x80002418: 00 00 0d 13 mv	s10, zero
0x8000241c: 00 00 0d 93 mv	s11, zero
0x80002420: 02 50 0b 93 addi	s7, zero, 0x25
0x80002424: 00 00 5c 97 auipc	s9, 5
0x80002428: 1d 0c 8c 93 addi	s9, s9, 0x1d0
0x8000242c: 01 01 0b 13 addi	s6, sp, 0x10
0x80002430: ff f9 89 93 addi	s3, s3, -1
0x80002434: cc cc 0c 13 addi	s8, s8, -0x334
0x80002438: 07 77 80 63 beq	a5, s7, 0x60
0x8000243c: 06 0d 92 63 bnez	s11, 0x64
0x80002440: 00 07 85 13 mv	a0, a5
0x80002444: 00 0a 00 e7 jalr	s4
0x80002038: a0 00 07 b7 lui	a5, 0xa0000
0x8000203c: 3e a7 8c 23 sb	a0, 0x3f8(a5)
0x80002040: 00 00 80 67 ret
0x80002448: 00 19 09 13 addi	s2, s2, 1
0x8000244c: 00 14 47 83 lbu	a5, 1(s0)
0x80002450: 00 14 04 13 addi	s0, s0, 1
0x80002454: fe 07 92 e3 bnez	a5, -0x1c
0x80002438: 07 77 80 63 beq	a5, s7, 0x60
0x8000243c: 06 0d 92 63 bnez	s11, 0x64
0x80002440: 00 07 85 13 mv	a0, a5
0x80002444: 00 0a 00 e7 jalr	s4
0x80002038: a0 00 07 b7 lui	a5, 0xa0000
0x8000203c: 3e a7 8c 23 sb	a0, 0x3f8(a5)
0x80002040: 00 00 80 67 ret
0x80002448: 00 19 09 13 addi	s2, s2, 1
0x8000244c: 00 14 47 83 lbu	a5, 1(s0)
0x80002450: 00 14 04 13 addi	s0, s0, 1
0x80002454: fe 07 92 e3 bnez	a5, -0x1c
0x80002438: 07 77 80 63 beq	a5, s7, 0x60
0x80002498: 00 1d bd 93 seqz	s11, s11
0x8000249c: 01 b4 04 33 add	s0, s0, s11
0x800024a0: 00 04 47 83 lbu	a5, 0(s0)
0x800024a4: 11 77 86 63 beq	a5, s7, 0x10c
0x800024a8: f9 d7 87 93 addi	a5, a5, -0x63
0x800024ac: 0f f7 f7 93 andi	a5, a5, 0xff
0x800024b0: 01 20 07 13 addi	a4, zero, 0x12
0x800024b4: 00 f7 6c 63 bltu	a4, a5, 0x18
0x800024b8: 00 27 97 93 slli	a5, a5, 2
0x800024bc: 01 97 87 b3 add	a5, a5, s9
0x800024c0: 00 07 a7 83 lw	a5, 0(a5)
0x800024c4: 01 97 87 b3 add	a5, a5, s9
0x800024c8: 00 07 80 67 jr	a5
0x8000255c: 00 20 07 93 addi	a5, zero, 2
0x80002560: 25 a7 ca 63 blt	a5, s10, 0x254
0x80002564: 22 fd 00 63 beq	s10, a5, 0x220
0x80002568: 00 0a ad 83 lw	s11, 0(s5)
0x8000256c: 00 4a 8a 93 addi	s5, s5, 4
0x80002570: 41 fd d7 13 srai	a4, s11, 0x1f
0x80002574: 00 19 0d 13 addi	s10, s2, 1
0x80002578: 10 07 4a 63 bltz	a4, 0x114
0x8000257c: 00 ed e7 b3 or	a5, s11, a4
0x80002580: 22 07 92 63 bnez	a5, 0x224
0x800027a4: 00 09 0d 13 mv	s10, s2
0x800027a8: f0 5f f0 6f j	-0xfc
0x800026ac: 00 0b 06 93 mv	a3, s6
0x800026b0: 00 00 06 13 mv	a2, zero
0x800026b4: 00 50 05 93 addi	a1, zero, 5
0x800026b8: 00 47 17 93 slli	a5, a4, 4
0x800026bc: 01 cd d5 13 srli	a0, s11, 0x1c
0x800026c0: 00 a7 e5 33 or	a0, a5, a0
0x800026c4: 01 35 75 33 and	a0, a0, s3
0x800026c8: 01 3d f7 b3 and	a5, s11, s3
0x800026cc: 01 87 58 13 srli	a6, a4, 0x18
0x800026d0: 00 a7 87 b3 add	a5, a5, a0
0x800026d4: 01 07 87 b3 add	a5, a5, a6
0x800026d8: 02 b7 f7 b3 remu	a5, a5, a1
0x800026dc: 00 16 86 93 addi	a3, a3, 1
0x800026e0: 00 06 09 13 mv	s2, a2
0x800026e4: 00 16 06 13 addi	a2, a2, 1
0x800026e8: 40 fd 87 b3 sub	a5, s11, a5
0x800026ec: 00 fd b5 33 sltu	a0, s11, a5
0x800026f0: 40 a7 07 33 sub	a4, a4, a0
0x800026f4: 03 87 88 33 mul	a6, a5, s8
0x800026f8: 02 97 07 33 mul	a4, a4, s1
0x800026fc: 02 97 b5 33 mulhu	a0, a5, s1
0x80002700: 01 07 07 33 add	a4, a4, a6
0x80002704: 02 97 87 b3 mul	a5, a5, s1
0x80002708: 00 a7 07 33 add	a4, a4, a0
0x8000270c: 01 f7 15 13 slli	a0, a4, 0x1f
0x80002710: 00 17 57 13 srli	a4, a4, 1
0x80002714: 00 17 d7 93 srli	a5, a5, 1
0x80002718: 00 f5 67 b3 or	a5, a0, a5
0x8000271c: 00 27 95 13 slli	a0, a5, 2
0x80002720: 00 f5 05 33 add	a0, a0, a5
0x80002724: 00 15 15 13 slli	a0, a0, 1
0x80002728: 40 ad 85 33 sub	a0, s11, a0
0x8000272c: 03 05 05 13 addi	a0, a0, 0x30
0x80002730: 0f f5 75 13 andi	a0, a0, 0xff
0x80002734: 00 07 8d 93 mv	s11, a5
0x80002738: fe a6 8f a3 sb	a0, -1(a3)
0x8000273c: 00 e7 e7 b3 or	a5, a5, a4
0x80002740: f6 07 9c e3 bnez	a5, -0x88
0x800026b8: 00 47 17 93 slli	a5, a4, 4
0x800026bc: 01 cd d5 13 srli	a0, s11, 0x1c
0x800026c0: 00 a7 e5 33 or	a0, a5, a0
0x800026c4: 01 35 75 33 and	a0, a0, s3
0x800026c8: 01 3d f7 b3 and	a5, s11, s3
0x800026cc: 01 87 58 13 srli	a6, a4, 0x18
0x800026d0: 00 a7 87 b3 add	a5, a5, a0
0x800026d4: 01 07 87 b3 add	a5, a5, a6
0x800026d8: 02 b7 f7 b3 remu	a5, a5, a1
0x800026dc: 00 16 86 93 addi	a3, a3, 1
0x800026e0: 00 06 09 13 mv	s2, a2
0x800026e4: 00 16 06 13 addi	a2, a2, 1
0x800026e8: 40 fd 87 b3 sub	a5, s11, a5
0x800026ec: 00 fd b5 33 sltu	a0, s11, a5
0x800026f0: 40 a7 07 33 sub	a4, a4, a0
0x800026f4: 03 87 88 33 mul	a6, a5, s8
0x800026f8: 02 97 07 33 mul	a4, a4, s1
0x800026fc: 02 97 b5 33 mulhu	a0, a5, s1
0x80002700: 01 07 07 33 add	a4, a4, a6
0x80002704: 02 97 87 b3 mul	a5, a5, s1
0x80002708: 00 a7 07 33 add	a4, a4, a0
0x8000270c: 01 f7 15 13 slli	a0, a4, 0x1f
0x80002710: 00 17 57 13 srli	a4, a4, 1
0x80002714: 00 17 d7 93 srli	a5, a5, 1
0x80002718: 00 f5 67 b3 or	a5, a0, a5
0x8000271c: 00 27 95 13 slli	a0, a5, 2
0x80002720: 00 f5 05 33 add	a0, a0, a5
0x80002724: 00 15 15 13 slli	a0, a0, 1
0x80002728: 40 ad 85 33 sub	a0, s11, a0
0x8000272c: 03 05 05 13 addi	a0, a0, 0x30
0x80002730: 0f f5 75 13 andi	a0, a0, 0xff
0x80002734: 00 07 8d 93 mv	s11, a5
0x80002738: fe a6 8f a3 sb	a0, -1(a3)
0x8000273c: 00 e7 e7 b3 or	a5, a5, a4
0x80002740: f6 07 9c e3 bnez	a5, -0x88
0x80002744: 01 2b 0d b3 add	s11, s6, s2
0x80002748: 00 c0 00 6f j	0xc
0x80002754: 00 0a 00 e7 jalr	s4
0x80002038: a0 00 07 b7 lui	a5, 0xa0000
0x8000203c: 3e a7 8c 23 sb	a0, 0x3f8(a5)
0x80002040: 00 00 80 67 ret
0x80002758: ff fd 87 93 addi	a5, s11, -1
0x8000275c: ff bb 18 e3 bne	s6, s11, -0x10
0x8000274c: ff fd c5 03 lbu	a0, -1(s11)
0x80002750: 00 07 8d 93 mv	s11, a5
0x80002754: 00 0a 00 e7 jalr	s4
0x80002038: a0 00 07 b7 lui	a5, 0xa0000
0x8000203c: 3e a7 8c 23 sb	a0, 0x3f8(a5)
0x80002040: 00 00 80 67 ret
0x80002758: ff fd 87 93 addi	a5, s11, -1
0x8000275c: ff bb 18 e3 bne	s6, s11, -0x10
0x80002760: 00 1d 0d 13 addi	s10, s10, 1
0x80002764: 01 2d 09 33 add	s2, s10, s2
0x80002768: d9 9f f0 6f j	-0x268
0x80002500: 00 00 0d 13 mv	s10, zero
0x80002504: 00 00 0d 93 mv	s11, zero
0x80002508: f4 5f f0 6f j	-0xbc
0x8000244c: 00 14 47 83 lbu	a5, 1(s0)
0x80002450: 00 14 04 13 addi	s0, s0, 1
0x80002454: fe 07 92 e3 bnez	a5, -0x1c
0x80002438: 07 77 80 63 beq	a5, s7, 0x60
0x8000243c: 06 0d 92 63 bnez	s11, 0x64
0x80002440: 00 07 85 13 mv	a0, a5
0x80002444: 00 0a 00 e7 jalr	s4
0x80002038: a0 00 07 b7 lui	a5, 0xa0000
0x8000203c: 3e a7 8c 23 sb	a0, 0x3f8(a5)
0x80002040: 00 00 80 67 ret
0x80002448: 00 19 09 13 addi	s2, s2, 1
0x8000244c: 00 14 47 83 lbu	a5, 1(s0)
0x80002450: 00 14 04 13 addi	s0, s0, 1
0x80002454: fe 07 92 e3 bnez	a5, -0x1c
0x80002458: 08 c1 20 83 lw	ra, 0x8c(sp)
0x8000245c: 08 81 24 03 lw	s0, 0x88(sp)
0x80002460: 08 41 24 83 lw	s1, 0x84(sp)
0x80002464: 07 c1 29 83 lw	s3, 0x7c(sp)
0x80002468: 07 81 2a 03 lw	s4, 0x78(sp)
0x8000246c: 07 41 2a 83 lw	s5, 0x74(sp)
0x80002470: 07 01 2b 03 lw	s6, 0x70(sp)
0x80002474: 06 c1 2b 83 lw	s7, 0x6c(sp)
0x80002478: 06 81 2c 03 lw	s8, 0x68(sp)
0x8000247c: 06 41 2c 83 lw	s9, 0x64(sp)
0x80002480: 06 01 2d 03 lw	s10, 0x60(sp)
0x80002484: 05 c1 2d 83 lw	s11, 0x5c(sp)
0x80002488: 00 09 05 13 mv	a0, s2
0x8000248c: 08 01 29 03 lw	s2, 0x80(sp)
0x80002490: 09 01 01 13 addi	sp, sp, 0x90
0x80002494: 00 00 80 67 ret
0x800023b0: 01 c1 20 83 lw	ra, 0x1c(sp)
0x800023b4: 04 01 01 13 addi	sp, sp, 0x40
0x800023b8: 00 00 80 67 ret
0x800010a4: 00 2b 0c 13 addi	s8, s6, 2
0x800010a8: 00 2a 8b 93 addi	s7, s5, 2
0x800010ac: 02 b0 06 93 addi	a3, zero, 0x2b
0x800010b0: 00 0c 06 13 mv	a2, s8
0x800010b4: 00 0b 85 93 mv	a1, s7
0x800010b8: 00 04 85 13 mv	a0, s1
0x800010bc: 2b 40 10 ef jal	0x12b4
0x80002370: fc 01 01 13 addi	sp, sp, -0x40
0x80002374: 02 41 03 13 addi	t1, sp, 0x24
0x80002378: 02 b1 22 23 sw	a1, 0x24(sp)
0x8000237c: 02 c1 24 23 sw	a2, 0x28(sp)
0x80002380: 00 05 05 93 mv	a1, a0
0x80002384: 00 03 06 13 mv	a2, t1
0x80002388: 00 00 05 17 auipc	a0, 0
0x8000238c: cb 05 05 13 addi	a0, a0, -0x350
0x80002390: 00 11 2e 23 sw	ra, 0x1c(sp)
0x80002394: 02 d1 26 23 sw	a3, 0x2c(sp)
0x80002398: 02 e1 28 23 sw	a4, 0x30(sp)
0x8000239c: 02 f1 2a 23 sw	a5, 0x34(sp)
0x800023a0: 03 01 2c 23 sw	a6, 0x38(sp)
0x800023a4: 03 11 2e 23 sw	a7, 0x3c(sp)
0x800023a8: 00 61 26 23 sw	t1, 0xc(sp)
0x800023ac: 01 00 00 ef jal	0x10
0x800023bc: f7 01 01 13 addi	sp, sp, -0x90
0x800023c0: 08 11 26 23 sw	ra, 0x8c(sp)
0x800023c4: 08 81 24 23 sw	s0, 0x88(sp)
0x800023c8: 08 91 22 23 sw	s1, 0x84(sp)
0x800023cc: 09 21 20 23 sw	s2, 0x80(sp)
0x800023d0: 07 31 2e 23 sw	s3, 0x7c(sp)
0x800023d4: 07 41 2c 23 sw	s4, 0x78(sp)
0x800023d8: 07 51 2a 23 sw	s5, 0x74(sp)
0x800023dc: 07 61 28 23 sw	s6, 0x70(sp)
0x800023e0: 07 71 26 23 sw	s7, 0x6c(sp)
0x800023e4: 07 81 24 23 sw	s8, 0x68(sp)
0x800023e8: 07 91 22 23 sw	s9, 0x64(sp)
0x800023ec: 07 a1 20 23 sw	s10, 0x60(sp)
0x800023f0: 05 b1 2e 23 sw	s11, 0x5c(sp)
0x800023f4: 00 05 c7 83 lbu	a5, 0(a1)
0x800023f8: 3a 07 8a 63 beqz	a5, 0x3b4
0x800023fc: cc cc dc 37 lui	s8, 0xccccd
0x80002400: 10 00 09 b7 lui	s3, 0x10000
0x80002404: cc dc 04 93 addi	s1, s8, -0x333
0x80002408: 00 05 84 13 mv	s0, a1
0x8000240c: 00 05 0a 13 mv	s4, a0
0x80002410: 00 06 0a 93 mv	s5, a2
0x80002414: 00 00 09 13 mv	s2, zero
0x80002418: 00 00 0d 13 mv	s10, zero
0x8000241c: 00 00 0d 93 mv	s11, zero
0x80002420: 02 50 0b 93 addi	s7, zero, 0x25
0x80002424: 00 00 5c 97 auipc	s9, 5
0x80002428: 1d 0c 8c 93 addi	s9, s9, 0x1d0
0x8000242c: 01 01 0b 13 addi	s6, sp, 0x10
0x80002430: ff f9 89 93 addi	s3, s3, -1
0x80002434: cc cc 0c 13 addi	s8, s8, -0x334
0x80002438: 07 77 80 63 beq	a5, s7, 0x60
0x8000243c: 06 0d 92 63 bnez	s11, 0x64
0x80002440: 00 07 85 13 mv	a0, a5
0x80002444: 00 0a 00 e7 jalr	s4
0x80002038: a0 00 07 b7 lui	a5, 0xa0000
0x8000203c: 3e a7 8c 23 sb	a0, 0x3f8(a5)
0x80002040: 00 00 80 67 ret
0x80002448: 00 19 09 13 addi	s2, s2, 1
0x8000244c: 00 14 47 83 lbu	a5, 1(s0)
0x80002450: 00 14 04 13 addi	s0, s0, 1
0x80002454: fe 07 92 e3 bnez	a5, -0x1c
0x80002438: 07 77 80 63 beq	a5, s7, 0x60
0x8000243c: 06 0d 92 63 bnez	s11, 0x64
0x80002440: 00 07 85 13 mv	a0, a5
0x80002444: 00 0a 00 e7 jalr	s4
0x80002038: a0 00 07 b7 lui	a5, 0xa0000
0x8000203c: 3e a7 8c 23 sb	a0, 0x3f8(a5)
0x80002040: 00 00 80 67 ret
0x80002448: 00 19 09 13 addi	s2, s2, 1
0x8000244c: 00 14 47 83 lbu	a5, 1(s0)
0x80002450: 00 14 04 13 addi	s0, s0, 1
0x80002454: fe 07 92 e3 bnez	a5, -0x1c
0x80002438: 07 77 80 63 beq	a5, s7, 0x60
0x80002498: 00 1d bd 93 seqz	s11, s11
0x8000249c: 01 b4 04 33 add	s0, s0, s11
0x800024a0: 00 04 47 83 lbu	a5, 0(s0)
0x800024a4: 11 77 86 63 beq	a5, s7, 0x10c
0x800024a8: f9 d7 87 93 addi	a5, a5, -0x63
0x800024ac: 0f f7 f7 93 andi	a5, a5, 0xff
0x800024b0: 01 20 07 13 addi	a4, zero, 0x12
0x800024b4: 00 f7 6c 63 bltu	a4, a5, 0x18
0x800024b8: 00 27 97 93 slli	a5, a5, 2
0x800024bc: 01 97 87 b3 add	a5, a5, s9
0x800024c0: 00 07 a7 83 lw	a5, 0(a5)
0x800024c4: 01 97 87 b3 add	a5, a5, s9
0x800024c8: 00 07 80 67 jr	a5
0x8000255c: 00 20 07 93 addi	a5, zero, 2
0x80002560: 25 a7 ca 63 blt	a5, s10, 0x254
0x80002564: 22 fd 00 63 beq	s10, a5, 0x220
0x80002568: 00 0a ad 83 lw	s11, 0(s5)
0x8000256c: 00 4a 8a 93 addi	s5, s5, 4
0x80002570: 41 fd d7 13 srai	a4, s11, 0x1f
0x80002574: 00 19 0d 13 addi	s10, s2, 1
0x80002578: 10 07 4a 63 bltz	a4, 0x114
0x8000257c: 00 ed e7 b3 or	a5, s11, a4
0x80002580: 22 07 92 63 bnez	a5, 0x224
0x800027a4: 00 09 0d 13 mv	s10, s2
0x800027a8: f0 5f f0 6f j	-0xfc
0x800026ac: 00 0b 06 93 mv	a3, s6
0x800026b0: 00 00 06 13 mv	a2, zero
0x800026b4: 00 50 05 93 addi	a1, zero, 5
0x800026b8: 00 47 17 93 slli	a5, a4, 4
0x800026bc: 01 cd d5 13 srli	a0, s11, 0x1c
0x800026c0: 00 a7 e5 33 or	a0, a5, a0
0x800026c4: 01 35 75 33 and	a0, a0, s3
0x800026c8: 01 3d f7 b3 and	a5, s11, s3
0x800026cc: 01 87 58 13 srli	a6, a4, 0x18
0x800026d0: 00 a7 87 b3 add	a5, a5, a0
0x800026d4: 01 07 87 b3 add	a5, a5, a6
0x800026d8: 02 b7 f7 b3 remu	a5, a5, a1
0x800026dc: 00 16 86 93 addi	a3, a3, 1
0x800026e0: 00 06 09 13 mv	s2, a2
0x800026e4: 00 16 06 13 addi	a2, a2, 1
0x800026e8: 40 fd 87 b3 sub	a5, s11, a5
0x800026ec: 00 fd b5 33 sltu	a0, s11, a5
0x800026f0: 40 a7 07 33 sub	a4, a4, a0
0x800026f4: 03 87 88 33 mul	a6, a5, s8
0x800026f8: 02 97 07 33 mul	a4, a4, s1
0x800026fc: 02 97 b5 33 mulhu	a0, a5, s1
0x80002700: 01 07 07 33 add	a4, a4, a6
0x80002704: 02 97 87 b3 mul	a5, a5, s1
0x80002708: 00 a7 07 33 add	a4, a4, a0
0x8000270c: 01 f7 15 13 slli	a0, a4, 0x1f
0x80002710: 00 17 57 13 srli	a4, a4, 1
0x80002714: 00 17 d7 93 srli	a5, a5, 1
0x80002718: 00 f5 67 b3 or	a5, a0, a5
0x8000271c: 00 27 95 13 slli	a0, a5, 2
0x80002720: 00 f5 05 33 add	a0, a0, a5
0x80002724: 00 15 15 13 slli	a0, a0, 1
0x80002728: 40 ad 85 33 sub	a0, s11, a0
0x8000272c: 03 05 05 13 addi	a0, a0, 0x30
0x80002730: 0f f5 75 13 andi	a0, a0, 0xff
0x80002734: 00 07 8d 93 mv	s11, a5
0x80002738: fe a6 8f a3 sb	a0, -1(a3)
0x8000273c: 00 e7 e7 b3 or	a5, a5, a4
0x80002740: f6 07 9c e3 bnez	a5, -0x88
0x800026b8: 00 47 17 93 slli	a5, a4, 4
0x800026bc: 01 cd d5 13 srli	a0, s11, 0x1c
0x800026c0: 00 a7 e5 33 or	a0, a5, a0
0x800026c4: 01 35 75 33 and	a0, a0, s3
0x800026c8: 01 3d f7 b3 and	a5, s11, s3
0x800026cc: 01 87 58 13 srli	a6, a4, 0x18
0x800026d0: 00 a7 87 b3 add	a5, a5, a0
0x800026d4: 01 07 87 b3 add	a5, a5, a6
0x800026d8: 02 b7 f7 b3 remu	a5, a5, a1
0x800026dc: 00 16 86 93 addi	a3, a3, 1
0x800026e0: 00 06 09 13 mv	s2, a2
0x800026e4: 00 16 06 13 addi	a2, a2, 1
0x800026e8: 40 fd 87 b3 sub	a5, s11, a5
0x800026ec: 00 fd b5 33 sltu	a0, s11, a5
0x800026f0: 40 a7 07 33 sub	a4, a4, a0
0x800026f4: 03 87 88 33 mul	a6, a5, s8
0x800026f8: 02 97 07 33 mul	a4, a4, s1
0x800026fc: 02 97 b5 33 mulhu	a0, a5, s1
0x80002700: 01 07 07 33 add	a4, a4, a6
0x80002704: 02 97 87 b3 mul	a5, a5, s1
0x80002708: 00 a7 07 33 add	a4, a4, a0
0x8000270c: 01 f7 15 13 slli	a0, a4, 0x1f
0x80002710: 00 17 57 13 srli	a4, a4, 1
0x80002714: 00 17 d7 93 srli	a5, a5, 1
0x80002718: 00 f5 67 b3 or	a5, a0, a5
0x8000271c: 00 27 95 13 slli	a0, a5, 2
0x80002720: 00 f5 05 33 add	a0, a0, a5
0x80002724: 00 15 15 13 slli	a0, a0, 1
0x80002728: 40 ad 85 33 sub	a0, s11, a0
0x8000272c: 03 05 05 13 addi	a0, a0, 0x30
0x80002730: 0f f5 75 13 andi	a0, a0, 0xff
0x80002734: 00 07 8d 93 mv	s11, a5
0x80002738: fe a6 8f a3 sb	a0, -1(a3)
0x8000273c: 00 e7 e7 b3 or	a5, a5, a4
0x80002740: f6 07 9c e3 bnez	a5, -0x88
0x80002744: 01 2b 0d b3 add	s11, s6, s2
0x80002748: 00 c0 00 6f j	0xc
0x80002754: 00 0a 00 e7 jalr	s4
0x80002038: a0 00 07 b7 lui	a5, 0xa0000
0x8000203c: 3e a7 8c 23 sb	a0, 0x3f8(a5)
0x80002040: 00 00 80 67 ret
0x80002758: ff fd 87 93 addi	a5, s11, -1
0x8000275c: ff bb 18 e3 bne	s6, s11, -0x10
0x8000274c: ff fd c5 03 lbu	a0, -1(s11)
0x80002750: 00 07 8d 93 mv	s11, a5
0x80002754: 00 0a 00 e7 jalr	s4
0x80002038: a0 00 07 b7 lui	a5, 0xa0000
0x8000203c: 3e a7 8c 23 sb	a0, 0x3f8(a5)
0x80002040: 00 00 80 67 ret
0x80002758: ff fd 87 93 addi	a5, s11, -1
0x8000275c: ff bb 18 e3 bne	s6, s11, -0x10
0x80002760: 00 1d 0d 13 addi	s10, s10, 1
0x80002764: 01 2d 09 33 add	s2, s10, s2
0x80002768: d9 9f f0 6f j	-0x268
0x80002500: 00 00 0d 13 mv	s10, zero
0x80002504: 00 00 0d 93 mv	s11, zero
0x80002508: f4 5f f0 6f j	-0xbc
0x8000244c: 00 14 47 83 lbu	a5, 1(s0)
0x80002450: 00 14 04 13 addi	s0, s0, 1
0x80002454: fe 07 92 e3 bnez	a5, -0x1c
0x80002438: 07 77 80 63 beq	a5, s7, 0x60
0x8000243c: 06 0d 92 63 bnez	s11, 0x64
0x80002440: 00 07 85 13 mv	a0, a5
0x80002444: 00 0a 00 e7 jalr	s4
0x80002038: a0 00 07 b7 lui	a5, 0xa0000
0x8000203c: 3e a7 8c 23 sb	a0, 0x3f8(a5)
0x80002040: 00 00 80 67 ret
0x80002448: 00 19 09 13 addi	s2, s2, 1
0x8000244c: 00 14 47 83 lbu	a5, 1(s0)
0x80002450: 00 14 04 13 addi	s0, s0, 1
0x80002454: fe 07 92 e3 bnez	a5, -0x1c
0x80002438: 07 77 80 63 beq	a5, s7, 0x60
0x80002498: 00 1d bd 93 seqz	s11, s11
0x8000249c: 01 b4 04 33 add	s0, s0, s11
0x800024a0: 00 04 47 83 lbu	a5, 0(s0)
0x800024a4: 11 77 86 63 beq	a5, s7, 0x10c
0x800024a8: f9 d7 87 93 addi	a5, a5, -0x63
0x800024ac: 0f f7 f7 93 andi	a5, a5, 0xff
0x800024b0: 01 20 07 13 addi	a4, zero, 0x12
0x800024b4: 00 f7 6c 63 bltu	a4, a5, 0x18
0x800024b8: 00 27 97 93 slli	a5, a5, 2
0x800024bc: 01 97 87 b3 add	a5, a5, s9
0x800024c0: 00 07 a7 83 lw	a5, 0(a5)
0x800024c4: 01 97 87 b3 add	a5, a5, s9
0x800024c8: 00 07 80 67 jr	a5
0x8000255c: 00 20 07 93 addi	a5, zero, 2
0x80002560: 25 a7 ca 63 blt	a5, s10, 0x254
0x80002564: 22 fd 00 63 beq	s10, a5, 0x220
0x80002568: 00 0a ad 83 lw	s11, 0(s5)
0x8000256c: 00 4a 8a 93 addi	s5, s5, 4
0x80002570: 41 fd d7 13 srai	a4, s11, 0x1f
0x80002574: 00 19 0d 13 addi	s10, s2, 1
0x80002578: 10 07 4a 63 bltz	a4, 0x114
0x8000257c: 00 ed e7 b3 or	a5, s11, a4
0x80002580: 22 07 92 63 bnez	a5, 0x224
0x800027a4: 00 09 0d 13 mv	s10, s2
0x800027a8: f0 5f f0 6f j	-0xfc
0x800026ac: 00 0b 06 93 mv	a3, s6
0x800026b0: 00 00 06 13 mv	a2, zero
0x800026b4: 00 50 05 93 addi	a1, zero, 5
0x800026b8: 00 47 17 93 slli	a5, a4, 4
0x800026bc: 01 cd d5 13 srli	a0, s11, 0x1c
0x800026c0: 00 a7 e5 33 or	a0, a5, a0
0x800026c4: 01 35 75 33 and	a0, a0, s3
0x800026c8: 01 3d f7 b3 and	a5, s11, s3
0x800026cc: 01 87 58 13 srli	a6, a4, 0x18
0x800026d0: 00 a7 87 b3 add	a5, a5, a0
0x800026d4: 01 07 87 b3 add	a5, a5, a6
0x800026d8: 02 b7 f7 b3 remu	a5, a5, a1
0x800026dc: 00 16 86 93 addi	a3, a3, 1
0x800026e0: 00 06 09 13 mv	s2, a2
0x800026e4: 00 16 06 13 addi	a2, a2, 1
0x800026e8: 40 fd 87 b3 sub	a5, s11, a5
0x800026ec: 00 fd b5 33 sltu	a0, s11, a5
0x800026f0: 40 a7 07 33 sub	a4, a4, a0
0x800026f4: 03 87 88 33 mul	a6, a5, s8
0x800026f8: 02 97 07 33 mul	a4, a4, s1
0x800026fc: 02 97 b5 33 mulhu	a0, a5, s1
0x80002700: 01 07 07 33 add	a4, a4, a6
0x80002704: 02 97 87 b3 mul	a5, a5, s1
0x80002708: 00 a7 07 33 add	a4, a4, a0
0x8000270c: 01 f7 15 13 slli	a0, a4, 0x1f
0x80002710: 00 17 57 13 srli	a4, a4, 1
0x80002714: 00 17 d7 93 srli	a5, a5, 1
0x80002718: 00 f5 67 b3 or	a5, a0, a5
0x8000271c: 00 27 95 13 slli	a0, a5, 2
0x80002720: 00 f5 05 33 add	a0, a0, a5
0x80002724: 00 15 15 13 slli	a0, a0, 1
0x80002728: 40 ad 85 33 sub	a0, s11, a0
0x8000272c: 03 05 05 13 addi	a0, a0, 0x30
0x80002730: 0f f5 75 13 andi	a0, a0, 0xff
0x80002734: 00 07 8d 93 mv	s11, a5
0x80002738: fe a6 8f a3 sb	a0, -1(a3)
0x8000273c: 00 e7 e7 b3 or	a5, a5, a4
0x80002740: f6 07 9c e3 bnez	a5, -0x88
0x800026b8: 00 47 17 93 slli	a5, a4, 4
0x800026bc: 01 cd d5 13 srli	a0, s11, 0x1c
0x800026c0: 00 a7 e5 33 or	a0, a5, a0
0x800026c4: 01 35 75 33 and	a0, a0, s3
0x800026c8: 01 3d f7 b3 and	a5, s11, s3
0x800026cc: 01 87 58 13 srli	a6, a4, 0x18
0x800026d0: 00 a7 87 b3 add	a5, a5, a0
0x800026d4: 01 07 87 b3 add	a5, a5, a6
0x800026d8: 02 b7 f7 b3 remu	a5, a5, a1
0x800026dc: 00 16 86 93 addi	a3, a3, 1
0x800026e0: 00 06 09 13 mv	s2, a2
0x800026e4: 00 16 06 13 addi	a2, a2, 1
0x800026e8: 40 fd 87 b3 sub	a5, s11, a5
0x800026ec: 00 fd b5 33 sltu	a0, s11, a5
0x800026f0: 40 a7 07 33 sub	a4, a4, a0
0x800026f4: 03 87 88 33 mul	a6, a5, s8
0x800026f8: 02 97 07 33 mul	a4, a4, s1
0x800026fc: 02 97 b5 33 mulhu	a0, a5, s1
0x80002700: 01 07 07 33 add	a4, a4, a6
0x80002704: 02 97 87 b3 mul	a5, a5, s1
0x80002708: 00 a7 07 33 add	a4, a4, a0
0x8000270c: 01 f7 15 13 slli	a0, a4, 0x1f
0x80002710: 00 17 57 13 srli	a4, a4, 1
0x80002714: 00 17 d7 93 srli	a5, a5, 1
0x80002718: 00 f5 67 b3 or	a5, a0, a5
0x8000271c: 00 27 95 13 slli	a0, a5, 2
0x80002720: 00 f5 05 33 add	a0, a0, a5
0x80002724: 00 15 15 13 slli	a0, a0, 1
0x80002728: 40 ad 85 33 sub	a0, s11, a0
0x8000272c: 03 05 05 13 addi	a0, a0, 0x30
0x80002730: 0f f5 75 13 andi	a0, a0, 0xff
0x80002734: 00 07 8d 93 mv	s11, a5
0x80002738: fe a6 8f a3 sb	a0, -1(a3)
0x8000273c: 00 e7 e7 b3 or	a5, a5, a4
0x80002740: f6 07 9c e3 bnez	a5, -0x88
0x80002744: 01 2b 0d b3 add	s11, s6, s2
0x80002748: 00 c0 00 6f j	0xc
0x80002754: 00 0a 00 e7 jalr	s4
0x80002038: a0 00 07 b7 lui	a5, 0xa0000
0x8000203c: 3e a7 8c 23 sb	a0, 0x3f8(a5)
0x80002040: 00 00 80 67 ret
0x80002758: ff fd 87 93 addi	a5, s11, -1
0x8000275c: ff bb 18 e3 bne	s6, s11, -0x10
0x8000274c: ff fd c5 03 lbu	a0, -1(s11)
0x80002750: 00 07 8d 93 mv	s11, a5
0x80002754: 00 0a 00 e7 jalr	s4
0x80002038: a0 00 07 b7 lui	a5, 0xa0000
0x8000203c: 3e a7 8c 23 sb	a0, 0x3f8(a5)
0x80002040: 00 00 80 67 ret
0x80002758: ff fd 87 93 addi	a5, s11, -1
0x8000275c: ff bb 18 e3 bne	s6, s11, -0x10
0x80002760: 00 1d 0d 13 addi	s10, s10, 1
0x80002764: 01 2d 09 33 add	s2, s10, s2
0x80002768: d9 9f f0 6f j	-0x268
0x80002500: 00 00 0d 13 mv	s10, zero
0x80002504: 00 00 0d 93 mv	s11, zero
0x80002508: f4 5f f0 6f j	-0xbc
0x8000244c: 00 14 47 83 lbu	a5, 1(s0)
0x80002450: 00 14 04 13 addi	s0, s0, 1
0x80002454: fe 07 92 e3 bnez	a5, -0x1c
0x80002438: 07 77 80 63 beq	a5, s7, 0x60
0x8000243c: 06 0d 92 63 bnez	s11, 0x64
0x80002440: 00 07 85 13 mv	a0, a5
0x80002444: 00 0a 00 e7 jalr	s4
0x80002038: a0 00 07 b7 lui	a5, 0xa0000
0x8000203c: 3e a7 8c 23 sb	a0, 0x3f8(a5)
0x80002040: 00 00 80 67 ret
0x80002448: 00 19 09 13 addi	s2, s2, 1
0x8000244c: 00 14 47 83 lbu	a5, 1(s0)
0x80002450: 00 14 04 13 addi	s0, s0, 1
0x80002454: fe 07 92 e3 bnez	a5, -0x1c
0x80002438: 07 77 80 63 beq	a5, s7, 0x60
0x80002498: 00 1d bd 93 seqz	s11, s11
0x8000249c: 01 b4 04 33 add	s0, s0, s11
0x800024a0: 00 04 47 83 lbu	a5, 0(s0)
0x800024a4: 11 77 86 63 beq	a5, s7, 0x10c
0x800024a8: f9 d7 87 93 addi	a5, a5, -0x63
0x800024ac: 0f f7 f7 93 andi	a5, a5, 0xff
0x800024b0: 01 20 07 13 addi	a4, zero, 0x12
0x800024b4: 00 f7 6c 63 bltu	a4, a5, 0x18
0x800024b8: 00 27 97 93 slli	a5, a5, 2
0x800024bc: 01 97 87 b3 add	a5, a5, s9
0x800024c0: 00 07 a7 83 lw	a5, 0(a5)
0x800024c4: 01 97 87 b3 add	a5, a5, s9
0x800024c8: 00 07 80 67 jr	a5
0x80002594: 24 0d 10 63 bnez	s10, 0x240
0x80002598: 00 0a c5 03 lbu	a0, 0(s5)
0x8000259c: 00 19 09 13 addi	s2, s2, 1
0x800025a0: 00 4a 8a 93 addi	s5, s5, 4
0x800025a4: 00 0a 00 e7 jalr	s4
0x80002038: a0 00 07 b7 lui	a5, 0xa0000
0x8000203c: 3e a7 8c 23 sb	a0, 0x3f8(a5)
0x80002040: 00 00 80 67 ret
0x800025a8: 00 00 0d 93 mv	s11, zero
0x800025ac: ea 1f f0 6f j	-0x160
0x8000244c: 00 14 47 83 lbu	a5, 1(s0)
0x80002450: 00 14 04 13 addi	s0, s0, 1
0x80002454: fe 07 92 e3 bnez	a5, -0x1c
0x80002458: 08 c1 20 83 lw	ra, 0x8c(sp)
0x8000245c: 08 81 24 03 lw	s0, 0x88(sp)
0x80002460: 08 41 24 83 lw	s1, 0x84(sp)
0x80002464: 07 c1 29 83 lw	s3, 0x7c(sp)
0x80002468: 07 81 2a 03 lw	s4, 0x78(sp)
0x8000246c: 07 41 2a 83 lw	s5, 0x74(sp)
0x80002470: 07 01 2b 03 lw	s6, 0x70(sp)
0x80002474: 06 c1 2b 83 lw	s7, 0x6c(sp)
0x80002478: 06 81 2c 03 lw	s8, 0x68(sp)
0x8000247c: 06 41 2c 83 lw	s9, 0x64(sp)
0x80002480: 06 01 2d 03 lw	s10, 0x60(sp)
0x80002484: 05 c1 2d 83 lw	s11, 0x5c(sp)
0x80002488: 00 09 05 13 mv	a0, s2
0x8000248c: 08 01 29 03 lw	s2, 0x80(sp)
0x80002490: 09 01 01 13 addi	sp, sp, 0x90
0x80002494: 00 00 80 67 ret
0x800023b0: 01 c1 20 83 lw	ra, 0x1c(sp)
0x800023b4: 04 01 01 13 addi	sp, sp, 0x40
0x800023b8: 00 00 80 67 ret
0x800010c0: 00 00 05 93 mv	a1, zero
0x800010c4: 00 00 15 17 auipc	a0, 1
0x800010c8: 73 05 05 13 addi	a0, a0, 0x730
0x800010cc: 2a 40 10 ef jal	0x12a4
0x80002370: fc 01 01 13 addi	sp, sp, -0x40
0x80002374: 02 41 03 13 addi	t1, sp, 0x24
0x80002378: 02 b1 22 23 sw	a1, 0x24(sp)
0x8000237c: 02 c1 24 23 sw	a2, 0x28(sp)
0x80002380: 00 05 05 93 mv	a1, a0
0x80002384: 00 03 06 13 mv	a2, t1
0x80002388: 00 00 05 17 auipc	a0, 0
0x8000238c: cb 05 05 13 addi	a0, a0, -0x350
0x80002390: 00 11 2e 23 sw	ra, 0x1c(sp)
0x80002394: 02 d1 26 23 sw	a3, 0x2c(sp)
0x80002398: 02 e1 28 23 sw	a4, 0x30(sp)
0x8000239c: 02 f1 2a 23 sw	a5, 0x34(sp)
0x800023a0: 03 01 2c 23 sw	a6, 0x38(sp)
0x800023a4: 03 11 2e 23 sw	a7, 0x3c(sp)
0x800023a8: 00 61 26 23 sw	t1, 0xc(sp)
0x800023ac: 01 00 00 ef jal	0x10
0x800023bc: f7 01 01 13 addi	sp, sp, -0x90
0x800023c0: 08 11 26 23 sw	ra, 0x8c(sp)
0x800023c4: 08 81 24 23 sw	s0, 0x88(sp)
0x800023c8: 08 91 22 23 sw	s1, 0x84(sp)
0x800023cc: 09 21 20 23 sw	s2, 0x80(sp)
0x800023d0: 07 31 2e 23 sw	s3, 0x7c(sp)
0x800023d4: 07 41 2c 23 sw	s4, 0x78(sp)
0x800023d8: 07 51 2a 23 sw	s5, 0x74(sp)
0x800023dc: 07 61 28 23 sw	s6, 0x70(sp)
0x800023e0: 07 71 26 23 sw	s7, 0x6c(sp)
0x800023e4: 07 81 24 23 sw	s8, 0x68(sp)
0x800023e8: 07 91 22 23 sw	s9, 0x64(sp)
0x800023ec: 07 a1 20 23 sw	s10, 0x60(sp)
0x800023f0: 05 b1 2e 23 sw	s11, 0x5c(sp)
0x800023f4: 00 05 c7 83 lbu	a5, 0(a1)
0x800023f8: 3a 07 8a 63 beqz	a5, 0x3b4
0x800023fc: cc cc dc 37 lui	s8, 0xccccd
0x80002400: 10 00 09 b7 lui	s3, 0x10000
0x80002404: cc dc 04 93 addi	s1, s8, -0x333
0x80002408: 00 05 84 13 mv	s0, a1
0x8000240c: 00 05 0a 13 mv	s4, a0
0x80002410: 00 06 0a 93 mv	s5, a2
0x80002414: 00 00 09 13 mv	s2, zero
0x80002418: 00 00 0d 13 mv	s10, zero
0x8000241c: 00 00 0d 93 mv	s11, zero
0x80002420: 02 50 0b 93 addi	s7, zero, 0x25
0x80002424: 00 00 5c 97 auipc	s9, 5
0x80002428: 1d 0c 8c 93 addi	s9, s9, 0x1d0
0x8000242c: 01 01 0b 13 addi	s6, sp, 0x10
0x80002430: ff f9 89 93 addi	s3, s3, -1
0x80002434: cc cc 0c 13 addi	s8, s8, -0x334
0x80002438: 07 77 80 63 beq	a5, s7, 0x60
0x8000243c: 06 0d 92 63 bnez	s11, 0x64
0x80002440: 00 07 85 13 mv	a0, a5
0x80002444: 00 0a 00 e7 jalr	s4
0x80002038: a0 00 07 b7 lui	a5, 0xa0000
0x8000203c: 3e a7 8c 23 sb	a0, 0x3f8(a5)
0x80002040: 00 00 80 67 ret
0x80002448: 00 19 09 13 addi	s2, s2, 1
0x8000244c: 00 14 47 83 lbu	a5, 1(s0)
0x80002450: 00 14 04 13 addi	s0, s0, 1
0x80002454: fe 07 92 e3 bnez	a5, -0x1c
0x80002438: 07 77 80 63 beq	a5, s7, 0x60
0x8000243c: 06 0d 92 63 bnez	s11, 0x64
0x80002440: 00 07 85 13 mv	a0, a5
0x80002444: 00 0a 00 e7 jalr	s4
0x80002038: a0 00 07 b7 lui	a5, 0xa0000
0x8000203c: 3e a7 8c 23 sb	a0, 0x3f8(a5)
0x80002040: 00 00 80 67 ret
0x80002448: 00 19 09 13 addi	s2, s2, 1
0x8000244c: 00 14 47 83 lbu	a5, 1(s0)
0x80002450: 00 14 04 13 addi	s0, s0, 1
0x80002454: fe 07 92 e3 bnez	a5, -0x1c
0x80002438: 07 77 80 63 beq	a5, s7, 0x60
0x80002498: 00 1d bd 93 seqz	s11, s11
0x8000249c: 01 b4 04 33 add	s0, s0, s11
0x800024a0: 00 04 47 83 lbu	a5, 0(s0)
0x800024a4: 11 77 86 63 beq	a5, s7, 0x10c
0x800024a8: f9 d7 87 93 addi	a5, a5, -0x63
0x800024ac: 0f f7 f7 93 andi	a5, a5, 0xff
0x800024b0: 01 20 07 13 addi	a4, zero, 0x12
0x800024b4: 00 f7 6c 63 bltu	a4, a5, 0x18
0x800024b8: 00 27 97 93 slli	a5, a5, 2
0x800024bc: 01 97 87 b3 add	a5, a5, s9
0x800024c0: 00 07 a7 83 lw	a5, 0(a5)
0x800024c4: 01 97 87 b3 add	a5, a5, s9
0x800024c8: 00 07 80 67 jr	a5
0x8000255c: 00 20 07 93 addi	a5, zero, 2
0x80002560: 25 a7 ca 63 blt	a5, s10, 0x254
0x80002564: 22 fd 00 63 beq	s10, a5, 0x220
0x80002568: 00 0a ad 83 lw	s11, 0(s5)
0x8000256c: 00 4a 8a 93 addi	s5, s5, 4
0x80002570: 41 fd d7 13 srai	a4, s11, 0x1f
0x80002574: 00 19 0d 13 addi	s10, s2, 1
0x80002578: 10 07 4a 63 bltz	a4, 0x114
0x8000257c: 00 ed e7 b3 or	a5, s11, a4
0x80002580: 22 07 92 63 bnez	a5, 0x224
0x80002584: 03 00 05 13 addi	a0, zero, 0x30
0x80002588: 00 0a 00 e7 jalr	s4
0x80002038: a0 00 07 b7 lui	a5, 0xa0000
0x8000203c: 3e a7 8c 23 sb	a0, 0x3f8(a5)
0x80002040: 00 00 80 67 ret
0x8000258c: 00 0d 09 13 mv	s2, s10
0x80002590: f7 1f f0 6f j	-0x90
0x80002500: 00 00 0d 13 mv	s10, zero
0x80002504: 00 00 0d 93 mv	s11, zero
0x80002508: f4 5f f0 6f j	-0xbc
0x8000244c: 00 14 47 83 lbu	a5, 1(s0)
0x80002450: 00 14 04 13 addi	s0, s0, 1
0x80002454: fe 07 92 e3 bnez	a5, -0x1c
0x80002438: 07 77 80 63 beq	a5, s7, 0x60
0x8000243c: 06 0d 92 63 bnez	s11, 0x64
0x80002440: 00 07 85 13 mv	a0, a5
0x80002444: 00 0a 00 e7 jalr	s4
0x80002038: a0 00 07 b7 lui	a5, 0xa0000
0x8000203c: 3e a7 8c 23 sb	a0, 0x3f8(a5)
0x80002040: 00 00 80 67 ret
0x80002448: 00 19 09 13 addi	s2, s2, 1
0x8000244c: 00 14 47 83 lbu	a5, 1(s0)
0x80002450: 00 14 04 13 addi	s0, s0, 1
0x80002454: fe 07 92 e3 bnez	a5, -0x1c
0x80002458: 08 c1 20 83 lw	ra, 0x8c(sp)
0x8000245c: 08 81 24 03 lw	s0, 0x88(sp)
0x80002460: 08 41 24 83 lw	s1, 0x84(sp)
0x80002464: 07 c1 29 83 lw	s3, 0x7c(sp)
0x80002468: 07 81 2a 03 lw	s4, 0x78(sp)
0x8000246c: 07 41 2a 83 lw	s5, 0x74(sp)
0x80002470: 07 01 2b 03 lw	s6, 0x70(sp)
0x80002474: 06 c1 2b 83 lw	s7, 0x6c(sp)
0x80002478: 06 81 2c 03 lw	s8, 0x68(sp)
0x8000247c: 06 41 2c 83 lw	s9, 0x64(sp)
0x80002480: 06 01 2d 03 lw	s10, 0x60(sp)
0x80002484: 05 c1 2d 83 lw	s11, 0x5c(sp)
0x80002488: 00 09 05 13 mv	a0, s2
0x8000248c: 08 01 29 03 lw	s2, 0x80(sp)
0x80002490: 09 01 01 13 addi	sp, sp, 0x90
0x80002494: 00 00 80 67 ret
0x800023b0: 01 c1 20 83 lw	ra, 0x1c(sp)
0x800023b4: 04 01 01 13 addi	sp, sp, 0x40
0x800023b8: 00 00 80 67 ret
0x800010d0: 01 81 05 93 addi	a1, sp, 0x18
0x800010d4: 00 60 05 13 addi	a0, zero, 6
0x800010d8: 08 80 10 ef jal	0x1088
0x80002160: 00 25 15 13 slli	a0, a0, 2
0x80002164: 00 00 57 97 auipc	a5, 5
0x80002168: 4d c7 87 93 addi	a5, a5, 0x4dc
0x8000216c: 00 a7 87 b3 add	a5, a5, a0
0x80002170: 00 07 a7 83 lw	a5, 0(a5)
0x80002174: 00 05 85 13 mv	a0, a1
0x80002178: 00 07 80 67 jr	a5
0x80002180: a0 00 07 b7 lui	a5, 0xa0000
0x80002184: 04 c7 a7 03 lw	a4, 0x4c(a5)
0x80002188: 04 87 a7 83 lw	a5, 0x48(a5)
0x8000218c: 00 e5 22 23 sw	a4, 4(a0)
0x80002190: 00 f5 20 23 sw	a5, 0(a0)
0x80002194: 00 00 80 67 ret
0x800010dc: 00 c1 27 83 lw	a5, 0xc(sp)
0x800010e0: 01 81 29 83 lw	s3, 0x18(sp)
0x800010e4: 00 f9 8d b3 add	s11, s3, a5
0x800010e8: 01 c1 27 83 lw	a5, 0x1c(sp)
0x800010ec: 01 3d b9 b3 sltu	s3, s11, s3
0x800010f0: 00 f9 89 b3 add	s3, s3, a5
0x800010f4: 01 81 05 93 addi	a1, sp, 0x18
0x800010f8: 00 60 05 13 addi	a0, zero, 6
0x800010fc: 06 40 10 ef jal	0x1064
0x80002160: 00 25 15 13 slli	a0, a0, 2
0x80002164: 00 00 57 97 auipc	a5, 5
0x80002168: 4d c7 87 93 addi	a5, a5, 0x4dc
0x8000216c: 00 a7 87 b3 add	a5, a5, a0
0x80002170: 00 07 a7 83 lw	a5, 0(a5)
0x80002174: 00 05 85 13 mv	a0, a1
0x80002178: 00 07 80 67 jr	a5
0x80002180: a0 00 07 b7 lui	a5, 0xa0000
0x80002184: 04 c7 a7 03 lw	a4, 0x4c(a5)
0x80002188: 04 87 a7 83 lw	a5, 0x48(a5)
0x8000218c: 00 e5 22 23 sw	a4, 4(a0)
0x80002190: 00 f5 20 23 sw	a5, 0(a0)
0x80002194: 00 00 80 67 ret
0x80001100: 01 c1 27 83 lw	a5, 0x1c(sp)
0x80001104: 01 81 27 03 lw	a4, 0x18(sp)
0x80001108: ff 37 e6 e3 bltu	a5, s3, -0x14
0x8000110c: f2 f9 92 e3 bne	s3, a5, -0xdc
0x80001110: ff b7 62 e3 bltu	a4, s11, -0x1c
0x800010f4: 01 81 05 93 addi	a1, sp, 0x18
0x800010f8: 00 60 05 13 addi	a0, zero, 6
0x800010fc: 06 40 10 ef jal	0x1064
0x80002160: 00 25 15 13 slli	a0, a0, 2
0x80002164: 00 00 57 97 auipc	a5, 5
0x80002168: 4d c7 87 93 addi	a5, a5, 0x4dc
0x8000216c: 00 a7 87 b3 add	a5, a5, a0
0x80002170: 00 07 a7 83 lw	a5, 0(a5)
0x80002174: 00 05 85 13 mv	a0, a1
0x80002178: 00 07 80 67 jr	a5
0x80002180: a0 00 07 b7 lui	a5, 0xa0000
0x80002184: 04 c7 a7 03 lw	a4, 0x4c(a5)
0x80002188: 04 87 a7 83 lw	a5, 0x48(a5)
0x8000218c: 00 e5 22 23 sw	a4, 4(a0)
0x80002190: 00 f5 20 23 sw	a5, 0(a0)
0x80002194: 00 00 80 67 ret
0x80001100: 01 c1 27 83 lw	a5, 0x1c(sp)
0x80001104: 01 81 27 03 lw	a4, 0x18(sp)
0x80001108: ff 37 e6 e3 bltu	a5, s3, -0x14
0x8000110c: f2 f9 92 e3 bne	s3, a5, -0xdc
0x80001110: ff b7 62 e3 bltu	a4, s11, -0x1c
0x800010f4: 01 81 05 93 addi	a1, sp, 0x18
0x800010f8: 00 60 05 13 addi	a0, zero, 6
0x800010fc: 06 40 10 ef jal	0x1064
0x80002160: 00 25 15 13 slli	a0, a0, 2
0x80002164: 00 00 57 97 auipc	a5, 5
0x80002168: 4d c7 87 93 addi	a5, a5, 0x4dc
0x8000216c: 00 a7 87 b3 add	a5, a5, a0
0x80002170: 00 07 a7 83 lw	a5, 0(a5)
0x80002174: 00 05 85 13 mv	a0, a1
0x80002178: 00 07 80 67 jr	a5
0x80002180: a0 00 07 b7 lui	a5, 0xa0000
0x80002184: 04 c7 a7 03 lw	a4, 0x4c(a5)
0x80002188: 04 87 a7 83 lw	a5, 0x48(a5)
0x8000218c: 00 e5 22 23 sw	a4, 4(a0)
0x80002190: 00 f5 20 23 sw	a5, 0(a0)
0x80002194: 00 00 80 67 ret
0x80001100: 01 c1 27 83 lw	a5, 0x1c(sp)
0x80001104: 01 81 27 03 lw	a4, 0x18(sp)
0x80001108: ff 37 e6 e3 bltu	a5, s3, -0x14
0x8000110c: f2 f9 92 e3 bne	s3, a5, -0xdc
0x80001110: ff b7 62 e3 bltu	a4, s11, -0x1c
0x800010f4: 01 81 05 93 addi	a1, sp, 0x18
0x800010f8: 00 60 05 13 addi	a0, zero, 6
0x800010fc: 06 40 10 ef jal	0x1064
0x80002160: 00 25 15 13 slli	a0, a0, 2
0x80002164: 00 00 57 97 auipc	a5, 5
0x80002168: 4d c7 87 93 addi	a5, a5, 0x4dc
0x8000216c: 00 a7 87 b3 add	a5, a5, a0
0x80002170: 00 07 a7 83 lw	a5, 0(a5)
0x80002174: 00 05 85 13 mv	a0, a1
0x80002178: 00 07 80 67 jr	a5
0x80002180: a0 00 07 b7 lui	a5, 0xa0000
0x80002184: 04 c7 a7 03 lw	a4, 0x4c(a5)
0x80002188: 04 87 a7 83 lw	a5, 0x48(a5)
0x8000218c: 00 e5 22 23 sw	a4, 4(a0)
0x80002190: 00 f5 20 23 sw	a5, 0(a0)
0x80002194: 00 00 80 67 ret
0x80001100: 01 c1 27 83 lw	a5, 0x1c(sp)
0x80001104: 01 81 27 03 lw	a4, 0x18(sp)
0x80001108: ff 37 e6 e3 bltu	a5, s3, -0x14
0x8000110c: f2 f9 92 e3 bne	s3, a5, -0xdc
0x80001110: ff b7 62 e3 bltu	a4, s11, -0x1c
0x800010f4: 01 81 05 93 addi	a1, sp, 0x18
0x800010f8: 00 60 05 13 addi	a0, zero, 6
0x800010fc: 06 40 10 ef jal	0x1064
0x80002160: 00 25 15 13 slli	a0, a0, 2
0x80002164: 00 00 57 97 auipc	a5, 5
0x80002168: 4d c7 87 93 addi	a5, a5, 0x4dc
0x8000216c: 00 a7 87 b3 add	a5, a5, a0
0x80002170: 00 07 a7 83 lw	a5, 0(a5)
0x80002174: 00 05 85 13 mv	a0, a1
0x80002178: 00 07 80 67 jr	a5
0x80002180: a0 00 07 b7 lui	a5, 0xa0000
0x80002184: 04 c7 a7 03 lw	a4, 0x4c(a5)
0x80002188: 04 87 a7 83 lw	a5, 0x48(a5)
0x8000218c: 00 e5 22 23 sw	a4, 4(a0)
0x80002190: 00 f5 20 23 sw	a5, 0(a0)
0x80002194: 00 00 80 67 ret
0x80001100: 01 c1 27 83 lw	a5, 0x1c(sp)
0x80001104: 01 81 27 03 lw	a4, 0x18(sp)
0x80001108: ff 37 e6 e3 bltu	a5, s3, -0x14
0x8000110c: f2 f9 92 e3 bne	s3, a5, -0xdc
0x80001110: ff b7 62 e3 bltu	a4, s11, -0x1c
0x800010f4: 01 81 05 93 addi	a1, sp, 0x18
0x800010f8: 00 60 05 13 addi	a0, zero, 6
0x800010fc: 06 40 10 ef jal	0x1064
0x80002160: 00 25 15 13 slli	a0, a0, 2
0x80002164: 00 00 57 97 auipc	a5, 5
0x80002168: 4d c7 87 93 addi	a5, a5, 0x4dc
0x8000216c: 00 a7 87 b3 add	a5, a5, a0
0x80002170: 00 07 a7 83 lw	a5, 0(a5)
0x80002174: 00 05 85 13 mv	a0, a1
0x80002178: 00 07 80 67 jr	a5
0x80002180: a0 00 07 b7 lui	a5, 0xa0000
0x80002184: 04 c7 a7 03 lw	a4, 0x4c(a5)
0x80002188: 04 87 a7 83 lw	a5, 0x48(a5)
0x8000218c: 00 e5 22 23 sw	a4, 4(a0)
0x80002190: 00 f5 20 23 sw	a5, 0(a0)
0x80002194: 00 00 80 67 ret
0x80001100: 01 c1 27 83 lw	a5, 0x1c(sp)
0x80001104: 01 81 27 03 lw	a4, 0x18(sp)
0x80001108: ff 37 e6 e3 bltu	a5, s3, -0x14
0x8000110c: f2 f9 92 e3 bne	s3, a5, -0xdc
0x80001110: ff b7 62 e3 bltu	a4, s11, -0x1c
0x800010f4: 01 81 05 93 addi	a1, sp, 0x18
0x800010f8: 00 60 05 13 addi	a0, zero, 6
0x800010fc: 06 40 10 ef jal	0x1064
0x80002160: 00 25 15 13 slli	a0, a0, 2
0x80002164: 00 00 57 97 auipc	a5, 5
0x80002168: 4d c7 87 93 addi	a5, a5, 0x4dc
0x8000216c: 00 a7 87 b3 add	a5, a5, a0
0x80002170: 00 07 a7 83 lw	a5, 0(a5)
0x80002174: 00 05 85 13 mv	a0, a1
0x80002178: 00 07 80 67 jr	a5
0x80002180: a0 00 07 b7 lui	a5, 0xa0000
0x80002184: 04 c7 a7 03 lw	a4, 0x4c(a5)
0x80002188: 04 87 a7 83 lw	a5, 0x48(a5)
0x8000218c: 00 e5 22 23 sw	a4, 4(a0)
0x80002190: 00 f5 20 23 sw	a5, 0(a0)
0x80002194: 00 00 80 67 ret
0x80001100: 01 c1 27 83 lw	a5, 0x1c(sp)
0x80001104: 01 81 27 03 lw	a4, 0x18(sp)
0x80001108: ff 37 e6 e3 bltu	a5, s3, -0x14
0x8000110c: f2 f9 92 e3 bne	s3, a5, -0xdc
0x80001110: ff b7 62 e3 bltu	a4, s11, -0x1c
0x800010f4: 01 81 05 93 addi	a1, sp, 0x18
0x800010f8: 00 60 05 13 addi	a0, zero, 6
0x800010fc: 06 40 10 ef jal	0x1064
0x80002160: 00 25 15 13 slli	a0, a0, 2
0x80002164: 00 00 57 97 auipc	a5, 5
0x80002168: 4d c7 87 93 addi	a5, a5, 0x4dc
0x8000216c: 00 a7 87 b3 add	a5, a5, a0
0x80002170: 00 07 a7 83 lw	a5, 0(a5)
0x80002174: 00 05 85 13 mv	a0, a1
0x80002178: 00 07 80 67 jr	a5
0x80002180: a0 00 07 b7 lui	a5, 0xa0000
0x80002184: 04 c7 a7 03 lw	a4, 0x4c(a5)
0x80002188: 04 87 a7 83 lw	a5, 0x48(a5)
0x8000218c: 00 e5 22 23 sw	a4, 4(a0)
0x80002190: 00 f5 20 23 sw	a5, 0(a0)
0x80002194: 00 00 80 67 ret
0x80001100: 01 c1 27 83 lw	a5, 0x1c(sp)
0x80001104: 01 81 27 03 lw	a4, 0x18(sp)
0x80001108: ff 37 e6 e3 bltu	a5, s3, -0x14
0x8000110c: f2 f9 92 e3 bne	s3, a5, -0xdc
0x80001110: ff b7 62 e3 bltu	a4, s11, -0x1c
0x800010f4: 01 81 05 93 addi	a1, sp, 0x18
0x800010f8: 00 60 05 13 addi	a0, zero, 6
0x800010fc: 06 40 10 ef jal	0x1064
0x80002160: 00 25 15 13 slli	a0, a0, 2
0x80002164: 00 00 57 97 auipc	a5, 5
0x80002168: 4d c7 87 93 addi	a5, a5, 0x4dc
0x8000216c: 00 a7 87 b3 add	a5, a5, a0
0x80002170: 00 07 a7 83 lw	a5, 0(a5)
0x80002174: 00 05 85 13 mv	a0, a1
0x80002178: 00 07 80 67 jr	a5
0x80002180: a0 00 07 b7 lui	a5, 0xa0000
0x80002184: 04 c7 a7 03 lw	a4, 0x4c(a5)
0x80002188: 04 87 a7 83 lw	a5, 0x48(a5)
0x8000218c: 00 e5 22 23 sw	a4, 4(a0)
0x80002190: 00 f5 20 23 sw	a5, 0(a0)
0x80002194: 00 00 80 67 ret
0x80001100: 01 c1 27 83 lw	a5, 0x1c(sp)
0x80001104: 01 81 27 03 lw	a4, 0x18(sp)
0x80001108: ff 37 e6 e3 bltu	a5, s3, -0x14
0x8000110c: f2 f9 92 e3 bne	s3, a5, -0xdc
0x80001110: ff b7 62 e3 bltu	a4, s11, -0x1c
0x800010f4: 01 81 05 93 addi	a1, sp, 0x18
0x800010f8: 00 60 05 13 addi	a0, zero, 6
0x800010fc: 06 40 10 ef jal	0x1064
0x80002160: 00 25 15 13 slli	a0, a0, 2
0x80002164: 00 00 57 97 auipc	a5, 5
0x80002168: 4d c7 87 93 addi	a5, a5, 0x4dc
0x8000216c: 00 a7 87 b3 add	a5, a5, a0
0x80002170: 00 07 a7 83 lw	a5, 0(a5)
0x80002174: 00 05 85 13 mv	a0, a1
0x80002178: 00 07 80 67 jr	a5
0x80002180: a0 00 07 b7 lui	a5, 0xa0000
0x80002184: 04 c7 a7 03 lw	a4, 0x4c(a5)
0x80002188: 04 87 a7 83 lw	a5, 0x48(a5)
0x8000218c: 00 e5 22 23 sw	a4, 4(a0)
0x80002190: 00 f5 20 23 sw	a5, 0(a0)
0x80002194: 00 00 80 67 ret
0x80001100: 01 c1 27 83 lw	a5, 0x1c(sp)
0x80001104: 01 81 27 03 lw	a4, 0x18(sp)
0x80001108: ff 37 e6 e3 bltu	a5, s3, -0x14
0x8000110c: f2 f9 92 e3 bne	s3, a5, -0xdc
0x80001110: ff b7 62 e3 bltu	a4, s11, -0x1c
0x800010f4: 01 81 05 93 addi	a1, sp, 0x18
0x800010f8: 00 60 05 13 addi	a0, zero, 6
0x800010fc: 06 40 10 ef jal	0x1064
0x80002160: 00 25 15 13 slli	a0, a0, 2
0x80002164: 00 00 57 97 auipc	a5, 5
0x80002168: 4d c7 87 93 addi	a5, a5, 0x4dc
0x8000216c: 00 a7 87 b3 add	a5, a5, a0
0x80002170: 00 07 a7 83 lw	a5, 0(a5)
0x80002174: 00 05 85 13 mv	a0, a1
0x80002178: 00 07 80 67 jr	a5
0x80002180: a0 00 07 b7 lui	a5, 0xa0000
0x80002184: 04 c7 a7 03 lw	a4, 0x4c(a5)
0x80002188: 04 87 a7 83 lw	a5, 0x48(a5)
0x8000218c: 00 e5 22 23 sw	a4, 4(a0)
0x80002190: 00 f5 20 23 sw	a5, 0(a0)
0x80002194: 00 00 80 67 ret
0x80001100: 01 c1 27 83 lw	a5, 0x1c(sp)
0x80001104: 01 81 27 03 lw	a4, 0x18(sp)
0x80001108: ff 37 e6 e3 bltu	a5, s3, -0x14
0x8000110c: f2 f9 92 e3 bne	s3, a5, -0xdc
0x80001110: ff b7 62 e3 bltu	a4, s11, -0x1c
0x800010f4: 01 81 05 93 addi	a1, sp, 0x18
0x800010f8: 00 60 05 13 addi	a0, zero, 6
0x800010fc: 06 40 10 ef jal	0x1064
0x80002160: 00 25 15 13 slli	a0, a0, 2
0x80002164: 00 00 57 97 auipc	a5, 5
0x80002168: 4d c7 87 93 addi	a5, a5, 0x4dc
0x8000216c: 00 a7 87 b3 add	a5, a5, a0
0x80002170: 00 07 a7 83 lw	a5, 0(a5)
0x80002174: 00 05 85 13 mv	a0, a1
0x80002178: 00 07 80 67 jr	a5
0x80002180: a0 00 07 b7 lui	a5, 0xa0000
0x80002184: 04 c7 a7 03 lw	a4, 0x4c(a5)
0x80002188: 04 87 a7 83 lw	a5, 0x48(a5)
0x8000218c: 00 e5 22 23 sw	a4, 4(a0)
0x80002190: 00 f5 20 23 sw	a5, 0(a0)
0x80002194: 00 00 80 67 ret
0x80001100: 01 c1 27 83 lw	a5, 0x1c(sp)
0x80001104: 01 81 27 03 lw	a4, 0x18(sp)
0x80001108: ff 37 e6 e3 bltu	a5, s3, -0x14
0x8000110c: f2 f9 92 e3 bne	s3, a5, -0xdc
0x80001110: ff b7 62 e3 bltu	a4, s11, -0x1c
0x800010f4: 01 81 05 93 addi	a1, sp, 0x18
0x800010f8: 00 60 05 13 addi	a0, zero, 6
0x800010fc: 06 40 10 ef jal	0x1064
0x80002160: 00 25 15 13 slli	a0, a0, 2
0x80002164: 00 00 57 97 auipc	a5, 5
0x80002168: 4d c7 87 93 addi	a5, a5, 0x4dc
0x8000216c: 00 a7 87 b3 add	a5, a5, a0
0x80002170: 00 07 a7 83 lw	a5, 0(a5)
0x80002174: 00 05 85 13 mv	a0, a1
0x80002178: 00 07 80 67 jr	a5
0x80002180: a0 00 07 b7 lui	a5, 0xa0000
0x80002184: 04 c7 a7 03 lw	a4, 0x4c(a5)
0x80002188: 04 87 a7 83 lw	a5, 0x48(a5)
0x8000218c: 00 e5 22 23 sw	a4, 4(a0)
0x80002190: 00 f5 20 23 sw	a5, 0(a0)
0x80002194: 00 00 80 67 ret
0x80001100: 01 c1 27 83 lw	a5, 0x1c(sp)
0x80001104: 01 81 27 03 lw	a4, 0x18(sp)
0x80001108: ff 37 e6 e3 bltu	a5, s3, -0x14
0x8000110c: f2 f9 92 e3 bne	s3, a5, -0xdc
0x80001110: ff b7 62 e3 bltu	a4, s11, -0x1c
0x800010f4: 01 81 05 93 addi	a1, sp, 0x18
0x800010f8: 00 60 05 13 addi	a0, zero, 6
0x800010fc: 06 40 10 ef jal	0x1064
0x80002160: 00 25 15 13 slli	a0, a0, 2
0x80002164: 00 00 57 97 auipc	a5, 5
0x80002168: 4d c7 87 93 addi	a5, a5, 0x4dc
0x8000216c: 00 a7 87 b3 add	a5, a5, a0
0x80002170: 00 07 a7 83 lw	a5, 0(a5)
0x80002174: 00 05 85 13 mv	a0, a1
0x80002178: 00 07 80 67 jr	a5
0x80002180: a0 00 07 b7 lui	a5, 0xa0000
0x80002184: 04 c7 a7 03 lw	a4, 0x4c(a5)
0x80002188: 04 87 a7 83 lw	a5, 0x48(a5)
0x8000218c: 00 e5 22 23 sw	a4, 4(a0)
0x80002190: 00 f5 20 23 sw	a5, 0(a0)
0x80002194: 00 00 80 67 ret
0x80001100: 01 c1 27 83 lw	a5, 0x1c(sp)
0x80001104: 01 81 27 03 lw	a4, 0x18(sp)
0x80001108: ff 37 e6 e3 bltu	a5, s3, -0x14
0x8000110c: f2 f9 92 e3 bne	s3, a5, -0xdc
0x80001110: ff b7 62 e3 bltu	a4, s11, -0x1c
0x800010f4: 01 81 05 93 addi	a1, sp, 0x18
0x800010f8: 00 60 05 13 addi	a0, zero, 6
0x800010fc: 06 40 10 ef jal	0x1064
0x80002160: 00 25 15 13 slli	a0, a0, 2
0x80002164: 00 00 57 97 auipc	a5, 5
0x80002168: 4d c7 87 93 addi	a5, a5, 0x4dc
0x8000216c: 00 a7 87 b3 add	a5, a5, a0
0x80002170: 00 07 a7 83 lw	a5, 0(a5)
0x80002174: 00 05 85 13 mv	a0, a1
0x80002178: 00 07 80 67 jr	a5
0x80002180: a0 00 07 b7 lui	a5, 0xa0000
0x80002184: 04 c7 a7 03 lw	a4, 0x4c(a5)
0x80002188: 04 87 a7 83 lw	a5, 0x48(a5)
0x8000218c: 00 e5 22 23 sw	a4, 4(a0)
0x80002190: 00 f5 20 23 sw	a5, 0(a0)
0x80002194: 00 00 80 67 ret
0x80001100: 01 c1 27 83 lw	a5, 0x1c(sp)
0x80001104: 01 81 27 03 lw	a4, 0x18(sp)
0x80001108: ff 37 e6 e3 bltu	a5, s3, -0x14
0x8000110c: f2 f9 92 e3 bne	s3, a5, -0xdc
0x80001110: ff b7 62 e3 bltu	a4, s11, -0x1c
0x800010f4: 01 81 05 93 addi	a1, sp, 0x18
0x800010f8: 00 60 05 13 addi	a0, zero, 6
0x800010fc: 06 40 10 ef jal	0x1064
0x80002160: 00 25 15 13 slli	a0, a0, 2
0x80002164: 00 00 57 97 auipc	a5, 5
0x80002168: 4d c7 87 93 addi	a5, a5, 0x4dc
0x8000216c: 00 a7 87 b3 add	a5, a5, a0
0x80002170: 00 07 a7 83 lw	a5, 0(a5)
0x80002174: 00 05 85 13 mv	a0, a1
0x80002178: 00 07 80 67 jr	a5
0x80002180: a0 00 07 b7 lui	a5, 0xa0000
0x80002184: 04 c7 a7 03 lw	a4, 0x4c(a5)
0x80002188: 04 87 a7 83 lw	a5, 0x48(a5)
0x8000218c: 00 e5 22 23 sw	a4, 4(a0)
0x80002190: 00 f5 20 23 sw	a5, 0(a0)
0x80002194: 00 00 80 67 ret
0x80001100: 01 c1 27 83 lw	a5, 0x1c(sp)
0x80001104: 01 81 27 03 lw	a4, 0x18(sp)
0x80001108: ff 37 e6 e3 bltu	a5, s3, -0x14
0x8000110c: f2 f9 92 e3 bne	s3, a5, -0xdc
0x80001110: ff b7 62 e3 bltu	a4, s11, -0x1c
0x800010f4: 01 81 05 93 addi	a1, sp, 0x18
0x800010f8: 00 60 05 13 addi	a0, zero, 6
0x800010fc: 06 40 10 ef jal	0x1064
0x80002160: 00 25 15 13 slli	a0, a0, 2
0x80002164: 00 00 57 97 auipc	a5, 5
0x80002168: 4d c7 87 93 addi	a5, a5, 0x4dc
0x8000216c: 00 a7 87 b3 add	a5, a5, a0
0x80002170: 00 07 a7 83 lw	a5, 0(a5)
0x80002174: 00 05 85 13 mv	a0, a1
0x80002178: 00 07 80 67 jr	a5
0x80002180: a0 00 07 b7 lui	a5, 0xa0000
0x80002184: 04 c7 a7 03 lw	a4, 0x4c(a5)
0x80002188: 04 87 a7 83 lw	a5, 0x48(a5)
0x8000218c: 00 e5 22 23 sw	a4, 4(a0)
0x80002190: 00 f5 20 23 sw	a5, 0(a0)
0x80002194: 00 00 80 67 ret
0x80001100: 01 c1 27 83 lw	a5, 0x1c(sp)
0x80001104: 01 81 27 03 lw	a4, 0x18(sp)
0x80001108: ff 37 e6 e3 bltu	a5, s3, -0x14
0x8000110c: f2 f9 92 e3 bne	s3, a5, -0xdc
0x80001110: ff b7 62 e3 bltu	a4, s11, -0x1c
0x800010f4: 01 81 05 93 addi	a1, sp, 0x18
0x800010f8: 00 60 05 13 addi	a0, zero, 6
0x800010fc: 06 40 10 ef jal	0x1064
0x80002160: 00 25 15 13 slli	a0, a0, 2
0x80002164: 00 00 57 97 auipc	a5, 5
0x80002168: 4d c7 87 93 addi	a5, a5, 0x4dc
0x8000216c: 00 a7 87 b3 add	a5, a5, a0
0x80002170: 00 07 a7 83 lw	a5, 0(a5)
0x80002174: 00 05 85 13 mv	a0, a1
0x80002178: 00 07 80 67 jr	a5
0x80002180: a0 00 07 b7 lui	a5, 0xa0000
0x80002184: 04 c7 a7 03 lw	a4, 0x4c(a5)
0x80002188: 04 87 a7 83 lw	a5, 0x48(a5)
0x8000218c: 00 e5 22 23 sw	a4, 4(a0)
0x80002190: 00 f5 20 23 sw	a5, 0(a0)
0x80002194: 00 00 80 67 ret
0x80001100: 01 c1 27 83 lw	a5, 0x1c(sp)
0x80001104: 01 81 27 03 lw	a4, 0x18(sp)
0x80001108: ff 37 e6 e3 bltu	a5, s3, -0x14
0x8000110c: f2 f9 92 e3 bne	s3, a5, -0xdc
0x80001110: ff b7 62 e3 bltu	a4, s11, -0x1c
0x800010f4: 01 81 05 93 addi	a1, sp, 0x18
0x800010f8: 00 60 05 13 addi	a0, zero, 6
0x800010fc: 06 40 10 ef jal	0x1064
0x80002160: 00 25 15 13 slli	a0, a0, 2
0x80002164: 00 00 57 97 auipc	a5, 5
0x80002168: 4d c7 87 93 addi	a5, a5, 0x4dc
0x8000216c: 00 a7 87 b3 add	a5, a5, a0
0x80002170: 00 07 a7 83 lw	a5, 0(a5)
0x80002174: 00 05 85 13 mv	a0, a1
0x80002178: 00 07 80 67 jr	a5
0x80002180: a0 00 07 b7 lui	a5, 0xa0000
0x80002184: 04 c7 a7 03 lw	a4, 0x4c(a5)
0x80002188: 04 87 a7 83 lw	a5, 0x48(a5)
0x8000218c: 00 e5 22 23 sw	a4, 4(a0)
0x80002190: 00 f5 20 23 sw	a5, 0(a0)
0x80002194: 00 00 80 67 ret
0x80001100: 01 c1 27 83 lw	a5, 0x1c(sp)
0x80001104: 01 81 27 03 lw	a4, 0x18(sp)
0x80001108: ff 37 e6 e3 bltu	a5, s3, -0x14
0x8000110c: f2 f9 92 e3 bne	s3, a5, -0xdc
0x80001110: ff b7 62 e3 bltu	a4, s11, -0x1c
0x800010f4: 01 81 05 93 addi	a1, sp, 0x18
0x800010f8: 00 60 05 13 addi	a0, zero, 6
0x800010fc: 06 40 10 ef jal	0x1064
0x80002160: 00 25 15 13 slli	a0, a0, 2
0x80002164: 00 00 57 97 auipc	a5, 5
0x80002168: 4d c7 87 93 addi	a5, a5, 0x4dc
0x8000216c: 00 a7 87 b3 add	a5, a5, a0
0x80002170: 00 07 a7 83 lw	a5, 0(a5)
0x80002174: 00 05 85 13 mv	a0, a1
0x80002178: 00 07 80 67 jr	a5
0x80002180: a0 00 07 b7 lui	a5, 0xa0000
0x80002184: 04 c7 a7 03 lw	a4, 0x4c(a5)
0x80002188: 04 87 a7 83 lw	a5, 0x48(a5)
0x8000218c: 00 e5 22 23 sw	a4, 4(a0)
0x80002190: 00 f5 20 23 sw	a5, 0(a0)
0x80002194: 00 00 80 67 ret
0x80001100: 01 c1 27 83 lw	a5, 0x1c(sp)
0x80001104: 01 81 27 03 lw	a4, 0x18(sp)
0x80001108: ff 37 e6 e3 bltu	a5, s3, -0x14
0x8000110c: f2 f9 92 e3 bne	s3, a5, -0xdc
0x80001110: ff b7 62 e3 bltu	a4, s11, -0x1c
0x800010f4: 01 81 05 93 addi	a1, sp, 0x18
0x800010f8: 00 60 05 13 addi	a0, zero, 6
0x800010fc: 06 40 10 ef jal	0x1064
0x80002160: 00 25 15 13 slli	a0, a0, 2
0x80002164: 00 00 57 97 auipc	a5, 5
0x80002168: 4d c7 87 93 addi	a5, a5, 0x4dc
0x8000216c: 00 a7 87 b3 add	a5, a5, a0
0x80002170: 00 07 a7 83 lw	a5, 0(a5)
0x80002174: 00 05 85 13 mv	a0, a1
0x80002178: 00 07 80 67 jr	a5
0x80002180: a0 00 07 b7 lui	a5, 0xa0000
0x80002184: 04 c7 a7 03 lw	a4, 0x4c(a5)
0x80002188: 04 87 a7 83 lw	a5, 0x48(a5)
0x8000218c: 00 e5 22 23 sw	a4, 4(a0)
0x80002190: 00 f5 20 23 sw	a5, 0(a0)
0x80002194: 00 00 80 67 ret
0x80001100: 01 c1 27 83 lw	a5, 0x1c(sp)
0x80001104: 01 81 27 03 lw	a4, 0x18(sp)
0x80001108: ff 37 e6 e3 bltu	a5, s3, -0x14
0x8000110c: f2 f9 92 e3 bne	s3, a5, -0xdc
0x80001110: ff b7 62 e3 bltu	a4, s11, -0x1c
0x800010f4: 01 81 05 93 addi	a1, sp, 0x18
0x800010f8: 00 60 05 13 addi	a0, zero, 6
0x800010fc: 06 40 10 ef jal	0x1064
0x80002160: 00 25 15 13 slli	a0, a0, 2
0x80002164: 00 00 57 97 auipc	a5, 5
0x80002168: 4d c7 87 93 addi	a5, a5, 0x4dc
0x8000216c: 00 a7 87 b3 add	a5, a5, a0
0x80002170: 00 07 a7 83 lw	a5, 0(a5)
0x80002174: 00 05 85 13 mv	a0, a1
0x80002178: 00 07 80 67 jr	a5
0x80002180: a0 00 07 b7 lui	a5, 0xa0000
0x80002184: 04 c7 a7 03 lw	a4, 0x4c(a5)
0x80002188: 04 87 a7 83 lw	a5, 0x48(a5)
0x8000218c: 00 e5 22 23 sw	a4, 4(a0)
0x80002190: 00 f5 20 23 sw	a5, 0(a0)
0x80002194: 00 00 80 67 ret
0x80001100: 01 c1 27 83 lw	a5, 0x1c(sp)
0x80001104: 01 81 27 03 lw	a4, 0x18(sp)
0x80001108: ff 37 e6 e3 bltu	a5, s3, -0x14
0x8000110c: f2 f9 92 e3 bne	s3, a5, -0xdc
0x80001110: ff b7 62 e3 bltu	a4, s11, -0x1c
0x800010f4: 01 81 05 93 addi	a1, sp, 0x18
0x800010f8: 00 60 05 13 addi	a0, zero, 6
0x800010fc: 06 40 10 ef jal	0x1064
0x80002160: 00 25 15 13 slli	a0, a0, 2
0x80002164: 00 00 57 97 auipc	a5, 5
0x80002168: 4d c7 87 93 addi	a5, a5, 0x4dc
0x8000216c: 00 a7 87 b3 add	a5, a5, a0
0x80002170: 00 07 a7 83 lw	a5, 0(a5)
0x80002174: 00 05 85 13 mv	a0, a1
0x80002178: 00 07 80 67 jr	a5
0x80002180: a0 00 07 b7 lui	a5, 0xa0000
0x80002184: 04 c7 a7 03 lw	a4, 0x4c(a5)
0x80002188: 04 87 a7 83 lw	a5, 0x48(a5)
0x8000218c: 00 e5 22 23 sw	a4, 4(a0)
0x80002190: 00 f5 20 23 sw	a5, 0(a0)
0x80002194: 00 00 80 67 ret
0x80001100: 01 c1 27 83 lw	a5, 0x1c(sp)
0x80001104: 01 81 27 03 lw	a4, 0x18(sp)
0x80001108: ff 37 e6 e3 bltu	a5, s3, -0x14
0x8000110c: f2 f9 92 e3 bne	s3, a5, -0xdc
0x80001110: ff b7 62 e3 bltu	a4, s11, -0x1c
0x800010f4: 01 81 05 93 addi	a1, sp, 0x18
0x800010f8: 00 60 05 13 addi	a0, zero, 6
0x800010fc: 06 40 10 ef jal	0x1064
0x80002160: 00 25 15 13 slli	a0, a0, 2
0x80002164: 00 00 57 97 auipc	a5, 5
0x80002168: 4d c7 87 93 addi	a5, a5, 0x4dc
0x8000216c: 00 a7 87 b3 add	a5, a5, a0
0x80002170: 00 07 a7 83 lw	a5, 0(a5)
0x80002174: 00 05 85 13 mv	a0, a1
0x80002178: 00 07 80 67 jr	a5
0x80002180: a0 00 07 b7 lui	a5, 0xa0000
0x80002184: 04 c7 a7 03 lw	a4, 0x4c(a5)
0x80002188: 04 87 a7 83 lw	a5, 0x48(a5)
0x8000218c: 00 e5 22 23 sw	a4, 4(a0)
0x80002190: 00 f5 20 23 sw	a5, 0(a0)
0x80002194: 00 00 80 67 ret
0x80001100: 01 c1 27 83 lw	a5, 0x1c(sp)
0x80001104: 01 81 27 03 lw	a4, 0x18(sp)
0x80001108: ff 37 e6 e3 bltu	a5, s3, -0x14
0x8000110c: f2 f9 92 e3 bne	s3, a5, -0xdc
0x80001110: ff b7 62 e3 bltu	a4, s11, -0x1c
0x800010f4: 01 81 05 93 addi	a1, sp, 0x18
0x800010f8: 00 60 05 13 addi	a0, zero, 6
0x800010fc: 06 40 10 ef jal	0x1064
0x80002160: 00 25 15 13 slli	a0, a0, 2
0x80002164: 00 00 57 97 auipc	a5, 5
0x80002168: 4d c7 87 93 addi	a5, a5, 0x4dc
0x8000216c: 00 a7 87 b3 add	a5, a5, a0
0x80002170: 00 07 a7 83 lw	a5, 0(a5)
0x80002174: 00 05 85 13 mv	a0, a1
0x80002178: 00 07 80 67 jr	a5
0x80002180: a0 00 07 b7 lui	a5, 0xa0000
0x80002184: 04 c7 a7 03 lw	a4, 0x4c(a5)
0x80002188: 04 87 a7 83 lw	a5, 0x48(a5)
0x8000218c: 00 e5 22 23 sw	a4, 4(a0)
0x80002190: 00 f5 20 23 sw	a5, 0(a0)
0x80002194: 00 00 80 67 ret
0x80001100: 01 c1 27 83 lw	a5, 0x1c(sp)
0x80001104: 01 81 27 03 lw	a4, 0x18(sp)
0x80001108: ff 37 e6 e3 bltu	a5, s3, -0x14
0x8000110c: f2 f9 92 e3 bne	s3, a5, -0xdc
0x80001110: ff b7 62 e3 bltu	a4, s11, -0x1c
0x800010f4: 01 81 05 93 addi	a1, sp, 0x18
0x800010f8: 00 60 05 13 addi	a0, zero, 6
0x800010fc: 06 40 10 ef jal	0x1064
0x80002160: 00 25 15 13 slli	a0, a0, 2
0x80002164: 00 00 57 97 auipc	a5, 5
0x80002168: 4d c7 87 93 addi	a5, a5, 0x4dc
0x8000216c: 00 a7 87 b3 add	a5, a5, a0
0x80002170: 00 07 a7 83 lw	a5, 0(a5)
0x80002174: 00 05 85 13 mv	a0, a1
0x80002178: 00 07 80 67 jr	a5
0x80002180: a0 00 07 b7 lui	a5, 0xa0000
0x80002184: 04 c7 a7 03 lw	a4, 0x4c(a5)
0x80002188: 04 87 a7 83 lw	a5, 0x48(a5)
0x8000218c: 00 e5 22 23 sw	a4, 4(a0)
0x80002190: 00 f5 20 23 sw	a5, 0(a0)
0x80002194: 00 00 80 67 ret
0x80001100: 01 c1 27 83 lw	a5, 0x1c(sp)
0x80001104: 01 81 27 03 lw	a4, 0x18(sp)
0x80001108: ff 37 e6 e3 bltu	a5, s3, -0x14
0x8000110c: f2 f9 92 e3 bne	s3, a5, -0xdc
0x80001110: ff b7 62 e3 bltu	a4, s11, -0x1c
0x800010f4: 01 81 05 93 addi	a1, sp, 0x18
0x800010f8: 00 60 05 13 addi	a0, zero, 6
0x800010fc: 06 40 10 ef jal	0x1064
0x80002160: 00 25 15 13 slli	a0, a0, 2
0x80002164: 00 00 57 97 auipc	a5, 5
0x80002168: 4d c7 87 93 addi	a5, a5, 0x4dc
0x8000216c: 00 a7 87 b3 add	a5, a5, a0
0x80002170: 00 07 a7 83 lw	a5, 0(a5)
0x80002174: 00 05 85 13 mv	a0, a1
0x80002178: 00 07 80 67 jr	a5
0x80002180: a0 00 07 b7 lui	a5, 0xa0000
0x80002184: 04 c7 a7 03 lw	a4, 0x4c(a5)
0x80002188: 04 87 a7 83 lw	a5, 0x48(a5)
0x8000218c: 00 e5 22 23 sw	a4, 4(a0)
0x80002190: 00 f5 20 23 sw	a5, 0(a0)
0x80002194: 00 00 80 67 ret
0x80001100: 01 c1 27 83 lw	a5, 0x1c(sp)
0x80001104: 01 81 27 03 lw	a4, 0x18(sp)
0x80001108: ff 37 e6 e3 bltu	a5, s3, -0x14
0x8000110c: f2 f9 92 e3 bne	s3, a5, -0xdc
0x80001110: ff b7 62 e3 bltu	a4, s11, -0x1c
0x800010f4: 01 81 05 93 addi	a1, sp, 0x18
0x800010f8: 00 60 05 13 addi	a0, zero, 6
0x800010fc: 06 40 10 ef jal	0x1064
0x80002160: 00 25 15 13 slli	a0, a0, 2
0x80002164: 00 00 57 97 auipc	a5, 5
0x80002168: 4d c7 87 93 addi	a5, a5, 0x4dc
0x8000216c: 00 a7 87 b3 add	a5, a5, a0
0x80002170: 00 07 a7 83 lw	a5, 0(a5)
0x80002174: 00 05 85 13 mv	a0, a1
0x80002178: 00 07 80 67 jr	a5
0x80002180: a0 00 07 b7 lui	a5, 0xa0000
0x80002184: 04 c7 a7 03 lw	a4, 0x4c(a5)
0x80002188: 04 87 a7 83 lw	a5, 0x48(a5)
0x8000218c: 00 e5 22 23 sw	a4, 4(a0)
0x80002190: 00 f5 20 23 sw	a5, 0(a0)
0x80002194: 00 00 80 67 ret
0x80001100: 01 c1 27 83 lw	a5, 0x1c(sp)
0x80001104: 01 81 27 03 lw	a4, 0x18(sp)
0x80001108: ff 37 e6 e3 bltu	a5, s3, -0x14
0x8000110c: f2 f9 92 e3 bne	s3, a5, -0xdc
0x80001110: ff b7 62 e3 bltu	a4, s11, -0x1c
0x800010f4: 01 81 05 93 addi	a1, sp, 0x18
0x800010f8: 00 60 05 13 addi	a0, zero, 6
0x800010fc: 06 40 10 ef jal	0x1064
0x80002160: 00 25 15 13 slli	a0, a0, 2
0x80002164: 00 00 57 97 auipc	a5, 5
0x80002168: 4d c7 87 93 addi	a5, a5, 0x4dc
0x8000216c: 00 a7 87 b3 add	a5, a5, a0
0x80002170: 00 07 a7 83 lw	a5, 0(a5)
0x80002174: 00 05 85 13 mv	a0, a1
0x80002178: 00 07 80 67 jr	a5
0x80002180: a0 00 07 b7 lui	a5, 0xa0000
0x80002184: 04 c7 a7 03 lw	a4, 0x4c(a5)
0x80002188: 04 87 a7 83 lw	a5, 0x48(a5)
0x8000218c: 00 e5 22 23 sw	a4, 4(a0)
0x80002190: 00 f5 20 23 sw	a5, 0(a0)
0x80002194: 00 00 80 67 ret
0x80001100: 01 c1 27 83 lw	a5, 0x1c(sp)
0x80001104: 01 81 27 03 lw	a4, 0x18(sp)
0x80001108: ff 37 e6 e3 bltu	a5, s3, -0x14
0x8000110c: f2 f9 92 e3 bne	s3, a5, -0xdc
0x80001110: ff b7 62 e3 bltu	a4, s11, -0x1c
0x800010f4: 01 81 05 93 addi	a1, sp, 0x18
0x800010f8: 00 60 05 13 addi	a0, zero, 6
0x800010fc: 06 40 10 ef jal	0x1064
0x80002160: 00 25 15 13 slli	a0, a0, 2
0x80002164: 00 00 57 97 auipc	a5, 5
0x80002168: 4d c7 87 93 addi	a5, a5, 0x4dc
0x8000216c: 00 a7 87 b3 add	a5, a5, a0
0x80002170: 00 07 a7 83 lw	a5, 0(a5)
0x80002174: 00 05 85 13 mv	a0, a1
0x80002178: 00 07 80 67 jr	a5
0x80002180: a0 00 07 b7 lui	a5, 0xa0000
0x80002184: 04 c7 a7 03 lw	a4, 0x4c(a5)
0x80002188: 04 87 a7 83 lw	a5, 0x48(a5)
0x8000218c: 00 e5 22 23 sw	a4, 4(a0)
0x80002190: 00 f5 20 23 sw	a5, 0(a0)
0x80002194: 00 00 80 67 ret
0x80001100: 01 c1 27 83 lw	a5, 0x1c(sp)
0x80001104: 01 81 27 03 lw	a4, 0x18(sp)
0x80001108: ff 37 e6 e3 bltu	a5, s3, -0x14
0x8000110c: f2 f9 92 e3 bne	s3, a5, -0xdc
0x80001110: ff b7 62 e3 bltu	a4, s11, -0x1c
0x800010f4: 01 81 05 93 addi	a1, sp, 0x18
0x800010f8: 00 60 05 13 addi	a0, zero, 6
0x800010fc: 06 40 10 ef jal	0x1064
0x80002160: 00 25 15 13 slli	a0, a0, 2
0x80002164: 00 00 57 97 auipc	a5, 5
0x80002168: 4d c7 87 93 addi	a5, a5, 0x4dc
0x8000216c: 00 a7 87 b3 add	a5, a5, a0
0x80002170: 00 07 a7 83 lw	a5, 0(a5)
0x80002174: 00 05 85 13 mv	a0, a1
0x80002178: 00 07 80 67 jr	a5
0x80002180: a0 00 07 b7 lui	a5, 0xa0000
0x80002184: 04 c7 a7 03 lw	a4, 0x4c(a5)
0x80002188: 04 87 a7 83 lw	a5, 0x48(a5)
0x8000218c: 00 e5 22 23 sw	a4, 4(a0)
0x80002190: 00 f5 20 23 sw	a5, 0(a0)
0x80002194: 00 00 80 67 ret
0x80001100: 01 c1 27 83 lw	a5, 0x1c(sp)
0x80001104: 01 81 27 03 lw	a4, 0x18(sp)
0x80001108: ff 37 e6 e3 bltu	a5, s3, -0x14
0x8000110c: f2 f9 92 e3 bne	s3, a5, -0xdc
0x80001110: ff b7 62 e3 bltu	a4, s11, -0x1c
0x800010f4: 01 81 05 93 addi	a1, sp, 0x18
0x800010f8: 00 60 05 13 addi	a0, zero, 6
0x800010fc: 06 40 10 ef jal	0x1064
0x80002160: 00 25 15 13 slli	a0, a0, 2
0x80002164: 00 00 57 97 auipc	a5, 5
0x80002168: 4d c7 87 93 addi	a5, a5, 0x4dc
0x8000216c: 00 a7 87 b3 add	a5, a5, a0
0x80002170: 00 07 a7 83 lw	a5, 0(a5)
0x80002174: 00 05 85 13 mv	a0, a1
0x80002178: 00 07 80 67 jr	a5
0x80002180: a0 00 07 b7 lui	a5, 0xa0000
0x80002184: 04 c7 a7 03 lw	a4, 0x4c(a5)
0x80002188: 04 87 a7 83 lw	a5, 0x48(a5)
0x8000218c: 00 e5 22 23 sw	a4, 4(a0)
0x80002190: 00 f5 20 23 sw	a5, 0(a0)
0x80002194: 00 00 80 67 ret
0x80001100: 01 c1 27 83 lw	a5, 0x1c(sp)
0x80001104: 01 81 27 03 lw	a4, 0x18(sp)
0x80001108: ff 37 e6 e3 bltu	a5, s3, -0x14
0x8000110c: f2 f9 92 e3 bne	s3, a5, -0xdc
0x80001110: ff b7 62 e3 bltu	a4, s11, -0x1c
0x800010f4: 01 81 05 93 addi	a1, sp, 0x18
0x800010f8: 00 60 05 13 addi	a0, zero, 6
0x800010fc: 06 40 10 ef jal	0x1064
0x80002160: 00 25 15 13 slli	a0, a0, 2
0x80002164: 00 00 57 97 auipc	a5, 5
0x80002168: 4d c7 87 93 addi	a5, a5, 0x4dc
0x8000216c: 00 a7 87 b3 add	a5, a5, a0
0x80002170: 00 07 a7 83 lw	a5, 0(a5)
0x80002174: 00 05 85 13 mv	a0, a1
0x80002178: 00 07 80 67 jr	a5
0x80002180: a0 00 07 b7 lui	a5, 0xa0000
0x80002184: 04 c7 a7 03 lw	a4, 0x4c(a5)
0x80002188: 04 87 a7 83 lw	a5, 0x48(a5)
0x8000218c: 00 e5 22 23 sw	a4, 4(a0)
0x80002190: 00 f5 20 23 sw	a5, 0(a0)
0x80002194: 00 00 80 67 ret
0x80001100: 01 c1 27 83 lw	a5, 0x1c(sp)
0x80001104: 01 81 27 03 lw	a4, 0x18(sp)
0x80001108: ff 37 e6 e3 bltu	a5, s3, -0x14
0x8000110c: f2 f9 92 e3 bne	s3, a5, -0xdc
0x80001110: ff b7 62 e3 bltu	a4, s11, -0x1c
0x800010f4: 01 81 05 93 addi	a1, sp, 0x18
0x800010f8: 00 60 05 13 addi	a0, zero, 6
0x800010fc: 06 40 10 ef jal	0x1064
0x80002160: 00 25 15 13 slli	a0, a0, 2
0x80002164: 00 00 57 97 auipc	a5, 5
0x80002168: 4d c7 87 93 addi	a5, a5, 0x4dc
0x8000216c: 00 a7 87 b3 add	a5, a5, a0
0x80002170: 00 07 a7 83 lw	a5, 0(a5)
0x80002174: 00 05 85 13 mv	a0, a1
0x80002178: 00 07 80 67 jr	a5
0x80002180: a0 00 07 b7 lui	a5, 0xa0000
0x80002184: 04 c7 a7 03 lw	a4, 0x4c(a5)
0x80002188: 04 87 a7 83 lw	a5, 0x48(a5)
0x8000218c: 00 e5 22 23 sw	a4, 4(a0)
0x80002190: 00 f5 20 23 sw	a5, 0(a0)
0x80002194: 00 00 80 67 ret
0x80001100: 01 c1 27 83 lw	a5, 0x1c(sp)
0x80001104: 01 81 27 03 lw	a4, 0x18(sp)
0x80001108: ff 37 e6 e3 bltu	a5, s3, -0x14
0x8000110c: f2 f9 92 e3 bne	s3, a5, -0xdc
0x80001110: ff b7 62 e3 bltu	a4, s11, -0x1c
0x800010f4: 01 81 05 93 addi	a1, sp, 0x18
0x800010f8: 00 60 05 13 addi	a0, zero, 6
0x800010fc: 06 40 10 ef jal	0x1064
0x80002160: 00 25 15 13 slli	a0, a0, 2
0x80002164: 00 00 57 97 auipc	a5, 5
0x80002168: 4d c7 87 93 addi	a5, a5, 0x4dc
0x8000216c: 00 a7 87 b3 add	a5, a5, a0
0x80002170: 00 07 a7 83 lw	a5, 0(a5)
0x80002174: 00 05 85 13 mv	a0, a1
0x80002178: 00 07 80 67 jr	a5
0x80002180: a0 00 07 b7 lui	a5, 0xa0000
0x80002184: 04 c7 a7 03 lw	a4, 0x4c(a5)
0x80002188: 04 87 a7 83 lw	a5, 0x48(a5)
0x8000218c: 00 e5 22 23 sw	a4, 4(a0)
0x80002190: 00 f5 20 23 sw	a5, 0(a0)
0x80002194: 00 00 80 67 ret
0x80001100: 01 c1 27 83 lw	a5, 0x1c(sp)
0x80001104: 01 81 27 03 lw	a4, 0x18(sp)
0x80001108: ff 37 e6 e3 bltu	a5, s3, -0x14
0x8000110c: f2 f9 92 e3 bne	s3, a5, -0xdc
0x80001110: ff b7 62 e3 bltu	a4, s11, -0x1c
0x800010f4: 01 81 05 93 addi	a1, sp, 0x18
0x800010f8: 00 60 05 13 addi	a0, zero, 6
