
/home/meowth/ysyx/ysyx-workbench/am-kernels/tests/cpu-tests/build/add-riscv32e-npc.elf:     file format elf32-littleriscv


Disassembly of section .text:

80000000 <_start>:
80000000:	00000413          	li	s0,0
80000004:	00009117          	auipc	sp,0x9
80000008:	ffc10113          	addi	sp,sp,-4 # 80009000 <_end>
8000000c:	0ec000ef          	jal	ra,800000f8 <_trm_init>

80000010 <check>:
80000010:	00050463          	beqz	a0,80000018 <check+0x8>
80000014:	00008067          	ret
80000018:	ff410113          	addi	sp,sp,-12
8000001c:	00100513          	li	a0,1
80000020:	00112423          	sw	ra,8(sp)
80000024:	0cc000ef          	jal	ra,800000f0 <halt>

80000028 <main>:
80000028:	fe410113          	addi	sp,sp,-28
8000002c:	00000797          	auipc	a5,0x0
80000030:	12878793          	addi	a5,a5,296 # 80000154 <ans>
80000034:	00f12423          	sw	a5,8(sp)
80000038:	00000797          	auipc	a5,0x0
8000003c:	21c78793          	addi	a5,a5,540 # 80000254 <test_data>
80000040:	00112c23          	sw	ra,24(sp)
80000044:	00812a23          	sw	s0,20(sp)
80000048:	00912823          	sw	s1,16(sp)
8000004c:	00f12223          	sw	a5,4(sp)
80000050:	00012623          	sw	zero,12(sp)
80000054:	00412783          	lw	a5,4(sp)
80000058:	00812403          	lw	s0,8(sp)
8000005c:	00000497          	auipc	s1,0x0
80000060:	1f848493          	addi	s1,s1,504 # 80000254 <test_data>
80000064:	0007a783          	lw	a5,0(a5)
80000068:	00f12023          	sw	a5,0(sp)
8000006c:	00012783          	lw	a5,0(sp)
80000070:	0004a503          	lw	a0,0(s1)
80000074:	00042683          	lw	a3,0(s0)
80000078:	00448493          	addi	s1,s1,4
8000007c:	00a78533          	add	a0,a5,a0
80000080:	40d50533          	sub	a0,a0,a3
80000084:	00153513          	seqz	a0,a0
80000088:	f89ff0ef          	jal	ra,80000010 <check>
8000008c:	00000797          	auipc	a5,0x0
80000090:	1e878793          	addi	a5,a5,488 # 80000274 <_bss_start>
80000094:	00440413          	addi	s0,s0,4
80000098:	fc979ae3          	bne	a5,s1,8000006c <main+0x44>
8000009c:	00c12783          	lw	a5,12(sp)
800000a0:	00100513          	li	a0,1
800000a4:	00878413          	addi	s0,a5,8
800000a8:	00812623          	sw	s0,12(sp)
800000ac:	f65ff0ef          	jal	ra,80000010 <check>
800000b0:	00412783          	lw	a5,4(sp)
800000b4:	00478793          	addi	a5,a5,4
800000b8:	00f12223          	sw	a5,4(sp)
800000bc:	00812783          	lw	a5,8(sp)
800000c0:	02078793          	addi	a5,a5,32
800000c4:	00f12423          	sw	a5,8(sp)
800000c8:	04000793          	li	a5,64
800000cc:	f8f414e3          	bne	s0,a5,80000054 <main+0x2c>
800000d0:	00100513          	li	a0,1
800000d4:	f3dff0ef          	jal	ra,80000010 <check>
800000d8:	01812083          	lw	ra,24(sp)
800000dc:	01412403          	lw	s0,20(sp)
800000e0:	01012483          	lw	s1,16(sp)
800000e4:	00000513          	li	a0,0
800000e8:	01c10113          	addi	sp,sp,28
800000ec:	00008067          	ret

800000f0 <halt>:
800000f0:	00100073          	ebreak
800000f4:	0000006f          	j	800000f4 <halt+0x4>

800000f8 <_trm_init>:
800000f8:	ff410113          	addi	sp,sp,-12
800000fc:	00000517          	auipc	a0,0x0
80000100:	01850513          	addi	a0,a0,24 # 80000114 <_etext>
80000104:	00112423          	sw	ra,8(sp)
80000108:	f21ff0ef          	jal	ra,80000028 <main>
8000010c:	00100073          	ebreak
80000110:	0000006f          	j	80000110 <_trm_init+0x18>
