
/home/meowth/ysyx/ysyx-workbench/am-kernels/tests/cpu-tests/build/bubble-sort-riscv32-nemu.elf:     file format elf32-littleriscv


Disassembly of section .text:

80000000 <_start>:
80000000:	00000413          	li	s0,0
80000004:	00009117          	auipc	sp,0x9
80000008:	ffc10113          	addi	sp,sp,-4 # 80009000 <_end>
8000000c:	11c000ef          	jal	ra,80000128 <_trm_init>

80000010 <check>:
80000010:	00050463          	beqz	a0,80000018 <check+0x8>
80000014:	00008067          	ret
80000018:	ff010113          	addi	sp,sp,-16
8000001c:	00100513          	li	a0,1
80000020:	00112623          	sw	ra,12(sp)
80000024:	0f8000ef          	jal	ra,8000011c <halt>

80000028 <bubble_sort>:
80000028:	00000517          	auipc	a0,0x0
8000002c:	16050513          	addi	a0,a0,352 # 80000188 <a>
80000030:	00000617          	auipc	a2,0x0
80000034:	1a460613          	addi	a2,a2,420 # 800001d4 <a+0x4c>
80000038:	01300593          	li	a1,19
8000003c:	00050793          	mv	a5,a0
80000040:	02b05063          	blez	a1,80000060 <bubble_sort+0x38>
80000044:	0007a703          	lw	a4,0(a5)
80000048:	0047a683          	lw	a3,4(a5)
8000004c:	00e6d663          	bge	a3,a4,80000058 <bubble_sort+0x30>
80000050:	00d7a023          	sw	a3,0(a5)
80000054:	00e7a223          	sw	a4,4(a5)
80000058:	00478793          	addi	a5,a5,4
8000005c:	fec794e3          	bne	a5,a2,80000044 <bubble_sort+0x1c>
80000060:	fff58593          	addi	a1,a1,-1
80000064:	ffc60793          	addi	a5,a2,-4
80000068:	00a60663          	beq	a2,a0,80000074 <bubble_sort+0x4c>
8000006c:	00078613          	mv	a2,a5
80000070:	fcdff06f          	j	8000003c <bubble_sort+0x14>
80000074:	00008067          	ret

80000078 <main>:
80000078:	fe010113          	addi	sp,sp,-32
8000007c:	00912a23          	sw	s1,20(sp)
80000080:	00000497          	auipc	s1,0x0
80000084:	10848493          	addi	s1,s1,264 # 80000188 <a>
80000088:	00812c23          	sw	s0,24(sp)
8000008c:	01212823          	sw	s2,16(sp)
80000090:	01312623          	sw	s3,12(sp)
80000094:	00112e23          	sw	ra,28(sp)
80000098:	00048913          	mv	s2,s1
8000009c:	f8dff0ef          	jal	ra,80000028 <bubble_sort>
800000a0:	00000413          	li	s0,0
800000a4:	01400993          	li	s3,20
800000a8:	00092503          	lw	a0,0(s2)
800000ac:	00490913          	addi	s2,s2,4
800000b0:	40850533          	sub	a0,a0,s0
800000b4:	00153513          	seqz	a0,a0
800000b8:	00140413          	addi	s0,s0,1
800000bc:	f55ff0ef          	jal	ra,80000010 <check>
800000c0:	ff3414e3          	bne	s0,s3,800000a8 <main+0x30>
800000c4:	00100513          	li	a0,1
800000c8:	f49ff0ef          	jal	ra,80000010 <check>
800000cc:	00000413          	li	s0,0
800000d0:	f59ff0ef          	jal	ra,80000028 <bubble_sort>
800000d4:	01400913          	li	s2,20
800000d8:	0004a503          	lw	a0,0(s1)
800000dc:	00448493          	addi	s1,s1,4
800000e0:	40850533          	sub	a0,a0,s0
800000e4:	00153513          	seqz	a0,a0
800000e8:	00140413          	addi	s0,s0,1
800000ec:	f25ff0ef          	jal	ra,80000010 <check>
800000f0:	ff2414e3          	bne	s0,s2,800000d8 <main+0x60>
800000f4:	00100513          	li	a0,1
800000f8:	f19ff0ef          	jal	ra,80000010 <check>
800000fc:	01c12083          	lw	ra,28(sp)
80000100:	01812403          	lw	s0,24(sp)
80000104:	01412483          	lw	s1,20(sp)
80000108:	01012903          	lw	s2,16(sp)
8000010c:	00c12983          	lw	s3,12(sp)
80000110:	00000513          	li	a0,0
80000114:	02010113          	addi	sp,sp,32
80000118:	00008067          	ret

8000011c <halt>:
8000011c:	00050513          	mv	a0,a0
80000120:	00100073          	ebreak
80000124:	0000006f          	j	80000124 <halt+0x8>

80000128 <_trm_init>:
80000128:	ff010113          	addi	sp,sp,-16
8000012c:	00000517          	auipc	a0,0x0
80000130:	01c50513          	addi	a0,a0,28 # 80000148 <_etext>
80000134:	00112623          	sw	ra,12(sp)
80000138:	f41ff0ef          	jal	ra,80000078 <main>
8000013c:	00050513          	mv	a0,a0
80000140:	00100073          	ebreak
80000144:	0000006f          	j	80000144 <_trm_init+0x1c>
