
/home/meowth/ysyx/ysyx-workbench/am-kernels/tests/cpu-tests/build/fact-riscv32-nemu.elf:     file format elf32-littleriscv


Disassembly of section .text:

80000000 <_start>:
80000000:	00000413          	li	s0,0
80000004:	00009117          	auipc	sp,0x9
80000008:	ffc10113          	addi	sp,sp,-4 # 80009000 <_end>
8000000c:	0ec000ef          	jal	ra,800000f8 <_trm_init>

80000010 <check>:
80000010:	00050463          	beqz	a0,80000018 <check+0x8>
80000014:	00008067          	ret
80000018:	ff010113          	addi	sp,sp,-16
8000001c:	00100513          	li	a0,1
80000020:	00112623          	sw	ra,12(sp)
80000024:	0c8000ef          	jal	ra,800000ec <halt>

80000028 <main>:
80000028:	fe010113          	addi	sp,sp,-32
8000002c:	01212823          	sw	s2,16(sp)
80000030:	00000917          	auipc	s2,0x0
80000034:	12890913          	addi	s2,s2,296 # 80000158 <ans>
80000038:	00092503          	lw	a0,0(s2)
8000003c:	00100713          	li	a4,1
80000040:	00912a23          	sw	s1,20(sp)
80000044:	40e50533          	sub	a0,a0,a4
80000048:	00000493          	li	s1,0
8000004c:	01312623          	sw	s3,12(sp)
80000050:	01412423          	sw	s4,8(sp)
80000054:	00000997          	auipc	s3,0x0
80000058:	13898993          	addi	s3,s3,312 # 8000018c <f>
8000005c:	00d00a13          	li	s4,13
80000060:	00148493          	addi	s1,s1,1
80000064:	00153513          	seqz	a0,a0
80000068:	00812c23          	sw	s0,24(sp)
8000006c:	00112e23          	sw	ra,28(sp)
80000070:	00100413          	li	s0,1
80000074:	00e9a023          	sw	a4,0(s3)
80000078:	f99ff0ef          	jal	ra,80000010 <check>
8000007c:	05448263          	beq	s1,s4,800000c0 <main+0x98>
80000080:	06848263          	beq	s1,s0,800000e4 <main+0xbc>
80000084:	00048793          	mv	a5,s1
80000088:	00100713          	li	a4,1
8000008c:	00078693          	mv	a3,a5
80000090:	fff78793          	addi	a5,a5,-1
80000094:	02d70733          	mul	a4,a4,a3
80000098:	fe879ae3          	bne	a5,s0,8000008c <main+0x64>
8000009c:	00492503          	lw	a0,4(s2)
800000a0:	00148493          	addi	s1,s1,1
800000a4:	00498993          	addi	s3,s3,4
800000a8:	40e50533          	sub	a0,a0,a4
800000ac:	00153513          	seqz	a0,a0
800000b0:	00490913          	addi	s2,s2,4
800000b4:	00e9a023          	sw	a4,0(s3)
800000b8:	f59ff0ef          	jal	ra,80000010 <check>
800000bc:	fd4492e3          	bne	s1,s4,80000080 <main+0x58>
800000c0:	01c12083          	lw	ra,28(sp)
800000c4:	01812403          	lw	s0,24(sp)
800000c8:	01412483          	lw	s1,20(sp)
800000cc:	01012903          	lw	s2,16(sp)
800000d0:	00c12983          	lw	s3,12(sp)
800000d4:	00812a03          	lw	s4,8(sp)
800000d8:	00000513          	li	a0,0
800000dc:	02010113          	addi	sp,sp,32
800000e0:	00008067          	ret
800000e4:	00100713          	li	a4,1
800000e8:	fb5ff06f          	j	8000009c <main+0x74>

800000ec <halt>:
800000ec:	00050513          	mv	a0,a0
800000f0:	00100073          	ebreak
800000f4:	0000006f          	j	800000f4 <halt+0x8>

800000f8 <_trm_init>:
800000f8:	ff010113          	addi	sp,sp,-16
800000fc:	00000517          	auipc	a0,0x0
80000100:	01c50513          	addi	a0,a0,28 # 80000118 <_etext>
80000104:	00112623          	sw	ra,12(sp)
80000108:	f21ff0ef          	jal	ra,80000028 <main>
8000010c:	00050513          	mv	a0,a0
80000110:	00100073          	ebreak
80000114:	0000006f          	j	80000114 <_trm_init+0x1c>
