
/home/meowth/ysyx/ysyx-workbench/am-kernels/tests/cpu-tests/build/fact-riscv32e-npc.elf:     file format elf32-littleriscv


Disassembly of section .text:

80000000 <_start>:
80000000:	00000413          	li	s0,0
80000004:	00009117          	auipc	sp,0x9
80000008:	ffc10113          	addi	sp,sp,-4 # 80009000 <_end>
8000000c:	0d0000ef          	jal	ra,800000dc <_trm_init>

80000010 <check>:
80000010:	00050463          	beqz	a0,80000018 <check+0x8>
80000014:	00008067          	ret
80000018:	ff410113          	addi	sp,sp,-12
8000001c:	00100513          	li	a0,1
80000020:	00112423          	sw	ra,8(sp)
80000024:	0b0000ef          	jal	ra,800000d4 <halt>

80000028 <main>:
80000028:	fec10113          	addi	sp,sp,-20
8000002c:	00000797          	auipc	a5,0x0
80000030:	16478793          	addi	a5,a5,356 # 80000190 <f>
80000034:	00112823          	sw	ra,16(sp)
80000038:	00812623          	sw	s0,12(sp)
8000003c:	00912423          	sw	s1,8(sp)
80000040:	00f12223          	sw	a5,4(sp)
80000044:	00012023          	sw	zero,0(sp)
80000048:	00100513          	li	a0,1
8000004c:	00012703          	lw	a4,0(sp)
80000050:	00000697          	auipc	a3,0x0
80000054:	10c68693          	addi	a3,a3,268 # 8000015c <ans>
80000058:	00271793          	slli	a5,a4,0x2
8000005c:	00f687b3          	add	a5,a3,a5
80000060:	0007a783          	lw	a5,0(a5)
80000064:	00170413          	addi	s0,a4,1
80000068:	00412703          	lw	a4,4(sp)
8000006c:	00812023          	sw	s0,0(sp)
80000070:	00a72023          	sw	a0,0(a4)
80000074:	40a78533          	sub	a0,a5,a0
80000078:	00153513          	seqz	a0,a0
8000007c:	f95ff0ef          	jal	ra,80000010 <check>
80000080:	00d00793          	li	a5,13
80000084:	02f40c63          	beq	s0,a5,800000bc <main+0x94>
80000088:	00012483          	lw	s1,0(sp)
8000008c:	00100793          	li	a5,1
80000090:	00100513          	li	a0,1
80000094:	00f48c63          	beq	s1,a5,800000ac <main+0x84>
80000098:	00100413          	li	s0,1
8000009c:	00048593          	mv	a1,s1
800000a0:	fff48493          	addi	s1,s1,-1
800000a4:	054000ef          	jal	ra,800000f8 <__mulsi3>
800000a8:	fe849ae3          	bne	s1,s0,8000009c <main+0x74>
800000ac:	00412783          	lw	a5,4(sp)
800000b0:	00478793          	addi	a5,a5,4
800000b4:	00f12223          	sw	a5,4(sp)
800000b8:	f95ff06f          	j	8000004c <main+0x24>
800000bc:	01012083          	lw	ra,16(sp)
800000c0:	00c12403          	lw	s0,12(sp)
800000c4:	00812483          	lw	s1,8(sp)
800000c8:	00000513          	li	a0,0
800000cc:	01410113          	addi	sp,sp,20
800000d0:	00008067          	ret

800000d4 <halt>:
800000d4:	00100073          	ebreak
800000d8:	0000006f          	j	800000d8 <halt+0x4>

800000dc <_trm_init>:
800000dc:	ff410113          	addi	sp,sp,-12
800000e0:	00000517          	auipc	a0,0x0
800000e4:	03c50513          	addi	a0,a0,60 # 8000011c <_etext>
800000e8:	00112423          	sw	ra,8(sp)
800000ec:	f3dff0ef          	jal	ra,80000028 <main>
800000f0:	00100073          	ebreak
800000f4:	0000006f          	j	800000f4 <_trm_init+0x18>

800000f8 <__mulsi3>:
800000f8:	00050613          	mv	a2,a0
800000fc:	00000513          	li	a0,0
80000100:	0015f693          	andi	a3,a1,1
80000104:	00068463          	beqz	a3,8000010c <__mulsi3+0x14>
80000108:	00c50533          	add	a0,a0,a2
8000010c:	0015d593          	srli	a1,a1,0x1
80000110:	00161613          	slli	a2,a2,0x1
80000114:	fe0596e3          	bnez	a1,80000100 <__mulsi3+0x8>
80000118:	00008067          	ret
