
/home/meowth/ysyx/ysyx-workbench/am-kernels/tests/cpu-tests/build/if-else-riscv32-nemu.elf:     file format elf32-littleriscv


Disassembly of section .text:

80000000 <_start>:
80000000:	00000413          	li	s0,0
80000004:	00009117          	auipc	sp,0x9
80000008:	ffc10113          	addi	sp,sp,-4 # 80009000 <_end>
8000000c:	0ec000ef          	jal	ra,800000f8 <_trm_init>

80000010 <check>:
80000010:	00050463          	beqz	a0,80000018 <check+0x8>
80000014:	00008067          	ret
80000018:	ff010113          	addi	sp,sp,-16
8000001c:	00100513          	li	a0,1
80000020:	00112623          	sw	ra,12(sp)
80000024:	0c8000ef          	jal	ra,800000ec <halt>

80000028 <main>:
80000028:	fe010113          	addi	sp,sp,-32
8000002c:	00812c23          	sw	s0,24(sp)
80000030:	00912a23          	sw	s1,20(sp)
80000034:	01212823          	sw	s2,16(sp)
80000038:	01312623          	sw	s3,12(sp)
8000003c:	01412423          	sw	s4,8(sp)
80000040:	01512223          	sw	s5,4(sp)
80000044:	01612023          	sw	s6,0(sp)
80000048:	00112e23          	sw	ra,28(sp)
8000004c:	00000417          	auipc	s0,0x0
80000050:	14440413          	addi	s0,s0,324 # 80000190 <test_data>
80000054:	00000497          	auipc	s1,0x0
80000058:	10448493          	addi	s1,s1,260 # 80000158 <ans>
8000005c:	00000997          	auipc	s3,0x0
80000060:	16c98993          	addi	s3,s3,364 # 800001c8 <_bss_start>
80000064:	1f400913          	li	s2,500
80000068:	12c00a93          	li	s5,300
8000006c:	06400b13          	li	s6,100
80000070:	03200a13          	li	s4,50
80000074:	00042783          	lw	a5,0(s0)
80000078:	09600713          	li	a4,150
8000007c:	00440413          	addi	s0,s0,4
80000080:	02f94063          	blt	s2,a5,800000a0 <main+0x78>
80000084:	00fa2733          	slt	a4,s4,a5
80000088:	40e006b3          	neg	a3,a4
8000008c:	06400713          	li	a4,100
80000090:	00fac863          	blt	s5,a5,800000a0 <main+0x78>
80000094:	04b00713          	li	a4,75
80000098:	00fb4463          	blt	s6,a5,800000a0 <main+0x78>
8000009c:	0326f713          	andi	a4,a3,50
800000a0:	0004a503          	lw	a0,0(s1)
800000a4:	00448493          	addi	s1,s1,4
800000a8:	40e50533          	sub	a0,a0,a4
800000ac:	00153513          	seqz	a0,a0
800000b0:	f61ff0ef          	jal	ra,80000010 <check>
800000b4:	fd3410e3          	bne	s0,s3,80000074 <main+0x4c>
800000b8:	00100513          	li	a0,1
800000bc:	f55ff0ef          	jal	ra,80000010 <check>
800000c0:	01c12083          	lw	ra,28(sp)
800000c4:	01812403          	lw	s0,24(sp)
800000c8:	01412483          	lw	s1,20(sp)
800000cc:	01012903          	lw	s2,16(sp)
800000d0:	00c12983          	lw	s3,12(sp)
800000d4:	00812a03          	lw	s4,8(sp)
800000d8:	00412a83          	lw	s5,4(sp)
800000dc:	00012b03          	lw	s6,0(sp)
800000e0:	00000513          	li	a0,0
800000e4:	02010113          	addi	sp,sp,32
800000e8:	00008067          	ret

800000ec <halt>:
800000ec:	00050513          	mv	a0,a0
800000f0:	00100073          	ebreak
800000f4:	0000006f          	j	800000f4 <halt+0x8>

800000f8 <_trm_init>:
800000f8:	ff010113          	addi	sp,sp,-16
800000fc:	00000517          	auipc	a0,0x0
80000100:	01c50513          	addi	a0,a0,28 # 80000118 <_etext>
80000104:	00112623          	sw	ra,12(sp)
80000108:	f21ff0ef          	jal	ra,80000028 <main>
8000010c:	00050513          	mv	a0,a0
80000110:	00100073          	ebreak
80000114:	0000006f          	j	80000114 <_trm_init+0x1c>
