
/home/meowth/ysyx/ysyx-workbench/am-kernels/tests/cpu-tests/build/max-riscv32-nemu.elf:     file format elf32-littleriscv


Disassembly of section .text:

80000000 <_start>:
80000000:	00000413          	li	s0,0
80000004:	00009117          	auipc	sp,0x9
80000008:	ffc10113          	addi	sp,sp,-4 # 80009000 <_end>
8000000c:	100000ef          	jal	ra,8000010c <_trm_init>

80000010 <check>:
80000010:	00050463          	beqz	a0,80000018 <check+0x8>
80000014:	00008067          	ret
80000018:	ff010113          	addi	sp,sp,-16
8000001c:	00100513          	li	a0,1
80000020:	00112623          	sw	ra,12(sp)
80000024:	0dc000ef          	jal	ra,80000100 <halt>

80000028 <main>:
80000028:	fd010113          	addi	sp,sp,-48
8000002c:	01712623          	sw	s7,12(sp)
80000030:	00000b97          	auipc	s7,0x0
80000034:	23cb8b93          	addi	s7,s7,572 # 8000026c <test_data>
80000038:	01312e23          	sw	s3,28(sp)
8000003c:	01412c23          	sw	s4,24(sp)
80000040:	01512a23          	sw	s5,20(sp)
80000044:	01612823          	sw	s6,16(sp)
80000048:	01812423          	sw	s8,8(sp)
8000004c:	02112623          	sw	ra,44(sp)
80000050:	02812423          	sw	s0,40(sp)
80000054:	02912223          	sw	s1,36(sp)
80000058:	03212023          	sw	s2,32(sp)
8000005c:	00000b17          	auipc	s6,0x0
80000060:	110b0b13          	addi	s6,s6,272 # 8000016c <ans>
80000064:	000b8a93          	mv	s5,s7
80000068:	00000a13          	li	s4,0
8000006c:	00000997          	auipc	s3,0x0
80000070:	22098993          	addi	s3,s3,544 # 8000028c <_bss_start>
80000074:	04000c13          	li	s8,64
80000078:	000aa903          	lw	s2,0(s5)
8000007c:	000b0493          	mv	s1,s6
80000080:	000b8413          	mv	s0,s7
80000084:	00042503          	lw	a0,0(s0)
80000088:	00440413          	addi	s0,s0,4
8000008c:	01255463          	bge	a0,s2,80000094 <main+0x6c>
80000090:	00090513          	mv	a0,s2
80000094:	0004a783          	lw	a5,0(s1)
80000098:	00448493          	addi	s1,s1,4
8000009c:	40f50533          	sub	a0,a0,a5
800000a0:	00153513          	seqz	a0,a0
800000a4:	f6dff0ef          	jal	ra,80000010 <check>
800000a8:	fc899ee3          	bne	s3,s0,80000084 <main+0x5c>
800000ac:	00100513          	li	a0,1
800000b0:	008a0a13          	addi	s4,s4,8
800000b4:	f5dff0ef          	jal	ra,80000010 <check>
800000b8:	004a8a93          	addi	s5,s5,4
800000bc:	020b0b13          	addi	s6,s6,32
800000c0:	fb8a1ce3          	bne	s4,s8,80000078 <main+0x50>
800000c4:	00100513          	li	a0,1
800000c8:	f49ff0ef          	jal	ra,80000010 <check>
800000cc:	02c12083          	lw	ra,44(sp)
800000d0:	02812403          	lw	s0,40(sp)
800000d4:	02412483          	lw	s1,36(sp)
800000d8:	02012903          	lw	s2,32(sp)
800000dc:	01c12983          	lw	s3,28(sp)
800000e0:	01812a03          	lw	s4,24(sp)
800000e4:	01412a83          	lw	s5,20(sp)
800000e8:	01012b03          	lw	s6,16(sp)
800000ec:	00c12b83          	lw	s7,12(sp)
800000f0:	00812c03          	lw	s8,8(sp)
800000f4:	00000513          	li	a0,0
800000f8:	03010113          	addi	sp,sp,48
800000fc:	00008067          	ret

80000100 <halt>:
80000100:	00050513          	mv	a0,a0
80000104:	00100073          	ebreak
80000108:	0000006f          	j	80000108 <halt+0x8>

8000010c <_trm_init>:
8000010c:	ff010113          	addi	sp,sp,-16
80000110:	00000517          	auipc	a0,0x0
80000114:	01c50513          	addi	a0,a0,28 # 8000012c <_etext>
80000118:	00112623          	sw	ra,12(sp)
8000011c:	f0dff0ef          	jal	ra,80000028 <main>
80000120:	00050513          	mv	a0,a0
80000124:	00100073          	ebreak
80000128:	0000006f          	j	80000128 <_trm_init+0x1c>
