
/home/meowth/ysyx/ysyx-workbench/am-kernels/tests/cpu-tests/build/mersenne-riscv32-nemu.elf:     file format elf32-littleriscv


Disassembly of section .text:

80000000 <_start>:
80000000:	00000413          	li	s0,0
80000004:	00009117          	auipc	sp,0x9
80000008:	ffc10113          	addi	sp,sp,-4 # 80009000 <_end>
8000000c:	120000ef          	jal	ra,8000012c <_trm_init>

80000010 <check>:
80000010:	00050463          	beqz	a0,80000018 <check+0x8>
80000014:	00008067          	ret
80000018:	ff010113          	addi	sp,sp,-16
8000001c:	00100513          	li	a0,1
80000020:	00112623          	sw	ra,12(sp)
80000024:	0fc000ef          	jal	ra,80000120 <halt>

80000028 <main>:
80000028:	fe010113          	addi	sp,sp,-32
8000002c:	00112e23          	sw	ra,28(sp)
80000030:	00812c23          	sw	s0,24(sp)
80000034:	00912a23          	sw	s1,20(sp)
80000038:	01212823          	sw	s2,16(sp)
8000003c:	01312623          	sw	s3,12(sp)
80000040:	01412423          	sw	s4,8(sp)
80000044:	01512223          	sw	s5,4(sp)
80000048:	00b00793          	li	a5,11
8000004c:	3a100693          	li	a3,929
80000050:	00278713          	addi	a4,a5,2
80000054:	0ad78063          	beq	a5,a3,800000f4 <main+0xcc>
80000058:	02e6e733          	rem	a4,a3,a4
8000005c:	00678793          	addi	a5,a5,6
80000060:	08070a63          	beqz	a4,800000f4 <main+0xcc>
80000064:	02f78733          	mul	a4,a5,a5
80000068:	fee6d4e3          	bge	a3,a4,80000050 <main+0x28>
8000006c:	01600793          	li	a5,22
80000070:	3a100993          	li	s3,929
80000074:	fff78793          	addi	a5,a5,-1
80000078:	00199993          	slli	s3,s3,0x1
8000007c:	fe079ce3          	bnez	a5,80000074 <main+0x4c>
80000080:	74300493          	li	s1,1859
80000084:	00000913          	li	s2,0
80000088:	00100a93          	li	s5,1
8000008c:	00048a13          	mv	s4,s1
80000090:	00098413          	mv	s0,s3
80000094:	00100793          	li	a5,1
80000098:	02f795b3          	mulh	a1,a5,a5
8000009c:	00048613          	mv	a2,s1
800000a0:	00090693          	mv	a3,s2
800000a4:	02f78533          	mul	a0,a5,a5
800000a8:	3c8000ef          	jal	ra,80000470 <__moddi3>
800000ac:	00050793          	mv	a5,a0
800000b0:	00045463          	bgez	s0,800000b8 <main+0x90>
800000b4:	00151793          	slli	a5,a0,0x1
800000b8:	00141413          	slli	s0,s0,0x1
800000bc:	00f4d463          	bge	s1,a5,800000c4 <main+0x9c>
800000c0:	409787b3          	sub	a5,a5,s1
800000c4:	fc041ae3          	bnez	s0,80000098 <main+0x70>
800000c8:	74248713          	addi	a4,s1,1858
800000cc:	009734b3          	sltu	s1,a4,s1
800000d0:	01248933          	add	s2,s1,s2
800000d4:	00070493          	mv	s1,a4
800000d8:	fb579ae3          	bne	a5,s5,8000008c <main+0x64>
800000dc:	ffffd7b7          	lui	a5,0xffffd
800000e0:	d3178793          	addi	a5,a5,-719 # ffffcd31 <_end+0x7fff3d31>
800000e4:	00fa0533          	add	a0,s4,a5
800000e8:	00153513          	seqz	a0,a0
800000ec:	f25ff0ef          	jal	ra,80000010 <check>
800000f0:	0080006f          	j	800000f8 <main+0xd0>
800000f4:	00100413          	li	s0,1
800000f8:	01c12083          	lw	ra,28(sp)
800000fc:	00040513          	mv	a0,s0
80000100:	01812403          	lw	s0,24(sp)
80000104:	01412483          	lw	s1,20(sp)
80000108:	01012903          	lw	s2,16(sp)
8000010c:	00c12983          	lw	s3,12(sp)
80000110:	00812a03          	lw	s4,8(sp)
80000114:	00412a83          	lw	s5,4(sp)
80000118:	02010113          	addi	sp,sp,32
8000011c:	00008067          	ret

80000120 <halt>:
80000120:	00050513          	mv	a0,a0
80000124:	00100073          	ebreak
80000128:	0000006f          	j	80000128 <halt+0x8>

8000012c <_trm_init>:
8000012c:	ff010113          	addi	sp,sp,-16
80000130:	00000517          	auipc	a0,0x0
80000134:	4c850513          	addi	a0,a0,1224 # 800005f8 <_etext>
80000138:	00112623          	sw	ra,12(sp)
8000013c:	eedff0ef          	jal	ra,80000028 <main>
80000140:	00050513          	mv	a0,a0
80000144:	00100073          	ebreak
80000148:	0000006f          	j	80000148 <_trm_init+0x1c>

8000014c <__udivmoddi4>:
8000014c:	fe010113          	addi	sp,sp,-32
80000150:	01212823          	sw	s2,16(sp)
80000154:	01412423          	sw	s4,8(sp)
80000158:	01512223          	sw	s5,4(sp)
8000015c:	01612023          	sw	s6,0(sp)
80000160:	00112e23          	sw	ra,28(sp)
80000164:	00812c23          	sw	s0,24(sp)
80000168:	00912a23          	sw	s1,20(sp)
8000016c:	01312623          	sw	s3,12(sp)
80000170:	00068a93          	mv	s5,a3
80000174:	00050913          	mv	s2,a0
80000178:	00060b13          	mv	s6,a2
8000017c:	00070a13          	mv	s4,a4
80000180:	04059463          	bnez	a1,800001c8 <__udivmoddi4+0x7c>
80000184:	18069863          	bnez	a3,80000314 <__udivmoddi4+0x1c8>
80000188:	00070863          	beqz	a4,80000198 <__udivmoddi4+0x4c>
8000018c:	02c577b3          	remu	a5,a0,a2
80000190:	00072223          	sw	zero,4(a4)
80000194:	00f72023          	sw	a5,0(a4)
80000198:	03695533          	divu	a0,s2,s6
8000019c:	00000593          	li	a1,0
800001a0:	01c12083          	lw	ra,28(sp)
800001a4:	01812403          	lw	s0,24(sp)
800001a8:	01412483          	lw	s1,20(sp)
800001ac:	01012903          	lw	s2,16(sp)
800001b0:	00c12983          	lw	s3,12(sp)
800001b4:	00812a03          	lw	s4,8(sp)
800001b8:	00412a83          	lw	s5,4(sp)
800001bc:	00012b03          	lw	s6,0(sp)
800001c0:	02010113          	addi	sp,sp,32
800001c4:	00008067          	ret
800001c8:	00058993          	mv	s3,a1
800001cc:	00058413          	mv	s0,a1
800001d0:	0e061863          	bnez	a2,800002c0 <__udivmoddi4+0x174>
800001d4:	1a068263          	beqz	a3,80000378 <__udivmoddi4+0x22c>
800001d8:	20050463          	beqz	a0,800003e0 <__udivmoddi4+0x294>
800001dc:	fff68793          	addi	a5,a3,-1
800001e0:	00d7f733          	and	a4,a5,a3
800001e4:	22070c63          	beqz	a4,8000041c <__udivmoddi4+0x2d0>
800001e8:	00068513          	mv	a0,a3
800001ec:	300000ef          	jal	ra,800004ec <__clzsi2>
800001f0:	00050493          	mv	s1,a0
800001f4:	00098513          	mv	a0,s3
800001f8:	2f4000ef          	jal	ra,800004ec <__clzsi2>
800001fc:	40a48733          	sub	a4,s1,a0
80000200:	01e00793          	li	a5,30
80000204:	16e7ec63          	bltu	a5,a4,8000037c <__udivmoddi4+0x230>
80000208:	00170713          	addi	a4,a4,1
8000020c:	02000e93          	li	t4,32
80000210:	40ee8eb3          	sub	t4,t4,a4
80000214:	01d99633          	sll	a2,s3,t4
80000218:	00e956b3          	srl	a3,s2,a4
8000021c:	00e9d7b3          	srl	a5,s3,a4
80000220:	01d91eb3          	sll	t4,s2,t4
80000224:	00d66433          	or	s0,a2,a3
80000228:	00000493          	li	s1,0
8000022c:	00000313          	li	t1,0
80000230:	01fed693          	srli	a3,t4,0x1f
80000234:	00141813          	slli	a6,s0,0x1
80000238:	00d86833          	or	a6,a6,a3
8000023c:	01f45413          	srli	s0,s0,0x1f
80000240:	00179793          	slli	a5,a5,0x1
80000244:	0087e7b3          	or	a5,a5,s0
80000248:	410b0e33          	sub	t3,s6,a6
8000024c:	01cb36b3          	sltu	a3,s6,t3
80000250:	40fa88b3          	sub	a7,s5,a5
80000254:	40d888b3          	sub	a7,a7,a3
80000258:	001e3e13          	seqz	t3,t3
8000025c:	41c888b3          	sub	a7,a7,t3
80000260:	41f8de13          	srai	t3,a7,0x1f
80000264:	016e7433          	and	s0,t3,s6
80000268:	40880433          	sub	s0,a6,s0
8000026c:	015e7e33          	and	t3,t3,s5
80000270:	01f4d693          	srli	a3,s1,0x1f
80000274:	001e9e93          	slli	t4,t4,0x1
80000278:	00149493          	slli	s1,s1,0x1
8000027c:	00883833          	sltu	a6,a6,s0
80000280:	41c787b3          	sub	a5,a5,t3
80000284:	fff70713          	addi	a4,a4,-1
80000288:	0064e4b3          	or	s1,s1,t1
8000028c:	00deeeb3          	or	t4,t4,a3
80000290:	01f8d313          	srli	t1,a7,0x1f
80000294:	410787b3          	sub	a5,a5,a6
80000298:	f8071ce3          	bnez	a4,80000230 <__udivmoddi4+0xe4>
8000029c:	01f4d993          	srli	s3,s1,0x1f
800002a0:	001e9e93          	slli	t4,t4,0x1
800002a4:	00149493          	slli	s1,s1,0x1
800002a8:	0064e533          	or	a0,s1,t1
800002ac:	01d9e5b3          	or	a1,s3,t4
800002b0:	ee0a08e3          	beqz	s4,800001a0 <__udivmoddi4+0x54>
800002b4:	008a2023          	sw	s0,0(s4)
800002b8:	00fa2223          	sw	a5,4(s4)
800002bc:	ee5ff06f          	j	800001a0 <__udivmoddi4+0x54>
800002c0:	06068663          	beqz	a3,8000032c <__udivmoddi4+0x1e0>
800002c4:	00068513          	mv	a0,a3
800002c8:	224000ef          	jal	ra,800004ec <__clzsi2>
800002cc:	00050493          	mv	s1,a0
800002d0:	00098513          	mv	a0,s3
800002d4:	218000ef          	jal	ra,800004ec <__clzsi2>
800002d8:	40a48733          	sub	a4,s1,a0
800002dc:	01f00793          	li	a5,31
800002e0:	08e7ee63          	bltu	a5,a4,8000037c <__udivmoddi4+0x230>
800002e4:	00170713          	addi	a4,a4,1
800002e8:	02000793          	li	a5,32
800002ec:	00090e93          	mv	t4,s2
800002f0:	14f70863          	beq	a4,a5,80000440 <__udivmoddi4+0x2f4>
800002f4:	40e786b3          	sub	a3,a5,a4
800002f8:	00e95633          	srl	a2,s2,a4
800002fc:	00d995b3          	sll	a1,s3,a3
80000300:	00e9d7b3          	srl	a5,s3,a4
80000304:	00d91eb3          	sll	t4,s2,a3
80000308:	00c5e433          	or	s0,a1,a2
8000030c:	00000493          	li	s1,0
80000310:	f1dff06f          	j	8000022c <__udivmoddi4+0xe0>
80000314:	06070663          	beqz	a4,80000380 <__udivmoddi4+0x234>
80000318:	00aa2023          	sw	a0,0(s4)
8000031c:	00072223          	sw	zero,4(a4)
80000320:	00000513          	li	a0,0
80000324:	00000593          	li	a1,0
80000328:	e79ff06f          	j	800001a0 <__udivmoddi4+0x54>
8000032c:	fff60793          	addi	a5,a2,-1
80000330:	00c7f733          	and	a4,a5,a2
80000334:	04071c63          	bnez	a4,8000038c <__udivmoddi4+0x240>
80000338:	000a0863          	beqz	s4,80000348 <__udivmoddi4+0x1fc>
8000033c:	00a7f7b3          	and	a5,a5,a0
80000340:	00fa2023          	sw	a5,0(s4)
80000344:	000a2223          	sw	zero,4(s4)
80000348:	00100793          	li	a5,1
8000034c:	0cfb0263          	beq	s6,a5,80000410 <__udivmoddi4+0x2c4>
80000350:	000b0513          	mv	a0,s6
80000354:	230000ef          	jal	ra,80000584 <__ctzsi2>
80000358:	02000713          	li	a4,32
8000035c:	40a70733          	sub	a4,a4,a0
80000360:	00050793          	mv	a5,a0
80000364:	00e99733          	sll	a4,s3,a4
80000368:	00a95933          	srl	s2,s2,a0
8000036c:	01276533          	or	a0,a4,s2
80000370:	00f9d5b3          	srl	a1,s3,a5
80000374:	e2dff06f          	j	800001a0 <__udivmoddi4+0x54>
80000378:	00100073          	ebreak
8000037c:	080a1063          	bnez	s4,800003fc <__udivmoddi4+0x2b0>
80000380:	00000513          	li	a0,0
80000384:	00000593          	li	a1,0
80000388:	e19ff06f          	j	800001a0 <__udivmoddi4+0x54>
8000038c:	00060513          	mv	a0,a2
80000390:	00068493          	mv	s1,a3
80000394:	158000ef          	jal	ra,800004ec <__clzsi2>
80000398:	00050993          	mv	s3,a0
8000039c:	00040513          	mv	a0,s0
800003a0:	14c000ef          	jal	ra,800004ec <__clzsi2>
800003a4:	40a98533          	sub	a0,s3,a0
800003a8:	02150713          	addi	a4,a0,33
800003ac:	02000693          	li	a3,32
800003b0:	00090e93          	mv	t4,s2
800003b4:	00000793          	li	a5,0
800003b8:	e6d70ae3          	beq	a4,a3,8000022c <__udivmoddi4+0xe0>
800003bc:	01f00613          	li	a2,31
800003c0:	08e66663          	bltu	a2,a4,8000044c <__udivmoddi4+0x300>
800003c4:	40e686b3          	sub	a3,a3,a4
800003c8:	00e95633          	srl	a2,s2,a4
800003cc:	00d415b3          	sll	a1,s0,a3
800003d0:	00e457b3          	srl	a5,s0,a4
800003d4:	00d91eb3          	sll	t4,s2,a3
800003d8:	00c5e433          	or	s0,a1,a2
800003dc:	e51ff06f          	j	8000022c <__udivmoddi4+0xe0>
800003e0:	00070863          	beqz	a4,800003f0 <__udivmoddi4+0x2a4>
800003e4:	02d5f7b3          	remu	a5,a1,a3
800003e8:	00072023          	sw	zero,0(a4)
800003ec:	00f72223          	sw	a5,4(a4)
800003f0:	0359d533          	divu	a0,s3,s5
800003f4:	00000593          	li	a1,0
800003f8:	da9ff06f          	j	800001a0 <__udivmoddi4+0x54>
800003fc:	012a2023          	sw	s2,0(s4)
80000400:	013a2223          	sw	s3,4(s4)
80000404:	00000513          	li	a0,0
80000408:	00000593          	li	a1,0
8000040c:	d95ff06f          	j	800001a0 <__udivmoddi4+0x54>
80000410:	00090513          	mv	a0,s2
80000414:	00098593          	mv	a1,s3
80000418:	d89ff06f          	j	800001a0 <__udivmoddi4+0x54>
8000041c:	000a0863          	beqz	s4,8000042c <__udivmoddi4+0x2e0>
80000420:	00b7f7b3          	and	a5,a5,a1
80000424:	00aa2023          	sw	a0,0(s4)
80000428:	00fa2223          	sw	a5,4(s4)
8000042c:	000a8513          	mv	a0,s5
80000430:	154000ef          	jal	ra,80000584 <__ctzsi2>
80000434:	00a9d533          	srl	a0,s3,a0
80000438:	00000593          	li	a1,0
8000043c:	d65ff06f          	j	800001a0 <__udivmoddi4+0x54>
80000440:	00000793          	li	a5,0
80000444:	00000493          	li	s1,0
80000448:	de5ff06f          	j	8000022c <__udivmoddi4+0xe0>
8000044c:	04000693          	li	a3,64
80000450:	40e686b3          	sub	a3,a3,a4
80000454:	00150513          	addi	a0,a0,1
80000458:	00d914b3          	sll	s1,s2,a3
8000045c:	00a95eb3          	srl	t4,s2,a0
80000460:	00d416b3          	sll	a3,s0,a3
80000464:	01d6eeb3          	or	t4,a3,t4
80000468:	00a45433          	srl	s0,s0,a0
8000046c:	dc1ff06f          	j	8000022c <__udivmoddi4+0xe0>

80000470 <__moddi3>:
80000470:	fe010113          	addi	sp,sp,-32
80000474:	00812c23          	sw	s0,24(sp)
80000478:	41f6d893          	srai	a7,a3,0x1f
8000047c:	41f5d413          	srai	s0,a1,0x1f
80000480:	01164733          	xor	a4,a2,a7
80000484:	008547b3          	xor	a5,a0,s0
80000488:	41170633          	sub	a2,a4,a7
8000048c:	40878533          	sub	a0,a5,s0
80000490:	0116c6b3          	xor	a3,a3,a7
80000494:	0085c5b3          	xor	a1,a1,s0
80000498:	00c73833          	sltu	a6,a4,a2
8000049c:	00a7b7b3          	sltu	a5,a5,a0
800004a0:	411686b3          	sub	a3,a3,a7
800004a4:	408585b3          	sub	a1,a1,s0
800004a8:	00810713          	addi	a4,sp,8
800004ac:	40f585b3          	sub	a1,a1,a5
800004b0:	410686b3          	sub	a3,a3,a6
800004b4:	00112e23          	sw	ra,28(sp)
800004b8:	c95ff0ef          	jal	ra,8000014c <__udivmoddi4>
800004bc:	00812783          	lw	a5,8(sp)
800004c0:	00c12583          	lw	a1,12(sp)
800004c4:	01c12083          	lw	ra,28(sp)
800004c8:	0087c7b3          	xor	a5,a5,s0
800004cc:	0085c5b3          	xor	a1,a1,s0
800004d0:	40878533          	sub	a0,a5,s0
800004d4:	408585b3          	sub	a1,a1,s0
800004d8:	01812403          	lw	s0,24(sp)
800004dc:	00a7b7b3          	sltu	a5,a5,a0
800004e0:	40f585b3          	sub	a1,a1,a5
800004e4:	02010113          	addi	sp,sp,32
800004e8:	00008067          	ret

800004ec <__clzsi2>:
800004ec:	ffff05b7          	lui	a1,0xffff0
800004f0:	00b575b3          	and	a1,a0,a1
800004f4:	0015b593          	seqz	a1,a1
800004f8:	00459593          	slli	a1,a1,0x4
800004fc:	01000793          	li	a5,16
80000500:	40b787b3          	sub	a5,a5,a1
80000504:	00010737          	lui	a4,0x10
80000508:	00f557b3          	srl	a5,a0,a5
8000050c:	f0070713          	addi	a4,a4,-256 # ff00 <_entry_offset+0xff00>
80000510:	00e7f733          	and	a4,a5,a4
80000514:	00173713          	seqz	a4,a4
80000518:	00371713          	slli	a4,a4,0x3
8000051c:	00800693          	li	a3,8
80000520:	40e686b3          	sub	a3,a3,a4
80000524:	00d7d7b3          	srl	a5,a5,a3
80000528:	0f07f613          	andi	a2,a5,240
8000052c:	00163613          	seqz	a2,a2
80000530:	00261613          	slli	a2,a2,0x2
80000534:	00400693          	li	a3,4
80000538:	40c686b3          	sub	a3,a3,a2
8000053c:	00d7d7b3          	srl	a5,a5,a3
80000540:	00c7f693          	andi	a3,a5,12
80000544:	0016b693          	seqz	a3,a3
80000548:	00169693          	slli	a3,a3,0x1
8000054c:	00200813          	li	a6,2
80000550:	40d80533          	sub	a0,a6,a3
80000554:	00a7d7b3          	srl	a5,a5,a0
80000558:	0017d513          	srli	a0,a5,0x1
8000055c:	00154513          	xori	a0,a0,1
80000560:	00b70733          	add	a4,a4,a1
80000564:	00157513          	andi	a0,a0,1
80000568:	00e60633          	add	a2,a2,a4
8000056c:	40f80833          	sub	a6,a6,a5
80000570:	40a00733          	neg	a4,a0
80000574:	01077733          	and	a4,a4,a6
80000578:	00c68533          	add	a0,a3,a2
8000057c:	00a70533          	add	a0,a4,a0
80000580:	00008067          	ret

80000584 <__ctzsi2>:
80000584:	01051593          	slli	a1,a0,0x10
80000588:	0105d593          	srli	a1,a1,0x10
8000058c:	0015b593          	seqz	a1,a1
80000590:	00459593          	slli	a1,a1,0x4
80000594:	00b557b3          	srl	a5,a0,a1
80000598:	0ff7f613          	zext.b	a2,a5
8000059c:	00163613          	seqz	a2,a2
800005a0:	00361613          	slli	a2,a2,0x3
800005a4:	00c7d7b3          	srl	a5,a5,a2
800005a8:	00f7f693          	andi	a3,a5,15
800005ac:	0016b693          	seqz	a3,a3
800005b0:	00269693          	slli	a3,a3,0x2
800005b4:	00d7d7b3          	srl	a5,a5,a3
800005b8:	0037f713          	andi	a4,a5,3
800005bc:	00173713          	seqz	a4,a4
800005c0:	00171713          	slli	a4,a4,0x1
800005c4:	00e7d7b3          	srl	a5,a5,a4
800005c8:	0017d513          	srli	a0,a5,0x1
800005cc:	00b60633          	add	a2,a2,a1
800005d0:	0017f793          	andi	a5,a5,1
800005d4:	00157593          	andi	a1,a0,1
800005d8:	00200513          	li	a0,2
800005dc:	00c686b3          	add	a3,a3,a2
800005e0:	40b50533          	sub	a0,a0,a1
800005e4:	fff78793          	addi	a5,a5,-1
800005e8:	00f57533          	and	a0,a0,a5
800005ec:	00d70733          	add	a4,a4,a3
800005f0:	00e50533          	add	a0,a0,a4
800005f4:	00008067          	ret
