
/home/meowth/ysyx/ysyx-workbench/am-kernels/tests/cpu-tests/build/mersenne-riscv32e-npc.elf:     file format elf32-littleriscv


Disassembly of section .text:

80000000 <_start>:
80000000:	00000413          	li	s0,0
80000004:	00009117          	auipc	sp,0x9
80000008:	ffc10113          	addi	sp,sp,-4 # 80009000 <_end>
8000000c:	12c000ef          	jal	ra,80000138 <_trm_init>

80000010 <check>:
80000010:	00050463          	beqz	a0,80000018 <check+0x8>
80000014:	00008067          	ret
80000018:	ff410113          	addi	sp,sp,-12
8000001c:	00100513          	li	a0,1
80000020:	00112423          	sw	ra,8(sp)
80000024:	10c000ef          	jal	ra,80000130 <halt>

80000028 <main>:
80000028:	fe810113          	addi	sp,sp,-24
8000002c:	00812823          	sw	s0,16(sp)
80000030:	00912623          	sw	s1,12(sp)
80000034:	00112a23          	sw	ra,20(sp)
80000038:	00b00413          	li	s0,11
8000003c:	3a100493          	li	s1,929
80000040:	00240593          	addi	a1,s0,2
80000044:	3a100513          	li	a0,929
80000048:	0c940663          	beq	s0,s1,80000114 <main+0xec>
8000004c:	18c000ef          	jal	ra,800001d8 <__modsi3>
80000050:	00640413          	addi	s0,s0,6
80000054:	00050793          	mv	a5,a0
80000058:	00040593          	mv	a1,s0
8000005c:	00040513          	mv	a0,s0
80000060:	0a078a63          	beqz	a5,80000114 <main+0xec>
80000064:	1a4000ef          	jal	ra,80000208 <__mulsi3>
80000068:	fca4dce3          	bge	s1,a0,80000040 <main+0x18>
8000006c:	3a100713          	li	a4,929
80000070:	01600793          	li	a5,22
80000074:	00e12223          	sw	a4,4(sp)
80000078:	00412703          	lw	a4,4(sp)
8000007c:	fff78793          	addi	a5,a5,-1
80000080:	00171713          	slli	a4,a4,0x1
80000084:	00e12223          	sw	a4,4(sp)
80000088:	fe0798e3          	bnez	a5,80000078 <main+0x50>
8000008c:	74300413          	li	s0,1859
80000090:	00012023          	sw	zero,0(sp)
80000094:	00412483          	lw	s1,4(sp)
80000098:	00812423          	sw	s0,8(sp)
8000009c:	00100613          	li	a2,1
800000a0:	41f65693          	srai	a3,a2,0x1f
800000a4:	00060513          	mv	a0,a2
800000a8:	00068593          	mv	a1,a3
800000ac:	180000ef          	jal	ra,8000022c <__muldi3>
800000b0:	00012683          	lw	a3,0(sp)
800000b4:	00040613          	mv	a2,s0
800000b8:	634000ef          	jal	ra,800006ec <__moddi3>
800000bc:	00050613          	mv	a2,a0
800000c0:	0004d463          	bgez	s1,800000c8 <main+0xa0>
800000c4:	00151613          	slli	a2,a0,0x1
800000c8:	00149493          	slli	s1,s1,0x1
800000cc:	00c45463          	bge	s0,a2,800000d4 <main+0xac>
800000d0:	40860633          	sub	a2,a2,s0
800000d4:	fc0496e3          	bnez	s1,800000a0 <main+0x78>
800000d8:	00012783          	lw	a5,0(sp)
800000dc:	74240713          	addi	a4,s0,1858
800000e0:	00873433          	sltu	s0,a4,s0
800000e4:	00f407b3          	add	a5,s0,a5
800000e8:	00f12023          	sw	a5,0(sp)
800000ec:	00100793          	li	a5,1
800000f0:	00070413          	mv	s0,a4
800000f4:	faf610e3          	bne	a2,a5,80000094 <main+0x6c>
800000f8:	00812783          	lw	a5,8(sp)
800000fc:	ffffd737          	lui	a4,0xffffd
80000100:	d3170713          	addi	a4,a4,-719 # ffffcd31 <_end+0x7fff3d31>
80000104:	00e78533          	add	a0,a5,a4
80000108:	00153513          	seqz	a0,a0
8000010c:	f05ff0ef          	jal	ra,80000010 <check>
80000110:	0080006f          	j	80000118 <main+0xf0>
80000114:	00100493          	li	s1,1
80000118:	01412083          	lw	ra,20(sp)
8000011c:	01012403          	lw	s0,16(sp)
80000120:	00048513          	mv	a0,s1
80000124:	00c12483          	lw	s1,12(sp)
80000128:	01810113          	addi	sp,sp,24
8000012c:	00008067          	ret

80000130 <halt>:
80000130:	00100073          	ebreak
80000134:	0000006f          	j	80000134 <halt+0x4>

80000138 <_trm_init>:
80000138:	ff410113          	addi	sp,sp,-12
8000013c:	00000517          	auipc	a0,0x0
80000140:	74850513          	addi	a0,a0,1864 # 80000884 <_etext>
80000144:	00112423          	sw	ra,8(sp)
80000148:	ee1ff0ef          	jal	ra,80000028 <main>
8000014c:	00100073          	ebreak
80000150:	0000006f          	j	80000150 <_trm_init+0x18>

80000154 <__divsi3>:
80000154:	06054063          	bltz	a0,800001b4 <__umodsi3+0x10>
80000158:	0605c663          	bltz	a1,800001c4 <__umodsi3+0x20>

8000015c <__hidden___udivsi3>:
8000015c:	00058613          	mv	a2,a1
80000160:	00050593          	mv	a1,a0
80000164:	fff00513          	li	a0,-1
80000168:	02060c63          	beqz	a2,800001a0 <__hidden___udivsi3+0x44>
8000016c:	00100693          	li	a3,1
80000170:	00b67a63          	bgeu	a2,a1,80000184 <__hidden___udivsi3+0x28>
80000174:	00c05863          	blez	a2,80000184 <__hidden___udivsi3+0x28>
80000178:	00161613          	slli	a2,a2,0x1
8000017c:	00169693          	slli	a3,a3,0x1
80000180:	feb66ae3          	bltu	a2,a1,80000174 <__hidden___udivsi3+0x18>
80000184:	00000513          	li	a0,0
80000188:	00c5e663          	bltu	a1,a2,80000194 <__hidden___udivsi3+0x38>
8000018c:	40c585b3          	sub	a1,a1,a2
80000190:	00d56533          	or	a0,a0,a3
80000194:	0016d693          	srli	a3,a3,0x1
80000198:	00165613          	srli	a2,a2,0x1
8000019c:	fe0696e3          	bnez	a3,80000188 <__hidden___udivsi3+0x2c>
800001a0:	00008067          	ret

800001a4 <__umodsi3>:
800001a4:	00008293          	mv	t0,ra
800001a8:	fb5ff0ef          	jal	ra,8000015c <__hidden___udivsi3>
800001ac:	00058513          	mv	a0,a1
800001b0:	00028067          	jr	t0
800001b4:	40a00533          	neg	a0,a0
800001b8:	00b04863          	bgtz	a1,800001c8 <__umodsi3+0x24>
800001bc:	40b005b3          	neg	a1,a1
800001c0:	f9dff06f          	j	8000015c <__hidden___udivsi3>
800001c4:	40b005b3          	neg	a1,a1
800001c8:	00008293          	mv	t0,ra
800001cc:	f91ff0ef          	jal	ra,8000015c <__hidden___udivsi3>
800001d0:	40a00533          	neg	a0,a0
800001d4:	00028067          	jr	t0

800001d8 <__modsi3>:
800001d8:	00008293          	mv	t0,ra
800001dc:	0005ca63          	bltz	a1,800001f0 <__modsi3+0x18>
800001e0:	00054c63          	bltz	a0,800001f8 <__modsi3+0x20>
800001e4:	f79ff0ef          	jal	ra,8000015c <__hidden___udivsi3>
800001e8:	00058513          	mv	a0,a1
800001ec:	00028067          	jr	t0
800001f0:	40b005b3          	neg	a1,a1
800001f4:	fe0558e3          	bgez	a0,800001e4 <__modsi3+0xc>
800001f8:	40a00533          	neg	a0,a0
800001fc:	f61ff0ef          	jal	ra,8000015c <__hidden___udivsi3>
80000200:	40b00533          	neg	a0,a1
80000204:	00028067          	jr	t0

80000208 <__mulsi3>:
80000208:	00050613          	mv	a2,a0
8000020c:	00000513          	li	a0,0
80000210:	0015f693          	andi	a3,a1,1
80000214:	00068463          	beqz	a3,8000021c <__mulsi3+0x14>
80000218:	00c50533          	add	a0,a0,a2
8000021c:	0015d593          	srli	a1,a1,0x1
80000220:	00161613          	slli	a2,a2,0x1
80000224:	fe0596e3          	bnez	a1,80000210 <__mulsi3+0x8>
80000228:	00008067          	ret

8000022c <__muldi3>:
8000022c:	fe810113          	addi	sp,sp,-24
80000230:	00050793          	mv	a5,a0
80000234:	00a12423          	sw	a0,8(sp)
80000238:	00b12023          	sw	a1,0(sp)
8000023c:	00d12223          	sw	a3,4(sp)
80000240:	00112a23          	sw	ra,20(sp)
80000244:	00078693          	mv	a3,a5
80000248:	00812823          	sw	s0,16(sp)
8000024c:	00912623          	sw	s1,12(sp)
80000250:	00060513          	mv	a0,a2
80000254:	00060713          	mv	a4,a2
80000258:	00000793          	li	a5,0
8000025c:	00000593          	li	a1,0
80000260:	00000313          	li	t1,0
80000264:	00668633          	add	a2,a3,t1
80000268:	00177393          	andi	t2,a4,1
8000026c:	00f58433          	add	s0,a1,a5
80000270:	01f6d293          	srli	t0,a3,0x1f
80000274:	00175713          	srli	a4,a4,0x1
80000278:	006634b3          	sltu	s1,a2,t1
8000027c:	00179793          	slli	a5,a5,0x1
80000280:	00038663          	beqz	t2,8000028c <__muldi3+0x60>
80000284:	008485b3          	add	a1,s1,s0
80000288:	00060313          	mv	t1,a2
8000028c:	00169693          	slli	a3,a3,0x1
80000290:	0057e7b3          	or	a5,a5,t0
80000294:	fc0718e3          	bnez	a4,80000264 <__muldi3+0x38>
80000298:	00012703          	lw	a4,0(sp)
8000029c:	00058793          	mv	a5,a1
800002a0:	00070863          	beqz	a4,800002b0 <__muldi3+0x84>
800002a4:	00070593          	mv	a1,a4
800002a8:	f61ff0ef          	jal	ra,80000208 <__mulsi3>
800002ac:	00a787b3          	add	a5,a5,a0
800002b0:	00412703          	lw	a4,4(sp)
800002b4:	00070a63          	beqz	a4,800002c8 <__muldi3+0x9c>
800002b8:	00812503          	lw	a0,8(sp)
800002bc:	00070593          	mv	a1,a4
800002c0:	f49ff0ef          	jal	ra,80000208 <__mulsi3>
800002c4:	00f507b3          	add	a5,a0,a5
800002c8:	01412083          	lw	ra,20(sp)
800002cc:	01012403          	lw	s0,16(sp)
800002d0:	00c12483          	lw	s1,12(sp)
800002d4:	00030513          	mv	a0,t1
800002d8:	00078593          	mv	a1,a5
800002dc:	01810113          	addi	sp,sp,24
800002e0:	00008067          	ret

800002e4 <__udivmoddi4>:
800002e4:	fe010113          	addi	sp,sp,-32
800002e8:	00912a23          	sw	s1,20(sp)
800002ec:	00112e23          	sw	ra,28(sp)
800002f0:	00812c23          	sw	s0,24(sp)
800002f4:	00e12223          	sw	a4,4(sp)
800002f8:	00050313          	mv	t1,a0
800002fc:	00060493          	mv	s1,a2
80000300:	04059663          	bnez	a1,8000034c <__udivmoddi4+0x68>
80000304:	20069463          	bnez	a3,8000050c <__udivmoddi4+0x228>
80000308:	00070413          	mv	s0,a4
8000030c:	00070e63          	beqz	a4,80000328 <__udivmoddi4+0x44>
80000310:	00048593          	mv	a1,s1
80000314:	00a12023          	sw	a0,0(sp)
80000318:	e8dff0ef          	jal	ra,800001a4 <__umodsi3>
8000031c:	00012303          	lw	t1,0(sp)
80000320:	00a42023          	sw	a0,0(s0)
80000324:	00042223          	sw	zero,4(s0)
80000328:	00048593          	mv	a1,s1
8000032c:	00030513          	mv	a0,t1
80000330:	e2dff0ef          	jal	ra,8000015c <__hidden___udivsi3>
80000334:	00000593          	li	a1,0
80000338:	01c12083          	lw	ra,28(sp)
8000033c:	01812403          	lw	s0,24(sp)
80000340:	01412483          	lw	s1,20(sp)
80000344:	02010113          	addi	sp,sp,32
80000348:	00008067          	ret
8000034c:	00058793          	mv	a5,a1
80000350:	08061263          	bnez	a2,800003d4 <__udivmoddi4+0xf0>
80000354:	24068263          	beqz	a3,80000598 <__udivmoddi4+0x2b4>
80000358:	2c050a63          	beqz	a0,8000062c <__udivmoddi4+0x348>
8000035c:	fff68613          	addi	a2,a3,-1
80000360:	00d675b3          	and	a1,a2,a3
80000364:	32058463          	beqz	a1,8000068c <__udivmoddi4+0x3a8>
80000368:	00a12623          	sw	a0,12(sp)
8000036c:	00068513          	mv	a0,a3
80000370:	00f12823          	sw	a5,16(sp)
80000374:	00f12023          	sw	a5,0(sp)
80000378:	00d12423          	sw	a3,8(sp)
8000037c:	3fc000ef          	jal	ra,80000778 <__clzsi2>
80000380:	00012703          	lw	a4,0(sp)
80000384:	00050413          	mv	s0,a0
80000388:	00070513          	mv	a0,a4
8000038c:	3ec000ef          	jal	ra,80000778 <__clzsi2>
80000390:	40a40533          	sub	a0,s0,a0
80000394:	01e00613          	li	a2,30
80000398:	00012703          	lw	a4,0(sp)
8000039c:	00812683          	lw	a3,8(sp)
800003a0:	00c12303          	lw	t1,12(sp)
800003a4:	01012783          	lw	a5,16(sp)
800003a8:	1ea66a63          	bltu	a2,a0,8000059c <__udivmoddi4+0x2b8>
800003ac:	00150393          	addi	t2,a0,1
800003b0:	02000613          	li	a2,32
800003b4:	40760633          	sub	a2,a2,t2
800003b8:	00c712b3          	sll	t0,a4,a2
800003bc:	007355b3          	srl	a1,t1,t2
800003c0:	007757b3          	srl	a5,a4,t2
800003c4:	00c31533          	sll	a0,t1,a2
800003c8:	00b2e733          	or	a4,t0,a1
800003cc:	00000413          	li	s0,0
800003d0:	0780006f          	j	80000448 <__udivmoddi4+0x164>
800003d4:	16068263          	beqz	a3,80000538 <__udivmoddi4+0x254>
800003d8:	00a12423          	sw	a0,8(sp)
800003dc:	00068513          	mv	a0,a3
800003e0:	00b12623          	sw	a1,12(sp)
800003e4:	00b12023          	sw	a1,0(sp)
800003e8:	00d12823          	sw	a3,16(sp)
800003ec:	38c000ef          	jal	ra,80000778 <__clzsi2>
800003f0:	00012703          	lw	a4,0(sp)
800003f4:	00050413          	mv	s0,a0
800003f8:	00070513          	mv	a0,a4
800003fc:	37c000ef          	jal	ra,80000778 <__clzsi2>
80000400:	40a40533          	sub	a0,s0,a0
80000404:	01f00613          	li	a2,31
80000408:	00812303          	lw	t1,8(sp)
8000040c:	00c12783          	lw	a5,12(sp)
80000410:	18a66663          	bltu	a2,a0,8000059c <__udivmoddi4+0x2b8>
80000414:	00150393          	addi	t2,a0,1
80000418:	02000793          	li	a5,32
8000041c:	00012703          	lw	a4,0(sp)
80000420:	01012683          	lw	a3,16(sp)
80000424:	00030513          	mv	a0,t1
80000428:	28f38a63          	beq	t2,a5,800006bc <__udivmoddi4+0x3d8>
8000042c:	40778633          	sub	a2,a5,t2
80000430:	007355b3          	srl	a1,t1,t2
80000434:	00c71333          	sll	t1,a4,a2
80000438:	007757b3          	srl	a5,a4,t2
8000043c:	00c51533          	sll	a0,a0,a2
80000440:	00b36733          	or	a4,t1,a1
80000444:	00000413          	li	s0,0
80000448:	00068613          	mv	a2,a3
8000044c:	00012023          	sw	zero,0(sp)
80000450:	00078693          	mv	a3,a5
80000454:	00060793          	mv	a5,a2
80000458:	01f55593          	srli	a1,a0,0x1f
8000045c:	00171613          	slli	a2,a4,0x1
80000460:	00b66633          	or	a2,a2,a1
80000464:	01f75713          	srli	a4,a4,0x1f
80000468:	00169693          	slli	a3,a3,0x1
8000046c:	00e6e6b3          	or	a3,a3,a4
80000470:	40c48733          	sub	a4,s1,a2
80000474:	00e4b333          	sltu	t1,s1,a4
80000478:	40d785b3          	sub	a1,a5,a3
8000047c:	406585b3          	sub	a1,a1,t1
80000480:	00173713          	seqz	a4,a4
80000484:	40e585b3          	sub	a1,a1,a4
80000488:	41f5d313          	srai	t1,a1,0x1f
8000048c:	00937733          	and	a4,t1,s1
80000490:	00f37333          	and	t1,t1,a5
80000494:	406686b3          	sub	a3,a3,t1
80000498:	00012303          	lw	t1,0(sp)
8000049c:	40e60733          	sub	a4,a2,a4
800004a0:	01f5d593          	srli	a1,a1,0x1f
800004a4:	01f45293          	srli	t0,s0,0x1f
800004a8:	00151513          	slli	a0,a0,0x1
800004ac:	00141413          	slli	s0,s0,0x1
800004b0:	00e63633          	sltu	a2,a2,a4
800004b4:	fff38393          	addi	t2,t2,-1
800004b8:	00b12023          	sw	a1,0(sp)
800004bc:	00646433          	or	s0,s0,t1
800004c0:	00556533          	or	a0,a0,t0
800004c4:	40c686b3          	sub	a3,a3,a2
800004c8:	f80398e3          	bnez	t2,80000458 <__udivmoddi4+0x174>
800004cc:	01f45593          	srli	a1,s0,0x1f
800004d0:	00068793          	mv	a5,a3
800004d4:	00151693          	slli	a3,a0,0x1
800004d8:	00012603          	lw	a2,0(sp)
800004dc:	00d5e5b3          	or	a1,a1,a3
800004e0:	00412683          	lw	a3,4(sp)
800004e4:	00141413          	slli	s0,s0,0x1
800004e8:	00c46533          	or	a0,s0,a2
800004ec:	e40686e3          	beqz	a3,80000338 <__udivmoddi4+0x54>
800004f0:	01c12083          	lw	ra,28(sp)
800004f4:	01812403          	lw	s0,24(sp)
800004f8:	00e6a023          	sw	a4,0(a3)
800004fc:	00f6a223          	sw	a5,4(a3)
80000500:	01412483          	lw	s1,20(sp)
80000504:	02010113          	addi	sp,sp,32
80000508:	00008067          	ret
8000050c:	00412783          	lw	a5,4(sp)
80000510:	08078a63          	beqz	a5,800005a4 <__udivmoddi4+0x2c0>
80000514:	01c12083          	lw	ra,28(sp)
80000518:	01812403          	lw	s0,24(sp)
8000051c:	00a7a023          	sw	a0,0(a5)
80000520:	0007a223          	sw	zero,4(a5)
80000524:	01412483          	lw	s1,20(sp)
80000528:	00000513          	li	a0,0
8000052c:	00000593          	li	a1,0
80000530:	02010113          	addi	sp,sp,32
80000534:	00008067          	ret
80000538:	fff60613          	addi	a2,a2,-1
8000053c:	009675b3          	and	a1,a2,s1
80000540:	06059863          	bnez	a1,800005b0 <__udivmoddi4+0x2cc>
80000544:	00412703          	lw	a4,4(sp)
80000548:	00070863          	beqz	a4,80000558 <__udivmoddi4+0x274>
8000054c:	00a67633          	and	a2,a2,a0
80000550:	00c72023          	sw	a2,0(a4)
80000554:	00072223          	sw	zero,4(a4)
80000558:	00100713          	li	a4,1
8000055c:	12e48263          	beq	s1,a4,80000680 <__udivmoddi4+0x39c>
80000560:	00048513          	mv	a0,s1
80000564:	00f12223          	sw	a5,4(sp)
80000568:	00612023          	sw	t1,0(sp)
8000056c:	2a4000ef          	jal	ra,80000810 <__ctzsi2>
80000570:	00412783          	lw	a5,4(sp)
80000574:	00012303          	lw	t1,0(sp)
80000578:	02000413          	li	s0,32
8000057c:	40a40433          	sub	s0,s0,a0
80000580:	00050713          	mv	a4,a0
80000584:	00879433          	sll	s0,a5,s0
80000588:	00a35533          	srl	a0,t1,a0
8000058c:	00a46533          	or	a0,s0,a0
80000590:	00e7d5b3          	srl	a1,a5,a4
80000594:	da5ff06f          	j	80000338 <__udivmoddi4+0x54>
80000598:	00100073          	ebreak
8000059c:	00412703          	lw	a4,4(sp)
800005a0:	0c071663          	bnez	a4,8000066c <__udivmoddi4+0x388>
800005a4:	00000513          	li	a0,0
800005a8:	00000593          	li	a1,0
800005ac:	d8dff06f          	j	80000338 <__udivmoddi4+0x54>
800005b0:	00a12623          	sw	a0,12(sp)
800005b4:	00048513          	mv	a0,s1
800005b8:	00068413          	mv	s0,a3
800005bc:	00d12823          	sw	a3,16(sp)
800005c0:	00f12023          	sw	a5,0(sp)
800005c4:	1b4000ef          	jal	ra,80000778 <__clzsi2>
800005c8:	00012703          	lw	a4,0(sp)
800005cc:	00050613          	mv	a2,a0
800005d0:	00c12023          	sw	a2,0(sp)
800005d4:	00070513          	mv	a0,a4
800005d8:	00e12423          	sw	a4,8(sp)
800005dc:	19c000ef          	jal	ra,80000778 <__clzsi2>
800005e0:	00012603          	lw	a2,0(sp)
800005e4:	00c12303          	lw	t1,12(sp)
800005e8:	02000593          	li	a1,32
800005ec:	40a60633          	sub	a2,a2,a0
800005f0:	02160393          	addi	t2,a2,33
800005f4:	00812703          	lw	a4,8(sp)
800005f8:	01012683          	lw	a3,16(sp)
800005fc:	00030513          	mv	a0,t1
80000600:	00000793          	li	a5,0
80000604:	e4b382e3          	beq	t2,a1,80000448 <__udivmoddi4+0x164>
80000608:	01f00313          	li	t1,31
8000060c:	0a736e63          	bltu	t1,t2,800006c8 <__udivmoddi4+0x3e4>
80000610:	407585b3          	sub	a1,a1,t2
80000614:	00755633          	srl	a2,a0,t2
80000618:	00b71333          	sll	t1,a4,a1
8000061c:	007757b3          	srl	a5,a4,t2
80000620:	00b51533          	sll	a0,a0,a1
80000624:	00c36733          	or	a4,t1,a2
80000628:	e21ff06f          	j	80000448 <__udivmoddi4+0x164>
8000062c:	00412403          	lw	s0,4(sp)
80000630:	02040463          	beqz	s0,80000658 <__udivmoddi4+0x374>
80000634:	00068593          	mv	a1,a3
80000638:	00078513          	mv	a0,a5
8000063c:	00d12223          	sw	a3,4(sp)
80000640:	00f12023          	sw	a5,0(sp)
80000644:	b61ff0ef          	jal	ra,800001a4 <__umodsi3>
80000648:	00412683          	lw	a3,4(sp)
8000064c:	00012783          	lw	a5,0(sp)
80000650:	00042023          	sw	zero,0(s0)
80000654:	00a42223          	sw	a0,4(s0)
80000658:	00068593          	mv	a1,a3
8000065c:	00078513          	mv	a0,a5
80000660:	afdff0ef          	jal	ra,8000015c <__hidden___udivsi3>
80000664:	00000593          	li	a1,0
80000668:	cd1ff06f          	j	80000338 <__udivmoddi4+0x54>
8000066c:	00672023          	sw	t1,0(a4)
80000670:	00f72223          	sw	a5,4(a4)
80000674:	00000513          	li	a0,0
80000678:	00000593          	li	a1,0
8000067c:	cbdff06f          	j	80000338 <__udivmoddi4+0x54>
80000680:	00030513          	mv	a0,t1
80000684:	00078593          	mv	a1,a5
80000688:	cb1ff06f          	j	80000338 <__udivmoddi4+0x54>
8000068c:	00412703          	lw	a4,4(sp)
80000690:	00070863          	beqz	a4,800006a0 <__udivmoddi4+0x3bc>
80000694:	00f67633          	and	a2,a2,a5
80000698:	00a72023          	sw	a0,0(a4)
8000069c:	00c72223          	sw	a2,4(a4)
800006a0:	00068513          	mv	a0,a3
800006a4:	00f12023          	sw	a5,0(sp)
800006a8:	168000ef          	jal	ra,80000810 <__ctzsi2>
800006ac:	00012783          	lw	a5,0(sp)
800006b0:	00000593          	li	a1,0
800006b4:	00a7d533          	srl	a0,a5,a0
800006b8:	c81ff06f          	j	80000338 <__udivmoddi4+0x54>
800006bc:	00000793          	li	a5,0
800006c0:	00000413          	li	s0,0
800006c4:	d85ff06f          	j	80000448 <__udivmoddi4+0x164>
800006c8:	04000593          	li	a1,64
800006cc:	407585b3          	sub	a1,a1,t2
800006d0:	00160613          	addi	a2,a2,1
800006d4:	00b51433          	sll	s0,a0,a1
800006d8:	00b715b3          	sll	a1,a4,a1
800006dc:	00c55533          	srl	a0,a0,a2
800006e0:	00a5e533          	or	a0,a1,a0
800006e4:	00c75733          	srl	a4,a4,a2
800006e8:	d61ff06f          	j	80000448 <__udivmoddi4+0x164>

800006ec <__moddi3>:
800006ec:	fe810113          	addi	sp,sp,-24
800006f0:	00812823          	sw	s0,16(sp)
800006f4:	41f6d313          	srai	t1,a3,0x1f
800006f8:	41f5d413          	srai	s0,a1,0x1f
800006fc:	00854733          	xor	a4,a0,s0
80000700:	006647b3          	xor	a5,a2,t1
80000704:	00912623          	sw	s1,12(sp)
80000708:	40870533          	sub	a0,a4,s0
8000070c:	40678633          	sub	a2,a5,t1
80000710:	0066c6b3          	xor	a3,a3,t1
80000714:	0085c5b3          	xor	a1,a1,s0
80000718:	00710493          	addi	s1,sp,7
8000071c:	ff84f493          	andi	s1,s1,-8
80000720:	00c7b7b3          	sltu	a5,a5,a2
80000724:	406686b3          	sub	a3,a3,t1
80000728:	408585b3          	sub	a1,a1,s0
8000072c:	00a73333          	sltu	t1,a4,a0
80000730:	40f686b3          	sub	a3,a3,a5
80000734:	00048713          	mv	a4,s1
80000738:	406585b3          	sub	a1,a1,t1
8000073c:	00112a23          	sw	ra,20(sp)
80000740:	ba5ff0ef          	jal	ra,800002e4 <__udivmoddi4>
80000744:	0004a783          	lw	a5,0(s1)
80000748:	0044a583          	lw	a1,4(s1)
8000074c:	01412083          	lw	ra,20(sp)
80000750:	0087c7b3          	xor	a5,a5,s0
80000754:	0085c5b3          	xor	a1,a1,s0
80000758:	40878533          	sub	a0,a5,s0
8000075c:	408585b3          	sub	a1,a1,s0
80000760:	01012403          	lw	s0,16(sp)
80000764:	00a7b7b3          	sltu	a5,a5,a0
80000768:	00c12483          	lw	s1,12(sp)
8000076c:	40f585b3          	sub	a1,a1,a5
80000770:	01810113          	addi	sp,sp,24
80000774:	00008067          	ret

80000778 <__clzsi2>:
80000778:	ffff0637          	lui	a2,0xffff0
8000077c:	00c57633          	and	a2,a0,a2
80000780:	00163613          	seqz	a2,a2
80000784:	00461613          	slli	a2,a2,0x4
80000788:	01000793          	li	a5,16
8000078c:	40c787b3          	sub	a5,a5,a2
80000790:	00010737          	lui	a4,0x10
80000794:	00f557b3          	srl	a5,a0,a5
80000798:	f0070713          	addi	a4,a4,-256 # ff00 <_entry_offset+0xff00>
8000079c:	00e7f733          	and	a4,a5,a4
800007a0:	00173713          	seqz	a4,a4
800007a4:	00371713          	slli	a4,a4,0x3
800007a8:	00800693          	li	a3,8
800007ac:	40e686b3          	sub	a3,a3,a4
800007b0:	00d7d7b3          	srl	a5,a5,a3
800007b4:	0f07f593          	andi	a1,a5,240
800007b8:	0015b593          	seqz	a1,a1
800007bc:	00259593          	slli	a1,a1,0x2
800007c0:	00400693          	li	a3,4
800007c4:	40b686b3          	sub	a3,a3,a1
800007c8:	00d7d7b3          	srl	a5,a5,a3
800007cc:	00c7f513          	andi	a0,a5,12
800007d0:	00153513          	seqz	a0,a0
800007d4:	00151513          	slli	a0,a0,0x1
800007d8:	00200313          	li	t1,2
800007dc:	40a306b3          	sub	a3,t1,a0
800007e0:	00d7d7b3          	srl	a5,a5,a3
800007e4:	0017d693          	srli	a3,a5,0x1
800007e8:	0016c693          	xori	a3,a3,1
800007ec:	00c70733          	add	a4,a4,a2
800007f0:	0016f693          	andi	a3,a3,1
800007f4:	00e585b3          	add	a1,a1,a4
800007f8:	40f30333          	sub	t1,t1,a5
800007fc:	40d006b3          	neg	a3,a3
80000800:	0066f6b3          	and	a3,a3,t1
80000804:	00b50533          	add	a0,a0,a1
80000808:	00a68533          	add	a0,a3,a0
8000080c:	00008067          	ret

80000810 <__ctzsi2>:
80000810:	01051593          	slli	a1,a0,0x10
80000814:	0105d593          	srli	a1,a1,0x10
80000818:	0015b593          	seqz	a1,a1
8000081c:	00459593          	slli	a1,a1,0x4
80000820:	00b557b3          	srl	a5,a0,a1
80000824:	0ff7f613          	zext.b	a2,a5
80000828:	00163613          	seqz	a2,a2
8000082c:	00361613          	slli	a2,a2,0x3
80000830:	00c7d7b3          	srl	a5,a5,a2
80000834:	00f7f693          	andi	a3,a5,15
80000838:	0016b693          	seqz	a3,a3
8000083c:	00269693          	slli	a3,a3,0x2
80000840:	00d7d7b3          	srl	a5,a5,a3
80000844:	0037f713          	andi	a4,a5,3
80000848:	00173713          	seqz	a4,a4
8000084c:	00171713          	slli	a4,a4,0x1
80000850:	00e7d7b3          	srl	a5,a5,a4
80000854:	0017d513          	srli	a0,a5,0x1
80000858:	00b60633          	add	a2,a2,a1
8000085c:	0017f793          	andi	a5,a5,1
80000860:	00157593          	andi	a1,a0,1
80000864:	00200513          	li	a0,2
80000868:	40b50533          	sub	a0,a0,a1
8000086c:	00c686b3          	add	a3,a3,a2
80000870:	fff78793          	addi	a5,a5,-1
80000874:	00f577b3          	and	a5,a0,a5
80000878:	00d70533          	add	a0,a4,a3
8000087c:	00a78533          	add	a0,a5,a0
80000880:	00008067          	ret
