
/home/meowth/ysyx/ysyx-workbench/am-kernels/tests/cpu-tests/build/min3-riscv32e-npc.elf:     file format elf32-littleriscv


Disassembly of section .text:

80000000 <_start>:
80000000:	00000413          	li	s0,0
80000004:	00009117          	auipc	sp,0x9
80000008:	ffc10113          	addi	sp,sp,-4 # 80009000 <_end>
8000000c:	140000ef          	jal	ra,8000014c <_trm_init>

80000010 <check>:
80000010:	00050463          	beqz	a0,80000018 <check+0x8>
80000014:	00008067          	ret
80000018:	ff410113          	addi	sp,sp,-12
8000001c:	00100513          	li	a0,1
80000020:	00112423          	sw	ra,8(sp)
80000024:	120000ef          	jal	ra,80000144 <halt>

80000028 <main>:
80000028:	fdc10113          	addi	sp,sp,-36
8000002c:	00000797          	auipc	a5,0x0
80000030:	27c78793          	addi	a5,a5,636 # 800002a8 <test_data>
80000034:	02112023          	sw	ra,32(sp)
80000038:	00812e23          	sw	s0,28(sp)
8000003c:	00912c23          	sw	s1,24(sp)
80000040:	00f12a23          	sw	a5,20(sp)
80000044:	00012823          	sw	zero,16(sp)
80000048:	01412783          	lw	a5,20(sp)
8000004c:	0007a783          	lw	a5,0(a5)
80000050:	00f12623          	sw	a5,12(sp)
80000054:	00000797          	auipc	a5,0x0
80000058:	25478793          	addi	a5,a5,596 # 800002a8 <test_data>
8000005c:	00f12223          	sw	a5,4(sp)
80000060:	01012783          	lw	a5,16(sp)
80000064:	00f12423          	sw	a5,8(sp)
80000068:	00412783          	lw	a5,4(sp)
8000006c:	0007a683          	lw	a3,0(a5)
80000070:	00c12783          	lw	a5,12(sp)
80000074:	00d7d463          	bge	a5,a3,8000007c <main+0x54>
80000078:	00078693          	mv	a3,a5
8000007c:	00812783          	lw	a5,8(sp)
80000080:	00000497          	auipc	s1,0x0
80000084:	22848493          	addi	s1,s1,552 # 800002a8 <test_data>
80000088:	00d12023          	sw	a3,0(sp)
8000008c:	00279713          	slli	a4,a5,0x2
80000090:	00000797          	auipc	a5,0x0
80000094:	11878793          	addi	a5,a5,280 # 800001a8 <ans>
80000098:	00e78433          	add	s0,a5,a4
8000009c:	0004a503          	lw	a0,0(s1)
800000a0:	00012783          	lw	a5,0(sp)
800000a4:	00448493          	addi	s1,s1,4
800000a8:	00a7d463          	bge	a5,a0,800000b0 <main+0x88>
800000ac:	00078513          	mv	a0,a5
800000b0:	00042703          	lw	a4,0(s0)
800000b4:	00440413          	addi	s0,s0,4
800000b8:	40e50533          	sub	a0,a0,a4
800000bc:	00153513          	seqz	a0,a0
800000c0:	f51ff0ef          	jal	ra,80000010 <check>
800000c4:	00000797          	auipc	a5,0x0
800000c8:	1f478793          	addi	a5,a5,500 # 800002b8 <_bss_start>
800000cc:	fc9798e3          	bne	a5,s1,8000009c <main+0x74>
800000d0:	00412783          	lw	a5,4(sp)
800000d4:	00100513          	li	a0,1
800000d8:	00478413          	addi	s0,a5,4
800000dc:	00812783          	lw	a5,8(sp)
800000e0:	00812223          	sw	s0,4(sp)
800000e4:	00478793          	addi	a5,a5,4
800000e8:	00f12423          	sw	a5,8(sp)
800000ec:	f25ff0ef          	jal	ra,80000010 <check>
800000f0:	00000797          	auipc	a5,0x0
800000f4:	1c878793          	addi	a5,a5,456 # 800002b8 <_bss_start>
800000f8:	f6f418e3          	bne	s0,a5,80000068 <main+0x40>
800000fc:	01012783          	lw	a5,16(sp)
80000100:	00100513          	li	a0,1
80000104:	01078413          	addi	s0,a5,16
80000108:	00812823          	sw	s0,16(sp)
8000010c:	f05ff0ef          	jal	ra,80000010 <check>
80000110:	01412783          	lw	a5,20(sp)
80000114:	00478793          	addi	a5,a5,4
80000118:	00f12a23          	sw	a5,20(sp)
8000011c:	04000793          	li	a5,64
80000120:	f2f414e3          	bne	s0,a5,80000048 <main+0x20>
80000124:	00100513          	li	a0,1
80000128:	ee9ff0ef          	jal	ra,80000010 <check>
8000012c:	02012083          	lw	ra,32(sp)
80000130:	01c12403          	lw	s0,28(sp)
80000134:	01812483          	lw	s1,24(sp)
80000138:	00000513          	li	a0,0
8000013c:	02410113          	addi	sp,sp,36
80000140:	00008067          	ret

80000144 <halt>:
80000144:	00100073          	ebreak
80000148:	0000006f          	j	80000148 <halt+0x4>

8000014c <_trm_init>:
8000014c:	ff410113          	addi	sp,sp,-12
80000150:	00000517          	auipc	a0,0x0
80000154:	01850513          	addi	a0,a0,24 # 80000168 <_etext>
80000158:	00112423          	sw	ra,8(sp)
8000015c:	ecdff0ef          	jal	ra,80000028 <main>
80000160:	00100073          	ebreak
80000164:	0000006f          	j	80000164 <_trm_init+0x18>
