
/home/meowth/ysyx/ysyx-workbench/am-kernels/tests/cpu-tests/build/min3-riscv32-nemu.elf:     file format elf32-littleriscv


Disassembly of section .text:

80000000 <_start>:
80000000:	00000413          	li	s0,0
80000004:	00009117          	auipc	sp,0x9
80000008:	ffc10113          	addi	sp,sp,-4 # 80009000 <_end>
8000000c:	14c000ef          	jal	ra,80000158 <_trm_init>

80000010 <check>:
80000010:	00050463          	beqz	a0,80000018 <check+0x8>
80000014:	00008067          	ret
80000018:	ff010113          	addi	sp,sp,-16
8000001c:	00100513          	li	a0,1
80000020:	00112623          	sw	ra,12(sp)
80000024:	128000ef          	jal	ra,8000014c <halt>

80000028 <main>:
80000028:	fc010113          	addi	sp,sp,-64
8000002c:	03612023          	sw	s6,32(sp)
80000030:	00000b17          	auipc	s6,0x0
80000034:	288b0b13          	addi	s6,s6,648 # 800002b8 <test_data>
80000038:	02912a23          	sw	s1,52(sp)
8000003c:	03312623          	sw	s3,44(sp)
80000040:	03512223          	sw	s5,36(sp)
80000044:	01712e23          	sw	s7,28(sp)
80000048:	01812c23          	sw	s8,24(sp)
8000004c:	02112e23          	sw	ra,60(sp)
80000050:	02812c23          	sw	s0,56(sp)
80000054:	03212823          	sw	s2,48(sp)
80000058:	03412423          	sw	s4,40(sp)
8000005c:	01912a23          	sw	s9,20(sp)
80000060:	01a12823          	sw	s10,16(sp)
80000064:	01b12623          	sw	s11,12(sp)
80000068:	00000c17          	auipc	s8,0x0
8000006c:	150c0c13          	addi	s8,s8,336 # 800001b8 <ans>
80000070:	000b0a93          	mv	s5,s6
80000074:	000b0b93          	mv	s7,s6
80000078:	01000993          	li	s3,16
8000007c:	00000497          	auipc	s1,0x0
80000080:	24c48493          	addi	s1,s1,588 # 800002c8 <_bss_start>
80000084:	000baa03          	lw	s4,0(s7)
80000088:	ff098413          	addi	s0,s3,-16
8000008c:	000c0913          	mv	s2,s8
80000090:	008a87b3          	add	a5,s5,s0
80000094:	0007ac83          	lw	s9,0(a5)
80000098:	019a5463          	bge	s4,s9,800000a0 <main+0x78>
8000009c:	000a0c93          	mv	s9,s4
800000a0:	00090d93          	mv	s11,s2
800000a4:	000b0d13          	mv	s10,s6
800000a8:	000d2503          	lw	a0,0(s10)
800000ac:	004d0d13          	addi	s10,s10,4
800000b0:	00acd463          	bge	s9,a0,800000b8 <main+0x90>
800000b4:	000c8513          	mv	a0,s9
800000b8:	000da703          	lw	a4,0(s11)
800000bc:	004d8d93          	addi	s11,s11,4
800000c0:	40e50533          	sub	a0,a0,a4
800000c4:	00153513          	seqz	a0,a0
800000c8:	f49ff0ef          	jal	ra,80000010 <check>
800000cc:	fda49ee3          	bne	s1,s10,800000a8 <main+0x80>
800000d0:	00100513          	li	a0,1
800000d4:	00440413          	addi	s0,s0,4
800000d8:	f39ff0ef          	jal	ra,80000010 <check>
800000dc:	01090913          	addi	s2,s2,16
800000e0:	fb3418e3          	bne	s0,s3,80000090 <main+0x68>
800000e4:	00100513          	li	a0,1
800000e8:	f29ff0ef          	jal	ra,80000010 <check>
800000ec:	01040993          	addi	s3,s0,16
800000f0:	05000793          	li	a5,80
800000f4:	004b8b93          	addi	s7,s7,4
800000f8:	040c0c13          	addi	s8,s8,64
800000fc:	ff0a8a93          	addi	s5,s5,-16
80000100:	f8f992e3          	bne	s3,a5,80000084 <main+0x5c>
80000104:	00100513          	li	a0,1
80000108:	f09ff0ef          	jal	ra,80000010 <check>
8000010c:	03c12083          	lw	ra,60(sp)
80000110:	03812403          	lw	s0,56(sp)
80000114:	03412483          	lw	s1,52(sp)
80000118:	03012903          	lw	s2,48(sp)
8000011c:	02c12983          	lw	s3,44(sp)
80000120:	02812a03          	lw	s4,40(sp)
80000124:	02412a83          	lw	s5,36(sp)
80000128:	02012b03          	lw	s6,32(sp)
8000012c:	01c12b83          	lw	s7,28(sp)
80000130:	01812c03          	lw	s8,24(sp)
80000134:	01412c83          	lw	s9,20(sp)
80000138:	01012d03          	lw	s10,16(sp)
8000013c:	00c12d83          	lw	s11,12(sp)
80000140:	00000513          	li	a0,0
80000144:	04010113          	addi	sp,sp,64
80000148:	00008067          	ret

8000014c <halt>:
8000014c:	00050513          	mv	a0,a0
80000150:	00100073          	ebreak
80000154:	0000006f          	j	80000154 <halt+0x8>

80000158 <_trm_init>:
80000158:	ff010113          	addi	sp,sp,-16
8000015c:	00000517          	auipc	a0,0x0
80000160:	01c50513          	addi	a0,a0,28 # 80000178 <_etext>
80000164:	00112623          	sw	ra,12(sp)
80000168:	ec1ff0ef          	jal	ra,80000028 <main>
8000016c:	00050513          	mv	a0,a0
80000170:	00100073          	ebreak
80000174:	0000006f          	j	80000174 <_trm_init+0x1c>
