
/home/meowth/ysyx/ysyx-workbench/am-kernels/tests/cpu-tests/build/mov-c-riscv32e-npc.elf:     file format elf32-littleriscv


Disassembly of section .text:

80000000 <_start>:
80000000:	00000413          	li	s0,0
80000004:	00009117          	auipc	sp,0x9
80000008:	ffc10113          	addi	sp,sp,-4 # 80009000 <_end>
8000000c:	0fc000ef          	jal	ra,80000108 <_trm_init>

80000010 <check>:
80000010:	00050463          	beqz	a0,80000018 <check+0x8>
80000014:	00008067          	ret
80000018:	ff410113          	addi	sp,sp,-12
8000001c:	00100513          	li	a0,1
80000020:	00112423          	sw	ra,8(sp)
80000024:	0dc000ef          	jal	ra,80000100 <halt>

80000028 <main>:
80000028:	ff410113          	addi	sp,sp,-12
8000002c:	00812223          	sw	s0,4(sp)
80000030:	00000417          	auipc	s0,0x0
80000034:	13440413          	addi	s0,s0,308 # 80000164 <A>
80000038:	00042023          	sw	zero,0(s0)
8000003c:	00100793          	li	a5,1
80000040:	00f42223          	sw	a5,4(s0)
80000044:	00200793          	li	a5,2
80000048:	00f42423          	sw	a5,8(s0)
8000004c:	00300793          	li	a5,3
80000050:	00f42623          	sw	a5,12(s0)
80000054:	00400793          	li	a5,4
80000058:	00f42823          	sw	a5,16(s0)
8000005c:	00c42783          	lw	a5,12(s0)
80000060:	00912023          	sw	s1,0(sp)
80000064:	00000497          	auipc	s1,0x0
80000068:	12848493          	addi	s1,s1,296 # 8000018c <b>
8000006c:	00f4a023          	sw	a5,0(s1)
80000070:	0004a783          	lw	a5,0(s1)
80000074:	00112423          	sw	ra,8(sp)
80000078:	00f42a23          	sw	a5,20(s0)
8000007c:	00042503          	lw	a0,0(s0)
80000080:	00153513          	seqz	a0,a0
80000084:	f8dff0ef          	jal	ra,80000010 <check>
80000088:	00442503          	lw	a0,4(s0)
8000008c:	fff50513          	addi	a0,a0,-1
80000090:	00153513          	seqz	a0,a0
80000094:	f7dff0ef          	jal	ra,80000010 <check>
80000098:	00842503          	lw	a0,8(s0)
8000009c:	ffe50513          	addi	a0,a0,-2
800000a0:	00153513          	seqz	a0,a0
800000a4:	f6dff0ef          	jal	ra,80000010 <check>
800000a8:	00c42503          	lw	a0,12(s0)
800000ac:	ffd50513          	addi	a0,a0,-3
800000b0:	00153513          	seqz	a0,a0
800000b4:	f5dff0ef          	jal	ra,80000010 <check>
800000b8:	01042503          	lw	a0,16(s0)
800000bc:	ffc50513          	addi	a0,a0,-4
800000c0:	00153513          	seqz	a0,a0
800000c4:	f4dff0ef          	jal	ra,80000010 <check>
800000c8:	0004a503          	lw	a0,0(s1)
800000cc:	ffd50513          	addi	a0,a0,-3
800000d0:	00153513          	seqz	a0,a0
800000d4:	f3dff0ef          	jal	ra,80000010 <check>
800000d8:	01442503          	lw	a0,20(s0)
800000dc:	ffd50513          	addi	a0,a0,-3
800000e0:	00153513          	seqz	a0,a0
800000e4:	f2dff0ef          	jal	ra,80000010 <check>
800000e8:	00812083          	lw	ra,8(sp)
800000ec:	00412403          	lw	s0,4(sp)
800000f0:	00012483          	lw	s1,0(sp)
800000f4:	00000513          	li	a0,0
800000f8:	00c10113          	addi	sp,sp,12
800000fc:	00008067          	ret

80000100 <halt>:
80000100:	00100073          	ebreak
80000104:	0000006f          	j	80000104 <halt+0x4>

80000108 <_trm_init>:
80000108:	ff410113          	addi	sp,sp,-12
8000010c:	00000517          	auipc	a0,0x0
80000110:	01850513          	addi	a0,a0,24 # 80000124 <_etext>
80000114:	00112423          	sw	ra,8(sp)
80000118:	f11ff0ef          	jal	ra,80000028 <main>
8000011c:	00100073          	ebreak
80000120:	0000006f          	j	80000120 <_trm_init+0x18>
