
/home/meowth/ysyx/ysyx-workbench/am-kernels/tests/cpu-tests/build/movsx-riscv32e-npc.elf:     file format elf32-littleriscv


Disassembly of section .text:

80000000 <_start>:
80000000:	00000413          	li	s0,0
80000004:	00009117          	auipc	sp,0x9
80000008:	ffc10113          	addi	sp,sp,-4 # 80009000 <_end>
8000000c:	1a8000ef          	jal	ra,800001b4 <_trm_init>

80000010 <check>:
80000010:	00050463          	beqz	a0,80000018 <check+0x8>
80000014:	00008067          	ret
80000018:	ff410113          	addi	sp,sp,-12
8000001c:	00100513          	li	a0,1
80000020:	00112423          	sw	ra,8(sp)
80000024:	188000ef          	jal	ra,800001ac <halt>

80000028 <main>:
80000028:	ff410113          	addi	sp,sp,-12
8000002c:	00812223          	sw	s0,4(sp)
80000030:	00000417          	auipc	s0,0x0
80000034:	1e040413          	addi	s0,s0,480 # 80000210 <A>
80000038:	00042023          	sw	zero,0(s0)
8000003c:	00100793          	li	a5,1
80000040:	00f42223          	sw	a5,4(s0)
80000044:	00200793          	li	a5,2
80000048:	00f42423          	sw	a5,8(s0)
8000004c:	00300793          	li	a5,3
80000050:	00f42623          	sw	a5,12(s0)
80000054:	00400793          	li	a5,4
80000058:	00f42823          	sw	a5,16(s0)
8000005c:	00c42703          	lw	a4,12(s0)
80000060:	00112423          	sw	ra,8(sp)
80000064:	00000797          	auipc	a5,0x0
80000068:	1e078793          	addi	a5,a5,480 # 80000244 <b>
8000006c:	00912023          	sw	s1,0(sp)
80000070:	00e7a023          	sw	a4,0(a5)
80000074:	0007a703          	lw	a4,0(a5)
80000078:	00000497          	auipc	s1,0x0
8000007c:	1c048493          	addi	s1,s1,448 # 80000238 <C>
80000080:	00e42a23          	sw	a4,20(s0)
80000084:	06100713          	li	a4,97
80000088:	00e48023          	sb	a4,0(s1)
8000008c:	0004c503          	lbu	a0,0(s1)
80000090:	01851513          	slli	a0,a0,0x18
80000094:	41855513          	srai	a0,a0,0x18
80000098:	f9f50513          	addi	a0,a0,-97
8000009c:	00153513          	seqz	a0,a0
800000a0:	f71ff0ef          	jal	ra,80000010 <check>
800000a4:	0004c703          	lbu	a4,0(s1)
800000a8:	01871713          	slli	a4,a4,0x18
800000ac:	41875713          	srai	a4,a4,0x18
800000b0:	00e480a3          	sb	a4,1(s1)
800000b4:	0014c503          	lbu	a0,1(s1)
800000b8:	01851513          	slli	a0,a0,0x18
800000bc:	41855513          	srai	a0,a0,0x18
800000c0:	f9f50513          	addi	a0,a0,-97
800000c4:	00153513          	seqz	a0,a0
800000c8:	f49ff0ef          	jal	ra,80000010 <check>
800000cc:	0004c703          	lbu	a4,0(s1)
800000d0:	01871713          	slli	a4,a4,0x18
800000d4:	41875713          	srai	a4,a4,0x18
800000d8:	00e42023          	sw	a4,0(s0)
800000dc:	00042503          	lw	a0,0(s0)
800000e0:	f9f50513          	addi	a0,a0,-97
800000e4:	00153513          	seqz	a0,a0
800000e8:	f29ff0ef          	jal	ra,80000010 <check>
800000ec:	f8000713          	li	a4,-128
800000f0:	00e480a3          	sb	a4,1(s1)
800000f4:	0014c703          	lbu	a4,1(s1)
800000f8:	01871713          	slli	a4,a4,0x18
800000fc:	41875713          	srai	a4,a4,0x18
80000100:	00e42023          	sw	a4,0(s0)
80000104:	00442503          	lw	a0,4(s0)
80000108:	fff50513          	addi	a0,a0,-1
8000010c:	00153513          	seqz	a0,a0
80000110:	f01ff0ef          	jal	ra,80000010 <check>
80000114:	00842503          	lw	a0,8(s0)
80000118:	ffe50513          	addi	a0,a0,-2
8000011c:	00153513          	seqz	a0,a0
80000120:	ef1ff0ef          	jal	ra,80000010 <check>
80000124:	00c42503          	lw	a0,12(s0)
80000128:	ffd50513          	addi	a0,a0,-3
8000012c:	00153513          	seqz	a0,a0
80000130:	ee1ff0ef          	jal	ra,80000010 <check>
80000134:	01042503          	lw	a0,16(s0)
80000138:	ffc50513          	addi	a0,a0,-4
8000013c:	00153513          	seqz	a0,a0
80000140:	ed1ff0ef          	jal	ra,80000010 <check>
80000144:	00000797          	auipc	a5,0x0
80000148:	10078793          	addi	a5,a5,256 # 80000244 <b>
8000014c:	0007a503          	lw	a0,0(a5)
80000150:	ffd50513          	addi	a0,a0,-3
80000154:	00153513          	seqz	a0,a0
80000158:	eb9ff0ef          	jal	ra,80000010 <check>
8000015c:	01442503          	lw	a0,20(s0)
80000160:	ffd50513          	addi	a0,a0,-3
80000164:	00153513          	seqz	a0,a0
80000168:	ea9ff0ef          	jal	ra,80000010 <check>
8000016c:	0014c503          	lbu	a0,1(s1)
80000170:	01851513          	slli	a0,a0,0x18
80000174:	41855513          	srai	a0,a0,0x18
80000178:	08050513          	addi	a0,a0,128
8000017c:	00153513          	seqz	a0,a0
80000180:	e91ff0ef          	jal	ra,80000010 <check>
80000184:	00042503          	lw	a0,0(s0)
80000188:	08050513          	addi	a0,a0,128
8000018c:	00153513          	seqz	a0,a0
80000190:	e81ff0ef          	jal	ra,80000010 <check>
80000194:	00812083          	lw	ra,8(sp)
80000198:	00412403          	lw	s0,4(sp)
8000019c:	00012483          	lw	s1,0(sp)
800001a0:	00000513          	li	a0,0
800001a4:	00c10113          	addi	sp,sp,12
800001a8:	00008067          	ret

800001ac <halt>:
800001ac:	00100073          	ebreak
800001b0:	0000006f          	j	800001b0 <halt+0x4>

800001b4 <_trm_init>:
800001b4:	ff410113          	addi	sp,sp,-12
800001b8:	00000517          	auipc	a0,0x0
800001bc:	01850513          	addi	a0,a0,24 # 800001d0 <_etext>
800001c0:	00112423          	sw	ra,8(sp)
800001c4:	e65ff0ef          	jal	ra,80000028 <main>
800001c8:	00100073          	ebreak
800001cc:	0000006f          	j	800001cc <_trm_init+0x18>
