
/home/meowth/ysyx/ysyx-workbench/am-kernels/tests/cpu-tests/build/mul-longlong-riscv32-nemu.elf:     file format elf32-littleriscv


Disassembly of section .text:

80000000 <_start>:
80000000:	00000413          	li	s0,0
80000004:	00009117          	auipc	sp,0x9
80000008:	ffc10113          	addi	sp,sp,-4 # 80009000 <_end>
8000000c:	13c000ef          	jal	ra,80000148 <_trm_init>

80000010 <check>:
80000010:	00050463          	beqz	a0,80000018 <check+0x8>
80000014:	00008067          	ret
80000018:	ff010113          	addi	sp,sp,-16
8000001c:	00100513          	li	a0,1
80000020:	00112623          	sw	ra,12(sp)
80000024:	118000ef          	jal	ra,8000013c <halt>

80000028 <main>:
80000028:	fd010113          	addi	sp,sp,-48
8000002c:	02812423          	sw	s0,40(sp)
80000030:	02912223          	sw	s1,36(sp)
80000034:	03212023          	sw	s2,32(sp)
80000038:	01312e23          	sw	s3,28(sp)
8000003c:	01412c23          	sw	s4,24(sp)
80000040:	01512a23          	sw	s5,20(sp)
80000044:	01612823          	sw	s6,16(sp)
80000048:	02112623          	sw	ra,44(sp)
8000004c:	01712623          	sw	s7,12(sp)
80000050:	01812423          	sw	s8,8(sp)
80000054:	01912223          	sw	s9,4(sp)
80000058:	00000413          	li	s0,0
8000005c:	00400a13          	li	s4,4
80000060:	00000997          	auipc	s3,0x0
80000064:	19898993          	addi	s3,s3,408 # 800001f8 <test_data>
80000068:	00000913          	li	s2,0
8000006c:	00000b17          	auipc	s6,0x0
80000070:	13cb0b13          	addi	s6,s6,316 # 800001a8 <ans>
80000074:	00000497          	auipc	s1,0x0
80000078:	19448493          	addi	s1,s1,404 # 80000208 <_bss_start>
8000007c:	00300a93          	li	s5,3
80000080:	07440863          	beq	s0,s4,800000f0 <main+0xc8>
80000084:	0009ac83          	lw	s9,0(s3)
80000088:	00391b93          	slli	s7,s2,0x3
8000008c:	017b0bb3          	add	s7,s6,s7
80000090:	00098c13          	mv	s8,s3
80000094:	000c8793          	mv	a5,s9
80000098:	02fc86b3          	mul	a3,s9,a5
8000009c:	000ba503          	lw	a0,0(s7)
800000a0:	004ba703          	lw	a4,4(s7)
800000a4:	004c0c13          	addi	s8,s8,4
800000a8:	008b8b93          	addi	s7,s7,8
800000ac:	02fc97b3          	mulh	a5,s9,a5
800000b0:	00d54533          	xor	a0,a0,a3
800000b4:	00f747b3          	xor	a5,a4,a5
800000b8:	00f56533          	or	a0,a0,a5
800000bc:	00153513          	seqz	a0,a0
800000c0:	f51ff0ef          	jal	ra,80000010 <check>
800000c4:	01848663          	beq	s1,s8,800000d0 <main+0xa8>
800000c8:	000c2783          	lw	a5,0(s8)
800000cc:	fcdff06f          	j	80000098 <main+0x70>
800000d0:	00490913          	addi	s2,s2,4
800000d4:	00100513          	li	a0,1
800000d8:	40890933          	sub	s2,s2,s0
800000dc:	f35ff0ef          	jal	ra,80000010 <check>
800000e0:	01540e63          	beq	s0,s5,800000fc <main+0xd4>
800000e4:	00140413          	addi	s0,s0,1
800000e8:	00498993          	addi	s3,s3,4
800000ec:	f9441ce3          	bne	s0,s4,80000084 <main+0x5c>
800000f0:	00100513          	li	a0,1
800000f4:	f1dff0ef          	jal	ra,80000010 <check>
800000f8:	fedff06f          	j	800000e4 <main+0xbc>
800000fc:	00100513          	li	a0,1
80000100:	f11ff0ef          	jal	ra,80000010 <check>
80000104:	02c12083          	lw	ra,44(sp)
80000108:	02812403          	lw	s0,40(sp)
8000010c:	02412483          	lw	s1,36(sp)
80000110:	02012903          	lw	s2,32(sp)
80000114:	01c12983          	lw	s3,28(sp)
80000118:	01812a03          	lw	s4,24(sp)
8000011c:	01412a83          	lw	s5,20(sp)
80000120:	01012b03          	lw	s6,16(sp)
80000124:	00c12b83          	lw	s7,12(sp)
80000128:	00812c03          	lw	s8,8(sp)
8000012c:	00412c83          	lw	s9,4(sp)
80000130:	00000513          	li	a0,0
80000134:	03010113          	addi	sp,sp,48
80000138:	00008067          	ret

8000013c <halt>:
8000013c:	00050513          	mv	a0,a0
80000140:	00100073          	ebreak
80000144:	0000006f          	j	80000144 <halt+0x8>

80000148 <_trm_init>:
80000148:	ff010113          	addi	sp,sp,-16
8000014c:	00000517          	auipc	a0,0x0
80000150:	01c50513          	addi	a0,a0,28 # 80000168 <_etext>
80000154:	00112623          	sw	ra,12(sp)
80000158:	ed1ff0ef          	jal	ra,80000028 <main>
8000015c:	00050513          	mv	a0,a0
80000160:	00100073          	ebreak
80000164:	0000006f          	j	80000164 <_trm_init+0x1c>
