
/home/meowth/ysyx/ysyx-workbench/am-kernels/tests/cpu-tests/build/mul-longlong-riscv32e-npc.elf:     file format elf32-littleriscv


Disassembly of section .text:

80000000 <_start>:
80000000:	00000413          	li	s0,0
80000004:	00009117          	auipc	sp,0x9
80000008:	ffc10113          	addi	sp,sp,-4 # 80009000 <_end>
8000000c:	148000ef          	jal	ra,80000154 <_trm_init>

80000010 <check>:
80000010:	00050463          	beqz	a0,80000018 <check+0x8>
80000014:	00008067          	ret
80000018:	ff410113          	addi	sp,sp,-12
8000001c:	00100513          	li	a0,1
80000020:	00112423          	sw	ra,8(sp)
80000024:	128000ef          	jal	ra,8000014c <halt>

80000028 <main>:
80000028:	fe010113          	addi	sp,sp,-32
8000002c:	00000797          	auipc	a5,0x0
80000030:	2b478793          	addi	a5,a5,692 # 800002e0 <test_data>
80000034:	00012423          	sw	zero,8(sp)
80000038:	00f12823          	sw	a5,16(sp)
8000003c:	00812783          	lw	a5,8(sp)
80000040:	00112e23          	sw	ra,28(sp)
80000044:	00812c23          	sw	s0,24(sp)
80000048:	00912a23          	sw	s1,20(sp)
8000004c:	00012623          	sw	zero,12(sp)
80000050:	00400713          	li	a4,4
80000054:	0ce78663          	beq	a5,a4,80000120 <main+0xf8>
80000058:	01012483          	lw	s1,16(sp)
8000005c:	00c12783          	lw	a5,12(sp)
80000060:	0004a503          	lw	a0,0(s1)
80000064:	00379713          	slli	a4,a5,0x3
80000068:	00000797          	auipc	a5,0x0
8000006c:	22878793          	addi	a5,a5,552 # 80000290 <ans>
80000070:	00e78433          	add	s0,a5,a4
80000074:	00040793          	mv	a5,s0
80000078:	41f55593          	srai	a1,a0,0x1f
8000007c:	00048413          	mv	s0,s1
80000080:	00050613          	mv	a2,a0
80000084:	00b12223          	sw	a1,4(sp)
80000088:	00078493          	mv	s1,a5
8000008c:	00412683          	lw	a3,4(sp)
80000090:	00c12023          	sw	a2,0(sp)
80000094:	00440413          	addi	s0,s0,4
80000098:	0d8000ef          	jal	ra,80000170 <__muldi3>
8000009c:	0004a783          	lw	a5,0(s1)
800000a0:	0044a683          	lw	a3,4(s1)
800000a4:	00848493          	addi	s1,s1,8
800000a8:	00a7c7b3          	xor	a5,a5,a0
800000ac:	00b6c6b3          	xor	a3,a3,a1
800000b0:	00d7e7b3          	or	a5,a5,a3
800000b4:	0017b513          	seqz	a0,a5
800000b8:	f59ff0ef          	jal	ra,80000010 <check>
800000bc:	00000797          	auipc	a5,0x0
800000c0:	23478793          	addi	a5,a5,564 # 800002f0 <_bss_start>
800000c4:	00878a63          	beq	a5,s0,800000d8 <main+0xb0>
800000c8:	00042503          	lw	a0,0(s0)
800000cc:	00012603          	lw	a2,0(sp)
800000d0:	41f55593          	srai	a1,a0,0x1f
800000d4:	fb9ff06f          	j	8000008c <main+0x64>
800000d8:	00c12783          	lw	a5,12(sp)
800000dc:	00812403          	lw	s0,8(sp)
800000e0:	00100513          	li	a0,1
800000e4:	00478793          	addi	a5,a5,4
800000e8:	408787b3          	sub	a5,a5,s0
800000ec:	00f12623          	sw	a5,12(sp)
800000f0:	f21ff0ef          	jal	ra,80000010 <check>
800000f4:	00300793          	li	a5,3
800000f8:	02f40a63          	beq	s0,a5,8000012c <main+0x104>
800000fc:	00812783          	lw	a5,8(sp)
80000100:	00400713          	li	a4,4
80000104:	00178793          	addi	a5,a5,1
80000108:	00f12423          	sw	a5,8(sp)
8000010c:	01012783          	lw	a5,16(sp)
80000110:	00478793          	addi	a5,a5,4
80000114:	00f12823          	sw	a5,16(sp)
80000118:	00812783          	lw	a5,8(sp)
8000011c:	f2e79ee3          	bne	a5,a4,80000058 <main+0x30>
80000120:	00100513          	li	a0,1
80000124:	eedff0ef          	jal	ra,80000010 <check>
80000128:	fd5ff06f          	j	800000fc <main+0xd4>
8000012c:	00100513          	li	a0,1
80000130:	ee1ff0ef          	jal	ra,80000010 <check>
80000134:	01c12083          	lw	ra,28(sp)
80000138:	01812403          	lw	s0,24(sp)
8000013c:	01412483          	lw	s1,20(sp)
80000140:	00000513          	li	a0,0
80000144:	02010113          	addi	sp,sp,32
80000148:	00008067          	ret

8000014c <halt>:
8000014c:	00100073          	ebreak
80000150:	0000006f          	j	80000150 <halt+0x4>

80000154 <_trm_init>:
80000154:	ff410113          	addi	sp,sp,-12
80000158:	00000517          	auipc	a0,0x0
8000015c:	0f450513          	addi	a0,a0,244 # 8000024c <_etext>
80000160:	00112423          	sw	ra,8(sp)
80000164:	ec5ff0ef          	jal	ra,80000028 <main>
80000168:	00100073          	ebreak
8000016c:	0000006f          	j	8000016c <_trm_init+0x18>

80000170 <__muldi3>:
80000170:	fe810113          	addi	sp,sp,-24
80000174:	00050793          	mv	a5,a0
80000178:	00a12423          	sw	a0,8(sp)
8000017c:	00b12023          	sw	a1,0(sp)
80000180:	00d12223          	sw	a3,4(sp)
80000184:	00112a23          	sw	ra,20(sp)
80000188:	00078693          	mv	a3,a5
8000018c:	00812823          	sw	s0,16(sp)
80000190:	00912623          	sw	s1,12(sp)
80000194:	00060513          	mv	a0,a2
80000198:	00060713          	mv	a4,a2
8000019c:	00000793          	li	a5,0
800001a0:	00000593          	li	a1,0
800001a4:	00000313          	li	t1,0
800001a8:	00668633          	add	a2,a3,t1
800001ac:	00177393          	andi	t2,a4,1
800001b0:	00f58433          	add	s0,a1,a5
800001b4:	01f6d293          	srli	t0,a3,0x1f
800001b8:	00175713          	srli	a4,a4,0x1
800001bc:	006634b3          	sltu	s1,a2,t1
800001c0:	00179793          	slli	a5,a5,0x1
800001c4:	00038663          	beqz	t2,800001d0 <__muldi3+0x60>
800001c8:	008485b3          	add	a1,s1,s0
800001cc:	00060313          	mv	t1,a2
800001d0:	00169693          	slli	a3,a3,0x1
800001d4:	0057e7b3          	or	a5,a5,t0
800001d8:	fc0718e3          	bnez	a4,800001a8 <__muldi3+0x38>
800001dc:	00012703          	lw	a4,0(sp)
800001e0:	00058793          	mv	a5,a1
800001e4:	00070863          	beqz	a4,800001f4 <__muldi3+0x84>
800001e8:	00070593          	mv	a1,a4
800001ec:	03c000ef          	jal	ra,80000228 <__mulsi3>
800001f0:	00a787b3          	add	a5,a5,a0
800001f4:	00412703          	lw	a4,4(sp)
800001f8:	00070a63          	beqz	a4,8000020c <__muldi3+0x9c>
800001fc:	00812503          	lw	a0,8(sp)
80000200:	00070593          	mv	a1,a4
80000204:	024000ef          	jal	ra,80000228 <__mulsi3>
80000208:	00f507b3          	add	a5,a0,a5
8000020c:	01412083          	lw	ra,20(sp)
80000210:	01012403          	lw	s0,16(sp)
80000214:	00c12483          	lw	s1,12(sp)
80000218:	00030513          	mv	a0,t1
8000021c:	00078593          	mv	a1,a5
80000220:	01810113          	addi	sp,sp,24
80000224:	00008067          	ret

80000228 <__mulsi3>:
80000228:	00050613          	mv	a2,a0
8000022c:	00000513          	li	a0,0
80000230:	0015f693          	andi	a3,a1,1
80000234:	00068463          	beqz	a3,8000023c <__mulsi3+0x14>
80000238:	00c50533          	add	a0,a0,a2
8000023c:	0015d593          	srli	a1,a1,0x1
80000240:	00161613          	slli	a2,a2,0x1
80000244:	fe0596e3          	bnez	a1,80000230 <__mulsi3+0x8>
80000248:	00008067          	ret
