
/home/meowth/ysyx/ysyx-workbench/am-kernels/tests/cpu-tests/build/pascal-riscv32e-npc.elf:     file format elf32-littleriscv


Disassembly of section .text:

80000000 <_start>:
80000000:	00000413          	li	s0,0
80000004:	00009117          	auipc	sp,0x9
80000008:	ffc10113          	addi	sp,sp,-4 # 80009000 <_end>
8000000c:	0f8000ef          	jal	ra,80000104 <_trm_init>

80000010 <check>:
80000010:	00050463          	beqz	a0,80000018 <check+0x8>
80000014:	00008067          	ret
80000018:	ff410113          	addi	sp,sp,-12
8000001c:	00100513          	li	a0,1
80000020:	00112423          	sw	ra,8(sp)
80000024:	0d8000ef          	jal	ra,800000fc <halt>

80000028 <main>:
80000028:	ff410113          	addi	sp,sp,-12
8000002c:	00112423          	sw	ra,8(sp)
80000030:	00812223          	sw	s0,4(sp)
80000034:	00912023          	sw	s1,0(sp)
80000038:	00000517          	auipc	a0,0x0
8000003c:	1a450513          	addi	a0,a0,420 # 800001dc <a>
80000040:	00100793          	li	a5,1
80000044:	00f52223          	sw	a5,4(a0)
80000048:	00f52023          	sw	a5,0(a0)
8000004c:	00000597          	auipc	a1,0x0
80000050:	19858593          	addi	a1,a1,408 # 800001e4 <a+0x8>
80000054:	00000297          	auipc	t0,0x0
80000058:	20428293          	addi	t0,t0,516 # 80000258 <a+0x7c>
8000005c:	00100713          	li	a4,1
80000060:	00100313          	li	t1,1
80000064:	00000417          	auipc	s0,0x0
80000068:	17c40413          	addi	s0,s0,380 # 800001e0 <a+0x4>
8000006c:	00040793          	mv	a5,s0
80000070:	00100693          	li	a3,1
80000074:	0080006f          	j	8000007c <main+0x54>
80000078:	0007a703          	lw	a4,0(a5)
8000007c:	00d70633          	add	a2,a4,a3
80000080:	00c7a023          	sw	a2,0(a5)
80000084:	00478793          	addi	a5,a5,4
80000088:	00070693          	mv	a3,a4
8000008c:	feb796e3          	bne	a5,a1,80000078 <main+0x50>
80000090:	0067a023          	sw	t1,0(a5)
80000094:	00478593          	addi	a1,a5,4
80000098:	00558663          	beq	a1,t0,800000a4 <main+0x7c>
8000009c:	00452703          	lw	a4,4(a0)
800000a0:	fc5ff06f          	j	80000064 <main+0x3c>
800000a4:	00000497          	auipc	s1,0x0
800000a8:	0bc48493          	addi	s1,s1,188 # 80000160 <ans>
800000ac:	00100713          	li	a4,1
800000b0:	00c0006f          	j	800000bc <main+0x94>
800000b4:	00042703          	lw	a4,0(s0)
800000b8:	00440413          	addi	s0,s0,4
800000bc:	0004a503          	lw	a0,0(s1)
800000c0:	00448493          	addi	s1,s1,4
800000c4:	40e50533          	sub	a0,a0,a4
800000c8:	00153513          	seqz	a0,a0
800000cc:	f45ff0ef          	jal	ra,80000010 <check>
800000d0:	00000797          	auipc	a5,0x0
800000d4:	10c78793          	addi	a5,a5,268 # 800001dc <a>
800000d8:	fc979ee3          	bne	a5,s1,800000b4 <main+0x8c>
800000dc:	00100513          	li	a0,1
800000e0:	f31ff0ef          	jal	ra,80000010 <check>
800000e4:	00812083          	lw	ra,8(sp)
800000e8:	00412403          	lw	s0,4(sp)
800000ec:	00012483          	lw	s1,0(sp)
800000f0:	00000513          	li	a0,0
800000f4:	00c10113          	addi	sp,sp,12
800000f8:	00008067          	ret

800000fc <halt>:
800000fc:	00100073          	ebreak
80000100:	0000006f          	j	80000100 <halt+0x4>

80000104 <_trm_init>:
80000104:	ff410113          	addi	sp,sp,-12
80000108:	00000517          	auipc	a0,0x0
8000010c:	01850513          	addi	a0,a0,24 # 80000120 <_etext>
80000110:	00112423          	sw	ra,8(sp)
80000114:	f15ff0ef          	jal	ra,80000028 <main>
80000118:	00100073          	ebreak
8000011c:	0000006f          	j	8000011c <_trm_init+0x18>
