
/home/meowth/ysyx/ysyx-workbench/am-kernels/tests/cpu-tests/build/pascal-riscv32-nemu.elf:     file format elf32-littleriscv


Disassembly of section .text:

80000000 <_start>:
80000000:	00000413          	li	s0,0
80000004:	00009117          	auipc	sp,0x9
80000008:	ffc10113          	addi	sp,sp,-4 # 80009000 <_end>
8000000c:	104000ef          	jal	ra,80000110 <_trm_init>

80000010 <check>:
80000010:	00050463          	beqz	a0,80000018 <check+0x8>
80000014:	00008067          	ret
80000018:	ff010113          	addi	sp,sp,-16
8000001c:	00100513          	li	a0,1
80000020:	00112623          	sw	ra,12(sp)
80000024:	0e0000ef          	jal	ra,80000104 <halt>

80000028 <main>:
80000028:	ff010113          	addi	sp,sp,-16
8000002c:	00112623          	sw	ra,12(sp)
80000030:	00812423          	sw	s0,8(sp)
80000034:	00912223          	sw	s1,4(sp)
80000038:	01212023          	sw	s2,0(sp)
8000003c:	00000517          	auipc	a0,0x0
80000040:	1b050513          	addi	a0,a0,432 # 800001ec <a>
80000044:	00100793          	li	a5,1
80000048:	00f52223          	sw	a5,4(a0)
8000004c:	00f52023          	sw	a5,0(a0)
80000050:	00000597          	auipc	a1,0x0
80000054:	1a458593          	addi	a1,a1,420 # 800001f4 <a+0x8>
80000058:	00000897          	auipc	a7,0x0
8000005c:	21088893          	addi	a7,a7,528 # 80000268 <a+0x7c>
80000060:	00100713          	li	a4,1
80000064:	00100813          	li	a6,1
80000068:	00000417          	auipc	s0,0x0
8000006c:	18840413          	addi	s0,s0,392 # 800001f0 <a+0x4>
80000070:	00040793          	mv	a5,s0
80000074:	00100693          	li	a3,1
80000078:	0080006f          	j	80000080 <main+0x58>
8000007c:	0007a703          	lw	a4,0(a5)
80000080:	00d70633          	add	a2,a4,a3
80000084:	00c7a023          	sw	a2,0(a5)
80000088:	00478793          	addi	a5,a5,4
8000008c:	00070693          	mv	a3,a4
80000090:	feb796e3          	bne	a5,a1,8000007c <main+0x54>
80000094:	0107a023          	sw	a6,0(a5)
80000098:	00478593          	addi	a1,a5,4
8000009c:	01158663          	beq	a1,a7,800000a8 <main+0x80>
800000a0:	00452703          	lw	a4,4(a0)
800000a4:	fc5ff06f          	j	80000068 <main+0x40>
800000a8:	00000497          	auipc	s1,0x0
800000ac:	0c848493          	addi	s1,s1,200 # 80000170 <ans>
800000b0:	00000917          	auipc	s2,0x0
800000b4:	13c90913          	addi	s2,s2,316 # 800001ec <a>
800000b8:	00100793          	li	a5,1
800000bc:	00c0006f          	j	800000c8 <main+0xa0>
800000c0:	00042783          	lw	a5,0(s0)
800000c4:	00440413          	addi	s0,s0,4
800000c8:	0004a503          	lw	a0,0(s1)
800000cc:	00448493          	addi	s1,s1,4
800000d0:	40f50533          	sub	a0,a0,a5
800000d4:	00153513          	seqz	a0,a0
800000d8:	f39ff0ef          	jal	ra,80000010 <check>
800000dc:	fe9912e3          	bne	s2,s1,800000c0 <main+0x98>
800000e0:	00100513          	li	a0,1
800000e4:	f2dff0ef          	jal	ra,80000010 <check>
800000e8:	00c12083          	lw	ra,12(sp)
800000ec:	00812403          	lw	s0,8(sp)
800000f0:	00412483          	lw	s1,4(sp)
800000f4:	00012903          	lw	s2,0(sp)
800000f8:	00000513          	li	a0,0
800000fc:	01010113          	addi	sp,sp,16
80000100:	00008067          	ret

80000104 <halt>:
80000104:	00050513          	mv	a0,a0
80000108:	00100073          	ebreak
8000010c:	0000006f          	j	8000010c <halt+0x8>

80000110 <_trm_init>:
80000110:	ff010113          	addi	sp,sp,-16
80000114:	00000517          	auipc	a0,0x0
80000118:	01c50513          	addi	a0,a0,28 # 80000130 <_etext>
8000011c:	00112623          	sw	ra,12(sp)
80000120:	f09ff0ef          	jal	ra,80000028 <main>
80000124:	00050513          	mv	a0,a0
80000128:	00100073          	ebreak
8000012c:	0000006f          	j	8000012c <_trm_init+0x1c>
