
/home/meowth/ysyx/ysyx-workbench/am-kernels/tests/cpu-tests/build/quick-sort-riscv32e-npc.elf:     file format elf32-littleriscv


Disassembly of section .text:

80000000 <_start>:
80000000:	00000413          	li	s0,0
80000004:	00009117          	auipc	sp,0x9
80000008:	ffc10113          	addi	sp,sp,-4 # 80009000 <_end>
8000000c:	3ec000ef          	jal	ra,800003f8 <_trm_init>

80000010 <check>:
80000010:	00050463          	beqz	a0,80000018 <check+0x8>
80000014:	00008067          	ret
80000018:	ff410113          	addi	sp,sp,-12
8000001c:	00100513          	li	a0,1
80000020:	00112423          	sw	ra,8(sp)
80000024:	3cc000ef          	jal	ra,800003f0 <halt>

80000028 <partition>:
80000028:	00259693          	slli	a3,a1,0x2
8000002c:	00d503b3          	add	t2,a0,a3
80000030:	00050313          	mv	t1,a0
80000034:	0003a283          	lw	t0,0(t2)
80000038:	00060513          	mv	a0,a2
8000003c:	08c5d863          	bge	a1,a2,800000cc <partition+0xa4>
80000040:	00261793          	slli	a5,a2,0x2
80000044:	00f307b3          	add	a5,t1,a5
80000048:	0007a783          	lw	a5,0(a5)
8000004c:	fff50713          	addi	a4,a0,-1
80000050:	00271713          	slli	a4,a4,0x2
80000054:	00e30733          	add	a4,t1,a4
80000058:	00070613          	mv	a2,a4
8000005c:	ffc70713          	addi	a4,a4,-4
80000060:	02f2d463          	bge	t0,a5,80000088 <partition+0x60>
80000064:	fff50513          	addi	a0,a0,-1
80000068:	00472783          	lw	a5,4(a4)
8000006c:	fea5c6e3          	blt	a1,a0,80000058 <partition+0x30>
80000070:	00d303b3          	add	t2,t1,a3
80000074:	00f3a023          	sw	a5,0(t2)
80000078:	00058513          	mv	a0,a1
8000007c:	00f62023          	sw	a5,0(a2)
80000080:	0053a023          	sw	t0,0(t2)
80000084:	00008067          	ret
80000088:	00d303b3          	add	t2,t1,a3
8000008c:	00251613          	slli	a2,a0,0x2
80000090:	00f3a023          	sw	a5,0(t2)
80000094:	00c30633          	add	a2,t1,a2
80000098:	04a5d063          	bge	a1,a0,800000d8 <partition+0xb0>
8000009c:	00468713          	addi	a4,a3,4
800000a0:	00e30733          	add	a4,t1,a4
800000a4:	00070393          	mv	t2,a4
800000a8:	00158593          	addi	a1,a1,1
800000ac:	00470713          	addi	a4,a4,4
800000b0:	ffc72783          	lw	a5,-4(a4)
800000b4:	fca584e3          	beq	a1,a0,8000007c <partition+0x54>
800000b8:	fef2d6e3          	bge	t0,a5,800000a4 <partition+0x7c>
800000bc:	00f62023          	sw	a5,0(a2)
800000c0:	02a5d063          	bge	a1,a0,800000e0 <partition+0xb8>
800000c4:	00259693          	slli	a3,a1,0x2
800000c8:	f85ff06f          	j	8000004c <partition+0x24>
800000cc:	00058513          	mv	a0,a1
800000d0:	0053a023          	sw	t0,0(t2)
800000d4:	00008067          	ret
800000d8:	00058513          	mv	a0,a1
800000dc:	fa1ff06f          	j	8000007c <partition+0x54>
800000e0:	00259393          	slli	t2,a1,0x2
800000e4:	007303b3          	add	t2,t1,t2
800000e8:	00058513          	mv	a0,a1
800000ec:	f95ff06f          	j	80000080 <partition+0x58>

800000f0 <quick_sort>:
800000f0:	fb010113          	addi	sp,sp,-80
800000f4:	04112623          	sw	ra,76(sp)
800000f8:	04812423          	sw	s0,72(sp)
800000fc:	04912223          	sw	s1,68(sp)
80000100:	02c12423          	sw	a2,40(sp)
80000104:	22c5d063          	bge	a1,a2,80000324 <quick_sort+0x234>
80000108:	00050493          	mv	s1,a0
8000010c:	00058413          	mv	s0,a1
80000110:	02812603          	lw	a2,40(sp)
80000114:	00040593          	mv	a1,s0
80000118:	00048513          	mv	a0,s1
8000011c:	f0dff0ef          	jal	ra,80000028 <partition>
80000120:	fff50793          	addi	a5,a0,-1
80000124:	02a12623          	sw	a0,44(sp)
80000128:	00f12e23          	sw	a5,28(sp)
8000012c:	1ef45463          	bge	s0,a5,80000314 <quick_sort+0x224>
80000130:	00040793          	mv	a5,s0
80000134:	00048413          	mv	s0,s1
80000138:	00078493          	mv	s1,a5
8000013c:	01c12603          	lw	a2,28(sp)
80000140:	00048593          	mv	a1,s1
80000144:	00040513          	mv	a0,s0
80000148:	ee1ff0ef          	jal	ra,80000028 <partition>
8000014c:	fff50793          	addi	a5,a0,-1
80000150:	02a12823          	sw	a0,48(sp)
80000154:	02f12023          	sw	a5,32(sp)
80000158:	1af4d463          	bge	s1,a5,80000300 <quick_sort+0x210>
8000015c:	00048793          	mv	a5,s1
80000160:	00040493          	mv	s1,s0
80000164:	00078413          	mv	s0,a5
80000168:	02012603          	lw	a2,32(sp)
8000016c:	00040593          	mv	a1,s0
80000170:	00048513          	mv	a0,s1
80000174:	eb5ff0ef          	jal	ra,80000028 <partition>
80000178:	fff50793          	addi	a5,a0,-1
8000017c:	02a12a23          	sw	a0,52(sp)
80000180:	02f12223          	sw	a5,36(sp)
80000184:	16f45463          	bge	s0,a5,800002ec <quick_sort+0x1fc>
80000188:	02412603          	lw	a2,36(sp)
8000018c:	00040593          	mv	a1,s0
80000190:	00048513          	mv	a0,s1
80000194:	e95ff0ef          	jal	ra,80000028 <partition>
80000198:	fff50793          	addi	a5,a0,-1
8000019c:	02a12c23          	sw	a0,56(sp)
800001a0:	00f12023          	sw	a5,0(sp)
800001a4:	12f45c63          	bge	s0,a5,800002dc <quick_sort+0x1ec>
800001a8:	00040793          	mv	a5,s0
800001ac:	00048413          	mv	s0,s1
800001b0:	00078493          	mv	s1,a5
800001b4:	00012603          	lw	a2,0(sp)
800001b8:	00048593          	mv	a1,s1
800001bc:	00040513          	mv	a0,s0
800001c0:	e69ff0ef          	jal	ra,80000028 <partition>
800001c4:	fff50793          	addi	a5,a0,-1
800001c8:	00a12223          	sw	a0,4(sp)
800001cc:	00f12423          	sw	a5,8(sp)
800001d0:	0ef4dc63          	bge	s1,a5,800002c8 <quick_sort+0x1d8>
800001d4:	00812603          	lw	a2,8(sp)
800001d8:	00048593          	mv	a1,s1
800001dc:	00040513          	mv	a0,s0
800001e0:	e49ff0ef          	jal	ra,80000028 <partition>
800001e4:	fff50793          	addi	a5,a0,-1
800001e8:	00a12a23          	sw	a0,20(sp)
800001ec:	00f12c23          	sw	a5,24(sp)
800001f0:	0cf4d463          	bge	s1,a5,800002b8 <quick_sort+0x1c8>
800001f4:	01812603          	lw	a2,24(sp)
800001f8:	00048593          	mv	a1,s1
800001fc:	00040513          	mv	a0,s0
80000200:	e29ff0ef          	jal	ra,80000028 <partition>
80000204:	02a12e23          	sw	a0,60(sp)
80000208:	fff50713          	addi	a4,a0,-1
8000020c:	08e4de63          	bge	s1,a4,800002a8 <quick_sort+0x1b8>
80000210:	00040693          	mv	a3,s0
80000214:	00070613          	mv	a2,a4
80000218:	00068513          	mv	a0,a3
8000021c:	00048593          	mv	a1,s1
80000220:	00e12823          	sw	a4,16(sp)
80000224:	00d12623          	sw	a3,12(sp)
80000228:	e01ff0ef          	jal	ra,80000028 <partition>
8000022c:	fff50793          	addi	a5,a0,-1
80000230:	00c12683          	lw	a3,12(sp)
80000234:	01012703          	lw	a4,16(sp)
80000238:	00050413          	mv	s0,a0
8000023c:	06f4d063          	bge	s1,a5,8000029c <quick_sort+0x1ac>
80000240:	00068613          	mv	a2,a3
80000244:	00060413          	mv	s0,a2
80000248:	00050693          	mv	a3,a0
8000024c:	00078613          	mv	a2,a5
80000250:	00048593          	mv	a1,s1
80000254:	00040513          	mv	a0,s0
80000258:	04d12023          	sw	a3,64(sp)
8000025c:	00e12823          	sw	a4,16(sp)
80000260:	00f12623          	sw	a5,12(sp)
80000264:	dc5ff0ef          	jal	ra,80000028 <partition>
80000268:	00050313          	mv	t1,a0
8000026c:	00048593          	mv	a1,s1
80000270:	fff50613          	addi	a2,a0,-1
80000274:	00040513          	mv	a0,s0
80000278:	00130493          	addi	s1,t1,1
8000027c:	e75ff0ef          	jal	ra,800000f0 <quick_sort>
80000280:	00c12783          	lw	a5,12(sp)
80000284:	01012703          	lw	a4,16(sp)
80000288:	04012683          	lw	a3,64(sp)
8000028c:	fcf4c0e3          	blt	s1,a5,8000024c <quick_sort+0x15c>
80000290:	00040793          	mv	a5,s0
80000294:	00068413          	mv	s0,a3
80000298:	00078693          	mv	a3,a5
8000029c:	00140493          	addi	s1,s0,1
800002a0:	f6e4cae3          	blt	s1,a4,80000214 <quick_sort+0x124>
800002a4:	00068413          	mv	s0,a3
800002a8:	03c12783          	lw	a5,60(sp)
800002ac:	00178493          	addi	s1,a5,1
800002b0:	01812783          	lw	a5,24(sp)
800002b4:	f4f4c0e3          	blt	s1,a5,800001f4 <quick_sort+0x104>
800002b8:	01412783          	lw	a5,20(sp)
800002bc:	00178493          	addi	s1,a5,1
800002c0:	00812783          	lw	a5,8(sp)
800002c4:	f0f4c8e3          	blt	s1,a5,800001d4 <quick_sort+0xe4>
800002c8:	00412783          	lw	a5,4(sp)
800002cc:	00178493          	addi	s1,a5,1
800002d0:	00012783          	lw	a5,0(sp)
800002d4:	eef4c0e3          	blt	s1,a5,800001b4 <quick_sort+0xc4>
800002d8:	00040493          	mv	s1,s0
800002dc:	03812783          	lw	a5,56(sp)
800002e0:	00178413          	addi	s0,a5,1
800002e4:	02412783          	lw	a5,36(sp)
800002e8:	eaf440e3          	blt	s0,a5,80000188 <quick_sort+0x98>
800002ec:	03412783          	lw	a5,52(sp)
800002f0:	00178413          	addi	s0,a5,1
800002f4:	02012783          	lw	a5,32(sp)
800002f8:	e6f448e3          	blt	s0,a5,80000168 <quick_sort+0x78>
800002fc:	00048413          	mv	s0,s1
80000300:	03012783          	lw	a5,48(sp)
80000304:	00178493          	addi	s1,a5,1
80000308:	01c12783          	lw	a5,28(sp)
8000030c:	e2f4c8e3          	blt	s1,a5,8000013c <quick_sort+0x4c>
80000310:	00040493          	mv	s1,s0
80000314:	02c12783          	lw	a5,44(sp)
80000318:	00178413          	addi	s0,a5,1
8000031c:	02812783          	lw	a5,40(sp)
80000320:	def448e3          	blt	s0,a5,80000110 <quick_sort+0x20>
80000324:	04c12083          	lw	ra,76(sp)
80000328:	04812403          	lw	s0,72(sp)
8000032c:	04412483          	lw	s1,68(sp)
80000330:	05010113          	addi	sp,sp,80
80000334:	00008067          	ret

80000338 <main>:
80000338:	ff010113          	addi	sp,sp,-16
8000033c:	00000517          	auipc	a0,0x0
80000340:	11850513          	addi	a0,a0,280 # 80000454 <a>
80000344:	01300613          	li	a2,19
80000348:	00000593          	li	a1,0
8000034c:	00812423          	sw	s0,8(sp)
80000350:	00912223          	sw	s1,4(sp)
80000354:	00050413          	mv	s0,a0
80000358:	00112623          	sw	ra,12(sp)
8000035c:	d95ff0ef          	jal	ra,800000f0 <quick_sort>
80000360:	00040713          	mv	a4,s0
80000364:	00000493          	li	s1,0
80000368:	00072503          	lw	a0,0(a4)
8000036c:	00470713          	addi	a4,a4,4
80000370:	00e12023          	sw	a4,0(sp)
80000374:	40950533          	sub	a0,a0,s1
80000378:	00153513          	seqz	a0,a0
8000037c:	c95ff0ef          	jal	ra,80000010 <check>
80000380:	00148493          	addi	s1,s1,1
80000384:	01400793          	li	a5,20
80000388:	00012703          	lw	a4,0(sp)
8000038c:	fcf49ee3          	bne	s1,a5,80000368 <main+0x30>
80000390:	00100513          	li	a0,1
80000394:	c7dff0ef          	jal	ra,80000010 <check>
80000398:	01300613          	li	a2,19
8000039c:	00000593          	li	a1,0
800003a0:	00000517          	auipc	a0,0x0
800003a4:	0b450513          	addi	a0,a0,180 # 80000454 <a>
800003a8:	d49ff0ef          	jal	ra,800000f0 <quick_sort>
800003ac:	00000493          	li	s1,0
800003b0:	00042503          	lw	a0,0(s0)
800003b4:	00440413          	addi	s0,s0,4
800003b8:	40950533          	sub	a0,a0,s1
800003bc:	00153513          	seqz	a0,a0
800003c0:	c51ff0ef          	jal	ra,80000010 <check>
800003c4:	00148493          	addi	s1,s1,1
800003c8:	01400793          	li	a5,20
800003cc:	fef492e3          	bne	s1,a5,800003b0 <main+0x78>
800003d0:	00100513          	li	a0,1
800003d4:	c3dff0ef          	jal	ra,80000010 <check>
800003d8:	00c12083          	lw	ra,12(sp)
800003dc:	00812403          	lw	s0,8(sp)
800003e0:	00412483          	lw	s1,4(sp)
800003e4:	00000513          	li	a0,0
800003e8:	01010113          	addi	sp,sp,16
800003ec:	00008067          	ret

800003f0 <halt>:
800003f0:	00100073          	ebreak
800003f4:	0000006f          	j	800003f4 <halt+0x4>

800003f8 <_trm_init>:
800003f8:	ff410113          	addi	sp,sp,-12
800003fc:	00000517          	auipc	a0,0x0
80000400:	01850513          	addi	a0,a0,24 # 80000414 <_etext>
80000404:	00112423          	sw	ra,8(sp)
80000408:	f31ff0ef          	jal	ra,80000338 <main>
8000040c:	00100073          	ebreak
80000410:	0000006f          	j	80000410 <_trm_init+0x18>
