
/home/meowth/ysyx/ysyx-workbench/am-kernels/tests/cpu-tests/build/select-sort-riscv32e-npc.elf:     file format elf32-littleriscv


Disassembly of section .text:

80000000 <_start>:
80000000:	00000413          	li	s0,0
80000004:	00009117          	auipc	sp,0x9
80000008:	ffc10113          	addi	sp,sp,-4 # 80009000 <_end>
8000000c:	144000ef          	jal	ra,80000150 <_trm_init>

80000010 <check>:
80000010:	00050463          	beqz	a0,80000018 <check+0x8>
80000014:	00008067          	ret
80000018:	ff410113          	addi	sp,sp,-12
8000001c:	00100513          	li	a0,1
80000020:	00112423          	sw	ra,8(sp)
80000024:	124000ef          	jal	ra,80000148 <halt>

80000028 <select_sort>:
80000028:	ff810113          	addi	sp,sp,-8
8000002c:	00812223          	sw	s0,4(sp)
80000030:	00912023          	sw	s1,0(sp)
80000034:	00000297          	auipc	t0,0x0
80000038:	17c28293          	addi	t0,t0,380 # 800001b0 <a+0x4>
8000003c:	00000313          	li	t1,0
80000040:	00000497          	auipc	s1,0x0
80000044:	16c48493          	addi	s1,s1,364 # 800001ac <a>
80000048:	01400513          	li	a0,20
8000004c:	01300413          	li	s0,19
80000050:	ffc2a383          	lw	t2,-4(t0)
80000054:	00030593          	mv	a1,t1
80000058:	00130313          	addi	t1,t1,1
8000005c:	00028713          	mv	a4,t0
80000060:	00038613          	mv	a2,t2
80000064:	00030793          	mv	a5,t1
80000068:	00072683          	lw	a3,0(a4)
8000006c:	00470713          	addi	a4,a4,4
80000070:	00c6d663          	bge	a3,a2,8000007c <select_sort+0x54>
80000074:	00078593          	mv	a1,a5
80000078:	00068613          	mv	a2,a3
8000007c:	00178793          	addi	a5,a5,1
80000080:	fea794e3          	bne	a5,a0,80000068 <select_sort+0x40>
80000084:	00259593          	slli	a1,a1,0x2
80000088:	fec2ae23          	sw	a2,-4(t0)
8000008c:	00b485b3          	add	a1,s1,a1
80000090:	0075a023          	sw	t2,0(a1)
80000094:	00428293          	addi	t0,t0,4
80000098:	fa831ce3          	bne	t1,s0,80000050 <select_sort+0x28>
8000009c:	00412403          	lw	s0,4(sp)
800000a0:	00012483          	lw	s1,0(sp)
800000a4:	00810113          	addi	sp,sp,8
800000a8:	00008067          	ret

800000ac <main>:
800000ac:	ff010113          	addi	sp,sp,-16
800000b0:	00812423          	sw	s0,8(sp)
800000b4:	00912223          	sw	s1,4(sp)
800000b8:	00112623          	sw	ra,12(sp)
800000bc:	00000417          	auipc	s0,0x0
800000c0:	0f040413          	addi	s0,s0,240 # 800001ac <a>
800000c4:	f65ff0ef          	jal	ra,80000028 <select_sort>
800000c8:	00040713          	mv	a4,s0
800000cc:	00000493          	li	s1,0
800000d0:	00072503          	lw	a0,0(a4)
800000d4:	00470713          	addi	a4,a4,4
800000d8:	00e12023          	sw	a4,0(sp)
800000dc:	40950533          	sub	a0,a0,s1
800000e0:	00153513          	seqz	a0,a0
800000e4:	f2dff0ef          	jal	ra,80000010 <check>
800000e8:	00148493          	addi	s1,s1,1
800000ec:	01400793          	li	a5,20
800000f0:	00012703          	lw	a4,0(sp)
800000f4:	fcf49ee3          	bne	s1,a5,800000d0 <main+0x24>
800000f8:	00100513          	li	a0,1
800000fc:	f15ff0ef          	jal	ra,80000010 <check>
80000100:	00000493          	li	s1,0
80000104:	f25ff0ef          	jal	ra,80000028 <select_sort>
80000108:	00042503          	lw	a0,0(s0)
8000010c:	00440413          	addi	s0,s0,4
80000110:	40950533          	sub	a0,a0,s1
80000114:	00153513          	seqz	a0,a0
80000118:	ef9ff0ef          	jal	ra,80000010 <check>
8000011c:	00148493          	addi	s1,s1,1
80000120:	01400793          	li	a5,20
80000124:	fef492e3          	bne	s1,a5,80000108 <main+0x5c>
80000128:	00100513          	li	a0,1
8000012c:	ee5ff0ef          	jal	ra,80000010 <check>
80000130:	00c12083          	lw	ra,12(sp)
80000134:	00812403          	lw	s0,8(sp)
80000138:	00412483          	lw	s1,4(sp)
8000013c:	00000513          	li	a0,0
80000140:	01010113          	addi	sp,sp,16
80000144:	00008067          	ret

80000148 <halt>:
80000148:	00100073          	ebreak
8000014c:	0000006f          	j	8000014c <halt+0x4>

80000150 <_trm_init>:
80000150:	ff410113          	addi	sp,sp,-12
80000154:	00000517          	auipc	a0,0x0
80000158:	01850513          	addi	a0,a0,24 # 8000016c <_etext>
8000015c:	00112423          	sw	ra,8(sp)
80000160:	f4dff0ef          	jal	ra,800000ac <main>
80000164:	00100073          	ebreak
80000168:	0000006f          	j	80000168 <_trm_init+0x18>
