
/home/meowth/ysyx/ysyx-workbench/am-kernels/tests/cpu-tests/build/shift-riscv32e-npc.elf:     file format elf32-littleriscv


Disassembly of section .text:

80000000 <_start>:
80000000:	00000413          	li	s0,0
80000004:	00009117          	auipc	sp,0x9
80000008:	ffc10113          	addi	sp,sp,-4 # 80009000 <_end>
8000000c:	124000ef          	jal	ra,80000130 <_trm_init>

80000010 <check>:
80000010:	00050463          	beqz	a0,80000018 <check+0x8>
80000014:	00008067          	ret
80000018:	ff410113          	addi	sp,sp,-12
8000001c:	00100513          	li	a0,1
80000020:	00112423          	sw	ra,8(sp)
80000024:	104000ef          	jal	ra,80000128 <halt>

80000028 <main>:
80000028:	fec10113          	addi	sp,sp,-20
8000002c:	00812623          	sw	s0,12(sp)
80000030:	00000417          	auipc	s0,0x0
80000034:	1bc40413          	addi	s0,s0,444 # 800001ec <test>
80000038:	00912423          	sw	s1,8(sp)
8000003c:	00112823          	sw	ra,16(sp)
80000040:	00000717          	auipc	a4,0x0
80000044:	16c70713          	addi	a4,a4,364 # 800001ac <srl_ans>
80000048:	00040493          	mv	s1,s0
8000004c:	0004a503          	lw	a0,0(s1)
80000050:	00072683          	lw	a3,0(a4)
80000054:	00e12023          	sw	a4,0(sp)
80000058:	00755513          	srli	a0,a0,0x7
8000005c:	40d50533          	sub	a0,a0,a3
80000060:	00153513          	seqz	a0,a0
80000064:	fadff0ef          	jal	ra,80000010 <check>
80000068:	00012703          	lw	a4,0(sp)
8000006c:	00448493          	addi	s1,s1,4
80000070:	00000797          	auipc	a5,0x0
80000074:	19c78793          	addi	a5,a5,412 # 8000020c <_bss_start>
80000078:	00470713          	addi	a4,a4,4
8000007c:	fcf498e3          	bne	s1,a5,8000004c <main+0x24>
80000080:	00000697          	auipc	a3,0x0
80000084:	10c68693          	addi	a3,a3,268 # 8000018c <srav_ans>
80000088:	00000717          	auipc	a4,0x0
8000008c:	16470713          	addi	a4,a4,356 # 800001ec <test>
80000090:	00400493          	li	s1,4
80000094:	00072503          	lw	a0,0(a4)
80000098:	0006a603          	lw	a2,0(a3)
8000009c:	00470713          	addi	a4,a4,4
800000a0:	40955533          	sra	a0,a0,s1
800000a4:	40c50533          	sub	a0,a0,a2
800000a8:	00153513          	seqz	a0,a0
800000ac:	00d12223          	sw	a3,4(sp)
800000b0:	00e12023          	sw	a4,0(sp)
800000b4:	f5dff0ef          	jal	ra,80000010 <check>
800000b8:	00412683          	lw	a3,4(sp)
800000bc:	00148493          	addi	s1,s1,1
800000c0:	00c00793          	li	a5,12
800000c4:	00012703          	lw	a4,0(sp)
800000c8:	00468693          	addi	a3,a3,4
800000cc:	fcf494e3          	bne	s1,a5,80000094 <main+0x6c>
800000d0:	00000717          	auipc	a4,0x0
800000d4:	0fc70713          	addi	a4,a4,252 # 800001cc <srlv_ans>
800000d8:	00400493          	li	s1,4
800000dc:	00042503          	lw	a0,0(s0)
800000e0:	00072683          	lw	a3,0(a4)
800000e4:	00e12023          	sw	a4,0(sp)
800000e8:	00955533          	srl	a0,a0,s1
800000ec:	40d50533          	sub	a0,a0,a3
800000f0:	00153513          	seqz	a0,a0
800000f4:	f1dff0ef          	jal	ra,80000010 <check>
800000f8:	00012703          	lw	a4,0(sp)
800000fc:	00148493          	addi	s1,s1,1
80000100:	00c00793          	li	a5,12
80000104:	00440413          	addi	s0,s0,4
80000108:	00470713          	addi	a4,a4,4
8000010c:	fcf498e3          	bne	s1,a5,800000dc <main+0xb4>
80000110:	01012083          	lw	ra,16(sp)
80000114:	00c12403          	lw	s0,12(sp)
80000118:	00812483          	lw	s1,8(sp)
8000011c:	00000513          	li	a0,0
80000120:	01410113          	addi	sp,sp,20
80000124:	00008067          	ret

80000128 <halt>:
80000128:	00100073          	ebreak
8000012c:	0000006f          	j	8000012c <halt+0x4>

80000130 <_trm_init>:
80000130:	ff410113          	addi	sp,sp,-12
80000134:	00000517          	auipc	a0,0x0
80000138:	01850513          	addi	a0,a0,24 # 8000014c <_etext>
8000013c:	00112423          	sw	ra,8(sp)
80000140:	ee9ff0ef          	jal	ra,80000028 <main>
80000144:	00100073          	ebreak
80000148:	0000006f          	j	80000148 <_trm_init+0x18>
