
/home/meowth/ysyx/ysyx-workbench/am-kernels/tests/cpu-tests/build/shift-riscv32-nemu.elf:     file format elf32-littleriscv


Disassembly of section .text:

80000000 <_start>:
80000000:	00000413          	li	s0,0
80000004:	00009117          	auipc	sp,0x9
80000008:	ffc10113          	addi	sp,sp,-4 # 80009000 <_end>
8000000c:	120000ef          	jal	ra,8000012c <_trm_init>

80000010 <check>:
80000010:	00050463          	beqz	a0,80000018 <check+0x8>
80000014:	00008067          	ret
80000018:	ff010113          	addi	sp,sp,-16
8000001c:	00100513          	li	a0,1
80000020:	00112623          	sw	ra,12(sp)
80000024:	0fc000ef          	jal	ra,80000120 <halt>

80000028 <main>:
80000028:	fe010113          	addi	sp,sp,-32
8000002c:	00912a23          	sw	s1,20(sp)
80000030:	00000497          	auipc	s1,0x0
80000034:	1bc48493          	addi	s1,s1,444 # 800001ec <test>
80000038:	00812c23          	sw	s0,24(sp)
8000003c:	01212823          	sw	s2,16(sp)
80000040:	01312623          	sw	s3,12(sp)
80000044:	00112e23          	sw	ra,28(sp)
80000048:	01412423          	sw	s4,8(sp)
8000004c:	00000917          	auipc	s2,0x0
80000050:	16090913          	addi	s2,s2,352 # 800001ac <srl_ans>
80000054:	00000997          	auipc	s3,0x0
80000058:	1b898993          	addi	s3,s3,440 # 8000020c <_bss_start>
8000005c:	00048413          	mv	s0,s1
80000060:	00042503          	lw	a0,0(s0)
80000064:	00092783          	lw	a5,0(s2)
80000068:	00440413          	addi	s0,s0,4
8000006c:	00755513          	srli	a0,a0,0x7
80000070:	40f50533          	sub	a0,a0,a5
80000074:	00153513          	seqz	a0,a0
80000078:	f99ff0ef          	jal	ra,80000010 <check>
8000007c:	00490913          	addi	s2,s2,4
80000080:	ff3410e3          	bne	s0,s3,80000060 <main+0x38>
80000084:	00000997          	auipc	s3,0x0
80000088:	10898993          	addi	s3,s3,264 # 8000018c <srav_ans>
8000008c:	00000917          	auipc	s2,0x0
80000090:	16090913          	addi	s2,s2,352 # 800001ec <test>
80000094:	00400413          	li	s0,4
80000098:	00c00a13          	li	s4,12
8000009c:	00092503          	lw	a0,0(s2)
800000a0:	0009a783          	lw	a5,0(s3)
800000a4:	00490913          	addi	s2,s2,4
800000a8:	40855533          	sra	a0,a0,s0
800000ac:	40f50533          	sub	a0,a0,a5
800000b0:	00153513          	seqz	a0,a0
800000b4:	00140413          	addi	s0,s0,1
800000b8:	f59ff0ef          	jal	ra,80000010 <check>
800000bc:	00498993          	addi	s3,s3,4
800000c0:	fd441ee3          	bne	s0,s4,8000009c <main+0x74>
800000c4:	00000917          	auipc	s2,0x0
800000c8:	10890913          	addi	s2,s2,264 # 800001cc <srlv_ans>
800000cc:	00400413          	li	s0,4
800000d0:	00c00993          	li	s3,12
800000d4:	0004a503          	lw	a0,0(s1)
800000d8:	00092783          	lw	a5,0(s2)
800000dc:	00448493          	addi	s1,s1,4
800000e0:	00855533          	srl	a0,a0,s0
800000e4:	40f50533          	sub	a0,a0,a5
800000e8:	00153513          	seqz	a0,a0
800000ec:	00140413          	addi	s0,s0,1
800000f0:	f21ff0ef          	jal	ra,80000010 <check>
800000f4:	00490913          	addi	s2,s2,4
800000f8:	fd341ee3          	bne	s0,s3,800000d4 <main+0xac>
800000fc:	01c12083          	lw	ra,28(sp)
80000100:	01812403          	lw	s0,24(sp)
80000104:	01412483          	lw	s1,20(sp)
80000108:	01012903          	lw	s2,16(sp)
8000010c:	00c12983          	lw	s3,12(sp)
80000110:	00812a03          	lw	s4,8(sp)
80000114:	00000513          	li	a0,0
80000118:	02010113          	addi	sp,sp,32
8000011c:	00008067          	ret

80000120 <halt>:
80000120:	00050513          	mv	a0,a0
80000124:	00100073          	ebreak
80000128:	0000006f          	j	80000128 <halt+0x8>

8000012c <_trm_init>:
8000012c:	ff010113          	addi	sp,sp,-16
80000130:	00000517          	auipc	a0,0x0
80000134:	01c50513          	addi	a0,a0,28 # 8000014c <_etext>
80000138:	00112623          	sw	ra,12(sp)
8000013c:	eedff0ef          	jal	ra,80000028 <main>
80000140:	00050513          	mv	a0,a0
80000144:	00100073          	ebreak
80000148:	0000006f          	j	80000148 <_trm_init+0x1c>
