
/home/meowth/ysyx/ysyx-workbench/am-kernels/tests/cpu-tests/build/switch-riscv32-nemu.elf:     file format elf32-littleriscv


Disassembly of section .text:

80000000 <_start>:
80000000:	00000413          	li	s0,0
80000004:	00009117          	auipc	sp,0x9
80000008:	ffc10113          	addi	sp,sp,-4 # 80009000 <_end>
8000000c:	0c4000ef          	jal	ra,800000d0 <_trm_init>

80000010 <check>:
80000010:	00050463          	beqz	a0,80000018 <check+0x8>
80000014:	00008067          	ret
80000018:	ff010113          	addi	sp,sp,-16
8000001c:	00100513          	li	a0,1
80000020:	00112623          	sw	ra,12(sp)
80000024:	0a0000ef          	jal	ra,800000c4 <halt>

80000028 <main>:
80000028:	fe010113          	addi	sp,sp,-32
8000002c:	00812c23          	sw	s0,24(sp)
80000030:	00912a23          	sw	s1,20(sp)
80000034:	01212823          	sw	s2,16(sp)
80000038:	01312623          	sw	s3,12(sp)
8000003c:	01412423          	sw	s4,8(sp)
80000040:	00112e23          	sw	ra,28(sp)
80000044:	00000417          	auipc	s0,0x0
80000048:	12040413          	addi	s0,s0,288 # 80000164 <ans>
8000004c:	00000917          	auipc	s2,0x0
80000050:	0a490913          	addi	s2,s2,164 # 800000f0 <_etext>
80000054:	00000997          	auipc	s3,0x0
80000058:	14898993          	addi	s3,s3,328 # 8000019c <ans+0x38>
8000005c:	00000493          	li	s1,0
80000060:	fff00793          	li	a5,-1
80000064:	00c00a13          	li	s4,12
80000068:	01c0006f          	j	80000084 <main+0x5c>
8000006c:	fff00793          	li	a5,-1
80000070:	009a6463          	bltu	s4,s1,80000078 <main+0x50>
80000074:	00092783          	lw	a5,0(s2)
80000078:	00148493          	addi	s1,s1,1
8000007c:	00440413          	addi	s0,s0,4
80000080:	00490913          	addi	s2,s2,4
80000084:	00042503          	lw	a0,0(s0)
80000088:	40f50533          	sub	a0,a0,a5
8000008c:	00153513          	seqz	a0,a0
80000090:	f81ff0ef          	jal	ra,80000010 <check>
80000094:	fd341ce3          	bne	s0,s3,8000006c <main+0x44>
80000098:	00100513          	li	a0,1
8000009c:	f75ff0ef          	jal	ra,80000010 <check>
800000a0:	01c12083          	lw	ra,28(sp)
800000a4:	01812403          	lw	s0,24(sp)
800000a8:	01412483          	lw	s1,20(sp)
800000ac:	01012903          	lw	s2,16(sp)
800000b0:	00c12983          	lw	s3,12(sp)
800000b4:	00812a03          	lw	s4,8(sp)
800000b8:	00000513          	li	a0,0
800000bc:	02010113          	addi	sp,sp,32
800000c0:	00008067          	ret

800000c4 <halt>:
800000c4:	00050513          	mv	a0,a0
800000c8:	00100073          	ebreak
800000cc:	0000006f          	j	800000cc <halt+0x8>

800000d0 <_trm_init>:
800000d0:	ff010113          	addi	sp,sp,-16
800000d4:	00000517          	auipc	a0,0x0
800000d8:	05050513          	addi	a0,a0,80 # 80000124 <mainargs>
800000dc:	00112623          	sw	ra,12(sp)
800000e0:	f49ff0ef          	jal	ra,80000028 <main>
800000e4:	00050513          	mv	a0,a0
800000e8:	00100073          	ebreak
800000ec:	0000006f          	j	800000ec <_trm_init+0x1c>
