
/home/meowth/ysyx/ysyx-workbench/am-kernels/tests/cpu-tests/build/wanshu-riscv32e-npc.elf:     file format elf32-littleriscv


Disassembly of section .text:

80000000 <_start>:
80000000:	00000413          	li	s0,0
80000004:	00009117          	auipc	sp,0x9
80000008:	ffc10113          	addi	sp,sp,-4 # 80009000 <_end>
8000000c:	100000ef          	jal	ra,8000010c <_trm_init>

80000010 <check>:
80000010:	00050463          	beqz	a0,80000018 <check+0x8>
80000014:	00008067          	ret
80000018:	ff410113          	addi	sp,sp,-12
8000001c:	00100513          	li	a0,1
80000020:	00112423          	sw	ra,8(sp)
80000024:	0e0000ef          	jal	ra,80000104 <halt>

80000028 <main>:
80000028:	fe810113          	addi	sp,sp,-24
8000002c:	00100793          	li	a5,1
80000030:	00f12023          	sw	a5,0(sp)
80000034:	00012783          	lw	a5,0(sp)
80000038:	00912623          	sw	s1,12(sp)
8000003c:	00112a23          	sw	ra,20(sp)
80000040:	00178493          	addi	s1,a5,1
80000044:	00812823          	sw	s0,16(sp)
80000048:	00012423          	sw	zero,8(sp)
8000004c:	01e00793          	li	a5,30
80000050:	04f48c63          	beq	s1,a5,800000a8 <main+0x80>
80000054:	00100413          	li	s0,1
80000058:	00012223          	sw	zero,4(sp)
8000005c:	0080006f          	j	80000064 <main+0x3c>
80000060:	00078413          	mv	s0,a5
80000064:	00040593          	mv	a1,s0
80000068:	00048513          	mv	a0,s1
8000006c:	140000ef          	jal	ra,800001ac <__modsi3>
80000070:	00051863          	bnez	a0,80000080 <main+0x58>
80000074:	00412783          	lw	a5,4(sp)
80000078:	008787b3          	add	a5,a5,s0
8000007c:	00f12223          	sw	a5,4(sp)
80000080:	00012703          	lw	a4,0(sp)
80000084:	00140793          	addi	a5,s0,1
80000088:	fce41ce3          	bne	s0,a4,80000060 <main+0x38>
8000008c:	00412783          	lw	a5,4(sp)
80000090:	04978063          	beq	a5,s1,800000d0 <main+0xa8>
80000094:	00912023          	sw	s1,0(sp)
80000098:	00012783          	lw	a5,0(sp)
8000009c:	00178493          	addi	s1,a5,1
800000a0:	01e00793          	li	a5,30
800000a4:	faf498e3          	bne	s1,a5,80000054 <main+0x2c>
800000a8:	00812783          	lw	a5,8(sp)
800000ac:	ffe78513          	addi	a0,a5,-2
800000b0:	00153513          	seqz	a0,a0
800000b4:	f5dff0ef          	jal	ra,80000010 <check>
800000b8:	01412083          	lw	ra,20(sp)
800000bc:	01012403          	lw	s0,16(sp)
800000c0:	00c12483          	lw	s1,12(sp)
800000c4:	00000513          	li	a0,0
800000c8:	01810113          	addi	sp,sp,24
800000cc:	00008067          	ret
800000d0:	00812703          	lw	a4,8(sp)
800000d4:	00000697          	auipc	a3,0x0
800000d8:	14868693          	addi	a3,a3,328 # 8000021c <ans>
800000dc:	00271793          	slli	a5,a4,0x2
800000e0:	00f687b3          	add	a5,a3,a5
800000e4:	0007a503          	lw	a0,0(a5)
800000e8:	00170793          	addi	a5,a4,1
800000ec:	00f12423          	sw	a5,8(sp)
800000f0:	40950533          	sub	a0,a0,s1
800000f4:	00153513          	seqz	a0,a0
800000f8:	f19ff0ef          	jal	ra,80000010 <check>
800000fc:	00912023          	sw	s1,0(sp)
80000100:	f99ff06f          	j	80000098 <main+0x70>

80000104 <halt>:
80000104:	00100073          	ebreak
80000108:	0000006f          	j	80000108 <halt+0x4>

8000010c <_trm_init>:
8000010c:	ff410113          	addi	sp,sp,-12
80000110:	00000517          	auipc	a0,0x0
80000114:	0cc50513          	addi	a0,a0,204 # 800001dc <_etext>
80000118:	00112423          	sw	ra,8(sp)
8000011c:	f0dff0ef          	jal	ra,80000028 <main>
80000120:	00100073          	ebreak
80000124:	0000006f          	j	80000124 <_trm_init+0x18>

80000128 <__divsi3>:
80000128:	06054063          	bltz	a0,80000188 <__umodsi3+0x10>
8000012c:	0605c663          	bltz	a1,80000198 <__umodsi3+0x20>

80000130 <__hidden___udivsi3>:
80000130:	00058613          	mv	a2,a1
80000134:	00050593          	mv	a1,a0
80000138:	fff00513          	li	a0,-1
8000013c:	02060c63          	beqz	a2,80000174 <__hidden___udivsi3+0x44>
80000140:	00100693          	li	a3,1
80000144:	00b67a63          	bgeu	a2,a1,80000158 <__hidden___udivsi3+0x28>
80000148:	00c05863          	blez	a2,80000158 <__hidden___udivsi3+0x28>
8000014c:	00161613          	slli	a2,a2,0x1
80000150:	00169693          	slli	a3,a3,0x1
80000154:	feb66ae3          	bltu	a2,a1,80000148 <__hidden___udivsi3+0x18>
80000158:	00000513          	li	a0,0
8000015c:	00c5e663          	bltu	a1,a2,80000168 <__hidden___udivsi3+0x38>
80000160:	40c585b3          	sub	a1,a1,a2
80000164:	00d56533          	or	a0,a0,a3
80000168:	0016d693          	srli	a3,a3,0x1
8000016c:	00165613          	srli	a2,a2,0x1
80000170:	fe0696e3          	bnez	a3,8000015c <__hidden___udivsi3+0x2c>
80000174:	00008067          	ret

80000178 <__umodsi3>:
80000178:	00008293          	mv	t0,ra
8000017c:	fb5ff0ef          	jal	ra,80000130 <__hidden___udivsi3>
80000180:	00058513          	mv	a0,a1
80000184:	00028067          	jr	t0
80000188:	40a00533          	neg	a0,a0
8000018c:	00b04863          	bgtz	a1,8000019c <__umodsi3+0x24>
80000190:	40b005b3          	neg	a1,a1
80000194:	f9dff06f          	j	80000130 <__hidden___udivsi3>
80000198:	40b005b3          	neg	a1,a1
8000019c:	00008293          	mv	t0,ra
800001a0:	f91ff0ef          	jal	ra,80000130 <__hidden___udivsi3>
800001a4:	40a00533          	neg	a0,a0
800001a8:	00028067          	jr	t0

800001ac <__modsi3>:
800001ac:	00008293          	mv	t0,ra
800001b0:	0005ca63          	bltz	a1,800001c4 <__modsi3+0x18>
800001b4:	00054c63          	bltz	a0,800001cc <__modsi3+0x20>
800001b8:	f79ff0ef          	jal	ra,80000130 <__hidden___udivsi3>
800001bc:	00058513          	mv	a0,a1
800001c0:	00028067          	jr	t0
800001c4:	40b005b3          	neg	a1,a1
800001c8:	fe0558e3          	bgez	a0,800001b8 <__modsi3+0xc>
800001cc:	40a00533          	neg	a0,a0
800001d0:	f61ff0ef          	jal	ra,80000130 <__hidden___udivsi3>
800001d4:	40b00533          	neg	a0,a1
800001d8:	00028067          	jr	t0
