
/home/meowth/ysyx/ysyx-workbench/am-kernels/tests/cpu-tests/build/wanshu-riscv32-nemu.elf:     file format elf32-littleriscv


Disassembly of section .text:

80000000 <_start>:
80000000:	00000413          	li	s0,0
80000004:	00009117          	auipc	sp,0x9
80000008:	ffc10113          	addi	sp,sp,-4 # 80009000 <_end>
8000000c:	0e0000ef          	jal	ra,800000ec <_trm_init>

80000010 <check>:
80000010:	00050463          	beqz	a0,80000018 <check+0x8>
80000014:	00008067          	ret
80000018:	ff010113          	addi	sp,sp,-16
8000001c:	00100513          	li	a0,1
80000020:	00112623          	sw	ra,12(sp)
80000024:	0bc000ef          	jal	ra,800000e0 <halt>

80000028 <main>:
80000028:	fe010113          	addi	sp,sp,-32
8000002c:	00100613          	li	a2,1
80000030:	00812c23          	sw	s0,24(sp)
80000034:	00912a23          	sw	s1,20(sp)
80000038:	01212823          	sw	s2,16(sp)
8000003c:	01312623          	sw	s3,12(sp)
80000040:	00112e23          	sw	ra,28(sp)
80000044:	01e00493          	li	s1,30
80000048:	00160413          	addi	s0,a2,1
8000004c:	00000993          	li	s3,0
80000050:	00000917          	auipc	s2,0x0
80000054:	0fc90913          	addi	s2,s2,252 # 8000014c <ans>
80000058:	02940c63          	beq	s0,s1,80000090 <main+0x68>
8000005c:	00100793          	li	a5,1
80000060:	00000593          	li	a1,0
80000064:	02f46733          	rem	a4,s0,a5
80000068:	00178693          	addi	a3,a5,1
8000006c:	00071463          	bnez	a4,80000074 <main+0x4c>
80000070:	00f585b3          	add	a1,a1,a5
80000074:	00c78663          	beq	a5,a2,80000080 <main+0x58>
80000078:	00068793          	mv	a5,a3
8000007c:	fe9ff06f          	j	80000064 <main+0x3c>
80000080:	02858e63          	beq	a1,s0,800000bc <main+0x94>
80000084:	00040613          	mv	a2,s0
80000088:	00160413          	addi	s0,a2,1
8000008c:	fc9418e3          	bne	s0,s1,8000005c <main+0x34>
80000090:	ffe98513          	addi	a0,s3,-2
80000094:	00153513          	seqz	a0,a0
80000098:	f79ff0ef          	jal	ra,80000010 <check>
8000009c:	01c12083          	lw	ra,28(sp)
800000a0:	01812403          	lw	s0,24(sp)
800000a4:	01412483          	lw	s1,20(sp)
800000a8:	01012903          	lw	s2,16(sp)
800000ac:	00c12983          	lw	s3,12(sp)
800000b0:	00000513          	li	a0,0
800000b4:	02010113          	addi	sp,sp,32
800000b8:	00008067          	ret
800000bc:	00299793          	slli	a5,s3,0x2
800000c0:	00f907b3          	add	a5,s2,a5
800000c4:	0007a503          	lw	a0,0(a5)
800000c8:	00198993          	addi	s3,s3,1
800000cc:	40850533          	sub	a0,a0,s0
800000d0:	00153513          	seqz	a0,a0
800000d4:	f3dff0ef          	jal	ra,80000010 <check>
800000d8:	00040613          	mv	a2,s0
800000dc:	fadff06f          	j	80000088 <main+0x60>

800000e0 <halt>:
800000e0:	00050513          	mv	a0,a0
800000e4:	00100073          	ebreak
800000e8:	0000006f          	j	800000e8 <halt+0x8>

800000ec <_trm_init>:
800000ec:	ff010113          	addi	sp,sp,-16
800000f0:	00000517          	auipc	a0,0x0
800000f4:	01c50513          	addi	a0,a0,28 # 8000010c <_etext>
800000f8:	00112623          	sw	ra,12(sp)
800000fc:	f2dff0ef          	jal	ra,80000028 <main>
80000100:	00050513          	mv	a0,a0
80000104:	00100073          	ebreak
80000108:	0000006f          	j	80000108 <_trm_init+0x1c>
