
/home/meowth/ysyx/ysyx-workbench/am-kernels/kernels/bad-apple/build/bad-apple-riscv32-nemu.elf:     file format elf32-littleriscv


Disassembly of section .text:

80000000 <_start>:
80000000:	00000413          	li	s0,0
80000004:	0140a117          	auipc	sp,0x140a
80000008:	ffc10113          	addi	sp,sp,-4 # 8140a000 <_end>
8000000c:	234000ef          	jal	ra,80000240 <_trm_init>

80000010 <main>:
80000010:	fa010113          	addi	sp,sp,-96
80000014:	04112e23          	sw	ra,92(sp)
80000018:	05212823          	sw	s2,80(sp)
8000001c:	03812c23          	sw	s8,56(sp)
80000020:	04812c23          	sw	s0,88(sp)
80000024:	04912a23          	sw	s1,84(sp)
80000028:	05312623          	sw	s3,76(sp)
8000002c:	05412423          	sw	s4,72(sp)
80000030:	05512223          	sw	s5,68(sp)
80000034:	05612023          	sw	s6,64(sp)
80000038:	03712e23          	sw	s7,60(sp)
8000003c:	03912a23          	sw	s9,52(sp)
80000040:	03a12823          	sw	s10,48(sp)
80000044:	03b12623          	sw	s11,44(sp)
80000048:	2ac000ef          	jal	ra,800002f4 <ioe_init>
8000004c:	00001517          	auipc	a0,0x1
80000050:	90050513          	addi	a0,a0,-1792 # 8000094c <_etext>
80000054:	47c000ef          	jal	ra,800004d0 <printf>
80000058:	01010593          	addi	a1,sp,16
8000005c:	00e00513          	li	a0,14
80000060:	2f0000ef          	jal	ra,80000350 <ioe_read>
80000064:	01014c03          	lbu	s8,16(sp)
80000068:	00000913          	li	s2,0
8000006c:	160c1a63          	bnez	s8,800001e0 <main+0x1d0>
80000070:	01010593          	addi	a1,sp,16
80000074:	00600513          	li	a0,6
80000078:	00192d17          	auipc	s10,0x192
8000007c:	e44d0d13          	addi	s10,s10,-444 # 80191ebc <video_payload_end>
80000080:	00001417          	auipc	s0,0x1
80000084:	a5040413          	addi	s0,s0,-1456 # 80000ad0 <video_payload>
80000088:	2c8000ef          	jal	ra,80000350 <ioe_read>
8000008c:	00192b17          	auipc	s6,0x192
80000090:	e34b0b13          	addi	s6,s6,-460 # 80191ec0 <audio_payload>
80000094:	01012a03          	lw	s4,16(sp)
80000098:	01412c83          	lw	s9,20(sp)
8000009c:	0da47463          	bgeu	s0,s10,80000164 <main+0x154>
800000a0:	000017b7          	lui	a5,0x1
800000a4:	82078493          	addi	s1,a5,-2016 # 820 <_entry_offset+0x820>
800000a8:	b7b78d93          	addi	s11,a5,-1157
800000ac:	b7c78793          	addi	a5,a5,-1156
800000b0:	00f12423          	sw	a5,8(sp)
800000b4:	000087b7          	lui	a5,0x8
800000b8:	fffffab7          	lui	s5,0xfffff
800000bc:	23578793          	addi	a5,a5,565 # 8235 <_entry_offset+0x8235>
800000c0:	484a8a93          	addi	s5,s5,1156 # fffff484 <_end+0x7ebf5484>
800000c4:	00f12623          	sw	a5,12(sp)
800000c8:	00001517          	auipc	a0,0x1
800000cc:	88c50513          	addi	a0,a0,-1908 # 80000954 <_etext+0x8>
800000d0:	400000ef          	jal	ra,800004d0 <printf>
800000d4:	05000993          	li	s3,80
800000d8:	fb098b93          	addi	s7,s3,-80
800000dc:	403bd793          	srai	a5,s7,0x3
800000e0:	00f407b3          	add	a5,s0,a5
800000e4:	0007c503          	lbu	a0,0(a5)
800000e8:	fffbc793          	not	a5,s7
800000ec:	0077f793          	andi	a5,a5,7
800000f0:	40f55533          	sra	a0,a0,a5
800000f4:	00157513          	andi	a0,a0,1
800000f8:	40a00533          	neg	a0,a0
800000fc:	02a57513          	andi	a0,a0,42
80000100:	001b8b93          	addi	s7,s7,1
80000104:	02e50513          	addi	a0,a0,46
80000108:	120000ef          	jal	ra,80000228 <putch>
8000010c:	fd7998e3          	bne	s3,s7,800000dc <main+0xcc>
80000110:	05098993          	addi	s3,s3,80
80000114:	00a00513          	li	a0,10
80000118:	110000ef          	jal	ra,80000228 <putch>
8000011c:	fa999ee3          	bne	s3,s1,800000d8 <main+0xc8>
80000120:	080c1263          	bnez	s8,800001a4 <main+0x194>
80000124:	00c12783          	lw	a5,12(sp)
80000128:	00fa0bb3          	add	s7,s4,a5
8000012c:	014bba33          	sltu	s4,s7,s4
80000130:	019a09b3          	add	s3,s4,s9
80000134:	00098c93          	mv	s9,s3
80000138:	000b8a13          	mv	s4,s7
8000013c:	01010593          	addi	a1,sp,16
80000140:	00600513          	li	a0,6
80000144:	20c000ef          	jal	ra,80000350 <ioe_read>
80000148:	01412783          	lw	a5,20(sp)
8000014c:	01012703          	lw	a4,16(sp)
80000150:	ff37e6e3          	bltu	a5,s3,8000013c <main+0x12c>
80000154:	00f99463          	bne	s3,a5,8000015c <main+0x14c>
80000158:	ff7762e3          	bltu	a4,s7,8000013c <main+0x12c>
8000015c:	0fa40413          	addi	s0,s0,250
80000160:	f7a464e3          	bltu	s0,s10,800000c8 <main+0xb8>
80000164:	05c12083          	lw	ra,92(sp)
80000168:	05812403          	lw	s0,88(sp)
8000016c:	05412483          	lw	s1,84(sp)
80000170:	05012903          	lw	s2,80(sp)
80000174:	04c12983          	lw	s3,76(sp)
80000178:	04812a03          	lw	s4,72(sp)
8000017c:	04412a83          	lw	s5,68(sp)
80000180:	04012b03          	lw	s6,64(sp)
80000184:	03c12b83          	lw	s7,60(sp)
80000188:	03812c03          	lw	s8,56(sp)
8000018c:	03412c83          	lw	s9,52(sp)
80000190:	03012d03          	lw	s10,48(sp)
80000194:	02c12d83          	lw	s11,44(sp)
80000198:	00000513          	li	a0,0
8000019c:	06010113          	addi	sp,sp,96
800001a0:	00008067          	ret
800001a4:	032dd663          	bge	s11,s2,800001d0 <main+0x1c0>
800001a8:	00812783          	lw	a5,8(sp)
800001ac:	01590933          	add	s2,s2,s5
800001b0:	00fb07b3          	add	a5,s6,a5
800001b4:	01010593          	addi	a1,sp,16
800001b8:	01100513          	li	a0,17
800001bc:	01612823          	sw	s6,16(sp)
800001c0:	00f12a23          	sw	a5,20(sp)
800001c4:	00078b13          	mv	s6,a5
800001c8:	1a4000ef          	jal	ra,8000036c <ioe_write>
800001cc:	f59ff06f          	j	80000124 <main+0x114>
800001d0:	05205863          	blez	s2,80000220 <main+0x210>
800001d4:	00090793          	mv	a5,s2
800001d8:	00000913          	li	s2,0
800001dc:	fd5ff06f          	j	800001b0 <main+0x1a0>
800001e0:	0000b7b7          	lui	a5,0xb
800001e4:	c4478793          	addi	a5,a5,-956 # ac44 <_entry_offset+0xac44>
800001e8:	00f12823          	sw	a5,16(sp)
800001ec:	00100793          	li	a5,1
800001f0:	00f12a23          	sw	a5,20(sp)
800001f4:	01010593          	addi	a1,sp,16
800001f8:	40000793          	li	a5,1024
800001fc:	00f00513          	li	a0,15
80000200:	00f12c23          	sw	a5,24(sp)
80000204:	168000ef          	jal	ra,8000036c <ioe_write>
80000208:	01401917          	auipc	s2,0x1401
8000020c:	cb890913          	addi	s2,s2,-840 # 81400ec0 <lut>
80000210:	00192797          	auipc	a5,0x192
80000214:	cb078793          	addi	a5,a5,-848 # 80191ec0 <audio_payload>
80000218:	40f90933          	sub	s2,s2,a5
8000021c:	e55ff06f          	j	80000070 <main+0x60>
80000220:	00000913          	li	s2,0
80000224:	f01ff06f          	j	80000124 <main+0x114>

80000228 <putch>:
80000228:	a00007b7          	lui	a5,0xa0000
8000022c:	3ea78c23          	sb	a0,1016(a5) # a00003f8 <_end+0x1ebf63f8>
80000230:	00008067          	ret

80000234 <halt>:
80000234:	00050513          	mv	a0,a0
80000238:	00100073          	ebreak
8000023c:	0000006f          	j	8000023c <halt+0x8>

80000240 <_trm_init>:
80000240:	ff010113          	addi	sp,sp,-16
80000244:	00000517          	auipc	a0,0x0
80000248:	71850513          	addi	a0,a0,1816 # 8000095c <mainargs>
8000024c:	00112623          	sw	ra,12(sp)
80000250:	dc1ff0ef          	jal	ra,80000010 <main>
80000254:	00050513          	mv	a0,a0
80000258:	00100073          	ebreak
8000025c:	0000006f          	j	8000025c <_trm_init+0x1c>

80000260 <__am_timer_config>:
80000260:	00100793          	li	a5,1
80000264:	00f50023          	sb	a5,0(a0)
80000268:	00f500a3          	sb	a5,1(a0)
8000026c:	00008067          	ret

80000270 <__am_input_config>:
80000270:	00100793          	li	a5,1
80000274:	00f50023          	sb	a5,0(a0)
80000278:	00008067          	ret

8000027c <__am_uart_config>:
8000027c:	00050023          	sb	zero,0(a0)
80000280:	00008067          	ret

80000284 <__am_net_config>:
80000284:	00050023          	sb	zero,0(a0)
80000288:	00008067          	ret

8000028c <fail>:
8000028c:	ff010113          	addi	sp,sp,-16
80000290:	00812423          	sw	s0,8(sp)
80000294:	00112623          	sw	ra,12(sp)
80000298:	00000417          	auipc	s0,0x0
8000029c:	70440413          	addi	s0,s0,1796 # 8000099c <mainargs+0x40>
800002a0:	04100513          	li	a0,65
800002a4:	00140413          	addi	s0,s0,1
800002a8:	f81ff0ef          	jal	ra,80000228 <putch>
800002ac:	00044503          	lbu	a0,0(s0)
800002b0:	fe051ae3          	bnez	a0,800002a4 <fail+0x18>
800002b4:	00000417          	auipc	s0,0x0
800002b8:	6f440413          	addi	s0,s0,1780 # 800009a8 <mainargs+0x4c>
800002bc:	06100513          	li	a0,97
800002c0:	00140413          	addi	s0,s0,1
800002c4:	f65ff0ef          	jal	ra,80000228 <putch>
800002c8:	00044503          	lbu	a0,0(s0)
800002cc:	fe051ae3          	bnez	a0,800002c0 <fail+0x34>
800002d0:	00000417          	auipc	s0,0x0
800002d4:	6f440413          	addi	s0,s0,1780 # 800009c4 <mainargs+0x68>
800002d8:	02000513          	li	a0,32
800002dc:	00140413          	addi	s0,s0,1
800002e0:	f49ff0ef          	jal	ra,80000228 <putch>
800002e4:	00044503          	lbu	a0,0(s0)
800002e8:	fe051ae3          	bnez	a0,800002dc <fail+0x50>
800002ec:	00100513          	li	a0,1
800002f0:	f45ff0ef          	jal	ra,80000234 <halt>

800002f4 <ioe_init>:
800002f4:	ff010113          	addi	sp,sp,-16
800002f8:	00112623          	sw	ra,12(sp)
800002fc:	01401797          	auipc	a5,0x1401
80000300:	bc478793          	addi	a5,a5,-1084 # 81400ec0 <lut>
80000304:	01401697          	auipc	a3,0x1401
80000308:	dbc68693          	addi	a3,a3,-580 # 814010c0 <_bss_start>
8000030c:	00000617          	auipc	a2,0x0
80000310:	f8060613          	addi	a2,a2,-128 # 8000028c <fail>
80000314:	00c0006f          	j	80000320 <ioe_init+0x2c>
80000318:	00478793          	addi	a5,a5,4
8000031c:	00d78c63          	beq	a5,a3,80000334 <ioe_init+0x40>
80000320:	0007a703          	lw	a4,0(a5)
80000324:	fe071ae3          	bnez	a4,80000318 <ioe_init+0x24>
80000328:	00c7a023          	sw	a2,0(a5)
8000032c:	00478793          	addi	a5,a5,4
80000330:	fed798e3          	bne	a5,a3,80000320 <ioe_init+0x2c>
80000334:	0b4000ef          	jal	ra,800003e8 <__am_gpu_init>
80000338:	050000ef          	jal	ra,80000388 <__am_timer_init>
8000033c:	168000ef          	jal	ra,800004a4 <__am_audio_init>
80000340:	00c12083          	lw	ra,12(sp)
80000344:	00100513          	li	a0,1
80000348:	01010113          	addi	sp,sp,16
8000034c:	00008067          	ret

80000350 <ioe_read>:
80000350:	00251513          	slli	a0,a0,0x2
80000354:	01401797          	auipc	a5,0x1401
80000358:	b6c78793          	addi	a5,a5,-1172 # 81400ec0 <lut>
8000035c:	00a787b3          	add	a5,a5,a0
80000360:	0007a783          	lw	a5,0(a5)
80000364:	00058513          	mv	a0,a1
80000368:	00078067          	jr	a5

8000036c <ioe_write>:
8000036c:	00251513          	slli	a0,a0,0x2
80000370:	01401797          	auipc	a5,0x1401
80000374:	b5078793          	addi	a5,a5,-1200 # 81400ec0 <lut>
80000378:	00a787b3          	add	a5,a5,a0
8000037c:	0007a783          	lw	a5,0(a5)
80000380:	00058513          	mv	a0,a1
80000384:	00078067          	jr	a5

80000388 <__am_timer_init>:
80000388:	00008067          	ret

8000038c <__am_timer_uptime>:
8000038c:	a00007b7          	lui	a5,0xa0000
80000390:	04c7a703          	lw	a4,76(a5) # a000004c <_end+0x1ebf604c>
80000394:	0487a783          	lw	a5,72(a5)
80000398:	00e52223          	sw	a4,4(a0)
8000039c:	00f52023          	sw	a5,0(a0)
800003a0:	00008067          	ret

800003a4 <__am_timer_rtc>:
800003a4:	7e900793          	li	a5,2025
800003a8:	00052a23          	sw	zero,20(a0)
800003ac:	00052823          	sw	zero,16(a0)
800003b0:	00052623          	sw	zero,12(a0)
800003b4:	00052423          	sw	zero,8(a0)
800003b8:	00052223          	sw	zero,4(a0)
800003bc:	00f52023          	sw	a5,0(a0)
800003c0:	00008067          	ret

800003c4 <__am_input_keybrd>:
800003c4:	a00007b7          	lui	a5,0xa0000
800003c8:	0607a783          	lw	a5,96(a5) # a0000060 <_end+0x1ebf6060>
800003cc:	00f7d713          	srli	a4,a5,0xf
800003d0:	01179793          	slli	a5,a5,0x11
800003d4:	00177713          	andi	a4,a4,1
800003d8:	0117d793          	srli	a5,a5,0x11
800003dc:	00e50023          	sb	a4,0(a0)
800003e0:	00f52223          	sw	a5,4(a0)
800003e4:	00008067          	ret

800003e8 <__am_gpu_init>:
800003e8:	00008067          	ret

800003ec <__am_gpu_config>:
800003ec:	a00007b7          	lui	a5,0xa0000
800003f0:	1027d703          	lhu	a4,258(a5) # a0000102 <_end+0x1ebf6102>
800003f4:	1007d783          	lhu	a5,256(a5)
800003f8:	00100693          	li	a3,1
800003fc:	00d51023          	sh	a3,0(a0)
80000400:	00052623          	sw	zero,12(a0)
80000404:	00e52223          	sw	a4,4(a0)
80000408:	00f52423          	sw	a5,8(a0)
8000040c:	00008067          	ret

80000410 <__am_gpu_fbdraw>:
80000410:	01454783          	lbu	a5,20(a0)
80000414:	00078863          	beqz	a5,80000424 <__am_gpu_fbdraw+0x14>
80000418:	a00007b7          	lui	a5,0xa0000
8000041c:	00100713          	li	a4,1
80000420:	10e7a223          	sw	a4,260(a5) # a0000104 <_end+0x1ebf6104>
80000424:	00452703          	lw	a4,4(a0)
80000428:	19000593          	li	a1,400
8000042c:	00052783          	lw	a5,0(a0)
80000430:	02e585b3          	mul	a1,a1,a4
80000434:	01052883          	lw	a7,16(a0)
80000438:	00852683          	lw	a3,8(a0)
8000043c:	00f585b3          	add	a1,a1,a5
80000440:	284007b7          	lui	a5,0x28400
80000444:	00f585b3          	add	a1,a1,a5
80000448:	00259593          	slli	a1,a1,0x2
8000044c:	05105463          	blez	a7,80000494 <__am_gpu_fbdraw+0x84>
80000450:	00c52603          	lw	a2,12(a0)
80000454:	00000813          	li	a6,0
80000458:	00058713          	mv	a4,a1
8000045c:	00000793          	li	a5,0
80000460:	02c05263          	blez	a2,80000484 <__am_gpu_fbdraw+0x74>
80000464:	0006a603          	lw	a2,0(a3)
80000468:	00178793          	addi	a5,a5,1 # 28400001 <_entry_offset+0x28400001>
8000046c:	00468693          	addi	a3,a3,4
80000470:	00c72023          	sw	a2,0(a4)
80000474:	00c52603          	lw	a2,12(a0)
80000478:	00470713          	addi	a4,a4,4
8000047c:	fec7c4e3          	blt	a5,a2,80000464 <__am_gpu_fbdraw+0x54>
80000480:	01052883          	lw	a7,16(a0)
80000484:	00180813          	addi	a6,a6,1
80000488:	64058593          	addi	a1,a1,1600
8000048c:	fd1846e3          	blt	a6,a7,80000458 <__am_gpu_fbdraw+0x48>
80000490:	00008067          	ret
80000494:	00008067          	ret

80000498 <__am_gpu_status>:
80000498:	00100793          	li	a5,1
8000049c:	00f50023          	sb	a5,0(a0)
800004a0:	00008067          	ret

800004a4 <__am_audio_init>:
800004a4:	00008067          	ret

800004a8 <__am_audio_config>:
800004a8:	00050023          	sb	zero,0(a0)
800004ac:	00008067          	ret

800004b0 <__am_audio_ctrl>:
800004b0:	00008067          	ret

800004b4 <__am_audio_status>:
800004b4:	00052023          	sw	zero,0(a0)
800004b8:	00008067          	ret

800004bc <__am_audio_play>:
800004bc:	00008067          	ret

800004c0 <__am_disk_config>:
800004c0:	00050023          	sb	zero,0(a0)
800004c4:	00008067          	ret

800004c8 <__am_disk_status>:
800004c8:	00008067          	ret

800004cc <__am_disk_blkio>:
800004cc:	00008067          	ret

800004d0 <printf>:
800004d0:	fc010113          	addi	sp,sp,-64
800004d4:	02410313          	addi	t1,sp,36
800004d8:	02b12223          	sw	a1,36(sp)
800004dc:	02c12423          	sw	a2,40(sp)
800004e0:	00050593          	mv	a1,a0
800004e4:	00030613          	mv	a2,t1
800004e8:	00000517          	auipc	a0,0x0
800004ec:	d4050513          	addi	a0,a0,-704 # 80000228 <putch>
800004f0:	00112e23          	sw	ra,28(sp)
800004f4:	02d12623          	sw	a3,44(sp)
800004f8:	02e12823          	sw	a4,48(sp)
800004fc:	02f12a23          	sw	a5,52(sp)
80000500:	03012c23          	sw	a6,56(sp)
80000504:	03112e23          	sw	a7,60(sp)
80000508:	00612623          	sw	t1,12(sp)
8000050c:	010000ef          	jal	ra,8000051c <vprintf>
80000510:	01c12083          	lw	ra,28(sp)
80000514:	04010113          	addi	sp,sp,64
80000518:	00008067          	ret

8000051c <vprintf>:
8000051c:	f7010113          	addi	sp,sp,-144
80000520:	08112623          	sw	ra,140(sp)
80000524:	08812423          	sw	s0,136(sp)
80000528:	08912223          	sw	s1,132(sp)
8000052c:	09212023          	sw	s2,128(sp)
80000530:	07312e23          	sw	s3,124(sp)
80000534:	07412c23          	sw	s4,120(sp)
80000538:	07512a23          	sw	s5,116(sp)
8000053c:	07612823          	sw	s6,112(sp)
80000540:	07712623          	sw	s7,108(sp)
80000544:	07812423          	sw	s8,104(sp)
80000548:	07912223          	sw	s9,100(sp)
8000054c:	07a12023          	sw	s10,96(sp)
80000550:	05b12e23          	sw	s11,92(sp)
80000554:	0005c783          	lbu	a5,0(a1)
80000558:	3a078a63          	beqz	a5,8000090c <vprintf+0x3f0>
8000055c:	ccccdc37          	lui	s8,0xccccd
80000560:	100009b7          	lui	s3,0x10000
80000564:	ccdc0493          	addi	s1,s8,-819 # cccccccd <_end+0x4b8c2ccd>
80000568:	00058413          	mv	s0,a1
8000056c:	00050a13          	mv	s4,a0
80000570:	00060a93          	mv	s5,a2
80000574:	00000913          	li	s2,0
80000578:	00000d13          	li	s10,0
8000057c:	00000d93          	li	s11,0
80000580:	02500b93          	li	s7,37
80000584:	00000c97          	auipc	s9,0x0
80000588:	4fcc8c93          	addi	s9,s9,1276 # 80000a80 <mainargs+0x124>
8000058c:	01010b13          	addi	s6,sp,16
80000590:	fff98993          	addi	s3,s3,-1 # fffffff <_entry_offset+0xfffffff>
80000594:	cccc0c13          	addi	s8,s8,-820
80000598:	07778063          	beq	a5,s7,800005f8 <vprintf+0xdc>
8000059c:	060d9263          	bnez	s11,80000600 <vprintf+0xe4>
800005a0:	00078513          	mv	a0,a5
800005a4:	000a00e7          	jalr	s4
800005a8:	00190913          	addi	s2,s2,1
800005ac:	00144783          	lbu	a5,1(s0)
800005b0:	00140413          	addi	s0,s0,1
800005b4:	fe0792e3          	bnez	a5,80000598 <vprintf+0x7c>
800005b8:	08c12083          	lw	ra,140(sp)
800005bc:	08812403          	lw	s0,136(sp)
800005c0:	08412483          	lw	s1,132(sp)
800005c4:	07c12983          	lw	s3,124(sp)
800005c8:	07812a03          	lw	s4,120(sp)
800005cc:	07412a83          	lw	s5,116(sp)
800005d0:	07012b03          	lw	s6,112(sp)
800005d4:	06c12b83          	lw	s7,108(sp)
800005d8:	06812c03          	lw	s8,104(sp)
800005dc:	06412c83          	lw	s9,100(sp)
800005e0:	06012d03          	lw	s10,96(sp)
800005e4:	05c12d83          	lw	s11,92(sp)
800005e8:	00090513          	mv	a0,s2
800005ec:	08012903          	lw	s2,128(sp)
800005f0:	09010113          	addi	sp,sp,144
800005f4:	00008067          	ret
800005f8:	001dbd93          	seqz	s11,s11
800005fc:	01b40433          	add	s0,s0,s11
80000600:	00044783          	lbu	a5,0(s0)
80000604:	11778663          	beq	a5,s7,80000710 <vprintf+0x1f4>
80000608:	f9d78793          	addi	a5,a5,-99
8000060c:	0ff7f793          	zext.b	a5,a5
80000610:	01200713          	li	a4,18
80000614:	00f76c63          	bltu	a4,a5,8000062c <vprintf+0x110>
80000618:	00279793          	slli	a5,a5,0x2
8000061c:	019787b3          	add	a5,a5,s9
80000620:	0007a783          	lw	a5,0(a5)
80000624:	019787b3          	add	a5,a5,s9
80000628:	00078067          	jr	a5
8000062c:	00100d93          	li	s11,1
80000630:	f7dff06f          	j	800005ac <vprintf+0x90>
80000634:	00200793          	li	a5,2
80000638:	31a7c663          	blt	a5,s10,80000944 <vprintf+0x428>
8000063c:	28fd0863          	beq	s10,a5,800008cc <vprintf+0x3b0>
80000640:	000aa703          	lw	a4,0(s5)
80000644:	00000693          	li	a3,0
80000648:	004a8a93          	addi	s5,s5,4
8000064c:	00d767b3          	or	a5,a4,a3
80000650:	0c079863          	bnez	a5,80000720 <vprintf+0x204>
80000654:	03000513          	li	a0,48
80000658:	00190913          	addi	s2,s2,1
8000065c:	000a00e7          	jalr	s4
80000660:	00000d13          	li	s10,0
80000664:	00000d93          	li	s11,0
80000668:	f45ff06f          	j	800005ac <vprintf+0x90>
8000066c:	2c0d1863          	bnez	s10,8000093c <vprintf+0x420>
80000670:	000aa783          	lw	a5,0(s5)
80000674:	004a8a93          	addi	s5,s5,4
80000678:	0007c503          	lbu	a0,0(a5)
8000067c:	00f12623          	sw	a5,12(sp)
80000680:	26050e63          	beqz	a0,800008fc <vprintf+0x3e0>
80000684:	00090d93          	mv	s11,s2
80000688:	000a00e7          	jalr	s4
8000068c:	00c12703          	lw	a4,12(sp)
80000690:	001d8d93          	addi	s11,s11,1
80000694:	412d87b3          	sub	a5,s11,s2
80000698:	00f707b3          	add	a5,a4,a5
8000069c:	0007c503          	lbu	a0,0(a5)
800006a0:	fe0514e3          	bnez	a0,80000688 <vprintf+0x16c>
800006a4:	000d8913          	mv	s2,s11
800006a8:	00000d93          	li	s11,0
800006ac:	f01ff06f          	j	800005ac <vprintf+0x90>
800006b0:	001d0d13          	addi	s10,s10,1
800006b4:	00100d93          	li	s11,1
800006b8:	ef5ff06f          	j	800005ac <vprintf+0x90>
800006bc:	00200793          	li	a5,2
800006c0:	25a7ca63          	blt	a5,s10,80000914 <vprintf+0x3f8>
800006c4:	22fd0063          	beq	s10,a5,800008e4 <vprintf+0x3c8>
800006c8:	000aad83          	lw	s11,0(s5)
800006cc:	004a8a93          	addi	s5,s5,4
800006d0:	41fdd713          	srai	a4,s11,0x1f
800006d4:	00190d13          	addi	s10,s2,1
800006d8:	10074a63          	bltz	a4,800007ec <vprintf+0x2d0>
800006dc:	00ede7b3          	or	a5,s11,a4
800006e0:	22079263          	bnez	a5,80000904 <vprintf+0x3e8>
800006e4:	03000513          	li	a0,48
800006e8:	000a00e7          	jalr	s4
800006ec:	000d0913          	mv	s2,s10
800006f0:	f71ff06f          	j	80000660 <vprintf+0x144>
800006f4:	240d1063          	bnez	s10,80000934 <vprintf+0x418>
800006f8:	000ac503          	lbu	a0,0(s5)
800006fc:	00190913          	addi	s2,s2,1
80000700:	004a8a93          	addi	s5,s5,4
80000704:	000a00e7          	jalr	s4
80000708:	00000d93          	li	s11,0
8000070c:	ea1ff06f          	j	800005ac <vprintf+0x90>
80000710:	02500513          	li	a0,37
80000714:	000a00e7          	jalr	s4
80000718:	00000d93          	li	s11,0
8000071c:	e91ff06f          	j	800005ac <vprintf+0x90>
80000720:	000b0613          	mv	a2,s6
80000724:	00000593          	li	a1,0
80000728:	00500813          	li	a6,5
8000072c:	00900893          	li	a7,9
80000730:	00469793          	slli	a5,a3,0x4
80000734:	01c75513          	srli	a0,a4,0x1c
80000738:	00a7e533          	or	a0,a5,a0
8000073c:	01357533          	and	a0,a0,s3
80000740:	013777b3          	and	a5,a4,s3
80000744:	0186d313          	srli	t1,a3,0x18
80000748:	00a787b3          	add	a5,a5,a0
8000074c:	006787b3          	add	a5,a5,t1
80000750:	0307f7b3          	remu	a5,a5,a6
80000754:	00068313          	mv	t1,a3
80000758:	00160613          	addi	a2,a2,1
8000075c:	00058d13          	mv	s10,a1
80000760:	00070e13          	mv	t3,a4
80000764:	00158593          	addi	a1,a1,1
80000768:	40f707b3          	sub	a5,a4,a5
8000076c:	00f73533          	sltu	a0,a4,a5
80000770:	40a686b3          	sub	a3,a3,a0
80000774:	03878eb3          	mul	t4,a5,s8
80000778:	029686b3          	mul	a3,a3,s1
8000077c:	0297b533          	mulhu	a0,a5,s1
80000780:	01d686b3          	add	a3,a3,t4
80000784:	029787b3          	mul	a5,a5,s1
80000788:	00a686b3          	add	a3,a3,a0
8000078c:	01f69513          	slli	a0,a3,0x1f
80000790:	0016d693          	srli	a3,a3,0x1
80000794:	0017d793          	srli	a5,a5,0x1
80000798:	00f567b3          	or	a5,a0,a5
8000079c:	00279513          	slli	a0,a5,0x2
800007a0:	00f50533          	add	a0,a0,a5
800007a4:	00151513          	slli	a0,a0,0x1
800007a8:	40a70533          	sub	a0,a4,a0
800007ac:	03050513          	addi	a0,a0,48
800007b0:	0ff57513          	zext.b	a0,a0
800007b4:	fea60fa3          	sb	a0,-1(a2)
800007b8:	00078713          	mv	a4,a5
800007bc:	f6031ae3          	bnez	t1,80000730 <vprintf+0x214>
800007c0:	f7c8e8e3          	bltu	a7,t3,80000730 <vprintf+0x214>
800007c4:	01ab0db3          	add	s11,s6,s10
800007c8:	00c0006f          	j	800007d4 <vprintf+0x2b8>
800007cc:	fffdc503          	lbu	a0,-1(s11)
800007d0:	00078d93          	mv	s11,a5
800007d4:	000a00e7          	jalr	s4
800007d8:	fffd8793          	addi	a5,s11,-1
800007dc:	ffbb18e3          	bne	s6,s11,800007cc <vprintf+0x2b0>
800007e0:	00190913          	addi	s2,s2,1
800007e4:	01a90933          	add	s2,s2,s10
800007e8:	e79ff06f          	j	80000660 <vprintf+0x144>
800007ec:	01b037b3          	snez	a5,s11
800007f0:	40e00733          	neg	a4,a4
800007f4:	40f70733          	sub	a4,a4,a5
800007f8:	02d00513          	li	a0,45
800007fc:	00e12623          	sw	a4,12(sp)
80000800:	000a00e7          	jalr	s4
80000804:	00c12703          	lw	a4,12(sp)
80000808:	41b00db3          	neg	s11,s11
8000080c:	000b0693          	mv	a3,s6
80000810:	00000613          	li	a2,0
80000814:	00500593          	li	a1,5
80000818:	00471793          	slli	a5,a4,0x4
8000081c:	01cdd513          	srli	a0,s11,0x1c
80000820:	00a7e533          	or	a0,a5,a0
80000824:	01357533          	and	a0,a0,s3
80000828:	013df7b3          	and	a5,s11,s3
8000082c:	01875813          	srli	a6,a4,0x18
80000830:	00a787b3          	add	a5,a5,a0
80000834:	010787b3          	add	a5,a5,a6
80000838:	02b7f7b3          	remu	a5,a5,a1
8000083c:	00168693          	addi	a3,a3,1
80000840:	00060913          	mv	s2,a2
80000844:	00160613          	addi	a2,a2,1
80000848:	40fd87b3          	sub	a5,s11,a5
8000084c:	00fdb533          	sltu	a0,s11,a5
80000850:	40a70733          	sub	a4,a4,a0
80000854:	03878833          	mul	a6,a5,s8
80000858:	02970733          	mul	a4,a4,s1
8000085c:	0297b533          	mulhu	a0,a5,s1
80000860:	01070733          	add	a4,a4,a6
80000864:	029787b3          	mul	a5,a5,s1
80000868:	00a70733          	add	a4,a4,a0
8000086c:	01f71513          	slli	a0,a4,0x1f
80000870:	00175713          	srli	a4,a4,0x1
80000874:	0017d793          	srli	a5,a5,0x1
80000878:	00f567b3          	or	a5,a0,a5
8000087c:	00279513          	slli	a0,a5,0x2
80000880:	00f50533          	add	a0,a0,a5
80000884:	00151513          	slli	a0,a0,0x1
80000888:	40ad8533          	sub	a0,s11,a0
8000088c:	03050513          	addi	a0,a0,48
80000890:	0ff57513          	zext.b	a0,a0
80000894:	00078d93          	mv	s11,a5
80000898:	fea68fa3          	sb	a0,-1(a3)
8000089c:	00e7e7b3          	or	a5,a5,a4
800008a0:	f6079ce3          	bnez	a5,80000818 <vprintf+0x2fc>
800008a4:	012b0db3          	add	s11,s6,s2
800008a8:	00c0006f          	j	800008b4 <vprintf+0x398>
800008ac:	fffdc503          	lbu	a0,-1(s11)
800008b0:	00078d93          	mv	s11,a5
800008b4:	000a00e7          	jalr	s4
800008b8:	fffd8793          	addi	a5,s11,-1
800008bc:	ffbb18e3          	bne	s6,s11,800008ac <vprintf+0x390>
800008c0:	001d0d13          	addi	s10,s10,1
800008c4:	012d0933          	add	s2,s10,s2
800008c8:	d99ff06f          	j	80000660 <vprintf+0x144>
800008cc:	007a8a93          	addi	s5,s5,7
800008d0:	ff8afa93          	andi	s5,s5,-8
800008d4:	000aa703          	lw	a4,0(s5)
800008d8:	004aa683          	lw	a3,4(s5)
800008dc:	008a8a93          	addi	s5,s5,8
800008e0:	d6dff06f          	j	8000064c <vprintf+0x130>
800008e4:	007a8a93          	addi	s5,s5,7
800008e8:	ff8afa93          	andi	s5,s5,-8
800008ec:	000aad83          	lw	s11,0(s5)
800008f0:	004aa703          	lw	a4,4(s5)
800008f4:	008a8a93          	addi	s5,s5,8
800008f8:	dddff06f          	j	800006d4 <vprintf+0x1b8>
800008fc:	00000d93          	li	s11,0
80000900:	cadff06f          	j	800005ac <vprintf+0x90>
80000904:	00090d13          	mv	s10,s2
80000908:	f05ff06f          	j	8000080c <vprintf+0x2f0>
8000090c:	00000913          	li	s2,0
80000910:	ca9ff06f          	j	800005b8 <vprintf+0x9c>
80000914:	03000613          	li	a2,48
80000918:	00000597          	auipc	a1,0x0
8000091c:	10858593          	addi	a1,a1,264 # 80000a20 <mainargs+0xc4>
80000920:	00000517          	auipc	a0,0x0
80000924:	14450513          	addi	a0,a0,324 # 80000a64 <mainargs+0x108>
80000928:	ba9ff0ef          	jal	ra,800004d0 <printf>
8000092c:	00100513          	li	a0,1
80000930:	905ff0ef          	jal	ra,80000234 <halt>
80000934:	02a00613          	li	a2,42
80000938:	fe1ff06f          	j	80000918 <vprintf+0x3fc>
8000093c:	02100613          	li	a2,33
80000940:	fd9ff06f          	j	80000918 <vprintf+0x3fc>
80000944:	04c00613          	li	a2,76
80000948:	fd1ff06f          	j	80000918 <vprintf+0x3fc>
