
/home/meowth/ysyx/ysyx-workbench/am-kernels/benchmarks/microbench/build/microbench-riscv32-nemu.elf:     file format elf32-littleriscv


Disassembly of section .text:

80000000 <_start>:
80000000:	00000413          	li	s0,0
80000004:	0000f117          	auipc	sp,0xf
80000008:	ffc10113          	addi	sp,sp,-4 # 8000f000 <_end>
8000000c:	5f9040ef          	jal	ra,80004e04 <_trm_init>

80000010 <_ZL9radixPassPiS_S_ii>:
80000010:	fe010113          	addi	sp,sp,-32
80000014:	01412423          	sw	s4,8(sp)
80000018:	00070a13          	mv	s4,a4
8000001c:	00170713          	addi	a4,a4,1
80000020:	01512223          	sw	s5,4(sp)
80000024:	00271a93          	slli	s5,a4,0x2
80000028:	00812c23          	sw	s0,24(sp)
8000002c:	00050413          	mv	s0,a0
80000030:	000a8513          	mv	a0,s5
80000034:	00912a23          	sw	s1,20(sp)
80000038:	01212823          	sw	s2,16(sp)
8000003c:	01312623          	sw	s3,12(sp)
80000040:	00112e23          	sw	ra,28(sp)
80000044:	00058993          	mv	s3,a1
80000048:	00060493          	mv	s1,a2
8000004c:	00068913          	mv	s2,a3
80000050:	220010ef          	jal	ra,80001270 <bench_alloc>
80000054:	0e0a4463          	bltz	s4,8000013c <_ZL9radixPassPiS_S_ii+0x12c>
80000058:	00050793          	mv	a5,a0
8000005c:	00aa8733          	add	a4,s5,a0
80000060:	0007a023          	sw	zero,0(a5)
80000064:	00478793          	addi	a5,a5,4
80000068:	fef71ce3          	bne	a4,a5,80000060 <_ZL9radixPassPiS_S_ii+0x50>
8000006c:	05205063          	blez	s2,800000ac <_ZL9radixPassPiS_S_ii+0x9c>
80000070:	00291713          	slli	a4,s2,0x2
80000074:	00040813          	mv	a6,s0
80000078:	00870733          	add	a4,a4,s0
8000007c:	00082783          	lw	a5,0(a6)
80000080:	00480813          	addi	a6,a6,4
80000084:	00279793          	slli	a5,a5,0x2
80000088:	00f487b3          	add	a5,s1,a5
8000008c:	0007a783          	lw	a5,0(a5)
80000090:	00279793          	slli	a5,a5,0x2
80000094:	00f507b3          	add	a5,a0,a5
80000098:	0007a883          	lw	a7,0(a5)
8000009c:	00188893          	addi	a7,a7,1
800000a0:	0117a023          	sw	a7,0(a5)
800000a4:	fd071ce3          	bne	a4,a6,8000007c <_ZL9radixPassPiS_S_ii+0x6c>
800000a8:	020a4663          	bltz	s4,800000d4 <_ZL9radixPassPiS_S_ii+0xc4>
800000ac:	00050793          	mv	a5,a0
800000b0:	00000693          	li	a3,0
800000b4:	00000813          	li	a6,0
800000b8:	0007a603          	lw	a2,0(a5)
800000bc:	00180813          	addi	a6,a6,1
800000c0:	00d7a023          	sw	a3,0(a5)
800000c4:	00c686b3          	add	a3,a3,a2
800000c8:	00478793          	addi	a5,a5,4
800000cc:	ff0a56e3          	bge	s4,a6,800000b8 <_ZL9radixPassPiS_S_ii+0xa8>
800000d0:	05205463          	blez	s2,80000118 <_ZL9radixPassPiS_S_ii+0x108>
800000d4:	00040893          	mv	a7,s0
800000d8:	00000813          	li	a6,0
800000dc:	0008a683          	lw	a3,0(a7)
800000e0:	00180813          	addi	a6,a6,1
800000e4:	00488893          	addi	a7,a7,4
800000e8:	00269793          	slli	a5,a3,0x2
800000ec:	00f487b3          	add	a5,s1,a5
800000f0:	0007a703          	lw	a4,0(a5)
800000f4:	00271713          	slli	a4,a4,0x2
800000f8:	00e50733          	add	a4,a0,a4
800000fc:	00072783          	lw	a5,0(a4)
80000100:	00178613          	addi	a2,a5,1
80000104:	00279793          	slli	a5,a5,0x2
80000108:	00c72023          	sw	a2,0(a4)
8000010c:	00f987b3          	add	a5,s3,a5
80000110:	00d7a023          	sw	a3,0(a5)
80000114:	fd2844e3          	blt	a6,s2,800000dc <_ZL9radixPassPiS_S_ii+0xcc>
80000118:	01c12083          	lw	ra,28(sp)
8000011c:	01812403          	lw	s0,24(sp)
80000120:	01412483          	lw	s1,20(sp)
80000124:	01012903          	lw	s2,16(sp)
80000128:	00c12983          	lw	s3,12(sp)
8000012c:	00812a03          	lw	s4,8(sp)
80000130:	00412a83          	lw	s5,4(sp)
80000134:	02010113          	addi	sp,sp,32
80000138:	00008067          	ret
8000013c:	f3204ae3          	bgtz	s2,80000070 <_ZL9radixPassPiS_S_ii+0x60>
80000140:	fd9ff06f          	j	80000118 <_ZL9radixPassPiS_S_ii+0x108>

80000144 <_Z11suffixArrayPiS_ii>:
80000144:	fb010113          	addi	sp,sp,-80
80000148:	00300793          	li	a5,3
8000014c:	04812423          	sw	s0,72(sp)
80000150:	00260413          	addi	s0,a2,2
80000154:	02f44433          	div	s0,s0,a5
80000158:	03812423          	sw	s8,40(sp)
8000015c:	03712623          	sw	s7,44(sp)
80000160:	04912223          	sw	s1,68(sp)
80000164:	03412c23          	sw	s4,56(sp)
80000168:	00050a13          	mv	s4,a0
8000016c:	04112623          	sw	ra,76(sp)
80000170:	05212023          	sw	s2,64(sp)
80000174:	03312e23          	sw	s3,60(sp)
80000178:	03512a23          	sw	s5,52(sp)
8000017c:	00068993          	mv	s3,a3
80000180:	03612823          	sw	s6,48(sp)
80000184:	03912223          	sw	s9,36(sp)
80000188:	03a12023          	sw	s10,32(sp)
8000018c:	00060c93          	mv	s9,a2
80000190:	01b12e23          	sw	s11,28(sp)
80000194:	00058d93          	mv	s11,a1
80000198:	02f64c33          	div	s8,a2,a5
8000019c:	00241913          	slli	s2,s0,0x2
800001a0:	008c0c33          	add	s8,s8,s0
800001a4:	003c0b93          	addi	s7,s8,3
800001a8:	002b9b93          	slli	s7,s7,0x2
800001ac:	000b8513          	mv	a0,s7
800001b0:	002c0493          	addi	s1,s8,2
800001b4:	0bc010ef          	jal	ra,80001270 <bench_alloc>
800001b8:	00249493          	slli	s1,s1,0x2
800001bc:	00950733          	add	a4,a0,s1
800001c0:	ffc48d13          	addi	s10,s1,-4
800001c4:	00072023          	sw	zero,0(a4)
800001c8:	ff848b13          	addi	s6,s1,-8
800001cc:	01a50733          	add	a4,a0,s10
800001d0:	00072023          	sw	zero,0(a4)
800001d4:	01650733          	add	a4,a0,s6
800001d8:	00072023          	sw	zero,0(a4)
800001dc:	00050a93          	mv	s5,a0
800001e0:	000b8513          	mv	a0,s7
800001e4:	08c010ef          	jal	ra,80001270 <bench_alloc>
800001e8:	009504b3          	add	s1,a0,s1
800001ec:	0004a023          	sw	zero,0(s1)
800001f0:	01a50d33          	add	s10,a0,s10
800001f4:	000d2023          	sw	zero,0(s10)
800001f8:	01650b33          	add	s6,a0,s6
800001fc:	000b2023          	sw	zero,0(s6)
80000200:	00050b93          	mv	s7,a0
80000204:	00090513          	mv	a0,s2
80000208:	068010ef          	jal	ra,80001270 <bench_alloc>
8000020c:	00050893          	mv	a7,a0
80000210:	00090513          	mv	a0,s2
80000214:	01112423          	sw	a7,8(sp)
80000218:	058010ef          	jal	ra,80001270 <bench_alloc>
8000021c:	001c8b13          	addi	s6,s9,1
80000220:	00300793          	li	a5,3
80000224:	02fb4b33          	div	s6,s6,a5
80000228:	00050d13          	mv	s10,a0
8000022c:	00812883          	lw	a7,8(sp)
80000230:	00000713          	li	a4,0
80000234:	00000693          	li	a3,0
80000238:	00300513          	li	a0,3
8000023c:	41640b33          	sub	s6,s0,s6
80000240:	016c85b3          	add	a1,s9,s6
80000244:	02b05a63          	blez	a1,80000278 <_Z11suffixArrayPiS_ii+0x134>
80000248:	00269793          	slli	a5,a3,0x2
8000024c:	00170713          	addi	a4,a4,1
80000250:	00fa87b3          	add	a5,s5,a5
80000254:	02b70263          	beq	a4,a1,80000278 <_Z11suffixArrayPiS_ii+0x134>
80000258:	02a76633          	rem	a2,a4,a0
8000025c:	fe0606e3          	beqz	a2,80000248 <_Z11suffixArrayPiS_ii+0x104>
80000260:	00168693          	addi	a3,a3,1
80000264:	00e7a023          	sw	a4,0(a5)
80000268:	00269793          	slli	a5,a3,0x2
8000026c:	00170713          	addi	a4,a4,1
80000270:	00fa87b3          	add	a5,s5,a5
80000274:	feb712e3          	bne	a4,a1,80000258 <_Z11suffixArrayPiS_ii+0x114>
80000278:	008a0613          	addi	a2,s4,8
8000027c:	000b8593          	mv	a1,s7
80000280:	000a8513          	mv	a0,s5
80000284:	00098713          	mv	a4,s3
80000288:	000c0693          	mv	a3,s8
8000028c:	01112423          	sw	a7,8(sp)
80000290:	d81ff0ef          	jal	ra,80000010 <_ZL9radixPassPiS_S_ii>
80000294:	00098713          	mv	a4,s3
80000298:	000c0693          	mv	a3,s8
8000029c:	004a0613          	addi	a2,s4,4
800002a0:	000a8593          	mv	a1,s5
800002a4:	000b8513          	mv	a0,s7
800002a8:	d69ff0ef          	jal	ra,80000010 <_ZL9radixPassPiS_S_ii>
800002ac:	00098713          	mv	a4,s3
800002b0:	000c0693          	mv	a3,s8
800002b4:	000a0613          	mv	a2,s4
800002b8:	000b8593          	mv	a1,s7
800002bc:	000a8513          	mv	a0,s5
800002c0:	d51ff0ef          	jal	ra,80000010 <_ZL9radixPassPiS_S_ii>
800002c4:	00812883          	lw	a7,8(sp)
800002c8:	0f805663          	blez	s8,800003b4 <_Z11suffixArrayPiS_ii+0x270>
800002cc:	002c1713          	slli	a4,s8,0x2
800002d0:	000b8493          	mv	s1,s7
800002d4:	01770733          	add	a4,a4,s7
800002d8:	000b8613          	mv	a2,s7
800002dc:	fff00813          	li	a6,-1
800002e0:	fff00e13          	li	t3,-1
800002e4:	fff00513          	li	a0,-1
800002e8:	00000693          	li	a3,0
800002ec:	00300593          	li	a1,3
800002f0:	00100313          	li	t1,1
800002f4:	02c0006f          	j	80000320 <_Z11suffixArrayPiS_ii+0x1dc>
800002f8:	00168693          	addi	a3,a3,1
800002fc:	000e8513          	mv	a0,t4
80000300:	02b7c7b3          	div	a5,a5,a1
80000304:	006f0463          	beq	t5,t1,8000030c <_Z11suffixArrayPiS_ii+0x1c8>
80000308:	00f407b3          	add	a5,s0,a5
8000030c:	00279793          	slli	a5,a5,0x2
80000310:	00fa87b3          	add	a5,s5,a5
80000314:	00d7a023          	sw	a3,0(a5)
80000318:	00460613          	addi	a2,a2,4
8000031c:	02c70c63          	beq	a4,a2,80000354 <_Z11suffixArrayPiS_ii+0x210>
80000320:	00062783          	lw	a5,0(a2)
80000324:	00080293          	mv	t0,a6
80000328:	000e0f93          	mv	t6,t3
8000032c:	00279813          	slli	a6,a5,0x2
80000330:	010a0833          	add	a6,s4,a6
80000334:	00082e83          	lw	t4,0(a6)
80000338:	00482e03          	lw	t3,4(a6)
8000033c:	00882803          	lw	a6,8(a6)
80000340:	02b7ef33          	rem	t5,a5,a1
80000344:	faae9ae3          	bne	t4,a0,800002f8 <_Z11suffixArrayPiS_ii+0x1b4>
80000348:	fbcf98e3          	bne	t6,t3,800002f8 <_Z11suffixArrayPiS_ii+0x1b4>
8000034c:	fb0296e3          	bne	t0,a6,800002f8 <_Z11suffixArrayPiS_ii+0x1b4>
80000350:	fb1ff06f          	j	80000300 <_Z11suffixArrayPiS_ii+0x1bc>
80000354:	40000537          	lui	a0,0x40000
80000358:	000a8593          	mv	a1,s5
8000035c:	00000613          	li	a2,0
80000360:	fff50513          	addi	a0,a0,-1 # 3fffffff <_entry_offset+0x3fffffff>
80000364:	2786c863          	blt	a3,s8,800005d4 <_Z11suffixArrayPiS_ii+0x490>
80000368:	0005a783          	lw	a5,0(a1)
8000036c:	00458593          	addi	a1,a1,4
80000370:	00a787b3          	add	a5,a5,a0
80000374:	00279793          	slli	a5,a5,0x2
80000378:	00fb87b3          	add	a5,s7,a5
8000037c:	00c7a023          	sw	a2,0(a5)
80000380:	00160613          	addi	a2,a2,1
80000384:	fecc12e3          	bne	s8,a2,80000368 <_Z11suffixArrayPiS_ii+0x224>
80000388:	00000593          	li	a1,0
8000038c:	0004a683          	lw	a3,0(s1)
80000390:	00259793          	slli	a5,a1,0x2
80000394:	00448493          	addi	s1,s1,4
80000398:	00169613          	slli	a2,a3,0x1
8000039c:	00f887b3          	add	a5,a7,a5
800003a0:	00d60633          	add	a2,a2,a3
800003a4:	0086d663          	bge	a3,s0,800003b0 <_Z11suffixArrayPiS_ii+0x26c>
800003a8:	00c7a023          	sw	a2,0(a5)
800003ac:	00158593          	addi	a1,a1,1
800003b0:	fc971ee3          	bne	a4,s1,8000038c <_Z11suffixArrayPiS_ii+0x248>
800003b4:	00098713          	mv	a4,s3
800003b8:	00040693          	mv	a3,s0
800003bc:	000a0613          	mv	a2,s4
800003c0:	000d0593          	mv	a1,s10
800003c4:	00088513          	mv	a0,a7
800003c8:	c49ff0ef          	jal	ra,80000010 <_ZL9radixPassPiS_S_ii>
800003cc:	11905863          	blez	s9,800004dc <_Z11suffixArrayPiS_ii+0x398>
800003d0:	002c1313          	slli	t1,s8,0x2
800003d4:	006b8333          	add	t1,s7,t1
800003d8:	012d0933          	add	s2,s10,s2
800003dc:	00000613          	li	a2,0
800003e0:	00000813          	li	a6,0
800003e4:	00300893          	li	a7,3
800003e8:	0400006f          	j	80000428 <_Z11suffixArrayPiS_ii+0x2e4>
800003ec:	00169593          	slli	a1,a3,0x1
800003f0:	00d585b3          	add	a1,a1,a3
800003f4:	00158593          	addi	a1,a1,1
800003f8:	00259513          	slli	a0,a1,0x2
800003fc:	00aa0533          	add	a0,s4,a0
80000400:	00052503          	lw	a0,0(a0)
80000404:	09f54663          	blt	a0,t6,80000490 <_Z11suffixArrayPiS_ii+0x34c>
80000408:	11f50863          	beq	a0,t6,80000518 <_Z11suffixArrayPiS_ii+0x3d4>
8000040c:	00261593          	slli	a1,a2,0x2
80000410:	00bd87b3          	add	a5,s11,a1
80000414:	01c7a023          	sw	t3,0(a5)
80000418:	00180813          	addi	a6,a6,1
8000041c:	13040a63          	beq	s0,a6,80000550 <_Z11suffixArrayPiS_ii+0x40c>
80000420:	00160613          	addi	a2,a2,1
80000424:	0b965c63          	bge	a2,s9,800004dc <_Z11suffixArrayPiS_ii+0x398>
80000428:	00281793          	slli	a5,a6,0x2
8000042c:	00fd07b3          	add	a5,s10,a5
80000430:	0007ae03          	lw	t3,0(a5)
80000434:	002b1713          	slli	a4,s6,0x2
80000438:	00eb8733          	add	a4,s7,a4
8000043c:	00072683          	lw	a3,0(a4)
80000440:	002e1513          	slli	a0,t3,0x2
80000444:	00aa0533          	add	a0,s4,a0
80000448:	031e4f33          	div	t5,t3,a7
8000044c:	00052f83          	lw	t6,0(a0)
80000450:	f886cee3          	blt	a3,s0,800003ec <_Z11suffixArrayPiS_ii+0x2a8>
80000454:	408686b3          	sub	a3,a3,s0
80000458:	00169e93          	slli	t4,a3,0x1
8000045c:	00de8eb3          	add	t4,t4,a3
80000460:	002e8593          	addi	a1,t4,2
80000464:	00259293          	slli	t0,a1,0x2
80000468:	005a02b3          	add	t0,s4,t0
8000046c:	0002a283          	lw	t0,0(t0)
80000470:	03f2c063          	blt	t0,t6,80000490 <_Z11suffixArrayPiS_ii+0x34c>
80000474:	f9f29ce3          	bne	t0,t6,8000040c <_Z11suffixArrayPiS_ii+0x2c8>
80000478:	003e8e93          	addi	t4,t4,3
8000047c:	002e9e93          	slli	t4,t4,0x2
80000480:	01da0eb3          	add	t4,s4,t4
80000484:	000eae83          	lw	t4,0(t4)
80000488:	00452503          	lw	a0,4(a0)
8000048c:	10aede63          	bge	t4,a0,800005a8 <_Z11suffixArrayPiS_ii+0x464>
80000490:	00261713          	slli	a4,a2,0x2
80000494:	00ed86b3          	add	a3,s11,a4
80000498:	00b6a023          	sw	a1,0(a3)
8000049c:	001b0b13          	addi	s6,s6,1
800004a0:	f96c10e3          	bne	s8,s6,80000420 <_Z11suffixArrayPiS_ii+0x2dc>
800004a4:	00160613          	addi	a2,a2,1
800004a8:	f6885ce3          	bge	a6,s0,80000420 <_Z11suffixArrayPiS_ii+0x2dc>
800004ac:	00470713          	addi	a4,a4,4
800004b0:	00ed8733          	add	a4,s11,a4
800004b4:	0007a683          	lw	a3,0(a5)
800004b8:	00478793          	addi	a5,a5,4
800004bc:	00470713          	addi	a4,a4,4
800004c0:	fed72e23          	sw	a3,-4(a4)
800004c4:	fef918e3          	bne	s2,a5,800004b4 <_Z11suffixArrayPiS_ii+0x370>
800004c8:	41060833          	sub	a6,a2,a6
800004cc:	00880633          	add	a2,a6,s0
800004d0:	00160613          	addi	a2,a2,1
800004d4:	00040813          	mv	a6,s0
800004d8:	f59648e3          	blt	a2,s9,80000428 <_Z11suffixArrayPiS_ii+0x2e4>
800004dc:	04c12083          	lw	ra,76(sp)
800004e0:	04812403          	lw	s0,72(sp)
800004e4:	04412483          	lw	s1,68(sp)
800004e8:	04012903          	lw	s2,64(sp)
800004ec:	03c12983          	lw	s3,60(sp)
800004f0:	03812a03          	lw	s4,56(sp)
800004f4:	03412a83          	lw	s5,52(sp)
800004f8:	03012b03          	lw	s6,48(sp)
800004fc:	02c12b83          	lw	s7,44(sp)
80000500:	02812c03          	lw	s8,40(sp)
80000504:	02412c83          	lw	s9,36(sp)
80000508:	02012d03          	lw	s10,32(sp)
8000050c:	01c12d83          	lw	s11,28(sp)
80000510:	05010113          	addi	sp,sp,80
80000514:	00008067          	ret
80000518:	008686b3          	add	a3,a3,s0
8000051c:	00269693          	slli	a3,a3,0x2
80000520:	002f1f13          	slli	t5,t5,0x2
80000524:	00da86b3          	add	a3,s5,a3
80000528:	01ea8f33          	add	t5,s5,t5
8000052c:	0006a503          	lw	a0,0(a3)
80000530:	000f2683          	lw	a3,0(t5)
80000534:	eca6cce3          	blt	a3,a0,8000040c <_Z11suffixArrayPiS_ii+0x2c8>
80000538:	00261713          	slli	a4,a2,0x2
8000053c:	00ed86b3          	add	a3,s11,a4
80000540:	00b6a023          	sw	a1,0(a3)
80000544:	001b0b13          	addi	s6,s6,1
80000548:	ed6c1ce3          	bne	s8,s6,80000420 <_Z11suffixArrayPiS_ii+0x2dc>
8000054c:	f59ff06f          	j	800004a4 <_Z11suffixArrayPiS_ii+0x360>
80000550:	00160613          	addi	a2,a2,1
80000554:	ed8b56e3          	bge	s6,s8,80000420 <_Z11suffixArrayPiS_ii+0x2dc>
80000558:	00458593          	addi	a1,a1,4
8000055c:	00070793          	mv	a5,a4
80000560:	00bd85b3          	add	a1,s11,a1
80000564:	0007a683          	lw	a3,0(a5)
80000568:	40868e33          	sub	t3,a3,s0
8000056c:	001e1713          	slli	a4,t3,0x1
80000570:	00169513          	slli	a0,a3,0x1
80000574:	01c70733          	add	a4,a4,t3
80000578:	00d50533          	add	a0,a0,a3
8000057c:	00270713          	addi	a4,a4,2
80000580:	0086d463          	bge	a3,s0,80000588 <_Z11suffixArrayPiS_ii+0x444>
80000584:	00150713          	addi	a4,a0,1
80000588:	00e5a023          	sw	a4,0(a1)
8000058c:	00478793          	addi	a5,a5,4
80000590:	00458593          	addi	a1,a1,4
80000594:	fcf318e3          	bne	t1,a5,80000564 <_Z11suffixArrayPiS_ii+0x420>
80000598:	41660633          	sub	a2,a2,s6
8000059c:	01860633          	add	a2,a2,s8
800005a0:	000c0b13          	mv	s6,s8
800005a4:	e7dff06f          	j	80000420 <_Z11suffixArrayPiS_ii+0x2dc>
800005a8:	e6ae92e3          	bne	t4,a0,8000040c <_Z11suffixArrayPiS_ii+0x2c8>
800005ac:	00168693          	addi	a3,a3,1
800005b0:	01e40533          	add	a0,s0,t5
800005b4:	00269693          	slli	a3,a3,0x2
800005b8:	00251513          	slli	a0,a0,0x2
800005bc:	00da86b3          	add	a3,s5,a3
800005c0:	00aa8533          	add	a0,s5,a0
800005c4:	0006ae83          	lw	t4,0(a3)
800005c8:	00052683          	lw	a3,0(a0)
800005cc:	e5d6c0e3          	blt	a3,t4,8000040c <_Z11suffixArrayPiS_ii+0x2c8>
800005d0:	ec1ff06f          	j	80000490 <_Z11suffixArrayPiS_ii+0x34c>
800005d4:	000c0613          	mv	a2,s8
800005d8:	000b8593          	mv	a1,s7
800005dc:	000a8513          	mv	a0,s5
800005e0:	01112623          	sw	a7,12(sp)
800005e4:	00e12423          	sw	a4,8(sp)
800005e8:	b5dff0ef          	jal	ra,80000144 <_Z11suffixArrayPiS_ii>
800005ec:	00c12883          	lw	a7,12(sp)
800005f0:	00812703          	lw	a4,8(sp)
800005f4:	000b8613          	mv	a2,s7
800005f8:	00000693          	li	a3,0
800005fc:	00062783          	lw	a5,0(a2)
80000600:	00168693          	addi	a3,a3,1
80000604:	00460613          	addi	a2,a2,4
80000608:	00279793          	slli	a5,a5,0x2
8000060c:	00fa87b3          	add	a5,s5,a5
80000610:	00d7a023          	sw	a3,0(a5)
80000614:	ff8694e3          	bne	a3,s8,800005fc <_Z11suffixArrayPiS_ii+0x4b8>
80000618:	d71ff06f          	j	80000388 <_Z11suffixArrayPiS_ii+0x244>

8000061c <bench_ssort_prepare>:
8000061c:	00006797          	auipc	a5,0x6
80000620:	4347a783          	lw	a5,1076(a5) # 80006a50 <setting>
80000624:	0007a783          	lw	a5,0(a5)
80000628:	fe010113          	addi	sp,sp,-32
8000062c:	00912a23          	sw	s1,20(sp)
80000630:	00100513          	li	a0,1
80000634:	00006497          	auipc	s1,0x6
80000638:	3e448493          	addi	s1,s1,996 # 80006a18 <_ZL1N>
8000063c:	00112e23          	sw	ra,28(sp)
80000640:	00f4a023          	sw	a5,0(s1)
80000644:	01212823          	sw	s2,16(sp)
80000648:	00812c23          	sw	s0,24(sp)
8000064c:	01312623          	sw	s3,12(sp)
80000650:	4c9000ef          	jal	ra,80001318 <bench_srand>
80000654:	0004a503          	lw	a0,0(s1)
80000658:	00006917          	auipc	s2,0x6
8000065c:	3c490913          	addi	s2,s2,964 # 80006a1c <_ZL1s>
80000660:	00a50513          	addi	a0,a0,10
80000664:	00251513          	slli	a0,a0,0x2
80000668:	409000ef          	jal	ra,80001270 <bench_alloc>
8000066c:	0004a783          	lw	a5,0(s1)
80000670:	00a92023          	sw	a0,0(s2)
80000674:	00a78513          	addi	a0,a5,10
80000678:	00251513          	slli	a0,a0,0x2
8000067c:	3f5000ef          	jal	ra,80001270 <bench_alloc>
80000680:	0004a783          	lw	a5,0(s1)
80000684:	00006717          	auipc	a4,0x6
80000688:	38a72e23          	sw	a0,924(a4) # 80006a20 <_ZL2sa>
8000068c:	02f05863          	blez	a5,800006bc <bench_ssort_prepare+0xa0>
80000690:	00000413          	li	s0,0
80000694:	01a00993          	li	s3,26
80000698:	495000ef          	jal	ra,8000132c <bench_rand>
8000069c:	03357533          	remu	a0,a0,s3
800006a0:	00092783          	lw	a5,0(s2)
800006a4:	00241693          	slli	a3,s0,0x2
800006a8:	0004a703          	lw	a4,0(s1)
800006ac:	00d787b3          	add	a5,a5,a3
800006b0:	00140413          	addi	s0,s0,1
800006b4:	00a7a023          	sw	a0,0(a5)
800006b8:	fee440e3          	blt	s0,a4,80000698 <bench_ssort_prepare+0x7c>
800006bc:	01c12083          	lw	ra,28(sp)
800006c0:	01812403          	lw	s0,24(sp)
800006c4:	01412483          	lw	s1,20(sp)
800006c8:	01012903          	lw	s2,16(sp)
800006cc:	00c12983          	lw	s3,12(sp)
800006d0:	02010113          	addi	sp,sp,32
800006d4:	00008067          	ret

800006d8 <bench_ssort_run>:
800006d8:	01a00693          	li	a3,26
800006dc:	00006617          	auipc	a2,0x6
800006e0:	33c62603          	lw	a2,828(a2) # 80006a18 <_ZL1N>
800006e4:	00006597          	auipc	a1,0x6
800006e8:	33c5a583          	lw	a1,828(a1) # 80006a20 <_ZL2sa>
800006ec:	00006517          	auipc	a0,0x6
800006f0:	33052503          	lw	a0,816(a0) # 80006a1c <_ZL1s>
800006f4:	a51ff06f          	j	80000144 <_Z11suffixArrayPiS_ii>

800006f8 <bench_ssort_validate>:
800006f8:	00006597          	auipc	a1,0x6
800006fc:	3205a583          	lw	a1,800(a1) # 80006a18 <_ZL1N>
80000700:	00006517          	auipc	a0,0x6
80000704:	32052503          	lw	a0,800(a0) # 80006a20 <_ZL2sa>
80000708:	00259593          	slli	a1,a1,0x2
8000070c:	ff010113          	addi	sp,sp,-16
80000710:	00b505b3          	add	a1,a0,a1
80000714:	00112623          	sw	ra,12(sp)
80000718:	449000ef          	jal	ra,80001360 <checksum>
8000071c:	00006797          	auipc	a5,0x6
80000720:	3347a783          	lw	a5,820(a5) # 80006a50 <setting>
80000724:	00c7a783          	lw	a5,12(a5)
80000728:	00c12083          	lw	ra,12(sp)
8000072c:	40a78533          	sub	a0,a5,a0
80000730:	00153513          	seqz	a0,a0
80000734:	01010113          	addi	sp,sp,16
80000738:	00008067          	ret

8000073c <bench_bf_prepare>:
8000073c:	00006797          	auipc	a5,0x6
80000740:	3147a783          	lw	a5,788(a5) # 80006a50 <setting>
80000744:	0007a783          	lw	a5,0(a5)
80000748:	fe010113          	addi	sp,sp,-32
8000074c:	00912a23          	sw	s1,20(sp)
80000750:	00004537          	lui	a0,0x4
80000754:	00006497          	auipc	s1,0x6
80000758:	2d048493          	addi	s1,s1,720 # 80006a24 <ARR_SIZE>
8000075c:	00112e23          	sw	ra,28(sp)
80000760:	00f4a023          	sw	a5,0(s1)
80000764:	01212823          	sw	s2,16(sp)
80000768:	00006797          	auipc	a5,0x6
8000076c:	2c07a223          	sw	zero,708(a5) # 80006a2c <SP>
80000770:	00812c23          	sw	s0,24(sp)
80000774:	01312623          	sw	s3,12(sp)
80000778:	01412423          	sw	s4,8(sp)
8000077c:	2f5000ef          	jal	ra,80001270 <bench_alloc>
80000780:	00050793          	mv	a5,a0
80000784:	40000513          	li	a0,1024
80000788:	00006717          	auipc	a4,0x6
8000078c:	2af72023          	sw	a5,672(a4) # 80006a28 <PROGRAM>
80000790:	2e1000ef          	jal	ra,80001270 <bench_alloc>
80000794:	00050793          	mv	a5,a0
80000798:	00002537          	lui	a0,0x2
8000079c:	00006717          	auipc	a4,0x6
800007a0:	28f72a23          	sw	a5,660(a4) # 80006a30 <STACK>
800007a4:	2cd000ef          	jal	ra,80001270 <bench_alloc>
800007a8:	0004a783          	lw	a5,0(s1)
800007ac:	00006717          	auipc	a4,0x6
800007b0:	28a72623          	sw	a0,652(a4) # 80006a38 <data>
800007b4:	00006917          	auipc	s2,0x6
800007b8:	28890913          	addi	s2,s2,648 # 80006a3c <input>
800007bc:	00178513          	addi	a0,a5,1
800007c0:	00005797          	auipc	a5,0x5
800007c4:	25078793          	addi	a5,a5,592 # 80005a10 <_etext>
800007c8:	00006717          	auipc	a4,0x6
800007cc:	26f72623          	sw	a5,620(a4) # 80006a34 <code>
800007d0:	2a1000ef          	jal	ra,80001270 <bench_alloc>
800007d4:	00050793          	mv	a5,a0
800007d8:	00001537          	lui	a0,0x1
800007dc:	00f92023          	sw	a5,0(s2)
800007e0:	291000ef          	jal	ra,80001270 <bench_alloc>
800007e4:	00050793          	mv	a5,a0
800007e8:	00100513          	li	a0,1
800007ec:	00006717          	auipc	a4,0x6
800007f0:	24f72c23          	sw	a5,600(a4) # 80006a44 <output>
800007f4:	00006797          	auipc	a5,0x6
800007f8:	2407a623          	sw	zero,588(a5) # 80006a40 <noutput>
800007fc:	31d000ef          	jal	ra,80001318 <bench_srand>
80000800:	0004a783          	lw	a5,0(s1)
80000804:	02f05e63          	blez	a5,80000840 <bench_bf_prepare+0x104>
80000808:	00000413          	li	s0,0
8000080c:	00005a17          	auipc	s4,0x5
80000810:	2b8a0a13          	addi	s4,s4,696 # 80005ac4 <_etext+0xb4>
80000814:	03e00993          	li	s3,62
80000818:	315000ef          	jal	ra,8000132c <bench_rand>
8000081c:	03357533          	remu	a0,a0,s3
80000820:	00092783          	lw	a5,0(s2)
80000824:	0004a703          	lw	a4,0(s1)
80000828:	008787b3          	add	a5,a5,s0
8000082c:	00140413          	addi	s0,s0,1
80000830:	00aa0533          	add	a0,s4,a0
80000834:	00054683          	lbu	a3,0(a0) # 1000 <_entry_offset+0x1000>
80000838:	00d78023          	sb	a3,0(a5)
8000083c:	fce44ee3          	blt	s0,a4,80000818 <bench_bf_prepare+0xdc>
80000840:	01c12083          	lw	ra,28(sp)
80000844:	01812403          	lw	s0,24(sp)
80000848:	01412483          	lw	s1,20(sp)
8000084c:	01012903          	lw	s2,16(sp)
80000850:	00c12983          	lw	s3,12(sp)
80000854:	00812a03          	lw	s4,8(sp)
80000858:	02010113          	addi	sp,sp,32
8000085c:	00008067          	ret

80000860 <bench_bf_run>:
80000860:	00006f97          	auipc	t6,0x6
80000864:	1d4f8f93          	addi	t6,t6,468 # 80006a34 <code>
80000868:	000fa683          	lw	a3,0(t6)
8000086c:	fd010113          	addi	sp,sp,-48
80000870:	01612a23          	sw	s6,20(sp)
80000874:	01812623          	sw	s8,12(sp)
80000878:	02812623          	sw	s0,44(sp)
8000087c:	02912423          	sw	s1,40(sp)
80000880:	03212223          	sw	s2,36(sp)
80000884:	03312023          	sw	s3,32(sp)
80000888:	01412e23          	sw	s4,28(sp)
8000088c:	01512c23          	sw	s5,24(sp)
80000890:	01712823          	sw	s7,16(sp)
80000894:	0006c783          	lbu	a5,0(a3)
80000898:	00006c17          	auipc	s8,0x6
8000089c:	194c0c13          	addi	s8,s8,404 # 80006a2c <SP>
800008a0:	000c2b03          	lw	s6,0(s8)
800008a4:	00006617          	auipc	a2,0x6
800008a8:	18462603          	lw	a2,388(a2) # 80006a28 <PROGRAM>
800008ac:	36078c63          	beqz	a5,80000c24 <bench_bf_run+0x3c4>
800008b0:	00006f17          	auipc	t5,0x6
800008b4:	180f2f03          	lw	t5,384(t5) # 80006a30 <STACK>
800008b8:	00168693          	addi	a3,a3,1
800008bc:	000b0313          	mv	t1,s6
800008c0:	00000813          	li	a6,0
800008c4:	00000e93          	li	t4,0
800008c8:	00000713          	li	a4,0
800008cc:	03200513          	li	a0,50
800008d0:	00005597          	auipc	a1,0x5
800008d4:	23458593          	addi	a1,a1,564 # 80005b04 <_etext+0xf4>
800008d8:	00001e37          	lui	t3,0x1
800008dc:	00800b93          	li	s7,8
800008e0:	00100a93          	li	s5,1
800008e4:	00700a13          	li	s4,7
800008e8:	20000993          	li	s3,512
800008ec:	00600913          	li	s2,6
800008f0:	00500493          	li	s1,5
800008f4:	00400413          	li	s0,4
800008f8:	00300393          	li	t2,3
800008fc:	00200293          	li	t0,2
80000900:	fd578793          	addi	a5,a5,-43
80000904:	0ff7f793          	zext.b	a5,a5
80000908:	00f56c63          	bltu	a0,a5,80000920 <bench_bf_run+0xc0>
8000090c:	00279793          	slli	a5,a5,0x2
80000910:	00b787b3          	add	a5,a5,a1
80000914:	0007a783          	lw	a5,0(a5)
80000918:	00b787b3          	add	a5,a5,a1
8000091c:	00078067          	jr	a5
80000920:	0006c783          	lbu	a5,0(a3)
80000924:	00068893          	mv	a7,a3
80000928:	10078a63          	beqz	a5,80000a3c <bench_bf_run+0x1dc>
8000092c:	00168693          	addi	a3,a3,1
80000930:	00100813          	li	a6,1
80000934:	fcdff06f          	j	80000900 <bench_bf_run+0xa0>
80000938:	2a030e63          	beqz	t1,80000bf4 <bench_bf_run+0x394>
8000093c:	fff30313          	addi	t1,t1,-1
80000940:	00131793          	slli	a5,t1,0x1
80000944:	00ff07b3          	add	a5,t5,a5
80000948:	0007d883          	lhu	a7,0(a5)
8000094c:	00271793          	slli	a5,a4,0x2
80000950:	00f607b3          	add	a5,a2,a5
80000954:	00289813          	slli	a6,a7,0x2
80000958:	01179123          	sh	a7,2(a5)
8000095c:	01779023          	sh	s7,0(a5)
80000960:	010607b3          	add	a5,a2,a6
80000964:	00e79123          	sh	a4,2(a5)
80000968:	00100e93          	li	t4,1
8000096c:	0006c783          	lbu	a5,0(a3)
80000970:	00170713          	addi	a4,a4,1
80000974:	01071713          	slli	a4,a4,0x10
80000978:	01075713          	srli	a4,a4,0x10
8000097c:	00068893          	mv	a7,a3
80000980:	0a078e63          	beqz	a5,80000a3c <bench_bf_run+0x1dc>
80000984:	fbc714e3          	bne	a4,t3,8000092c <bench_bf_run+0xcc>
80000988:	00dfa023          	sw	a3,0(t6)
8000098c:	000e8463          	beqz	t4,80000994 <bench_bf_run+0x134>
80000990:	006c2023          	sw	t1,0(s8)
80000994:	00065783          	lhu	a5,0(a2)
80000998:	16078863          	beqz	a5,80000b08 <bench_bf_run+0x2a8>
8000099c:	00006f17          	auipc	t5,0x6
800009a0:	0a0f0f13          	addi	t5,t5,160 # 80006a3c <input>
800009a4:	00006f97          	auipc	t6,0x6
800009a8:	09cf8f93          	addi	t6,t6,156 # 80006a40 <noutput>
800009ac:	000f2303          	lw	t1,0(t5)
800009b0:	000fae03          	lw	t3,0(t6)
800009b4:	00006897          	auipc	a7,0x6
800009b8:	0848a883          	lw	a7,132(a7) # 80006a38 <data>
800009bc:	00006417          	auipc	s0,0x6
800009c0:	08842403          	lw	s0,136(s0) # 80006a44 <output>
800009c4:	00060713          	mv	a4,a2
800009c8:	00000e93          	li	t4,0
800009cc:	00000293          	li	t0,0
800009d0:	00000693          	li	a3,0
800009d4:	00000513          	li	a0,0
800009d8:	00800813          	li	a6,8
800009dc:	00005597          	auipc	a1,0x5
800009e0:	1f458593          	addi	a1,a1,500 # 80005bd0 <_etext+0x1c0>
800009e4:	000013b7          	lui	t2,0x1
800009e8:	10f86863          	bltu	a6,a5,80000af8 <bench_bf_run+0x298>
800009ec:	00279793          	slli	a5,a5,0x2
800009f0:	00b787b3          	add	a5,a5,a1
800009f4:	0007a783          	lw	a5,0(a5)
800009f8:	00b787b3          	add	a5,a5,a1
800009fc:	00078067          	jr	a5
80000a00:	00271793          	slli	a5,a4,0x2
80000a04:	00f607b3          	add	a5,a2,a5
80000a08:	01479023          	sh	s4,0(a5)
80000a0c:	21330063          	beq	t1,s3,80000c0c <bench_bf_run+0x3ac>
80000a10:	00131793          	slli	a5,t1,0x1
80000a14:	00ff07b3          	add	a5,t5,a5
80000a18:	00e79023          	sh	a4,0(a5)
80000a1c:	0006c783          	lbu	a5,0(a3)
80000a20:	00170713          	addi	a4,a4,1
80000a24:	01071713          	slli	a4,a4,0x10
80000a28:	00130313          	addi	t1,t1,1
80000a2c:	00100e93          	li	t4,1
80000a30:	01075713          	srli	a4,a4,0x10
80000a34:	00068893          	mv	a7,a3
80000a38:	f40796e3          	bnez	a5,80000984 <bench_bf_run+0x124>
80000a3c:	00dfa023          	sw	a3,0(t6)
80000a40:	000e8663          	beqz	t4,80000a4c <bench_bf_run+0x1ec>
80000a44:	006c2023          	sw	t1,0(s8)
80000a48:	00030b13          	mv	s6,t1
80000a4c:	f40b14e3          	bnez	s6,80000994 <bench_bf_run+0x134>
80000a50:	000017b7          	lui	a5,0x1
80000a54:	f4f700e3          	beq	a4,a5,80000994 <bench_bf_run+0x134>
80000a58:	00271713          	slli	a4,a4,0x2
80000a5c:	00e60733          	add	a4,a2,a4
80000a60:	00071023          	sh	zero,0(a4)
80000a64:	00065783          	lhu	a5,0(a2)
80000a68:	f2079ae3          	bnez	a5,8000099c <bench_bf_run+0x13c>
80000a6c:	09c0006f          	j	80000b08 <bench_bf_run+0x2a8>
80000a70:	00271793          	slli	a5,a4,0x2
80000a74:	00f607b3          	add	a5,a2,a5
80000a78:	01579023          	sh	s5,0(a5) # 1000 <_entry_offset+0x1000>
80000a7c:	ef1ff06f          	j	8000096c <bench_bf_run+0x10c>
80000a80:	00271793          	slli	a5,a4,0x2
80000a84:	00f607b3          	add	a5,a2,a5
80000a88:	00579023          	sh	t0,0(a5)
80000a8c:	ee1ff06f          	j	8000096c <bench_bf_run+0x10c>
80000a90:	00271793          	slli	a5,a4,0x2
80000a94:	00f607b3          	add	a5,a2,a5
80000a98:	00979023          	sh	s1,0(a5)
80000a9c:	ed1ff06f          	j	8000096c <bench_bf_run+0x10c>
80000aa0:	00271793          	slli	a5,a4,0x2
80000aa4:	00f607b3          	add	a5,a2,a5
80000aa8:	00879023          	sh	s0,0(a5)
80000aac:	ec1ff06f          	j	8000096c <bench_bf_run+0x10c>
80000ab0:	00271793          	slli	a5,a4,0x2
80000ab4:	00f607b3          	add	a5,a2,a5
80000ab8:	01279023          	sh	s2,0(a5)
80000abc:	eb1ff06f          	j	8000096c <bench_bf_run+0x10c>
80000ac0:	00271793          	slli	a5,a4,0x2
80000ac4:	00f607b3          	add	a5,a2,a5
80000ac8:	00779023          	sh	t2,0(a5)
80000acc:	ea1ff06f          	j	8000096c <bench_bf_run+0x10c>
80000ad0:	00151793          	slli	a5,a0,0x1
80000ad4:	00f887b3          	add	a5,a7,a5
80000ad8:	0007d783          	lhu	a5,0(a5)
80000adc:	08078463          	beqz	a5,80000b64 <bench_bf_run+0x304>
80000ae0:	00275683          	lhu	a3,2(a4)
80000ae4:	00168693          	addi	a3,a3,1
80000ae8:	00269713          	slli	a4,a3,0x2
80000aec:	00e60733          	add	a4,a2,a4
80000af0:	00075783          	lhu	a5,0(a4)
80000af4:	ee079ae3          	bnez	a5,800009e8 <bench_bf_run+0x188>
80000af8:	000e8463          	beqz	t4,80000b00 <bench_bf_run+0x2a0>
80000afc:	006f2023          	sw	t1,0(t5)
80000b00:	00028463          	beqz	t0,80000b08 <bench_bf_run+0x2a8>
80000b04:	01cfa023          	sw	t3,0(t6)
80000b08:	02c12403          	lw	s0,44(sp)
80000b0c:	02812483          	lw	s1,40(sp)
80000b10:	02412903          	lw	s2,36(sp)
80000b14:	02012983          	lw	s3,32(sp)
80000b18:	01c12a03          	lw	s4,28(sp)
80000b1c:	01812a83          	lw	s5,24(sp)
80000b20:	01412b03          	lw	s6,20(sp)
80000b24:	01012b83          	lw	s7,16(sp)
80000b28:	00c12c03          	lw	s8,12(sp)
80000b2c:	03010113          	addi	sp,sp,48
80000b30:	00008067          	ret
80000b34:	00151793          	slli	a5,a0,0x1
80000b38:	00f887b3          	add	a5,a7,a5
80000b3c:	0007d783          	lhu	a5,0(a5)
80000b40:	02079263          	bnez	a5,80000b64 <bench_bf_run+0x304>
80000b44:	00275683          	lhu	a3,2(a4)
80000b48:	f9dff06f          	j	80000ae4 <bench_bf_run+0x284>
80000b4c:	00034703          	lbu	a4,0(t1)
80000b50:	00151793          	slli	a5,a0,0x1
80000b54:	00f887b3          	add	a5,a7,a5
80000b58:	00e79023          	sh	a4,0(a5)
80000b5c:	00130313          	addi	t1,t1,1
80000b60:	00100e93          	li	t4,1
80000b64:	00168693          	addi	a3,a3,1
80000b68:	00269713          	slli	a4,a3,0x2
80000b6c:	00e60733          	add	a4,a2,a4
80000b70:	00075783          	lhu	a5,0(a4)
80000b74:	e6079ae3          	bnez	a5,800009e8 <bench_bf_run+0x188>
80000b78:	f81ff06f          	j	80000af8 <bench_bf_run+0x298>
80000b7c:	00151793          	slli	a5,a0,0x1
80000b80:	00f887b3          	add	a5,a7,a5
80000b84:	0007d703          	lhu	a4,0(a5)
80000b88:	fff70713          	addi	a4,a4,-1
80000b8c:	00e79023          	sh	a4,0(a5)
80000b90:	fd5ff06f          	j	80000b64 <bench_bf_run+0x304>
80000b94:	00151793          	slli	a5,a0,0x1
80000b98:	00f887b3          	add	a5,a7,a5
80000b9c:	0007d703          	lhu	a4,0(a5)
80000ba0:	01c407b3          	add	a5,s0,t3
80000ba4:	00100293          	li	t0,1
80000ba8:	00e78023          	sb	a4,0(a5)
80000bac:	001e0e13          	addi	t3,t3,1 # 1001 <_entry_offset+0x1001>
80000bb0:	fb5ff06f          	j	80000b64 <bench_bf_run+0x304>
80000bb4:	00151793          	slli	a5,a0,0x1
80000bb8:	00f887b3          	add	a5,a7,a5
80000bbc:	0007d703          	lhu	a4,0(a5)
80000bc0:	00170713          	addi	a4,a4,1
80000bc4:	00e79023          	sh	a4,0(a5)
80000bc8:	f9dff06f          	j	80000b64 <bench_bf_run+0x304>
80000bcc:	fff50513          	addi	a0,a0,-1
80000bd0:	00168693          	addi	a3,a3,1
80000bd4:	00269713          	slli	a4,a3,0x2
80000bd8:	00e60733          	add	a4,a2,a4
80000bdc:	00075783          	lhu	a5,0(a4)
80000be0:	f0078ce3          	beqz	a5,80000af8 <bench_bf_run+0x298>
80000be4:	e07562e3          	bltu	a0,t2,800009e8 <bench_bf_run+0x188>
80000be8:	f11ff06f          	j	80000af8 <bench_bf_run+0x298>
80000bec:	00150513          	addi	a0,a0,1
80000bf0:	fe1ff06f          	j	80000bd0 <bench_bf_run+0x370>
80000bf4:	00080463          	beqz	a6,80000bfc <bench_bf_run+0x39c>
80000bf8:	011fa023          	sw	a7,0(t6)
80000bfc:	d80e8ce3          	beqz	t4,80000994 <bench_bf_run+0x134>
80000c00:	00006797          	auipc	a5,0x6
80000c04:	e207a623          	sw	zero,-468(a5) # 80006a2c <SP>
80000c08:	d8dff06f          	j	80000994 <bench_bf_run+0x134>
80000c0c:	00080463          	beqz	a6,80000c14 <bench_bf_run+0x3b4>
80000c10:	011fa023          	sw	a7,0(t6)
80000c14:	d80e80e3          	beqz	t4,80000994 <bench_bf_run+0x134>
80000c18:	20000793          	li	a5,512
80000c1c:	00fc2023          	sw	a5,0(s8)
80000c20:	d75ff06f          	j	80000994 <bench_bf_run+0x134>
80000c24:	00060713          	mv	a4,a2
80000c28:	e20b0ce3          	beqz	s6,80000a60 <bench_bf_run+0x200>
80000c2c:	d69ff06f          	j	80000994 <bench_bf_run+0x134>

80000c30 <bench_bf_validate>:
80000c30:	ff010113          	addi	sp,sp,-16
80000c34:	00812423          	sw	s0,8(sp)
80000c38:	00006417          	auipc	s0,0x6
80000c3c:	e0840413          	addi	s0,s0,-504 # 80006a40 <noutput>
80000c40:	00042583          	lw	a1,0(s0)
80000c44:	00006517          	auipc	a0,0x6
80000c48:	e0052503          	lw	a0,-512(a0) # 80006a44 <output>
80000c4c:	00112623          	sw	ra,12(sp)
80000c50:	00b505b3          	add	a1,a0,a1
80000c54:	70c000ef          	jal	ra,80001360 <checksum>
80000c58:	00042683          	lw	a3,0(s0)
80000c5c:	00006797          	auipc	a5,0x6
80000c60:	dc87a783          	lw	a5,-568(a5) # 80006a24 <ARR_SIZE>
80000c64:	00f68c63          	beq	a3,a5,80000c7c <bench_bf_validate+0x4c>
80000c68:	00c12083          	lw	ra,12(sp)
80000c6c:	00812403          	lw	s0,8(sp)
80000c70:	00000513          	li	a0,0
80000c74:	01010113          	addi	sp,sp,16
80000c78:	00008067          	ret
80000c7c:	00006797          	auipc	a5,0x6
80000c80:	dd47a783          	lw	a5,-556(a5) # 80006a50 <setting>
80000c84:	00c7a783          	lw	a5,12(a5)
80000c88:	00c12083          	lw	ra,12(sp)
80000c8c:	00812403          	lw	s0,8(sp)
80000c90:	40a78533          	sub	a0,a5,a0
80000c94:	00153513          	seqz	a0,a0
80000c98:	01010113          	addi	sp,sp,16
80000c9c:	00008067          	ret

80000ca0 <format_time>:
80000ca0:	fe010113          	addi	sp,sp,-32
80000ca4:	3e800613          	li	a2,1000
80000ca8:	00000693          	li	a3,0
80000cac:	00112e23          	sw	ra,28(sp)
80000cb0:	00812c23          	sw	s0,24(sp)
80000cb4:	00912a23          	sw	s1,20(sp)
80000cb8:	01212823          	sw	s2,16(sp)
80000cbc:	01312623          	sw	s3,12(sp)
80000cc0:	00058913          	mv	s2,a1
80000cc4:	00050993          	mv	s3,a0
80000cc8:	714040ef          	jal	ra,800053dc <__umoddi3>
80000ccc:	00050493          	mv	s1,a0
80000cd0:	00058413          	mv	s0,a1
80000cd4:	3e800613          	li	a2,1000
80000cd8:	00000693          	li	a3,0
80000cdc:	00090593          	mv	a1,s2
80000ce0:	00098513          	mv	a0,s3
80000ce4:	6f0040ef          	jal	ra,800053d4 <__udivdi3>
80000ce8:	00006917          	auipc	s2,0x6
80000cec:	d1090913          	addi	s2,s2,-752 # 800069f8 <buf.0>
80000cf0:	00050613          	mv	a2,a0
80000cf4:	00058693          	mv	a3,a1
80000cf8:	00090513          	mv	a0,s2
80000cfc:	00005597          	auipc	a1,0x5
80000d00:	ef858593          	addi	a1,a1,-264 # 80005bf4 <_etext+0x1e4>
80000d04:	4a1040ef          	jal	ra,800059a4 <sprintf>
80000d08:	fff50513          	addi	a0,a0,-1
80000d0c:	009467b3          	or	a5,s0,s1
80000d10:	00a90533          	add	a0,s2,a0
80000d14:	0a078863          	beqz	a5,80000dc4 <format_time+0x124>
80000d18:	ccccd337          	lui	t1,0xccccd
80000d1c:	100008b7          	lui	a7,0x10000
80000d20:	ccd30813          	addi	a6,t1,-819 # cccccccd <_end+0x4ccbdccd>
80000d24:	00048693          	mv	a3,s1
80000d28:	00040613          	mv	a2,s0
80000d2c:	fff88893          	addi	a7,a7,-1 # fffffff <_entry_offset+0xfffffff>
80000d30:	00500e13          	li	t3,5
80000d34:	ccc30313          	addi	t1,t1,-820
80000d38:	00900e93          	li	t4,9
80000d3c:	00461793          	slli	a5,a2,0x4
80000d40:	01c6d713          	srli	a4,a3,0x1c
80000d44:	00e7e733          	or	a4,a5,a4
80000d48:	01177733          	and	a4,a4,a7
80000d4c:	0116f7b3          	and	a5,a3,a7
80000d50:	01865593          	srli	a1,a2,0x18
80000d54:	00e787b3          	add	a5,a5,a4
80000d58:	00b787b3          	add	a5,a5,a1
80000d5c:	03c7f7b3          	remu	a5,a5,t3
80000d60:	00060f13          	mv	t5,a2
80000d64:	fff50513          	addi	a0,a0,-1
80000d68:	00068f93          	mv	t6,a3
80000d6c:	40f687b3          	sub	a5,a3,a5
80000d70:	00f6b5b3          	sltu	a1,a3,a5
80000d74:	40b605b3          	sub	a1,a2,a1
80000d78:	030585b3          	mul	a1,a1,a6
80000d7c:	02678633          	mul	a2,a5,t1
80000d80:	0307b733          	mulhu	a4,a5,a6
80000d84:	00c585b3          	add	a1,a1,a2
80000d88:	030787b3          	mul	a5,a5,a6
80000d8c:	00e585b3          	add	a1,a1,a4
80000d90:	01f59713          	slli	a4,a1,0x1f
80000d94:	0015d613          	srli	a2,a1,0x1
80000d98:	0017d793          	srli	a5,a5,0x1
80000d9c:	00f767b3          	or	a5,a4,a5
80000da0:	00279713          	slli	a4,a5,0x2
80000da4:	00f70733          	add	a4,a4,a5
80000da8:	00171713          	slli	a4,a4,0x1
80000dac:	40e68733          	sub	a4,a3,a4
80000db0:	03070713          	addi	a4,a4,48
80000db4:	00e500a3          	sb	a4,1(a0)
80000db8:	00078693          	mv	a3,a5
80000dbc:	f80f10e3          	bnez	t5,80000d3c <format_time+0x9c>
80000dc0:	f7feeee3          	bltu	t4,t6,80000d3c <format_time+0x9c>
80000dc4:	01c12083          	lw	ra,28(sp)
80000dc8:	01812403          	lw	s0,24(sp)
80000dcc:	01412483          	lw	s1,20(sp)
80000dd0:	01012903          	lw	s2,16(sp)
80000dd4:	00c12983          	lw	s3,12(sp)
80000dd8:	00006517          	auipc	a0,0x6
80000ddc:	c2050513          	addi	a0,a0,-992 # 800069f8 <buf.0>
80000de0:	02010113          	addi	sp,sp,32
80000de4:	00008067          	ret

80000de8 <main>:
80000de8:	f8010113          	addi	sp,sp,-128
80000dec:	06112e23          	sw	ra,124(sp)
80000df0:	06812c23          	sw	s0,120(sp)
80000df4:	06912a23          	sw	s1,116(sp)
80000df8:	07212823          	sw	s2,112(sp)
80000dfc:	07312623          	sw	s3,108(sp)
80000e00:	07412423          	sw	s4,104(sp)
80000e04:	07512223          	sw	s5,100(sp)
80000e08:	07612023          	sw	s6,96(sp)
80000e0c:	05712e23          	sw	s7,92(sp)
80000e10:	05812c23          	sw	s8,88(sp)
80000e14:	05912a23          	sw	s9,84(sp)
80000e18:	05a12823          	sw	s10,80(sp)
80000e1c:	05b12623          	sw	s11,76(sp)
80000e20:	38050463          	beqz	a0,800011a8 <main+0x3c0>
80000e24:	00005597          	auipc	a1,0x5
80000e28:	e9c58593          	addi	a1,a1,-356 # 80005cc0 <_etext+0x2b0>
80000e2c:	00050413          	mv	s0,a0
80000e30:	248040ef          	jal	ra,80005078 <strcmp>
80000e34:	36050a63          	beqz	a0,800011a8 <main+0x3c0>
80000e38:	00005597          	auipc	a1,0x5
80000e3c:	e0058593          	addi	a1,a1,-512 # 80005c38 <_etext+0x228>
80000e40:	00040513          	mv	a0,s0
80000e44:	234040ef          	jal	ra,80005078 <strcmp>
80000e48:	00a12a23          	sw	a0,20(sp)
80000e4c:	02050063          	beqz	a0,80000e6c <main+0x84>
80000e50:	00005597          	auipc	a1,0x5
80000e54:	df058593          	addi	a1,a1,-528 # 80005c40 <_etext+0x230>
80000e58:	00040513          	mv	a0,s0
80000e5c:	21c040ef          	jal	ra,80005078 <strcmp>
80000e60:	00100793          	li	a5,1
80000e64:	00f12a23          	sw	a5,20(sp)
80000e68:	3a051c63          	bnez	a0,80001220 <main+0x438>
80000e6c:	04c040ef          	jal	ra,80004eb8 <ioe_init>
80000e70:	00040593          	mv	a1,s0
80000e74:	00005517          	auipc	a0,0x5
80000e78:	e1c50513          	addi	a0,a0,-484 # 80005c90 <_etext+0x280>
80000e7c:	6ac040ef          	jal	ra,80005528 <printf>
80000e80:	03810593          	addi	a1,sp,56
80000e84:	00600513          	li	a0,6
80000e88:	08c040ef          	jal	ra,80004f14 <ioe_read>
80000e8c:	01412783          	lw	a5,20(sp)
80000e90:	00018737          	lui	a4,0x18
80000e94:	00005c97          	auipc	s9,0x5
80000e98:	510c8c93          	addi	s9,s9,1296 # 800063a4 <benchmarks>
80000e9c:	00178a13          	addi	s4,a5,1
80000ea0:	03812783          	lw	a5,56(sp)
80000ea4:	004a1a13          	slli	s4,s4,0x4
80000ea8:	ff0a0b93          	addi	s7,s4,-16
80000eac:	02f12223          	sw	a5,36(sp)
80000eb0:	03c12783          	lw	a5,60(sp)
80000eb4:	00006c17          	auipc	s8,0x6
80000eb8:	838c0c13          	addi	s8,s8,-1992 # 800066ec <_ZL8PUZZLE_H>
80000ebc:	00012623          	sw	zero,12(sp)
80000ec0:	02f12423          	sw	a5,40(sp)
80000ec4:	00100793          	li	a5,1
80000ec8:	00f12c23          	sw	a5,24(sp)
80000ecc:	6a070793          	addi	a5,a4,1696 # 186a0 <_entry_offset+0x186a0>
80000ed0:	00012823          	sw	zero,16(sp)
80000ed4:	02012023          	sw	zero,32(sp)
80000ed8:	00006917          	auipc	s2,0x6
80000edc:	b7090913          	addi	s2,s2,-1168 # 80006a48 <current>
80000ee0:	00006b17          	auipc	s6,0x6
80000ee4:	b70b0b13          	addi	s6,s6,-1168 # 80006a50 <setting>
80000ee8:	004a0a13          	addi	s4,s4,4
80000eec:	00006497          	auipc	s1,0x6
80000ef0:	b0448493          	addi	s1,s1,-1276 # 800069f0 <heap>
80000ef4:	00005a97          	auipc	s5,0x5
80000ef8:	dd0a8a93          	addi	s5,s5,-560 # 80005cc4 <_etext+0x2b4>
80000efc:	00005d97          	auipc	s11,0x5
80000f00:	dd4d8d93          	addi	s11,s11,-556 # 80005cd0 <_etext+0x2c0>
80000f04:	00005d17          	auipc	s10,0x5
80000f08:	de4d0d13          	addi	s10,s10,-540 # 80005ce8 <_etext+0x2d8>
80000f0c:	02f12623          	sw	a5,44(sp)
80000f10:	01c0006f          	j	80000f2c <main+0x144>
80000f14:	614040ef          	jal	ra,80005528 <printf>
80000f18:	000d8593          	mv	a1,s11
80000f1c:	000d0513          	mv	a0,s10
80000f20:	608040ef          	jal	ra,80005528 <printf>
80000f24:	054c8c93          	addi	s9,s9,84
80000f28:	179c0863          	beq	s8,s9,80001098 <main+0x2b0>
80000f2c:	0004a603          	lw	a2,0(s1)
80000f30:	0044a703          	lw	a4,4(s1)
80000f34:	017c86b3          	add	a3,s9,s7
80000f38:	0186a683          	lw	a3,24(a3)
80000f3c:	019a05b3          	add	a1,s4,s9
80000f40:	00bb2023          	sw	a1,0(s6)
80000f44:	40c70733          	sub	a4,a4,a2
80000f48:	01992023          	sw	s9,0(s2)
80000f4c:	00cca583          	lw	a1,12(s9)
80000f50:	010ca603          	lw	a2,16(s9)
80000f54:	000a8513          	mv	a0,s5
80000f58:	fad76ee3          	bltu	a4,a3,80000f14 <main+0x12c>
80000f5c:	5cc040ef          	jal	ra,80005528 <printf>
80000f60:	00092683          	lw	a3,0(s2)
80000f64:	0004a703          	lw	a4,0(s1)
80000f68:	00006797          	auipc	a5,0x6
80000f6c:	ae478793          	addi	a5,a5,-1308 # 80006a4c <hbrk>
80000f70:	0006a683          	lw	a3,0(a3)
80000f74:	00770713          	addi	a4,a4,7
80000f78:	ff877713          	andi	a4,a4,-8
80000f7c:	00e7a023          	sw	a4,0(a5)
80000f80:	000680e7          	jalr	a3
80000f84:	03810593          	addi	a1,sp,56
80000f88:	00600513          	li	a0,6
80000f8c:	789030ef          	jal	ra,80004f14 <ioe_read>
80000f90:	00092703          	lw	a4,0(s2)
80000f94:	03812983          	lw	s3,56(sp)
80000f98:	03c12403          	lw	s0,60(sp)
80000f9c:	00472703          	lw	a4,4(a4)
80000fa0:	000700e7          	jalr	a4
80000fa4:	03810593          	addi	a1,sp,56
80000fa8:	00600513          	li	a0,6
80000fac:	769030ef          	jal	ra,80004f14 <ioe_read>
80000fb0:	00092683          	lw	a3,0(s2)
80000fb4:	03812703          	lw	a4,56(sp)
80000fb8:	03c12783          	lw	a5,60(sp)
80000fbc:	0086a683          	lw	a3,8(a3)
80000fc0:	413709b3          	sub	s3,a4,s3
80000fc4:	01373733          	sltu	a4,a4,s3
80000fc8:	40878433          	sub	s0,a5,s0
80000fcc:	40e40433          	sub	s0,s0,a4
80000fd0:	000680e7          	jalr	a3
80000fd4:	1e050663          	beqz	a0,800011c0 <main+0x3d8>
80000fd8:	00a12e23          	sw	a0,28(sp)
80000fdc:	00005517          	auipc	a0,0x5
80000fe0:	d1850513          	addi	a0,a0,-744 # 80005cf4 <_etext+0x2e4>
80000fe4:	544040ef          	jal	ra,80005528 <printf>
80000fe8:	00c12783          	lw	a5,12(sp)
80000fec:	01c12703          	lw	a4,28(sp)
80000ff0:	013786b3          	add	a3,a5,s3
80000ff4:	00f6b5b3          	sltu	a1,a3,a5
80000ff8:	01012783          	lw	a5,16(sp)
80000ffc:	00177713          	andi	a4,a4,1
80001000:	00d12623          	sw	a3,12(sp)
80001004:	00878633          	add	a2,a5,s0
80001008:	00c587b3          	add	a5,a1,a2
8000100c:	00f12823          	sw	a5,16(sp)
80001010:	1c070e63          	beqz	a4,800011ec <main+0x404>
80001014:	00005517          	auipc	a0,0x5
80001018:	ce450513          	addi	a0,a0,-796 # 80005cf8 <_etext+0x2e8>
8000101c:	50c040ef          	jal	ra,80005528 <printf>
80001020:	0089e733          	or	a4,s3,s0
80001024:	00012e23          	sw	zero,28(sp)
80001028:	02070a63          	beqz	a4,8000105c <main+0x274>
8000102c:	000b2703          	lw	a4,0(s6)
80001030:	02c12783          	lw	a5,44(sp)
80001034:	00098613          	mv	a2,s3
80001038:	00872503          	lw	a0,8(a4)
8000103c:	00040693          	mv	a3,s0
80001040:	02f535b3          	mulhu	a1,a0,a5
80001044:	02f50533          	mul	a0,a0,a5
80001048:	38c040ef          	jal	ra,800053d4 <__udivdi3>
8000104c:	02012703          	lw	a4,32(sp)
80001050:	00a12e23          	sw	a0,28(sp)
80001054:	00a707b3          	add	a5,a4,a0
80001058:	02f12023          	sw	a5,32(sp)
8000105c:	00005517          	auipc	a0,0x5
80001060:	2b450513          	addi	a0,a0,692 # 80006310 <mainargs+0xc0>
80001064:	4c4040ef          	jal	ra,80005528 <printf>
80001068:	01412783          	lw	a5,20(sp)
8000106c:	ea078ce3          	beqz	a5,80000f24 <main+0x13c>
80001070:	00040593          	mv	a1,s0
80001074:	00098513          	mv	a0,s3
80001078:	c29ff0ef          	jal	ra,80000ca0 <format_time>
8000107c:	01c12603          	lw	a2,28(sp)
80001080:	00050593          	mv	a1,a0
80001084:	054c8c93          	addi	s9,s9,84
80001088:	00005517          	auipc	a0,0x5
8000108c:	c8850513          	addi	a0,a0,-888 # 80005d10 <_etext+0x300>
80001090:	498040ef          	jal	ra,80005528 <printf>
80001094:	e99c1ce3          	bne	s8,s9,80000f2c <main+0x144>
80001098:	03810593          	addi	a1,sp,56
8000109c:	00600513          	li	a0,6
800010a0:	675030ef          	jal	ra,80004f14 <ioe_read>
800010a4:	03812783          	lw	a5,56(sp)
800010a8:	02412703          	lw	a4,36(sp)
800010ac:	03c12403          	lw	s0,60(sp)
800010b0:	00005517          	auipc	a0,0x5
800010b4:	c7850513          	addi	a0,a0,-904 # 80005d28 <_etext+0x318>
800010b8:	40e784b3          	sub	s1,a5,a4
800010bc:	02812703          	lw	a4,40(sp)
800010c0:	0097b7b3          	sltu	a5,a5,s1
800010c4:	40e40433          	sub	s0,s0,a4
800010c8:	40f40433          	sub	s0,s0,a5
800010cc:	45c040ef          	jal	ra,80005528 <printf>
800010d0:	01812783          	lw	a5,24(sp)
800010d4:	00005597          	auipc	a1,0x5
800010d8:	b2c58593          	addi	a1,a1,-1236 # 80005c00 <_etext+0x1f0>
800010dc:	12078463          	beqz	a5,80001204 <main+0x41c>
800010e0:	00005517          	auipc	a0,0x5
800010e4:	c7c50513          	addi	a0,a0,-900 # 80005d5c <_etext+0x34c>
800010e8:	440040ef          	jal	ra,80005528 <printf>
800010ec:	01412703          	lw	a4,20(sp)
800010f0:	00100793          	li	a5,1
800010f4:	10e7de63          	bge	a5,a4,80001210 <main+0x428>
800010f8:	02012783          	lw	a5,32(sp)
800010fc:	00a00593          	li	a1,10
80001100:	00005517          	auipc	a0,0x5
80001104:	c6c50513          	addi	a0,a0,-916 # 80005d6c <_etext+0x35c>
80001108:	02b7d5b3          	divu	a1,a5,a1
8000110c:	41c040ef          	jal	ra,80005528 <printf>
80001110:	000185b7          	lui	a1,0x18
80001114:	00005617          	auipc	a2,0x5
80001118:	c6c60613          	addi	a2,a2,-916 # 80005d80 <_etext+0x370>
8000111c:	6a058593          	addi	a1,a1,1696 # 186a0 <_entry_offset+0x186a0>
80001120:	00005517          	auipc	a0,0x5
80001124:	c7450513          	addi	a0,a0,-908 # 80005d94 <_etext+0x384>
80001128:	400040ef          	jal	ra,80005528 <printf>
8000112c:	01012583          	lw	a1,16(sp)
80001130:	00c12503          	lw	a0,12(sp)
80001134:	b6dff0ef          	jal	ra,80000ca0 <format_time>
80001138:	00050593          	mv	a1,a0
8000113c:	00005517          	auipc	a0,0x5
80001140:	c8050513          	addi	a0,a0,-896 # 80005dbc <_etext+0x3ac>
80001144:	3e4040ef          	jal	ra,80005528 <printf>
80001148:	00040593          	mv	a1,s0
8000114c:	00048513          	mv	a0,s1
80001150:	b51ff0ef          	jal	ra,80000ca0 <format_time>
80001154:	00050593          	mv	a1,a0
80001158:	00005517          	auipc	a0,0x5
8000115c:	c7850513          	addi	a0,a0,-904 # 80005dd0 <_etext+0x3c0>
80001160:	3c8040ef          	jal	ra,80005528 <printf>
80001164:	01812783          	lw	a5,24(sp)
80001168:	07c12083          	lw	ra,124(sp)
8000116c:	07812403          	lw	s0,120(sp)
80001170:	07412483          	lw	s1,116(sp)
80001174:	07012903          	lw	s2,112(sp)
80001178:	06c12983          	lw	s3,108(sp)
8000117c:	06812a03          	lw	s4,104(sp)
80001180:	06412a83          	lw	s5,100(sp)
80001184:	06012b03          	lw	s6,96(sp)
80001188:	05c12b83          	lw	s7,92(sp)
8000118c:	05812c03          	lw	s8,88(sp)
80001190:	05412c83          	lw	s9,84(sp)
80001194:	05012d03          	lw	s10,80(sp)
80001198:	04c12d83          	lw	s11,76(sp)
8000119c:	0017c513          	xori	a0,a5,1
800011a0:	08010113          	addi	sp,sp,128
800011a4:	00008067          	ret
800011a8:	00005517          	auipc	a0,0x5
800011ac:	a6850513          	addi	a0,a0,-1432 # 80005c10 <_etext+0x200>
800011b0:	378040ef          	jal	ra,80005528 <printf>
800011b4:	00005417          	auipc	s0,0x5
800011b8:	a4840413          	addi	s0,s0,-1464 # 80005bfc <_etext+0x1ec>
800011bc:	c7dff06f          	j	80000e38 <main+0x50>
800011c0:	00005517          	auipc	a0,0x5
800011c4:	c2450513          	addi	a0,a0,-988 # 80005de4 <_etext+0x3d4>
800011c8:	360040ef          	jal	ra,80005528 <printf>
800011cc:	00c12783          	lw	a5,12(sp)
800011d0:	01378733          	add	a4,a5,s3
800011d4:	00f73633          	sltu	a2,a4,a5
800011d8:	01012783          	lw	a5,16(sp)
800011dc:	00e12623          	sw	a4,12(sp)
800011e0:	008786b3          	add	a3,a5,s0
800011e4:	00d607b3          	add	a5,a2,a3
800011e8:	00f12823          	sw	a5,16(sp)
800011ec:	00005517          	auipc	a0,0x5
800011f0:	b1850513          	addi	a0,a0,-1256 # 80005d04 <_etext+0x2f4>
800011f4:	334040ef          	jal	ra,80005528 <printf>
800011f8:	00012c23          	sw	zero,24(sp)
800011fc:	00012e23          	sw	zero,28(sp)
80001200:	e5dff06f          	j	8000105c <main+0x274>
80001204:	00005597          	auipc	a1,0x5
80001208:	a0458593          	addi	a1,a1,-1532 # 80005c08 <_etext+0x1f8>
8000120c:	ed5ff06f          	j	800010e0 <main+0x2f8>
80001210:	00005517          	auipc	a0,0x5
80001214:	10050513          	addi	a0,a0,256 # 80006310 <mainargs+0xc0>
80001218:	310040ef          	jal	ra,80005528 <printf>
8000121c:	f11ff06f          	j	8000112c <main+0x344>
80001220:	00005597          	auipc	a1,0x5
80001224:	9dc58593          	addi	a1,a1,-1572 # 80005bfc <_etext+0x1ec>
80001228:	00040513          	mv	a0,s0
8000122c:	64d030ef          	jal	ra,80005078 <strcmp>
80001230:	00200793          	li	a5,2
80001234:	00f12a23          	sw	a5,20(sp)
80001238:	c2050ae3          	beqz	a0,80000e6c <main+0x84>
8000123c:	00005597          	auipc	a1,0x5
80001240:	a0c58593          	addi	a1,a1,-1524 # 80005c48 <_etext+0x238>
80001244:	00040513          	mv	a0,s0
80001248:	631030ef          	jal	ra,80005078 <strcmp>
8000124c:	00300793          	li	a5,3
80001250:	00f12a23          	sw	a5,20(sp)
80001254:	c0050ce3          	beqz	a0,80000e6c <main+0x84>
80001258:	00040593          	mv	a1,s0
8000125c:	00005517          	auipc	a0,0x5
80001260:	9f450513          	addi	a0,a0,-1548 # 80005c50 <_etext+0x240>
80001264:	2c4040ef          	jal	ra,80005528 <printf>
80001268:	00100513          	li	a0,1
8000126c:	38d030ef          	jal	ra,80004df8 <halt>

80001270 <bench_alloc>:
80001270:	00005597          	auipc	a1,0x5
80001274:	7dc58593          	addi	a1,a1,2012 # 80006a4c <hbrk>
80001278:	0005a683          	lw	a3,0(a1)
8000127c:	00750713          	addi	a4,a0,7
80001280:	00005797          	auipc	a5,0x5
80001284:	77078793          	addi	a5,a5,1904 # 800069f0 <heap>
80001288:	ff010113          	addi	sp,sp,-16
8000128c:	ff877713          	andi	a4,a4,-8
80001290:	0007a603          	lw	a2,0(a5)
80001294:	00112623          	sw	ra,12(sp)
80001298:	00e68733          	add	a4,a3,a4
8000129c:	00e5a023          	sw	a4,0(a1)
800012a0:	04c76863          	bltu	a4,a2,800012f0 <bench_alloc+0x80>
800012a4:	0047a783          	lw	a5,4(a5)
800012a8:	04f77463          	bgeu	a4,a5,800012f0 <bench_alloc+0x80>
800012ac:	00068793          	mv	a5,a3
800012b0:	00d70e63          	beq	a4,a3,800012cc <bench_alloc+0x5c>
800012b4:	00000513          	li	a0,0
800012b8:	00000593          	li	a1,0
800012bc:	00a7a023          	sw	a0,0(a5)
800012c0:	00b7a223          	sw	a1,4(a5)
800012c4:	00878793          	addi	a5,a5,8
800012c8:	fef716e3          	bne	a4,a5,800012b4 <bench_alloc+0x44>
800012cc:	00005797          	auipc	a5,0x5
800012d0:	7847a783          	lw	a5,1924(a5) # 80006a50 <setting>
800012d4:	0047a783          	lw	a5,4(a5)
800012d8:	40c70733          	sub	a4,a4,a2
800012dc:	02e7ea63          	bltu	a5,a4,80001310 <bench_alloc+0xa0>
800012e0:	00c12083          	lw	ra,12(sp)
800012e4:	00068513          	mv	a0,a3
800012e8:	01010113          	addi	sp,sp,16
800012ec:	00008067          	ret
800012f0:	0a100613          	li	a2,161
800012f4:	00005597          	auipc	a1,0x5
800012f8:	af458593          	addi	a1,a1,-1292 # 80005de8 <_etext+0x3d8>
800012fc:	00005517          	auipc	a0,0x5
80001300:	b3c50513          	addi	a0,a0,-1220 # 80005e38 <_etext+0x428>
80001304:	224040ef          	jal	ra,80005528 <printf>
80001308:	00100513          	li	a0,1
8000130c:	2ed030ef          	jal	ra,80004df8 <halt>
80001310:	0a500613          	li	a2,165
80001314:	fe1ff06f          	j	800012f4 <bench_alloc+0x84>

80001318 <bench_srand>:
80001318:	01151513          	slli	a0,a0,0x11
8000131c:	01155513          	srli	a0,a0,0x11
80001320:	00005797          	auipc	a5,0x5
80001324:	6ca7a623          	sw	a0,1740(a5) # 800069ec <seed>
80001328:	00008067          	ret

8000132c <bench_rand>:
8000132c:	00005697          	auipc	a3,0x5
80001330:	6c068693          	addi	a3,a3,1728 # 800069ec <seed>
80001334:	0006a783          	lw	a5,0(a3)
80001338:	00034737          	lui	a4,0x34
8000133c:	3fd70713          	addi	a4,a4,1021 # 343fd <_entry_offset+0x343fd>
80001340:	02e787b3          	mul	a5,a5,a4
80001344:	0026a737          	lui	a4,0x26a
80001348:	ec370713          	addi	a4,a4,-317 # 269ec3 <_entry_offset+0x269ec3>
8000134c:	00e787b3          	add	a5,a5,a4
80001350:	00179513          	slli	a0,a5,0x1
80001354:	00f6a023          	sw	a5,0(a3)
80001358:	01155513          	srli	a0,a0,0x11
8000135c:	00008067          	ret

80001360 <checksum>:
80001360:	00450613          	addi	a2,a0,4
80001364:	06b67463          	bgeu	a2,a1,800013cc <checksum+0x6c>
80001368:	811ca6b7          	lui	a3,0x811ca
8000136c:	01000837          	lui	a6,0x1000
80001370:	dc568693          	addi	a3,a3,-571 # 811c9dc5 <_end+0x11badc5>
80001374:	19380813          	addi	a6,a6,403 # 1000193 <_entry_offset+0x1000193>
80001378:	00050793          	mv	a5,a0
8000137c:	0007c703          	lbu	a4,0(a5)
80001380:	00178793          	addi	a5,a5,1
80001384:	00d74733          	xor	a4,a4,a3
80001388:	030706b3          	mul	a3,a4,a6
8000138c:	fef618e3          	bne	a2,a5,8000137c <checksum+0x1c>
80001390:	00460613          	addi	a2,a2,4
80001394:	00450513          	addi	a0,a0,4
80001398:	feb660e3          	bltu	a2,a1,80001378 <checksum+0x18>
8000139c:	013267b7          	lui	a5,0x1326
800013a0:	19378793          	addi	a5,a5,403 # 1326193 <_entry_offset+0x1326193>
800013a4:	02f70733          	mul	a4,a4,a5
800013a8:	40775793          	srai	a5,a4,0x7
800013ac:	00e7c7b3          	xor	a5,a5,a4
800013b0:	00379713          	slli	a4,a5,0x3
800013b4:	00f70733          	add	a4,a4,a5
800013b8:	41175793          	srai	a5,a4,0x11
800013bc:	00e7c7b3          	xor	a5,a5,a4
800013c0:	00579513          	slli	a0,a5,0x5
800013c4:	00f50533          	add	a0,a0,a5
800013c8:	00008067          	ret
800013cc:	a6f00537          	lui	a0,0xa6f00
800013d0:	79e50513          	addi	a0,a0,1950 # a6f0079e <_end+0x26ef179e>
800013d4:	00008067          	ret

800013d8 <_ZNK14Updatable_heapI8N_puzzleILi4EEE7pointerERKS1_.isra.0>:
800013d8:	00064803          	lbu	a6,0(a2)
800013dc:	00080c63          	beqz	a6,800013f4 <_ZNK14Updatable_heapI8N_puzzleILi4EEE7pointerERKS1_.isra.0+0x1c>
800013e0:	01462783          	lw	a5,20(a2)
800013e4:	fff50513          	addi	a0,a0,-1
800013e8:	00f577b3          	and	a5,a0,a5
800013ec:	00279793          	slli	a5,a5,0x2
800013f0:	00f585b3          	add	a1,a1,a5
800013f4:	0005a503          	lw	a0,0(a1)
800013f8:	04050663          	beqz	a0,80001444 <_ZNK14Updatable_heapI8N_puzzleILi4EEE7pointerERKS1_.isra.0+0x6c>
800013fc:	01800893          	li	a7,24
80001400:	00054783          	lbu	a5,0(a0)
80001404:	04078263          	beqz	a5,80001448 <_ZNK14Updatable_heapI8N_puzzleILi4EEE7pointerERKS1_.isra.0+0x70>
80001408:	04080063          	beqz	a6,80001448 <_ZNK14Updatable_heapI8N_puzzleILi4EEE7pointerERKS1_.isra.0+0x70>
8000140c:	01452703          	lw	a4,20(a0)
80001410:	01462783          	lw	a5,20(a2)
80001414:	02f71a63          	bne	a4,a5,80001448 <_ZNK14Updatable_heapI8N_puzzleILi4EEE7pointerERKS1_.isra.0+0x70>
80001418:	00800713          	li	a4,8
8000141c:	ffc70793          	addi	a5,a4,-4
80001420:	00f505b3          	add	a1,a0,a5
80001424:	00f606b3          	add	a3,a2,a5
80001428:	00058583          	lb	a1,0(a1)
8000142c:	00068683          	lb	a3,0(a3)
80001430:	00178793          	addi	a5,a5,1
80001434:	00d59a63          	bne	a1,a3,80001448 <_ZNK14Updatable_heapI8N_puzzleILi4EEE7pointerERKS1_.isra.0+0x70>
80001438:	fef714e3          	bne	a4,a5,80001420 <_ZNK14Updatable_heapI8N_puzzleILi4EEE7pointerERKS1_.isra.0+0x48>
8000143c:	00470713          	addi	a4,a4,4
80001440:	fd171ee3          	bne	a4,a7,8000141c <_ZNK14Updatable_heapI8N_puzzleILi4EEE7pointerERKS1_.isra.0+0x44>
80001444:	00008067          	ret
80001448:	01852503          	lw	a0,24(a0)
8000144c:	fa051ae3          	bnez	a0,80001400 <_ZNK14Updatable_heapI8N_puzzleILi4EEE7pointerERKS1_.isra.0+0x28>
80001450:	00008067          	ret

80001454 <bench_15pz_prepare>:
80001454:	00008067          	ret

80001458 <bench_15pz_validate>:
80001458:	00005797          	auipc	a5,0x5
8000145c:	5f87a783          	lw	a5,1528(a5) # 80006a50 <setting>
80001460:	00c7a503          	lw	a0,12(a5)
80001464:	00005797          	auipc	a5,0x5
80001468:	5f07a783          	lw	a5,1520(a5) # 80006a54 <_ZL3ans>
8000146c:	40f50533          	sub	a0,a0,a5
80001470:	00153513          	seqz	a0,a0
80001474:	00008067          	ret

80001478 <_ZN8N_puzzleILi4EEC1Ev>:
80001478:	f9010113          	addi	sp,sp,-112
8000147c:	05412c23          	sw	s4,88(sp)
80001480:	05812423          	sw	s8,72(sp)
80001484:	06112623          	sw	ra,108(sp)
80001488:	06812423          	sw	s0,104(sp)
8000148c:	06912223          	sw	s1,100(sp)
80001490:	07212023          	sw	s2,96(sp)
80001494:	05312e23          	sw	s3,92(sp)
80001498:	05512a23          	sw	s5,84(sp)
8000149c:	05612823          	sw	s6,80(sp)
800014a0:	05712623          	sw	s7,76(sp)
800014a4:	05912223          	sw	s9,68(sp)
800014a8:	00100793          	li	a5,1
800014ac:	00010a13          	mv	s4,sp
800014b0:	00f50023          	sb	a5,0(a0)
800014b4:	00050c13          	mv	s8,a0
800014b8:	000501a3          	sb	zero,3(a0)
800014bc:	000a0713          	mv	a4,s4
800014c0:	00000793          	li	a5,0
800014c4:	01000693          	li	a3,16
800014c8:	00f72023          	sw	a5,0(a4)
800014cc:	00178793          	addi	a5,a5,1
800014d0:	00470713          	addi	a4,a4,4
800014d4:	fed79ae3          	bne	a5,a3,800014c8 <_ZN8N_puzzleILi4EEC1Ev+0x50>
800014d8:	000c0413          	mv	s0,s8
800014dc:	00000993          	li	s3,0
800014e0:	00000c93          	li	s9,0
800014e4:	00400913          	li	s2,4
800014e8:	ff000a93          	li	s5,-16
800014ec:	000a0b93          	mv	s7,s4
800014f0:	00000b13          	li	s6,0
800014f4:	01098493          	addi	s1,s3,16
800014f8:	e35ff0ef          	jal	ra,8000132c <bench_rand>
800014fc:	416487b3          	sub	a5,s1,s6
80001500:	02f576b3          	remu	a3,a0,a5
80001504:	016405b3          	add	a1,s0,s6
80001508:	00269693          	slli	a3,a3,0x2
8000150c:	04068793          	addi	a5,a3,64
80001510:	002787b3          	add	a5,a5,sp
80001514:	fc07a603          	lw	a2,-64(a5)
80001518:	fff60513          	addi	a0,a2,-1
8000151c:	41f55793          	srai	a5,a0,0x1f
80001520:	01e7d813          	srli	a6,a5,0x1e
80001524:	01050733          	add	a4,a0,a6
80001528:	0037f793          	andi	a5,a5,3
8000152c:	00a787b3          	add	a5,a5,a0
80001530:	00377713          	andi	a4,a4,3
80001534:	41070733          	sub	a4,a4,a6
80001538:	4027d793          	srai	a5,a5,0x2
8000153c:	41670733          	sub	a4,a4,s6
80001540:	419787b3          	sub	a5,a5,s9
80001544:	41f7d813          	srai	a6,a5,0x1f
80001548:	41f75513          	srai	a0,a4,0x1f
8000154c:	00f847b3          	xor	a5,a6,a5
80001550:	00e54733          	xor	a4,a0,a4
80001554:	410787b3          	sub	a5,a5,a6
80001558:	40a70733          	sub	a4,a4,a0
8000155c:	00c58223          	sb	a2,4(a1)
80001560:	00e787b3          	add	a5,a5,a4
80001564:	0a061463          	bnez	a2,8000160c <_ZN8N_puzzleILi4EEC1Ev+0x194>
80001568:	019c00a3          	sb	s9,1(s8)
8000156c:	016c0123          	sb	s6,2(s8)
80001570:	03cba783          	lw	a5,60(s7)
80001574:	04068713          	addi	a4,a3,64
80001578:	002706b3          	add	a3,a4,sp
8000157c:	001b0b13          	addi	s6,s6,1
80001580:	fcf6a023          	sw	a5,-64(a3)
80001584:	ffcb8b93          	addi	s7,s7,-4
80001588:	f72b18e3          	bne	s6,s2,800014f8 <_ZN8N_puzzleILi4EEC1Ev+0x80>
8000158c:	ffc98993          	addi	s3,s3,-4
80001590:	001c8c93          	addi	s9,s9,1
80001594:	ff0a0a13          	addi	s4,s4,-16
80001598:	00440413          	addi	s0,s0,4
8000159c:	f55998e3          	bne	s3,s5,800014ec <_ZN8N_puzzleILi4EEC1Ev+0x74>
800015a0:	000c2a23          	sw	zero,20(s8)
800015a4:	004c0693          	addi	a3,s8,4
800015a8:	014c0513          	addi	a0,s8,20
800015ac:	00000713          	li	a4,0
800015b0:	7b500593          	li	a1,1973
800015b4:	ffc68793          	addi	a5,a3,-4
800015b8:	02b70733          	mul	a4,a4,a1
800015bc:	00478603          	lb	a2,4(a5)
800015c0:	00178793          	addi	a5,a5,1
800015c4:	00c70733          	add	a4,a4,a2
800015c8:	fef698e3          	bne	a3,a5,800015b8 <_ZN8N_puzzleILi4EEC1Ev+0x140>
800015cc:	00468693          	addi	a3,a3,4
800015d0:	fed512e3          	bne	a0,a3,800015b4 <_ZN8N_puzzleILi4EEC1Ev+0x13c>
800015d4:	06c12083          	lw	ra,108(sp)
800015d8:	06812403          	lw	s0,104(sp)
800015dc:	00ec2a23          	sw	a4,20(s8)
800015e0:	06412483          	lw	s1,100(sp)
800015e4:	06012903          	lw	s2,96(sp)
800015e8:	05c12983          	lw	s3,92(sp)
800015ec:	05812a03          	lw	s4,88(sp)
800015f0:	05412a83          	lw	s5,84(sp)
800015f4:	05012b03          	lw	s6,80(sp)
800015f8:	04c12b83          	lw	s7,76(sp)
800015fc:	04812c03          	lw	s8,72(sp)
80001600:	04412c83          	lw	s9,68(sp)
80001604:	07010113          	addi	sp,sp,112
80001608:	00008067          	ret
8000160c:	003c4703          	lbu	a4,3(s8)
80001610:	00e787b3          	add	a5,a5,a4
80001614:	00fc01a3          	sb	a5,3(s8)
80001618:	f59ff06f          	j	80001570 <_ZN8N_puzzleILi4EEC1Ev+0xf8>

8000161c <_ZN8N_puzzleILi4EEC1EPi>:
8000161c:	fe010113          	addi	sp,sp,-32
80001620:	00100793          	li	a5,1
80001624:	00010893          	mv	a7,sp
80001628:	00f50023          	sb	a5,0(a0)
8000162c:	00812e23          	sw	s0,28(sp)
80001630:	00912c23          	sw	s1,24(sp)
80001634:	01212a23          	sw	s2,20(sp)
80001638:	000501a3          	sb	zero,3(a0)
8000163c:	01010e13          	addi	t3,sp,16
80001640:	00088793          	mv	a5,a7
80001644:	00078023          	sb	zero,0(a5)
80001648:	00178793          	addi	a5,a5,1
8000164c:	ffc79ce3          	bne	a5,t3,80001644 <_ZN8N_puzzleILi4EEC1EPi+0x28>
80001650:	00050e93          	mv	t4,a0
80001654:	00000313          	li	t1,0
80001658:	00000293          	li	t0,0
8000165c:	00100f93          	li	t6,1
80001660:	00400f13          	li	t5,4
80001664:	01000393          	li	t2,16
80001668:	00229813          	slli	a6,t0,0x2
8000166c:	01058833          	add	a6,a1,a6
80001670:	00000693          	li	a3,0
80001674:	00082603          	lw	a2,0(a6)
80001678:	00de8433          	add	s0,t4,a3
8000167c:	fff60493          	addi	s1,a2,-1
80001680:	41f4d793          	srai	a5,s1,0x1f
80001684:	01e7d913          	srli	s2,a5,0x1e
80001688:	01248733          	add	a4,s1,s2
8000168c:	00377713          	andi	a4,a4,3
80001690:	41270733          	sub	a4,a4,s2
80001694:	0037f793          	andi	a5,a5,3
80001698:	009787b3          	add	a5,a5,s1
8000169c:	40d70733          	sub	a4,a4,a3
800016a0:	41f75493          	srai	s1,a4,0x1f
800016a4:	4027d793          	srai	a5,a5,0x2
800016a8:	406787b3          	sub	a5,a5,t1
800016ac:	00e4c733          	xor	a4,s1,a4
800016b0:	41f7d913          	srai	s2,a5,0x1f
800016b4:	40970733          	sub	a4,a4,s1
800016b8:	01060493          	addi	s1,a2,16
800016bc:	00f947b3          	xor	a5,s2,a5
800016c0:	002484b3          	add	s1,s1,sp
800016c4:	412787b3          	sub	a5,a5,s2
800016c8:	00c40223          	sb	a2,4(s0)
800016cc:	fff48823          	sb	t6,-16(s1)
800016d0:	00e787b3          	add	a5,a5,a4
800016d4:	08061263          	bnez	a2,80001758 <_ZN8N_puzzleILi4EEC1EPi+0x13c>
800016d8:	006500a3          	sb	t1,1(a0)
800016dc:	00d50123          	sb	a3,2(a0)
800016e0:	00168693          	addi	a3,a3,1
800016e4:	00480813          	addi	a6,a6,4
800016e8:	f9e696e3          	bne	a3,t5,80001674 <_ZN8N_puzzleILi4EEC1EPi+0x58>
800016ec:	00428293          	addi	t0,t0,4
800016f0:	00130313          	addi	t1,t1,1
800016f4:	004e8e93          	addi	t4,t4,4
800016f8:	f67298e3          	bne	t0,t2,80001668 <_ZN8N_puzzleILi4EEC1EPi+0x4c>
800016fc:	0008c783          	lbu	a5,0(a7)
80001700:	00188893          	addi	a7,a7,1
80001704:	06078263          	beqz	a5,80001768 <_ZN8N_puzzleILi4EEC1EPi+0x14c>
80001708:	ffc89ae3          	bne	a7,t3,800016fc <_ZN8N_puzzleILi4EEC1EPi+0xe0>
8000170c:	00052a23          	sw	zero,20(a0)
80001710:	00450613          	addi	a2,a0,4
80001714:	01450813          	addi	a6,a0,20
80001718:	00000713          	li	a4,0
8000171c:	7b500593          	li	a1,1973
80001720:	ffc60793          	addi	a5,a2,-4
80001724:	02b70733          	mul	a4,a4,a1
80001728:	00478683          	lb	a3,4(a5)
8000172c:	00178793          	addi	a5,a5,1
80001730:	00d70733          	add	a4,a4,a3
80001734:	fec798e3          	bne	a5,a2,80001724 <_ZN8N_puzzleILi4EEC1EPi+0x108>
80001738:	00478613          	addi	a2,a5,4
8000173c:	fec812e3          	bne	a6,a2,80001720 <_ZN8N_puzzleILi4EEC1EPi+0x104>
80001740:	01c12403          	lw	s0,28(sp)
80001744:	00e52a23          	sw	a4,20(a0)
80001748:	01812483          	lw	s1,24(sp)
8000174c:	01412903          	lw	s2,20(sp)
80001750:	02010113          	addi	sp,sp,32
80001754:	00008067          	ret
80001758:	00354703          	lbu	a4,3(a0)
8000175c:	00e787b3          	add	a5,a5,a4
80001760:	00f501a3          	sb	a5,3(a0)
80001764:	f7dff06f          	j	800016e0 <_ZN8N_puzzleILi4EEC1EPi+0xc4>
80001768:	01c12403          	lw	s0,28(sp)
8000176c:	00050023          	sb	zero,0(a0)
80001770:	01812483          	lw	s1,24(sp)
80001774:	01412903          	lw	s2,20(sp)
80001778:	02010113          	addi	sp,sp,32
8000177c:	00008067          	ret

80001780 <_ZNK8N_puzzleILi4EE8solvableEv>:
80001780:	00050313          	mv	t1,a0
80001784:	00054503          	lbu	a0,0(a0)
80001788:	0c050263          	beqz	a0,8000184c <_ZNK8N_puzzleILi4EE8solvableEv+0xcc>
8000178c:	fc010113          	addi	sp,sp,-64
80001790:	00430613          	addi	a2,t1,4
80001794:	00010593          	mv	a1,sp
80001798:	01430513          	addi	a0,t1,20
8000179c:	ffc60793          	addi	a5,a2,-4
800017a0:	00058693          	mv	a3,a1
800017a4:	00478703          	lb	a4,4(a5)
800017a8:	00178793          	addi	a5,a5,1
800017ac:	00071463          	bnez	a4,800017b4 <_ZNK8N_puzzleILi4EE8solvableEv+0x34>
800017b0:	01000713          	li	a4,16
800017b4:	00e6a023          	sw	a4,0(a3)
800017b8:	00468693          	addi	a3,a3,4
800017bc:	fec794e3          	bne	a5,a2,800017a4 <_ZNK8N_puzzleILi4EE8solvableEv+0x24>
800017c0:	00478613          	addi	a2,a5,4
800017c4:	01058593          	addi	a1,a1,16
800017c8:	fca61ae3          	bne	a2,a0,8000179c <_ZNK8N_puzzleILi4EE8solvableEv+0x1c>
800017cc:	00100893          	li	a7,1
800017d0:	00100793          	li	a5,1
800017d4:	00000613          	li	a2,0
800017d8:	00000593          	li	a1,0
800017dc:	01000813          	li	a6,16
800017e0:	00279693          	slli	a3,a5,0x2
800017e4:	04068713          	addi	a4,a3,64
800017e8:	002706b3          	add	a3,a4,sp
800017ec:	04058713          	addi	a4,a1,64
800017f0:	00270733          	add	a4,a4,sp
800017f4:	fc072703          	lw	a4,-64(a4)
800017f8:	fc06a683          	lw	a3,-64(a3)
800017fc:	00178793          	addi	a5,a5,1
80001800:	00e6a733          	slt	a4,a3,a4
80001804:	00e60633          	add	a2,a2,a4
80001808:	fd079ce3          	bne	a5,a6,800017e0 <_ZNK8N_puzzleILi4EE8solvableEv+0x60>
8000180c:	00188793          	addi	a5,a7,1
80001810:	00088593          	mv	a1,a7
80001814:	01078863          	beq	a5,a6,80001824 <_ZNK8N_puzzleILi4EE8solvableEv+0xa4>
80001818:	00078893          	mv	a7,a5
8000181c:	00259593          	slli	a1,a1,0x2
80001820:	fc1ff06f          	j	800017e0 <_ZNK8N_puzzleILi4EE8solvableEv+0x60>
80001824:	00134703          	lbu	a4,1(t1)
80001828:	00234783          	lbu	a5,2(t1)
8000182c:	00600513          	li	a0,6
80001830:	40e50533          	sub	a0,a0,a4
80001834:	40f50533          	sub	a0,a0,a5
80001838:	00c50533          	add	a0,a0,a2
8000183c:	fff54513          	not	a0,a0
80001840:	00157513          	andi	a0,a0,1
80001844:	04010113          	addi	sp,sp,64
80001848:	00008067          	ret
8000184c:	00008067          	ret

80001850 <_ZN14Updatable_heapI8N_puzzleILi4EEE12percolate_upEi>:
80001850:	00100793          	li	a5,1
80001854:	06f58263          	beq	a1,a5,800018b8 <_ZN14Updatable_heapI8N_puzzleILi4EEE12percolate_upEi+0x68>
80001858:	00852503          	lw	a0,8(a0)
8000185c:	00259793          	slli	a5,a1,0x2
80001860:	00100e13          	li	t3,1
80001864:	00f507b3          	add	a5,a0,a5
80001868:	0007a803          	lw	a6,0(a5)
8000186c:	02482303          	lw	t1,36(a6)
80001870:	01c0006f          	j	8000188c <_ZN14Updatable_heapI8N_puzzleILi4EEE12percolate_upEi+0x3c>
80001874:	00c72023          	sw	a2,0(a4)
80001878:	0107a023          	sw	a6,0(a5)
8000187c:	00072783          	lw	a5,0(a4)
80001880:	00b82e23          	sw	a1,28(a6)
80001884:	00d7ae23          	sw	a3,28(a5)
80001888:	03c58863          	beq	a1,t3,800018b8 <_ZN14Updatable_heapI8N_puzzleILi4EEE12percolate_upEi+0x68>
8000188c:	01f5d793          	srli	a5,a1,0x1f
80001890:	00b787b3          	add	a5,a5,a1
80001894:	00058693          	mv	a3,a1
80001898:	4017d593          	srai	a1,a5,0x1
8000189c:	00259793          	slli	a5,a1,0x2
800018a0:	00f507b3          	add	a5,a0,a5
800018a4:	0007a603          	lw	a2,0(a5)
800018a8:	00269713          	slli	a4,a3,0x2
800018ac:	00e50733          	add	a4,a0,a4
800018b0:	02462883          	lw	a7,36(a2)
800018b4:	fd1340e3          	blt	t1,a7,80001874 <_ZN14Updatable_heapI8N_puzzleILi4EEE12percolate_upEi+0x24>
800018b8:	00008067          	ret

800018bc <_ZN14Updatable_heapI8N_puzzleILi4EEE4pushERKS1_i>:
800018bc:	fe010113          	addi	sp,sp,-32
800018c0:	01312623          	sw	s3,12(sp)
800018c4:	00052983          	lw	s3,0(a0)
800018c8:	00912a23          	sw	s1,20(sp)
800018cc:	00058493          	mv	s1,a1
800018d0:	00452583          	lw	a1,4(a0)
800018d4:	00812c23          	sw	s0,24(sp)
800018d8:	01212823          	sw	s2,16(sp)
800018dc:	00050413          	mv	s0,a0
800018e0:	00060913          	mv	s2,a2
800018e4:	00098513          	mv	a0,s3
800018e8:	00048613          	mv	a2,s1
800018ec:	00112e23          	sw	ra,28(sp)
800018f0:	ae9ff0ef          	jal	ra,800013d8 <_ZNK14Updatable_heapI8N_puzzleILi4EEE7pointerERKS1_.isra.0>
800018f4:	04050263          	beqz	a0,80001938 <_ZN14Updatable_heapI8N_puzzleILi4EEE4pushERKS1_i+0x7c>
800018f8:	02854783          	lbu	a5,40(a0)
800018fc:	02079063          	bnez	a5,8000191c <_ZN14Updatable_heapI8N_puzzleILi4EEE4pushERKS1_i+0x60>
80001900:	00054703          	lbu	a4,0(a0)
80001904:	04000793          	li	a5,64
80001908:	00070463          	beqz	a4,80001910 <_ZN14Updatable_heapI8N_puzzleILi4EEE4pushERKS1_i+0x54>
8000190c:	00350783          	lb	a5,3(a0)
80001910:	02452703          	lw	a4,36(a0)
80001914:	00f907b3          	add	a5,s2,a5
80001918:	14e7c263          	blt	a5,a4,80001a5c <_ZN14Updatable_heapI8N_puzzleILi4EEE4pushERKS1_i+0x1a0>
8000191c:	01c12083          	lw	ra,28(sp)
80001920:	01812403          	lw	s0,24(sp)
80001924:	01412483          	lw	s1,20(sp)
80001928:	01012903          	lw	s2,16(sp)
8000192c:	00c12983          	lw	s3,12(sp)
80001930:	02010113          	addi	sp,sp,32
80001934:	00008067          	ret
80001938:	00c42783          	lw	a5,12(s0)
8000193c:	14f9ce63          	blt	s3,a5,80001a98 <_ZN14Updatable_heapI8N_puzzleILi4EEE4pushERKS1_i+0x1dc>
80001940:	00178793          	addi	a5,a5,1
80001944:	00f42623          	sw	a5,12(s0)
80001948:	03000513          	li	a0,48
8000194c:	925ff0ef          	jal	ra,80001270 <bench_alloc>
80001950:	0004c883          	lbu	a7,0(s1)
80001954:	00442803          	lw	a6,4(s0)
80001958:	0144a683          	lw	a3,20(s1)
8000195c:	00000713          	li	a4,0
80001960:	0e089a63          	bnez	a7,80001a54 <_ZN14Updatable_heapI8N_puzzleILi4EEE4pushERKS1_i+0x198>
80001964:	00042603          	lw	a2,0(s0)
80001968:	00c42983          	lw	s3,12(s0)
8000196c:	00448793          	addi	a5,s1,4
80001970:	fff60613          	addi	a2,a2,-1
80001974:	00e67733          	and	a4,a2,a4
80001978:	00271713          	slli	a4,a4,0x2
8000197c:	00e80733          	add	a4,a6,a4
80001980:	00072e03          	lw	t3,0(a4)
80001984:	01150023          	sb	a7,0(a0)
80001988:	0014c303          	lbu	t1,1(s1)
8000198c:	00450713          	addi	a4,a0,4
80001990:	01448593          	addi	a1,s1,20
80001994:	006500a3          	sb	t1,1(a0)
80001998:	0024c303          	lbu	t1,2(s1)
8000199c:	00650123          	sb	t1,2(a0)
800019a0:	00348303          	lb	t1,3(s1)
800019a4:	00d52a23          	sw	a3,20(a0)
800019a8:	006501a3          	sb	t1,3(a0)
800019ac:	00078683          	lb	a3,0(a5)
800019b0:	00478793          	addi	a5,a5,4
800019b4:	00470713          	addi	a4,a4,4
800019b8:	fed70e23          	sb	a3,-4(a4)
800019bc:	ffd78683          	lb	a3,-3(a5)
800019c0:	fed70ea3          	sb	a3,-3(a4)
800019c4:	ffe78683          	lb	a3,-2(a5)
800019c8:	fed70f23          	sb	a3,-2(a4)
800019cc:	fff78683          	lb	a3,-1(a5)
800019d0:	fed70fa3          	sb	a3,-1(a4)
800019d4:	fcb79ce3          	bne	a5,a1,800019ac <_ZN14Updatable_heapI8N_puzzleILi4EEE4pushERKS1_i+0xf0>
800019d8:	01c52c23          	sw	t3,24(a0)
800019dc:	01352e23          	sw	s3,28(a0)
800019e0:	03252023          	sw	s2,32(a0)
800019e4:	0a088063          	beqz	a7,80001a84 <_ZN14Updatable_heapI8N_puzzleILi4EEE4pushERKS1_i+0x1c8>
800019e8:	0144a783          	lw	a5,20(s1)
800019ec:	01230333          	add	t1,t1,s2
800019f0:	02652223          	sw	t1,36(a0)
800019f4:	00f67633          	and	a2,a2,a5
800019f8:	00261613          	slli	a2,a2,0x2
800019fc:	02050423          	sb	zero,40(a0)
80001a00:	02052623          	sw	zero,44(a0)
80001a04:	00c80833          	add	a6,a6,a2
80001a08:	00842783          	lw	a5,8(s0)
80001a0c:	00299713          	slli	a4,s3,0x2
80001a10:	00a82023          	sw	a0,0(a6)
80001a14:	00e787b3          	add	a5,a5,a4
80001a18:	00a7a023          	sw	a0,0(a5)
80001a1c:	00098593          	mv	a1,s3
80001a20:	00040513          	mv	a0,s0
80001a24:	e2dff0ef          	jal	ra,80001850 <_ZN14Updatable_heapI8N_puzzleILi4EEE12percolate_upEi>
80001a28:	01042783          	lw	a5,16(s0)
80001a2c:	0137d463          	bge	a5,s3,80001a34 <_ZN14Updatable_heapI8N_puzzleILi4EEE4pushERKS1_i+0x178>
80001a30:	00098793          	mv	a5,s3
80001a34:	01c12083          	lw	ra,28(sp)
80001a38:	00f42823          	sw	a5,16(s0)
80001a3c:	01812403          	lw	s0,24(sp)
80001a40:	01412483          	lw	s1,20(sp)
80001a44:	01012903          	lw	s2,16(sp)
80001a48:	00c12983          	lw	s3,12(sp)
80001a4c:	02010113          	addi	sp,sp,32
80001a50:	00008067          	ret
80001a54:	00068713          	mv	a4,a3
80001a58:	f0dff06f          	j	80001964 <_ZN14Updatable_heapI8N_puzzleILi4EEE4pushERKS1_i+0xa8>
80001a5c:	01c52583          	lw	a1,28(a0)
80001a60:	02f52223          	sw	a5,36(a0)
80001a64:	00040513          	mv	a0,s0
80001a68:	01812403          	lw	s0,24(sp)
80001a6c:	01c12083          	lw	ra,28(sp)
80001a70:	01412483          	lw	s1,20(sp)
80001a74:	01012903          	lw	s2,16(sp)
80001a78:	00c12983          	lw	s3,12(sp)
80001a7c:	02010113          	addi	sp,sp,32
80001a80:	dd1ff06f          	j	80001850 <_ZN14Updatable_heapI8N_puzzleILi4EEE12percolate_upEi>
80001a84:	04090913          	addi	s2,s2,64
80001a88:	03252223          	sw	s2,36(a0)
80001a8c:	02050423          	sb	zero,40(a0)
80001a90:	02052623          	sw	zero,44(a0)
80001a94:	f75ff06f          	j	80001a08 <_ZN14Updatable_heapI8N_puzzleILi4EEE4pushERKS1_i+0x14c>
80001a98:	09800613          	li	a2,152
80001a9c:	00004597          	auipc	a1,0x4
80001aa0:	4b458593          	addi	a1,a1,1204 # 80005f50 <_etext+0x540>
80001aa4:	00004517          	auipc	a0,0x4
80001aa8:	39450513          	addi	a0,a0,916 # 80005e38 <_etext+0x428>
80001aac:	27d030ef          	jal	ra,80005528 <printf>
80001ab0:	00100513          	li	a0,1
80001ab4:	344030ef          	jal	ra,80004df8 <halt>

80001ab8 <_ZN14Updatable_heapI8N_puzzleILi4EEE14percolate_downEv>:
80001ab8:	00c52f83          	lw	t6,12(a0)
80001abc:	00200793          	li	a5,2
80001ac0:	11f7d063          	bge	a5,t6,80001bc0 <_ZN14Updatable_heapI8N_puzzleILi4EEE14percolate_downEv+0x108>
80001ac4:	00852803          	lw	a6,8(a0)
80001ac8:	00100613          	li	a2,1
80001acc:	00200693          	li	a3,2
80001ad0:	02c0006f          	j	80001afc <_ZN14Updatable_heapI8N_puzzleILi4EEE14percolate_downEv+0x44>
80001ad4:	0eff4463          	blt	t5,a5,80001bbc <_ZN14Updatable_heapI8N_puzzleILi4EEE14percolate_downEv+0x104>
80001ad8:	0005a783          	lw	a5,0(a1)
80001adc:	01c5a023          	sw	t3,0(a1)
80001ae0:	00f8a023          	sw	a5,0(a7)
80001ae4:	0005a703          	lw	a4,0(a1)
80001ae8:	00c7ae23          	sw	a2,28(a5)
80001aec:	00030613          	mv	a2,t1
80001af0:	00672e23          	sw	t1,28(a4)
80001af4:	00161693          	slli	a3,a2,0x1
80001af8:	07f6d863          	bge	a3,t6,80001b68 <_ZN14Updatable_heapI8N_puzzleILi4EEE14percolate_downEv+0xb0>
80001afc:	00261793          	slli	a5,a2,0x2
80001b00:	00f808b3          	add	a7,a6,a5
80001b04:	00f887b3          	add	a5,a7,a5
80001b08:	0007ae83          	lw	t4,0(a5)
80001b0c:	0008ae03          	lw	t3,0(a7)
80001b10:	00361793          	slli	a5,a2,0x3
80001b14:	00f807b3          	add	a5,a6,a5
80001b18:	0047a783          	lw	a5,4(a5)
80001b1c:	024e2f03          	lw	t5,36(t3)
80001b20:	024eae83          	lw	t4,36(t4)
80001b24:	00168313          	addi	t1,a3,1
80001b28:	00269713          	slli	a4,a3,0x2
80001b2c:	00231593          	slli	a1,t1,0x2
80001b30:	0247a783          	lw	a5,36(a5)
80001b34:	00e80733          	add	a4,a6,a4
80001b38:	00b805b3          	add	a1,a6,a1
80001b3c:	f9df4ce3          	blt	t5,t4,80001ad4 <_ZN14Updatable_heapI8N_puzzleILi4EEE14percolate_downEv+0x1c>
80001b40:	f8fedce3          	bge	t4,a5,80001ad8 <_ZN14Updatable_heapI8N_puzzleILi4EEE14percolate_downEv+0x20>
80001b44:	00072783          	lw	a5,0(a4)
80001b48:	01c72023          	sw	t3,0(a4)
80001b4c:	00f8a023          	sw	a5,0(a7)
80001b50:	00072703          	lw	a4,0(a4)
80001b54:	00c7ae23          	sw	a2,28(a5)
80001b58:	00068613          	mv	a2,a3
80001b5c:	00d72e23          	sw	a3,28(a4)
80001b60:	00161693          	slli	a3,a2,0x1
80001b64:	f9f6cce3          	blt	a3,t6,80001afc <_ZN14Updatable_heapI8N_puzzleILi4EEE14percolate_downEv+0x44>
80001b68:	00df8463          	beq	t6,a3,80001b70 <_ZN14Updatable_heapI8N_puzzleILi4EEE14percolate_downEv+0xb8>
80001b6c:	00008067          	ret
80001b70:	00852683          	lw	a3,8(a0)
80001b74:	00261793          	slli	a5,a2,0x2
80001b78:	00361713          	slli	a4,a2,0x3
80001b7c:	00e68733          	add	a4,a3,a4
80001b80:	00f687b3          	add	a5,a3,a5
80001b84:	00072503          	lw	a0,0(a4)
80001b88:	0007a583          	lw	a1,0(a5)
80001b8c:	02452503          	lw	a0,36(a0)
80001b90:	0245a703          	lw	a4,36(a1)
80001b94:	fce55ce3          	bge	a0,a4,80001b6c <_ZN14Updatable_heapI8N_puzzleILi4EEE14percolate_downEv+0xb4>
80001b98:	002f9713          	slli	a4,t6,0x2
80001b9c:	00e686b3          	add	a3,a3,a4
80001ba0:	0006a703          	lw	a4,0(a3)
80001ba4:	00b6a023          	sw	a1,0(a3)
80001ba8:	00e7a023          	sw	a4,0(a5)
80001bac:	0006a783          	lw	a5,0(a3)
80001bb0:	00c72e23          	sw	a2,28(a4)
80001bb4:	01f7ae23          	sw	t6,28(a5)
80001bb8:	00008067          	ret
80001bbc:	00008067          	ret
80001bc0:	00200693          	li	a3,2
80001bc4:	00100613          	li	a2,1
80001bc8:	fadf92e3          	bne	t6,a3,80001b6c <_ZN14Updatable_heapI8N_puzzleILi4EEE14percolate_downEv+0xb4>
80001bcc:	fa5ff06f          	j	80001b70 <_ZN14Updatable_heapI8N_puzzleILi4EEE14percolate_downEv+0xb8>

80001bd0 <bench_15pz_run>:
80001bd0:	f2010113          	addi	sp,sp,-224
80001bd4:	01810513          	addi	a0,sp,24
80001bd8:	0c112e23          	sw	ra,220(sp)
80001bdc:	0c812c23          	sw	s0,216(sp)
80001be0:	0c912a23          	sw	s1,212(sp)
80001be4:	0d212823          	sw	s2,208(sp)
80001be8:	0d312623          	sw	s3,204(sp)
80001bec:	0d412423          	sw	s4,200(sp)
80001bf0:	0d512223          	sw	s5,196(sp)
80001bf4:	0d612023          	sw	s6,192(sp)
80001bf8:	0b712e23          	sw	s7,188(sp)
80001bfc:	0b812c23          	sw	s8,184(sp)
80001c00:	0b912a23          	sw	s9,180(sp)
80001c04:	0ba12823          	sw	s10,176(sp)
80001c08:	0bb12623          	sw	s11,172(sp)
80001c0c:	86dff0ef          	jal	ra,80001478 <_ZN8N_puzzleILi4EEC1Ev>
80001c10:	00005797          	auipc	a5,0x5
80001c14:	e407a783          	lw	a5,-448(a5) # 80006a50 <setting>
80001c18:	0007a783          	lw	a5,0(a5)
80001c1c:	00200713          	li	a4,2
80001c20:	1ae78ee3          	beq	a5,a4,800025dc <bench_15pz_run+0xa0c>
80001c24:	06f74e63          	blt	a4,a5,80001ca0 <bench_15pz_run+0xd0>
80001c28:	140786e3          	beqz	a5,80002574 <bench_15pz_run+0x9a4>
80001c2c:	00100713          	li	a4,1
80001c30:	24e79ae3          	bne	a5,a4,80002684 <bench_15pz_run+0xab4>
80001c34:	06010413          	addi	s0,sp,96
80001c38:	00005597          	auipc	a1,0x5
80001c3c:	b3458593          	addi	a1,a1,-1228 # 8000676c <_ZL8PUZZLE_M>
80001c40:	00040513          	mv	a0,s0
80001c44:	9d9ff0ef          	jal	ra,8000161c <_ZN8N_puzzleILi4EEC1EPi>
80001c48:	06012703          	lw	a4,96(sp)
80001c4c:	00040793          	mv	a5,s0
80001c50:	07010493          	addi	s1,sp,112
80001c54:	00e12c23          	sw	a4,24(sp)
80001c58:	07412703          	lw	a4,116(sp)
80001c5c:	02e12623          	sw	a4,44(sp)
80001c60:	01810713          	addi	a4,sp,24
80001c64:	0047c503          	lbu	a0,4(a5)
80001c68:	0057c583          	lbu	a1,5(a5)
80001c6c:	0067c603          	lbu	a2,6(a5)
80001c70:	0077c683          	lbu	a3,7(a5)
80001c74:	00a70223          	sb	a0,4(a4)
80001c78:	00b702a3          	sb	a1,5(a4)
80001c7c:	00c70323          	sb	a2,6(a4)
80001c80:	00d703a3          	sb	a3,7(a4)
80001c84:	00478793          	addi	a5,a5,4
80001c88:	00470713          	addi	a4,a4,4
80001c8c:	fc979ce3          	bne	a5,s1,80001c64 <bench_15pz_run+0x94>
80001c90:	000017b7          	lui	a5,0x1
80001c94:	80078793          	addi	a5,a5,-2048 # 800 <_entry_offset+0x800>
80001c98:	00f12223          	sw	a5,4(sp)
80001c9c:	0700006f          	j	80001d0c <bench_15pz_run+0x13c>
80001ca0:	00300713          	li	a4,3
80001ca4:	1ee790e3          	bne	a5,a4,80002684 <bench_15pz_run+0xab4>
80001ca8:	06010413          	addi	s0,sp,96
80001cac:	00005597          	auipc	a1,0x5
80001cb0:	a4058593          	addi	a1,a1,-1472 # 800066ec <_ZL8PUZZLE_H>
80001cb4:	00040513          	mv	a0,s0
80001cb8:	965ff0ef          	jal	ra,8000161c <_ZN8N_puzzleILi4EEC1EPi>
80001cbc:	06012703          	lw	a4,96(sp)
80001cc0:	00040793          	mv	a5,s0
80001cc4:	07010493          	addi	s1,sp,112
80001cc8:	00e12c23          	sw	a4,24(sp)
80001ccc:	07412703          	lw	a4,116(sp)
80001cd0:	02e12623          	sw	a4,44(sp)
80001cd4:	01810713          	addi	a4,sp,24
80001cd8:	0047c503          	lbu	a0,4(a5)
80001cdc:	0057c583          	lbu	a1,5(a5)
80001ce0:	0067c603          	lbu	a2,6(a5)
80001ce4:	0077c683          	lbu	a3,7(a5)
80001ce8:	00a70223          	sb	a0,4(a4)
80001cec:	00b702a3          	sb	a1,5(a4)
80001cf0:	00c70323          	sb	a2,6(a4)
80001cf4:	00d703a3          	sb	a3,7(a4)
80001cf8:	00478793          	addi	a5,a5,4
80001cfc:	00470713          	addi	a4,a4,4
80001d00:	fcf49ce3          	bne	s1,a5,80001cd8 <bench_15pz_run+0x108>
80001d04:	000c07b7          	lui	a5,0xc0
80001d08:	00f12223          	sw	a5,4(sp)
80001d0c:	01810513          	addi	a0,sp,24
80001d10:	a71ff0ef          	jal	ra,80001780 <_ZNK8N_puzzleILi4EE8solvableEv>
80001d14:	120508e3          	beqz	a0,80002644 <bench_15pz_run+0xa74>
80001d18:	01400513          	li	a0,20
80001d1c:	d54ff0ef          	jal	ra,80001270 <bench_alloc>
80001d20:	00412783          	lw	a5,4(sp)
80001d24:	00050d13          	mv	s10,a0
80001d28:	00f52023          	sw	a5,0(a0)
80001d2c:	00279513          	slli	a0,a5,0x2
80001d30:	d40ff0ef          	jal	ra,80001270 <bench_alloc>
80001d34:	000d2783          	lw	a5,0(s10)
80001d38:	00ad2423          	sw	a0,8(s10)
80001d3c:	00178793          	addi	a5,a5,1 # c0001 <_entry_offset+0xc0001>
80001d40:	00279513          	slli	a0,a5,0x2
80001d44:	d2cff0ef          	jal	ra,80001270 <bench_alloc>
80001d48:	000d2683          	lw	a3,0(s10)
80001d4c:	00ad2223          	sw	a0,4(s10)
80001d50:	000d2623          	sw	zero,12(s10)
80001d54:	00269713          	slli	a4,a3,0x2
80001d58:	000d2823          	sw	zero,16(s10)
80001d5c:	00050793          	mv	a5,a0
80001d60:	00e50733          	add	a4,a0,a4
80001d64:	00d05863          	blez	a3,80001d74 <bench_15pz_run+0x1a4>
80001d68:	0007a023          	sw	zero,0(a5)
80001d6c:	00478793          	addi	a5,a5,4
80001d70:	fee79ce3          	bne	a5,a4,80001d68 <bench_15pz_run+0x198>
80001d74:	00000613          	li	a2,0
80001d78:	01810593          	addi	a1,sp,24
80001d7c:	000d0513          	mv	a0,s10
80001d80:	b3dff0ef          	jal	ra,800018bc <_ZN14Updatable_heapI8N_puzzleILi4EEE4pushERKS1_i>
80001d84:	00cd2603          	lw	a2,12(s10)
80001d88:	fff00793          	li	a5,-1
80001d8c:	00005717          	auipc	a4,0x5
80001d90:	cc870713          	addi	a4,a4,-824 # 80006a54 <_ZL3ans>
80001d94:	00f72023          	sw	a5,0(a4)
80001d98:	00000993          	li	s3,0
80001d9c:	18060863          	beqz	a2,80001f2c <bench_15pz_run+0x35c>
80001da0:	01040793          	addi	a5,s0,16
80001da4:	01440d93          	addi	s11,s0,20
80001da8:	00f12023          	sw	a5,0(sp)
80001dac:	04010a13          	addi	s4,sp,64
80001db0:	00400b93          	li	s7,4
80001db4:	008d2e03          	lw	t3,8(s10)
80001db8:	00040713          	mv	a4,s0
80001dbc:	00040693          	mv	a3,s0
80001dc0:	004e2783          	lw	a5,4(t3)
80001dc4:	00378583          	lb	a1,3(a5)
80001dc8:	0007cc03          	lbu	s8,0(a5)
80001dcc:	0017ca83          	lbu	s5,1(a5)
80001dd0:	0027cb03          	lbu	s6,2(a5)
80001dd4:	0007a903          	lw	s2,0(a5)
80001dd8:	0147ac83          	lw	s9,20(a5)
80001ddc:	00b12423          	sw	a1,8(sp)
80001de0:	00478793          	addi	a5,a5,4
80001de4:	0007c303          	lbu	t1,0(a5)
80001de8:	0017c883          	lbu	a7,1(a5)
80001dec:	0027c503          	lbu	a0,2(a5)
80001df0:	0037c583          	lbu	a1,3(a5)
80001df4:	00668223          	sb	t1,4(a3)
80001df8:	011682a3          	sb	a7,5(a3)
80001dfc:	00a68323          	sb	a0,6(a3)
80001e00:	00b683a3          	sb	a1,7(a3)
80001e04:	00468693          	addi	a3,a3,4
80001e08:	00478793          	addi	a5,a5,4
80001e0c:	fc969ce3          	bne	a3,s1,80001de4 <bench_15pz_run+0x214>
80001e10:	00100793          	li	a5,1
80001e14:	5cf60c63          	beq	a2,a5,800023ec <bench_15pz_run+0x81c>
80001e18:	04c7d6e3          	bge	a5,a2,80002664 <bench_15pz_run+0xa94>
80001e1c:	00261693          	slli	a3,a2,0x2
80001e20:	00de06b3          	add	a3,t3,a3
80001e24:	0006a683          	lw	a3,0(a3)
80001e28:	fff60613          	addi	a2,a2,-1
80001e2c:	000d0513          	mv	a0,s10
80001e30:	00de2223          	sw	a3,4(t3)
80001e34:	00f6ae23          	sw	a5,28(a3)
80001e38:	00cd2623          	sw	a2,12(s10)
80001e3c:	00e12623          	sw	a4,12(sp)
80001e40:	c79ff0ef          	jal	ra,80001ab8 <_ZN14Updatable_heapI8N_puzzleILi4EEE14percolate_downEv>
80001e44:	00c12703          	lw	a4,12(sp)
80001e48:	03212823          	sw	s2,48(sp)
80001e4c:	03010913          	addi	s2,sp,48
80001e50:	05912223          	sw	s9,68(sp)
80001e54:	00090793          	mv	a5,s2
80001e58:	00474503          	lbu	a0,4(a4)
80001e5c:	00574583          	lbu	a1,5(a4)
80001e60:	00674603          	lbu	a2,6(a4)
80001e64:	00774683          	lbu	a3,7(a4)
80001e68:	00a78223          	sb	a0,4(a5)
80001e6c:	00b782a3          	sb	a1,5(a5)
80001e70:	00c78323          	sb	a2,6(a5)
80001e74:	00d783a3          	sb	a3,7(a5)
80001e78:	00470713          	addi	a4,a4,4
80001e7c:	00478793          	addi	a5,a5,4
80001e80:	fc971ce3          	bne	a4,s1,80001e58 <bench_15pz_run+0x288>
80001e84:	00198993          	addi	s3,s3,1
80001e88:	00040713          	mv	a4,s0
80001e8c:	00000793          	li	a5,0
80001e90:	00f00693          	li	a3,15
80001e94:	00178793          	addi	a5,a5,1
80001e98:	00f72023          	sw	a5,0(a4)
80001e9c:	00470713          	addi	a4,a4,4
80001ea0:	fed79ae3          	bne	a5,a3,80001e94 <bench_15pz_run+0x2c4>
80001ea4:	00040593          	mv	a1,s0
80001ea8:	04810513          	addi	a0,sp,72
80001eac:	08012e23          	sw	zero,156(sp)
80001eb0:	f6cff0ef          	jal	ra,8000161c <_ZN8N_puzzleILi4EEC1EPi>
80001eb4:	0c0c0e63          	beqz	s8,80001f90 <bench_15pz_run+0x3c0>
80001eb8:	04814783          	lbu	a5,72(sp)
80001ebc:	0e078463          	beqz	a5,80001fa4 <bench_15pz_run+0x3d4>
80001ec0:	05c12783          	lw	a5,92(sp)
80001ec4:	0f979063          	bne	a5,s9,80001fa4 <bench_15pz_run+0x3d4>
80001ec8:	04810593          	addi	a1,sp,72
80001ecc:	03010613          	addi	a2,sp,48
80001ed0:	00000793          	li	a5,0
80001ed4:	00f606b3          	add	a3,a2,a5
80001ed8:	00f58733          	add	a4,a1,a5
80001edc:	00468683          	lb	a3,4(a3)
80001ee0:	00470703          	lb	a4,4(a4)
80001ee4:	0ce69063          	bne	a3,a4,80001fa4 <bench_15pz_run+0x3d4>
80001ee8:	00178793          	addi	a5,a5,1
80001eec:	ff7794e3          	bne	a5,s7,80001ed4 <bench_15pz_run+0x304>
80001ef0:	00460613          	addi	a2,a2,4
80001ef4:	00458593          	addi	a1,a1,4
80001ef8:	fcca1ce3          	bne	s4,a2,80001ed0 <bench_15pz_run+0x300>
80001efc:	004d2583          	lw	a1,4(s10)
80001f00:	000d2503          	lw	a0,0(s10)
80001f04:	03010613          	addi	a2,sp,48
80001f08:	cd0ff0ef          	jal	ra,800013d8 <_ZNK14Updatable_heapI8N_puzzleILi4EEE7pointerERKS1_.isra.0>
80001f0c:	800007b7          	lui	a5,0x80000
80001f10:	fff7c793          	not	a5,a5
80001f14:	00050463          	beqz	a0,80001f1c <bench_15pz_run+0x34c>
80001f18:	02052783          	lw	a5,32(a0)
80001f1c:	02f987b3          	mul	a5,s3,a5
80001f20:	00005717          	auipc	a4,0x5
80001f24:	b3470713          	addi	a4,a4,-1228 # 80006a54 <_ZL3ans>
80001f28:	00f72023          	sw	a5,0(a4)
80001f2c:	0dc12083          	lw	ra,220(sp)
80001f30:	0d812403          	lw	s0,216(sp)
80001f34:	0d412483          	lw	s1,212(sp)
80001f38:	0d012903          	lw	s2,208(sp)
80001f3c:	0cc12983          	lw	s3,204(sp)
80001f40:	0c812a03          	lw	s4,200(sp)
80001f44:	0c412a83          	lw	s5,196(sp)
80001f48:	0c012b03          	lw	s6,192(sp)
80001f4c:	0bc12b83          	lw	s7,188(sp)
80001f50:	0b812c03          	lw	s8,184(sp)
80001f54:	0b412c83          	lw	s9,180(sp)
80001f58:	0b012d03          	lw	s10,176(sp)
80001f5c:	0ac12d83          	lw	s11,172(sp)
80001f60:	0e010113          	addi	sp,sp,224
80001f64:	00008067          	ret
80001f68:	004d2583          	lw	a1,4(s10)
80001f6c:	000d2503          	lw	a0,0(s10)
80001f70:	03010613          	addi	a2,sp,48
80001f74:	c64ff0ef          	jal	ra,800013d8 <_ZNK14Updatable_heapI8N_puzzleILi4EEE7pointerERKS1_.isra.0>
80001f78:	5e050a63          	beqz	a0,8000256c <bench_15pz_run+0x99c>
80001f7c:	02052603          	lw	a2,32(a0)
80001f80:	00160613          	addi	a2,a2,1
80001f84:	04810593          	addi	a1,sp,72
80001f88:	000d0513          	mv	a0,s10
80001f8c:	931ff0ef          	jal	ra,800018bc <_ZN14Updatable_heapI8N_puzzleILi4EEE4pushERKS1_i>
80001f90:	00cd2603          	lw	a2,12(s10)
80001f94:	f8060ce3          	beqz	a2,80001f2c <bench_15pz_run+0x35c>
80001f98:	00412783          	lw	a5,4(sp)
80001f9c:	e1379ce3          	bne	a5,s3,80001db4 <bench_15pz_run+0x1e4>
80001fa0:	f8dff06f          	j	80001f2c <bench_15pz_run+0x35c>
80001fa4:	00300793          	li	a5,3
80001fa8:	002a9c13          	slli	s8,s5,0x2
80001fac:	44fb0463          	beq	s6,a5,800023f4 <bench_15pz_run+0x824>
80001fb0:	00040593          	mv	a1,s0
80001fb4:	00040713          	mv	a4,s0
80001fb8:	03010793          	addi	a5,sp,48
80001fbc:	0047c883          	lbu	a7,4(a5) # 80000004 <_end+0xffff1004>
80001fc0:	0057c503          	lbu	a0,5(a5)
80001fc4:	0067c603          	lbu	a2,6(a5)
80001fc8:	0077c683          	lbu	a3,7(a5)
80001fcc:	01170223          	sb	a7,4(a4)
80001fd0:	00a702a3          	sb	a0,5(a4)
80001fd4:	00c70323          	sb	a2,6(a4)
80001fd8:	00d703a3          	sb	a3,7(a4)
80001fdc:	00478793          	addi	a5,a5,4
80001fe0:	00470713          	addi	a4,a4,4
80001fe4:	fd479ce3          	bne	a5,s4,80001fbc <bench_15pz_run+0x3ec>
80001fe8:	002a9c13          	slli	s8,s5,0x2
80001fec:	090c0793          	addi	a5,s8,144
80001ff0:	01010713          	addi	a4,sp,16
80001ff4:	001b0693          	addi	a3,s6,1
80001ff8:	00e78633          	add	a2,a5,a4
80001ffc:	00d607b3          	add	a5,a2,a3
80002000:	f9478503          	lb	a0,-108(a5)
80002004:	01660e33          	add	t3,a2,s6
80002008:	0ff6f893          	zext.b	a7,a3
8000200c:	fff50793          	addi	a5,a0,-1
80002010:	41f7d713          	srai	a4,a5,0x1f
80002014:	01e75713          	srli	a4,a4,0x1e
80002018:	00e787b3          	add	a5,a5,a4
8000201c:	0037f793          	andi	a5,a5,3
80002020:	40e787b3          	sub	a5,a5,a4
80002024:	41678733          	sub	a4,a5,s6
80002028:	40d787b3          	sub	a5,a5,a3
8000202c:	41f75f13          	srai	t5,a4,0x1f
80002030:	41f7de93          	srai	t4,a5,0x1f
80002034:	00ef4333          	xor	t1,t5,a4
80002038:	00fec7b3          	xor	a5,t4,a5
8000203c:	41d787b3          	sub	a5,a5,t4
80002040:	41e30333          	sub	t1,t1,t5
80002044:	40f30333          	sub	t1,t1,a5
80002048:	00812783          	lw	a5,8(sp)
8000204c:	fcae0223          	sb	a0,-60(t3)
80002050:	01160633          	add	a2,a2,a7
80002054:	00f30333          	add	t1,t1,a5
80002058:	00440893          	addi	a7,s0,4
8000205c:	01831313          	slli	t1,t1,0x18
80002060:	0ff6fe13          	zext.b	t3,a3
80002064:	41835313          	srai	t1,t1,0x18
80002068:	fc060223          	sb	zero,-60(a2)
8000206c:	00088693          	mv	a3,a7
80002070:	00000713          	li	a4,0
80002074:	7b500513          	li	a0,1973
80002078:	ffc68793          	addi	a5,a3,-4
8000207c:	02a70733          	mul	a4,a4,a0
80002080:	00478603          	lb	a2,4(a5)
80002084:	00178793          	addi	a5,a5,1
80002088:	00c70733          	add	a4,a4,a2
8000208c:	fef698e3          	bne	a3,a5,8000207c <bench_15pz_run+0x4ac>
80002090:	00468693          	addi	a3,a3,4
80002094:	ffb692e3          	bne	a3,s11,80002078 <bench_15pz_run+0x4a8>
80002098:	00100793          	li	a5,1
8000209c:	04f10423          	sb	a5,72(sp)
800020a0:	055104a3          	sb	s5,73(sp)
800020a4:	05c10523          	sb	t3,74(sp)
800020a8:	046105a3          	sb	t1,75(sp)
800020ac:	04e12e23          	sw	a4,92(sp)
800020b0:	04810793          	addi	a5,sp,72
800020b4:	0075c703          	lbu	a4,7(a1)
800020b8:	0045c503          	lbu	a0,4(a1)
800020bc:	0055c603          	lbu	a2,5(a1)
800020c0:	0065c683          	lbu	a3,6(a1)
800020c4:	00e783a3          	sb	a4,7(a5)
800020c8:	00012703          	lw	a4,0(sp)
800020cc:	00a78223          	sb	a0,4(a5)
800020d0:	00c782a3          	sb	a2,5(a5)
800020d4:	00d78323          	sb	a3,6(a5)
800020d8:	00088593          	mv	a1,a7
800020dc:	00478793          	addi	a5,a5,4
800020e0:	01170663          	beq	a4,a7,800020ec <bench_15pz_run+0x51c>
800020e4:	00488893          	addi	a7,a7,4
800020e8:	fcdff06f          	j	800020b4 <bench_15pz_run+0x4e4>
800020ec:	004d2583          	lw	a1,4(s10)
800020f0:	000d2503          	lw	a0,0(s10)
800020f4:	03010613          	addi	a2,sp,48
800020f8:	ae0ff0ef          	jal	ra,800013d8 <_ZNK14Updatable_heapI8N_puzzleILi4EEE7pointerERKS1_.isra.0>
800020fc:	46050063          	beqz	a0,8000255c <bench_15pz_run+0x98c>
80002100:	02052603          	lw	a2,32(a0)
80002104:	00160613          	addi	a2,a2,1
80002108:	04810593          	addi	a1,sp,72
8000210c:	000d0513          	mv	a0,s10
80002110:	facff0ef          	jal	ra,800018bc <_ZN14Updatable_heapI8N_puzzleILi4EEE4pushERKS1_i>
80002114:	2e0b1063          	bnez	s6,800023f4 <bench_15pz_run+0x824>
80002118:	00300793          	li	a5,3
8000211c:	18fa8263          	beq	s5,a5,800022a0 <bench_15pz_run+0x6d0>
80002120:	00040593          	mv	a1,s0
80002124:	00040713          	mv	a4,s0
80002128:	03010793          	addi	a5,sp,48
8000212c:	0047c883          	lbu	a7,4(a5)
80002130:	0057c503          	lbu	a0,5(a5)
80002134:	0067c603          	lbu	a2,6(a5)
80002138:	0077c683          	lbu	a3,7(a5)
8000213c:	01170223          	sb	a7,4(a4)
80002140:	00a702a3          	sb	a0,5(a4)
80002144:	00c70323          	sb	a2,6(a4)
80002148:	00d703a3          	sb	a3,7(a4)
8000214c:	00478793          	addi	a5,a5,4
80002150:	00470713          	addi	a4,a4,4
80002154:	fcfa1ce3          	bne	s4,a5,8000212c <bench_15pz_run+0x55c>
80002158:	001a8693          	addi	a3,s5,1
8000215c:	00269793          	slli	a5,a3,0x2
80002160:	01010713          	addi	a4,sp,16
80002164:	09078793          	addi	a5,a5,144
80002168:	00e787b3          	add	a5,a5,a4
8000216c:	016787b3          	add	a5,a5,s6
80002170:	f9478603          	lb	a2,-108(a5)
80002174:	0ff6f513          	zext.b	a0,a3
80002178:	fff60713          	addi	a4,a2,-1
8000217c:	41f75793          	srai	a5,a4,0x1f
80002180:	0037f793          	andi	a5,a5,3
80002184:	00e787b3          	add	a5,a5,a4
80002188:	4027d793          	srai	a5,a5,0x2
8000218c:	41578733          	sub	a4,a5,s5
80002190:	40d787b3          	sub	a5,a5,a3
80002194:	41f75e13          	srai	t3,a4,0x1f
80002198:	41f7d893          	srai	a7,a5,0x1f
8000219c:	00ee4333          	xor	t1,t3,a4
800021a0:	00f8c7b3          	xor	a5,a7,a5
800021a4:	411787b3          	sub	a5,a5,a7
800021a8:	41c30333          	sub	t1,t1,t3
800021ac:	00251713          	slli	a4,a0,0x2
800021b0:	40f30333          	sub	t1,t1,a5
800021b4:	01010513          	addi	a0,sp,16
800021b8:	090c0793          	addi	a5,s8,144
800021bc:	00a78533          	add	a0,a5,a0
800021c0:	09070793          	addi	a5,a4,144
800021c4:	01010713          	addi	a4,sp,16
800021c8:	00e787b3          	add	a5,a5,a4
800021cc:	00812703          	lw	a4,8(sp)
800021d0:	01650533          	add	a0,a0,s6
800021d4:	fcc50223          	sb	a2,-60(a0)
800021d8:	00e30333          	add	t1,t1,a4
800021dc:	016787b3          	add	a5,a5,s6
800021e0:	00440893          	addi	a7,s0,4
800021e4:	01831313          	slli	t1,t1,0x18
800021e8:	41835313          	srai	t1,t1,0x18
800021ec:	0ff6fe13          	zext.b	t3,a3
800021f0:	fc078223          	sb	zero,-60(a5)
800021f4:	00088613          	mv	a2,a7
800021f8:	00000713          	li	a4,0
800021fc:	7b500513          	li	a0,1973
80002200:	ffc60793          	addi	a5,a2,-4
80002204:	02a70733          	mul	a4,a4,a0
80002208:	00478683          	lb	a3,4(a5)
8000220c:	00178793          	addi	a5,a5,1
80002210:	00d70733          	add	a4,a4,a3
80002214:	fec798e3          	bne	a5,a2,80002204 <bench_15pz_run+0x634>
80002218:	00478613          	addi	a2,a5,4
8000221c:	fecd92e3          	bne	s11,a2,80002200 <bench_15pz_run+0x630>
80002220:	00100793          	li	a5,1
80002224:	04f10423          	sb	a5,72(sp)
80002228:	05c104a3          	sb	t3,73(sp)
8000222c:	05610523          	sb	s6,74(sp)
80002230:	046105a3          	sb	t1,75(sp)
80002234:	04e12e23          	sw	a4,92(sp)
80002238:	04810793          	addi	a5,sp,72
8000223c:	0075c703          	lbu	a4,7(a1)
80002240:	0045c503          	lbu	a0,4(a1)
80002244:	0055c603          	lbu	a2,5(a1)
80002248:	0065c683          	lbu	a3,6(a1)
8000224c:	00e783a3          	sb	a4,7(a5)
80002250:	00012703          	lw	a4,0(sp)
80002254:	00a78223          	sb	a0,4(a5)
80002258:	00c782a3          	sb	a2,5(a5)
8000225c:	00d78323          	sb	a3,6(a5)
80002260:	00088593          	mv	a1,a7
80002264:	00478793          	addi	a5,a5,4
80002268:	00e88663          	beq	a7,a4,80002274 <bench_15pz_run+0x6a4>
8000226c:	00488893          	addi	a7,a7,4
80002270:	fcdff06f          	j	8000223c <bench_15pz_run+0x66c>
80002274:	004d2583          	lw	a1,4(s10)
80002278:	000d2503          	lw	a0,0(s10)
8000227c:	03010613          	addi	a2,sp,48
80002280:	958ff0ef          	jal	ra,800013d8 <_ZNK14Updatable_heapI8N_puzzleILi4EEE7pointerERKS1_.isra.0>
80002284:	2c050863          	beqz	a0,80002554 <bench_15pz_run+0x984>
80002288:	02052603          	lw	a2,32(a0)
8000228c:	00160613          	addi	a2,a2,1
80002290:	04810593          	addi	a1,sp,72
80002294:	000d0513          	mv	a0,s10
80002298:	e24ff0ef          	jal	ra,800018bc <_ZN14Updatable_heapI8N_puzzleILi4EEE4pushERKS1_i>
8000229c:	ce0a8ae3          	beqz	s5,80001f90 <bench_15pz_run+0x3c0>
800022a0:	00040593          	mv	a1,s0
800022a4:	00040793          	mv	a5,s0
800022a8:	00494503          	lbu	a0,4(s2)
800022ac:	00594603          	lbu	a2,5(s2)
800022b0:	00694683          	lbu	a3,6(s2)
800022b4:	00794703          	lbu	a4,7(s2)
800022b8:	00a78223          	sb	a0,4(a5)
800022bc:	00c782a3          	sb	a2,5(a5)
800022c0:	00d78323          	sb	a3,6(a5)
800022c4:	00e783a3          	sb	a4,7(a5)
800022c8:	00490913          	addi	s2,s2,4
800022cc:	00478793          	addi	a5,a5,4
800022d0:	fd491ce3          	bne	s2,s4,800022a8 <bench_15pz_run+0x6d8>
800022d4:	fffa8613          	addi	a2,s5,-1
800022d8:	00261793          	slli	a5,a2,0x2
800022dc:	01010713          	addi	a4,sp,16
800022e0:	09078793          	addi	a5,a5,144
800022e4:	00e787b3          	add	a5,a5,a4
800022e8:	016787b3          	add	a5,a5,s6
800022ec:	f9478703          	lb	a4,-108(a5)
800022f0:	01010693          	addi	a3,sp,16
800022f4:	090c0793          	addi	a5,s8,144
800022f8:	fff70513          	addi	a0,a4,-1
800022fc:	00d786b3          	add	a3,a5,a3
80002300:	41f55793          	srai	a5,a0,0x1f
80002304:	0037f793          	andi	a5,a5,3
80002308:	00a787b3          	add	a5,a5,a0
8000230c:	4027d793          	srai	a5,a5,0x2
80002310:	41578ab3          	sub	s5,a5,s5
80002314:	40c787b3          	sub	a5,a5,a2
80002318:	41fad513          	srai	a0,s5,0x1f
8000231c:	0ff67313          	zext.b	t1,a2
80002320:	41f7d613          	srai	a2,a5,0x1f
80002324:	01554e33          	xor	t3,a0,s5
80002328:	00f647b3          	xor	a5,a2,a5
8000232c:	40c787b3          	sub	a5,a5,a2
80002330:	40ae0e33          	sub	t3,t3,a0
80002334:	00231613          	slli	a2,t1,0x2
80002338:	40fe0e33          	sub	t3,t3,a5
8000233c:	09060793          	addi	a5,a2,144
80002340:	01010613          	addi	a2,sp,16
80002344:	00c787b3          	add	a5,a5,a2
80002348:	00812603          	lw	a2,8(sp)
8000234c:	016686b3          	add	a3,a3,s6
80002350:	fce68223          	sb	a4,-60(a3)
80002354:	00ce0e33          	add	t3,t3,a2
80002358:	016787b3          	add	a5,a5,s6
8000235c:	00440893          	addi	a7,s0,4
80002360:	018e1e13          	slli	t3,t3,0x18
80002364:	418e5e13          	srai	t3,t3,0x18
80002368:	fc078223          	sb	zero,-60(a5)
8000236c:	00088613          	mv	a2,a7
80002370:	00000713          	li	a4,0
80002374:	7b500513          	li	a0,1973
80002378:	ffc60793          	addi	a5,a2,-4
8000237c:	02a70733          	mul	a4,a4,a0
80002380:	00478683          	lb	a3,4(a5)
80002384:	00178793          	addi	a5,a5,1
80002388:	00d70733          	add	a4,a4,a3
8000238c:	fec798e3          	bne	a5,a2,8000237c <bench_15pz_run+0x7ac>
80002390:	00478613          	addi	a2,a5,4
80002394:	ffb612e3          	bne	a2,s11,80002378 <bench_15pz_run+0x7a8>
80002398:	00100793          	li	a5,1
8000239c:	04f10423          	sb	a5,72(sp)
800023a0:	046104a3          	sb	t1,73(sp)
800023a4:	05610523          	sb	s6,74(sp)
800023a8:	05c105a3          	sb	t3,75(sp)
800023ac:	04e12e23          	sw	a4,92(sp)
800023b0:	04810793          	addi	a5,sp,72
800023b4:	0075c703          	lbu	a4,7(a1)
800023b8:	0045c503          	lbu	a0,4(a1)
800023bc:	0055c603          	lbu	a2,5(a1)
800023c0:	0065c683          	lbu	a3,6(a1)
800023c4:	00e783a3          	sb	a4,7(a5)
800023c8:	00012703          	lw	a4,0(sp)
800023cc:	00a78223          	sb	a0,4(a5)
800023d0:	00c782a3          	sb	a2,5(a5)
800023d4:	00d78323          	sb	a3,6(a5)
800023d8:	00088593          	mv	a1,a7
800023dc:	00478793          	addi	a5,a5,4
800023e0:	b8e884e3          	beq	a7,a4,80001f68 <bench_15pz_run+0x398>
800023e4:	00488893          	addi	a7,a7,4
800023e8:	fcdff06f          	j	800023b4 <bench_15pz_run+0x7e4>
800023ec:	000d2623          	sw	zero,12(s10)
800023f0:	a59ff06f          	j	80001e48 <bench_15pz_run+0x278>
800023f4:	00040593          	mv	a1,s0
800023f8:	00040713          	mv	a4,s0
800023fc:	03010793          	addi	a5,sp,48
80002400:	0047c883          	lbu	a7,4(a5)
80002404:	0057c503          	lbu	a0,5(a5)
80002408:	0067c603          	lbu	a2,6(a5)
8000240c:	0077c683          	lbu	a3,7(a5)
80002410:	01170223          	sb	a7,4(a4)
80002414:	00a702a3          	sb	a0,5(a4)
80002418:	00c70323          	sb	a2,6(a4)
8000241c:	00d703a3          	sb	a3,7(a4)
80002420:	00478793          	addi	a5,a5,4
80002424:	00470713          	addi	a4,a4,4
80002428:	fd479ce3          	bne	a5,s4,80002400 <bench_15pz_run+0x830>
8000242c:	090c0793          	addi	a5,s8,144
80002430:	01010713          	addi	a4,sp,16
80002434:	fffb0893          	addi	a7,s6,-1
80002438:	00e786b3          	add	a3,a5,a4
8000243c:	011687b3          	add	a5,a3,a7
80002440:	f9478603          	lb	a2,-108(a5)
80002444:	0ff8f313          	zext.b	t1,a7
80002448:	01668533          	add	a0,a3,s6
8000244c:	fff60793          	addi	a5,a2,-1
80002450:	41f7d713          	srai	a4,a5,0x1f
80002454:	01e75713          	srli	a4,a4,0x1e
80002458:	00e787b3          	add	a5,a5,a4
8000245c:	0037f793          	andi	a5,a5,3
80002460:	40e787b3          	sub	a5,a5,a4
80002464:	41678733          	sub	a4,a5,s6
80002468:	411787b3          	sub	a5,a5,a7
8000246c:	41f75e93          	srai	t4,a4,0x1f
80002470:	41f7d893          	srai	a7,a5,0x1f
80002474:	00eece33          	xor	t3,t4,a4
80002478:	00f8c7b3          	xor	a5,a7,a5
8000247c:	411787b3          	sub	a5,a5,a7
80002480:	41de0e33          	sub	t3,t3,t4
80002484:	40fe0e33          	sub	t3,t3,a5
80002488:	00812783          	lw	a5,8(sp)
8000248c:	fcc50223          	sb	a2,-60(a0)
80002490:	006686b3          	add	a3,a3,t1
80002494:	00fe0e33          	add	t3,t3,a5
80002498:	00440893          	addi	a7,s0,4
8000249c:	018e1e13          	slli	t3,t3,0x18
800024a0:	fc068223          	sb	zero,-60(a3)
800024a4:	418e5e13          	srai	t3,t3,0x18
800024a8:	00088693          	mv	a3,a7
800024ac:	00000713          	li	a4,0
800024b0:	7b500513          	li	a0,1973
800024b4:	ffc68793          	addi	a5,a3,-4
800024b8:	02a70733          	mul	a4,a4,a0
800024bc:	00478603          	lb	a2,4(a5)
800024c0:	00178793          	addi	a5,a5,1
800024c4:	00c70733          	add	a4,a4,a2
800024c8:	fef698e3          	bne	a3,a5,800024b8 <bench_15pz_run+0x8e8>
800024cc:	00468693          	addi	a3,a3,4
800024d0:	ffb692e3          	bne	a3,s11,800024b4 <bench_15pz_run+0x8e4>
800024d4:	00100793          	li	a5,1
800024d8:	04f10423          	sb	a5,72(sp)
800024dc:	055104a3          	sb	s5,73(sp)
800024e0:	04610523          	sb	t1,74(sp)
800024e4:	05c105a3          	sb	t3,75(sp)
800024e8:	04e12e23          	sw	a4,92(sp)
800024ec:	04810793          	addi	a5,sp,72
800024f0:	0075c703          	lbu	a4,7(a1)
800024f4:	0045c503          	lbu	a0,4(a1)
800024f8:	0055c603          	lbu	a2,5(a1)
800024fc:	0065c683          	lbu	a3,6(a1)
80002500:	00e783a3          	sb	a4,7(a5)
80002504:	00012703          	lw	a4,0(sp)
80002508:	00a78223          	sb	a0,4(a5)
8000250c:	00c782a3          	sb	a2,5(a5)
80002510:	00d78323          	sb	a3,6(a5)
80002514:	00088593          	mv	a1,a7
80002518:	00478793          	addi	a5,a5,4
8000251c:	01170663          	beq	a4,a7,80002528 <bench_15pz_run+0x958>
80002520:	00488893          	addi	a7,a7,4
80002524:	fcdff06f          	j	800024f0 <bench_15pz_run+0x920>
80002528:	004d2583          	lw	a1,4(s10)
8000252c:	000d2503          	lw	a0,0(s10)
80002530:	03010613          	addi	a2,sp,48
80002534:	ea5fe0ef          	jal	ra,800013d8 <_ZNK14Updatable_heapI8N_puzzleILi4EEE7pointerERKS1_.isra.0>
80002538:	02050663          	beqz	a0,80002564 <bench_15pz_run+0x994>
8000253c:	02052603          	lw	a2,32(a0)
80002540:	00160613          	addi	a2,a2,1
80002544:	04810593          	addi	a1,sp,72
80002548:	000d0513          	mv	a0,s10
8000254c:	b70ff0ef          	jal	ra,800018bc <_ZN14Updatable_heapI8N_puzzleILi4EEE4pushERKS1_i>
80002550:	bc9ff06f          	j	80002118 <bench_15pz_run+0x548>
80002554:	80000637          	lui	a2,0x80000
80002558:	d39ff06f          	j	80002290 <bench_15pz_run+0x6c0>
8000255c:	80000637          	lui	a2,0x80000
80002560:	ba9ff06f          	j	80002108 <bench_15pz_run+0x538>
80002564:	80000637          	lui	a2,0x80000
80002568:	fddff06f          	j	80002544 <bench_15pz_run+0x974>
8000256c:	80000637          	lui	a2,0x80000
80002570:	a15ff06f          	j	80001f84 <bench_15pz_run+0x3b4>
80002574:	06010413          	addi	s0,sp,96
80002578:	00004597          	auipc	a1,0x4
8000257c:	23458593          	addi	a1,a1,564 # 800067ac <_ZL8PUZZLE_S>
80002580:	00040513          	mv	a0,s0
80002584:	898ff0ef          	jal	ra,8000161c <_ZN8N_puzzleILi4EEC1EPi>
80002588:	06012703          	lw	a4,96(sp)
8000258c:	00040793          	mv	a5,s0
80002590:	07010493          	addi	s1,sp,112
80002594:	00e12c23          	sw	a4,24(sp)
80002598:	07412703          	lw	a4,116(sp)
8000259c:	02e12623          	sw	a4,44(sp)
800025a0:	01810713          	addi	a4,sp,24
800025a4:	0047c503          	lbu	a0,4(a5)
800025a8:	0057c583          	lbu	a1,5(a5)
800025ac:	0067c603          	lbu	a2,6(a5)
800025b0:	0077c683          	lbu	a3,7(a5)
800025b4:	00a70223          	sb	a0,4(a4)
800025b8:	00b702a3          	sb	a1,5(a4)
800025bc:	00c70323          	sb	a2,6(a4)
800025c0:	00d703a3          	sb	a3,7(a4)
800025c4:	00478793          	addi	a5,a5,4
800025c8:	00470713          	addi	a4,a4,4
800025cc:	fcf49ce3          	bne	s1,a5,800025a4 <bench_15pz_run+0x9d4>
800025d0:	00a00793          	li	a5,10
800025d4:	00f12223          	sw	a5,4(sp)
800025d8:	f34ff06f          	j	80001d0c <bench_15pz_run+0x13c>
800025dc:	06010413          	addi	s0,sp,96
800025e0:	00004597          	auipc	a1,0x4
800025e4:	14c58593          	addi	a1,a1,332 # 8000672c <_ZL8PUZZLE_L>
800025e8:	00040513          	mv	a0,s0
800025ec:	830ff0ef          	jal	ra,8000161c <_ZN8N_puzzleILi4EEC1EPi>
800025f0:	06012703          	lw	a4,96(sp)
800025f4:	00040793          	mv	a5,s0
800025f8:	07010493          	addi	s1,sp,112
800025fc:	00e12c23          	sw	a4,24(sp)
80002600:	07412703          	lw	a4,116(sp)
80002604:	02e12623          	sw	a4,44(sp)
80002608:	01810713          	addi	a4,sp,24
8000260c:	0047c503          	lbu	a0,4(a5)
80002610:	0057c583          	lbu	a1,5(a5)
80002614:	0067c603          	lbu	a2,6(a5)
80002618:	0077c683          	lbu	a3,7(a5)
8000261c:	00a70223          	sb	a0,4(a4)
80002620:	00b702a3          	sb	a1,5(a4)
80002624:	00c70323          	sb	a2,6(a4)
80002628:	00d703a3          	sb	a3,7(a4)
8000262c:	00478793          	addi	a5,a5,4
80002630:	00470713          	addi	a4,a4,4
80002634:	fcf49ce3          	bne	s1,a5,8000260c <bench_15pz_run+0xa3c>
80002638:	000047b7          	lui	a5,0x4
8000263c:	00f12223          	sw	a5,4(sp)
80002640:	eccff06f          	j	80001d0c <bench_15pz_run+0x13c>
80002644:	03500613          	li	a2,53
80002648:	00004597          	auipc	a1,0x4
8000264c:	95c58593          	addi	a1,a1,-1700 # 80005fa4 <_etext+0x594>
80002650:	00003517          	auipc	a0,0x3
80002654:	7e850513          	addi	a0,a0,2024 # 80005e38 <_etext+0x428>
80002658:	6d1020ef          	jal	ra,80005528 <printf>
8000265c:	00100513          	li	a0,1
80002660:	798020ef          	jal	ra,80004df8 <halt>
80002664:	05600613          	li	a2,86
80002668:	00004597          	auipc	a1,0x4
8000266c:	8e858593          	addi	a1,a1,-1816 # 80005f50 <_etext+0x540>
80002670:	00003517          	auipc	a0,0x3
80002674:	7c850513          	addi	a0,a0,1992 # 80005e38 <_etext+0x428>
80002678:	6b1020ef          	jal	ra,80005528 <printf>
8000267c:	00100513          	li	a0,1
80002680:	778020ef          	jal	ra,80004df8 <halt>
80002684:	03300613          	li	a2,51
80002688:	fc1ff06f          	j	80002648 <bench_15pz_run+0xa78>

8000268c <bench_lzip_prepare>:
8000268c:	00004797          	auipc	a5,0x4
80002690:	3c47a783          	lw	a5,964(a5) # 80006a50 <setting>
80002694:	0007a783          	lw	a5,0(a5)
80002698:	fe010113          	addi	sp,sp,-32
8000269c:	00912a23          	sw	s1,20(sp)
800026a0:	00100513          	li	a0,1
800026a4:	00004497          	auipc	s1,0x4
800026a8:	3b448493          	addi	s1,s1,948 # 80006a58 <SIZE>
800026ac:	00112e23          	sw	ra,28(sp)
800026b0:	00f4a023          	sw	a5,0(s1)
800026b4:	01212823          	sw	s2,16(sp)
800026b8:	00812c23          	sw	s0,24(sp)
800026bc:	01312623          	sw	s3,12(sp)
800026c0:	c59fe0ef          	jal	ra,80001318 <bench_srand>
800026c4:	00009537          	lui	a0,0x9
800026c8:	80450513          	addi	a0,a0,-2044 # 8804 <_entry_offset+0x8804>
800026cc:	ba5fe0ef          	jal	ra,80001270 <bench_alloc>
800026d0:	00050793          	mv	a5,a0
800026d4:	0004a503          	lw	a0,0(s1)
800026d8:	00004717          	auipc	a4,0x4
800026dc:	38f72823          	sw	a5,912(a4) # 80006a68 <state>
800026e0:	00004917          	auipc	s2,0x4
800026e4:	37c90913          	addi	s2,s2,892 # 80006a5c <blk>
800026e8:	b89fe0ef          	jal	ra,80001270 <bench_alloc>
800026ec:	0004a783          	lw	a5,0(s1)
800026f0:	00a92023          	sw	a0,0(s2)
800026f4:	19078513          	addi	a0,a5,400
800026f8:	b79fe0ef          	jal	ra,80001270 <bench_alloc>
800026fc:	0004a783          	lw	a5,0(s1)
80002700:	00004717          	auipc	a4,0x4
80002704:	36a72023          	sw	a0,864(a4) # 80006a60 <compress>
80002708:	02f05863          	blez	a5,80002738 <bench_lzip_prepare+0xac>
8000270c:	00000413          	li	s0,0
80002710:	01a00993          	li	s3,26
80002714:	c19fe0ef          	jal	ra,8000132c <bench_rand>
80002718:	03357533          	remu	a0,a0,s3
8000271c:	00092783          	lw	a5,0(s2)
80002720:	0004a703          	lw	a4,0(s1)
80002724:	008787b3          	add	a5,a5,s0
80002728:	00140413          	addi	s0,s0,1
8000272c:	06150513          	addi	a0,a0,97
80002730:	00a78023          	sb	a0,0(a5)
80002734:	fee440e3          	blt	s0,a4,80002714 <bench_lzip_prepare+0x88>
80002738:	01c12083          	lw	ra,28(sp)
8000273c:	01812403          	lw	s0,24(sp)
80002740:	01412483          	lw	s1,20(sp)
80002744:	01012903          	lw	s2,16(sp)
80002748:	00c12983          	lw	s3,12(sp)
8000274c:	02010113          	addi	sp,sp,32
80002750:	00008067          	ret

80002754 <bench_lzip_run>:
80002754:	ff010113          	addi	sp,sp,-16
80002758:	00004697          	auipc	a3,0x4
8000275c:	3106a683          	lw	a3,784(a3) # 80006a68 <state>
80002760:	00004617          	auipc	a2,0x4
80002764:	2f862603          	lw	a2,760(a2) # 80006a58 <SIZE>
80002768:	00004597          	auipc	a1,0x4
8000276c:	2f85a583          	lw	a1,760(a1) # 80006a60 <compress>
80002770:	00004517          	auipc	a0,0x4
80002774:	2ec52503          	lw	a0,748(a0) # 80006a5c <blk>
80002778:	00112623          	sw	ra,12(sp)
8000277c:	080000ef          	jal	ra,800027fc <qlz_compress>
80002780:	00c12083          	lw	ra,12(sp)
80002784:	00004797          	auipc	a5,0x4
80002788:	2ea7a023          	sw	a0,736(a5) # 80006a64 <len>
8000278c:	01010113          	addi	sp,sp,16
80002790:	00008067          	ret

80002794 <bench_lzip_validate>:
80002794:	00004517          	auipc	a0,0x4
80002798:	2cc52503          	lw	a0,716(a0) # 80006a60 <compress>
8000279c:	00004597          	auipc	a1,0x4
800027a0:	2c85a583          	lw	a1,712(a1) # 80006a64 <len>
800027a4:	ff010113          	addi	sp,sp,-16
800027a8:	00b505b3          	add	a1,a0,a1
800027ac:	00112623          	sw	ra,12(sp)
800027b0:	bb1fe0ef          	jal	ra,80001360 <checksum>
800027b4:	00004797          	auipc	a5,0x4
800027b8:	29c7a783          	lw	a5,668(a5) # 80006a50 <setting>
800027bc:	00c7a783          	lw	a5,12(a5)
800027c0:	00c12083          	lw	ra,12(sp)
800027c4:	40a78533          	sub	a0,a5,a0
800027c8:	00153513          	seqz	a0,a0
800027cc:	01010113          	addi	sp,sp,16
800027d0:	00008067          	ret

800027d4 <bench_memcpy.part.0>:
800027d4:	ff010113          	addi	sp,sp,-16
800027d8:	00800613          	li	a2,8
800027dc:	00004597          	auipc	a1,0x4
800027e0:	81c58593          	addi	a1,a1,-2020 # 80005ff8 <_etext+0x5e8>
800027e4:	00003517          	auipc	a0,0x3
800027e8:	65450513          	addi	a0,a0,1620 # 80005e38 <_etext+0x428>
800027ec:	00112623          	sw	ra,12(sp)
800027f0:	539020ef          	jal	ra,80005528 <printf>
800027f4:	00100513          	li	a0,1
800027f8:	600020ef          	jal	ra,80004df8 <halt>

800027fc <qlz_compress>:
800027fc:	f9010113          	addi	sp,sp,-112
80002800:	00060713          	mv	a4,a2
80002804:	00c12c23          	sw	a2,24(sp)
80002808:	06112623          	sw	ra,108(sp)
8000280c:	06812423          	sw	s0,104(sp)
80002810:	06912223          	sw	s1,100(sp)
80002814:	07212023          	sw	s2,96(sp)
80002818:	05312e23          	sw	s3,92(sp)
8000281c:	05412c23          	sw	s4,88(sp)
80002820:	05512a23          	sw	s5,84(sp)
80002824:	05612823          	sw	s6,80(sp)
80002828:	05712623          	sw	s7,76(sp)
8000282c:	05812423          	sw	s8,72(sp)
80002830:	05912223          	sw	s9,68(sp)
80002834:	05a12023          	sw	s10,64(sp)
80002838:	03b12e23          	sw	s11,60(sp)
8000283c:	fff60613          	addi	a2,a2,-1
80002840:	e6e00793          	li	a5,-402
80002844:	00b12823          	sw	a1,16(sp)
80002848:	54c7e863          	bltu	a5,a2,80002d98 <qlz_compress+0x59c>
8000284c:	00300593          	li	a1,3
80002850:	0d700793          	li	a5,215
80002854:	00b12a23          	sw	a1,20(sp)
80002858:	00050993          	mv	s3,a0
8000285c:	40e7e663          	bltu	a5,a4,80002c68 <qlz_compress+0x46c>
80002860:	000087b7          	lui	a5,0x8
80002864:	00009737          	lui	a4,0x9
80002868:	00478793          	addi	a5,a5,4 # 8004 <_entry_offset+0x8004>
8000286c:	80470713          	addi	a4,a4,-2044 # 8804 <_entry_offset+0x8804>
80002870:	00f687b3          	add	a5,a3,a5
80002874:	00e68733          	add	a4,a3,a4
80002878:	00078023          	sb	zero,0(a5)
8000287c:	00178793          	addi	a5,a5,1
80002880:	fef71ce3          	bne	a4,a5,80002878 <qlz_compress+0x7c>
80002884:	00c98733          	add	a4,s3,a2
80002888:	01012783          	lw	a5,16(sp)
8000288c:	01412603          	lw	a2,20(sp)
80002890:	00e12e23          	sw	a4,28(sp)
80002894:	ff670d13          	addi	s10,a4,-10
80002898:	00c78633          	add	a2,a5,a2
8000289c:	00c12623          	sw	a2,12(sp)
800028a0:	00460f13          	addi	t5,a2,4
800028a4:	573d6c63          	bltu	s10,s3,80002e1c <qlz_compress+0x620>
800028a8:	01812783          	lw	a5,24(sp)
800028ac:	ffc70d93          	addi	s11,a4,-4
800028b0:	80000337          	lui	t1,0x80000
800028b4:	0017d793          	srli	a5,a5,0x1
800028b8:	00f987b3          	add	a5,s3,a5
800028bc:	00f12423          	sw	a5,8(sp)
800028c0:	00098713          	mv	a4,s3
800028c4:	00060793          	mv	a5,a2
800028c8:	00008b37          	lui	s6,0x8
800028cc:	00400493          	li	s1,4
800028d0:	03010413          	addi	s0,sp,48
800028d4:	40ed8eb3          	sub	t4,s11,a4
800028d8:	0fe00613          	li	a2,254
800028dc:	01d65463          	bge	a2,t4,800028e4 <qlz_compress+0xe8>
800028e0:	0fe00e93          	li	t4,254
800028e4:	00174583          	lbu	a1,1(a4)
800028e8:	00274603          	lbu	a2,2(a4)
800028ec:	00074803          	lbu	a6,0(a4)
800028f0:	00859593          	slli	a1,a1,0x8
800028f4:	01061613          	slli	a2,a2,0x10
800028f8:	00c5e5b3          	or	a1,a1,a2
800028fc:	00d5d513          	srli	a0,a1,0xd
80002900:	0095d613          	srli	a2,a1,0x9
80002904:	0105e2b3          	or	t0,a1,a6
80002908:	00a64633          	xor	a2,a2,a0
8000290c:	00564633          	xor	a2,a2,t0
80002910:	7ff67613          	andi	a2,a2,2047
80002914:	00461593          	slli	a1,a2,0x4
80002918:	00b68e33          	add	t3,a3,a1
8000291c:	004e2503          	lw	a0,4(t3)
80002920:	00c68933          	add	s2,a3,a2
80002924:	012b0833          	add	a6,s6,s2
80002928:	ffe70a13          	addi	s4,a4,-2
8000292c:	00484883          	lbu	a7,4(a6)
80002930:	001e8a93          	addi	s5,t4,1
80002934:	09457863          	bgeu	a0,s4,800029c4 <qlz_compress+0x1c8>
80002938:	28089e63          	bnez	a7,80002bd4 <qlz_compress+0x3d8>
8000293c:	00ee2223          	sw	a4,4(t3)
80002940:	00100613          	li	a2,1
80002944:	00c80223          	sb	a2,4(a6)
80002948:	00135313          	srli	t1,t1,0x1
8000294c:	00074603          	lbu	a2,0(a4)
80002950:	001f0f13          	addi	t5,t5,1
80002954:	00170713          	addi	a4,a4,1
80002958:	fecf0fa3          	sb	a2,-1(t5)
8000295c:	00137593          	andi	a1,t1,1
80002960:	00058613          	mv	a2,a1
80002964:	10ed6663          	bltu	s10,a4,80002a70 <qlz_compress+0x274>
80002968:	f60606e3          	beqz	a2,800028d4 <qlz_compress+0xd8>
8000296c:	00812603          	lw	a2,8(sp)
80002970:	00e67e63          	bgeu	a2,a4,8000298c <qlz_compress+0x190>
80002974:	00c12583          	lw	a1,12(sp)
80002978:	41370633          	sub	a2,a4,s3
8000297c:	40565513          	srai	a0,a2,0x5
80002980:	40bf05b3          	sub	a1,t5,a1
80002984:	40a60633          	sub	a2,a2,a0
80002988:	42b64663          	blt	a2,a1,80002db4 <qlz_compress+0x5b8>
8000298c:	80000637          	lui	a2,0x80000
80002990:	00135313          	srli	t1,t1,0x1
80002994:	00c36333          	or	t1,t1,a2
80002998:	02612623          	sw	t1,44(sp)
8000299c:	02c10613          	addi	a2,sp,44
800029a0:	00064583          	lbu	a1,0(a2) # 80000000 <_end+0xffff1000>
800029a4:	00160613          	addi	a2,a2,1
800029a8:	00178793          	addi	a5,a5,1
800029ac:	feb78fa3          	sb	a1,-1(a5)
800029b0:	fec418e3          	bne	s0,a2,800029a0 <qlz_compress+0x1a4>
800029b4:	000f0793          	mv	a5,t5
800029b8:	80000337          	lui	t1,0x80000
800029bc:	004f0f13          	addi	t5,t5,4
800029c0:	f15ff06f          	j	800028d4 <qlz_compress+0xd8>
800029c4:	00000f93          	li	t6,0
800029c8:	00b685b3          	add	a1,a3,a1
800029cc:	00000393          	li	t2,0
800029d0:	00100513          	li	a0,1
800029d4:	03157463          	bgeu	a0,a7,800029fc <qlz_compress+0x200>
800029d8:	0085a803          	lw	a6,8(a1)
800029dc:	01f70e33          	add	t3,a4,t6
800029e0:	000e4b83          	lbu	s7,0(t3)
800029e4:	01f80e33          	add	t3,a6,t6
800029e8:	000e4e03          	lbu	t3,0(t3)
800029ec:	17cb8e63          	beq	s7,t3,80002b68 <qlz_compress+0x36c>
800029f0:	00150513          	addi	a0,a0,1
800029f4:	00458593          	addi	a1,a1,4
800029f8:	fc951ee3          	bne	a0,s1,800029d4 <qlz_compress+0x1d8>
800029fc:	0038f513          	andi	a0,a7,3
80002a00:	00261593          	slli	a1,a2,0x2
80002a04:	00a585b3          	add	a1,a1,a0
80002a08:	00259593          	slli	a1,a1,0x2
80002a0c:	00b685b3          	add	a1,a3,a1
80002a10:	00e5a223          	sw	a4,4(a1)
80002a14:	012b0933          	add	s2,s6,s2
80002a18:	00188893          	addi	a7,a7,1
80002a1c:	01190223          	sb	a7,4(s2)
80002a20:	00200593          	li	a1,2
80002a24:	00135313          	srli	t1,t1,0x1
80002a28:	f3f5f2e3          	bgeu	a1,t6,8000294c <qlz_compress+0x150>
80002a2c:	00561593          	slli	a1,a2,0x5
80002a30:	80000637          	lui	a2,0x80000
80002a34:	00c36333          	or	t1,t1,a2
80002a38:	00900613          	li	a2,9
80002a3c:	01f70733          	add	a4,a4,t6
80002a40:	0075e5b3          	or	a1,a1,t2
80002a44:	21f66063          	bltu	a2,t6,80002c44 <qlz_compress+0x448>
80002a48:	ffef8613          	addi	a2,t6,-2
80002a4c:	00261613          	slli	a2,a2,0x2
80002a50:	00b66633          	or	a2,a2,a1
80002a54:	00865593          	srli	a1,a2,0x8
80002a58:	00cf0023          	sb	a2,0(t5)
80002a5c:	00bf00a3          	sb	a1,1(t5)
80002a60:	00137593          	andi	a1,t1,1
80002a64:	002f0f13          	addi	t5,t5,2
80002a68:	00058613          	mv	a2,a1
80002a6c:	eeed7ee3          	bgeu	s10,a4,80002968 <qlz_compress+0x16c>
80002a70:	01c12803          	lw	a6,28(sp)
80002a74:	00135513          	srli	a0,t1,0x1
80002a78:	00050293          	mv	t0,a0
80002a7c:	1ee86c63          	bltu	a6,a4,80002c74 <qlz_compress+0x478>
80002a80:	01c12583          	lw	a1,28(sp)
80002a84:	02c10813          	addi	a6,sp,44
80002a88:	80000fb7          	lui	t6,0x80000
80002a8c:	ffd58e13          	addi	t3,a1,-3
80002a90:	01812583          	lw	a1,24(sp)
80002a94:	03010893          	addi	a7,sp,48
80002a98:	00008eb7          	lui	t4,0x8
80002a9c:	00b989b3          	add	s3,s3,a1
80002aa0:	08061863          	bnez	a2,80002b30 <qlz_compress+0x334>
80002aa4:	00235513          	srli	a0,t1,0x2
80002aa8:	0012f593          	andi	a1,t0,1
80002aac:	00028313          	mv	t1,t0
80002ab0:	06ee6063          	bltu	t3,a4,80002b10 <qlz_compress+0x314>
80002ab4:	00174283          	lbu	t0,1(a4)
80002ab8:	00274603          	lbu	a2,2(a4)
80002abc:	00074403          	lbu	s0,0(a4)
80002ac0:	00829293          	slli	t0,t0,0x8
80002ac4:	01061613          	slli	a2,a2,0x10
80002ac8:	00c2e2b3          	or	t0,t0,a2
80002acc:	00d2d393          	srli	t2,t0,0xd
80002ad0:	0092d613          	srli	a2,t0,0x9
80002ad4:	00764633          	xor	a2,a2,t2
80002ad8:	0082e2b3          	or	t0,t0,s0
80002adc:	00564633          	xor	a2,a2,t0
80002ae0:	7ff67613          	andi	a2,a2,2047
80002ae4:	00c682b3          	add	t0,a3,a2
80002ae8:	005e82b3          	add	t0,t4,t0
80002aec:	0042c383          	lbu	t2,4(t0)
80002af0:	00261613          	slli	a2,a2,0x2
80002af4:	0033f413          	andi	s0,t2,3
80002af8:	00860633          	add	a2,a2,s0
80002afc:	00261613          	slli	a2,a2,0x2
80002b00:	00c68633          	add	a2,a3,a2
80002b04:	00e62223          	sw	a4,4(a2) # 80000004 <_end+0xffff1004>
80002b08:	00138393          	addi	t2,t2,1 # 1001 <_entry_offset+0x1001>
80002b0c:	00728223          	sb	t2,4(t0)
80002b10:	00074603          	lbu	a2,0(a4)
80002b14:	00170713          	addi	a4,a4,1
80002b18:	001f0f13          	addi	t5,t5,1
80002b1c:	fecf0fa3          	sb	a2,-1(t5)
80002b20:	15370c63          	beq	a4,s3,80002c78 <qlz_compress+0x47c>
80002b24:	00137613          	andi	a2,t1,1
80002b28:	00135293          	srli	t0,t1,0x1
80002b2c:	f6060ce3          	beqz	a2,80002aa4 <qlz_compress+0x2a8>
80002b30:	01f2e2b3          	or	t0,t0,t6
80002b34:	02512623          	sw	t0,44(sp)
80002b38:	00080613          	mv	a2,a6
80002b3c:	00064583          	lbu	a1,0(a2)
80002b40:	00160613          	addi	a2,a2,1
80002b44:	00178793          	addi	a5,a5,1
80002b48:	feb78fa3          	sb	a1,-1(a5)
80002b4c:	fec898e3          	bne	a7,a2,80002b3c <qlz_compress+0x340>
80002b50:	000f0793          	mv	a5,t5
80002b54:	20000537          	lui	a0,0x20000
80002b58:	004f0f13          	addi	t5,t5,4
80002b5c:	00000593          	li	a1,0
80002b60:	40000337          	lui	t1,0x40000
80002b64:	f4dff06f          	j	80002ab0 <qlz_compress+0x2b4>
80002b68:	00184e03          	lbu	t3,1(a6)
80002b6c:	00284c03          	lbu	s8,2(a6)
80002b70:	00084b83          	lbu	s7,0(a6)
80002b74:	008e1e13          	slli	t3,t3,0x8
80002b78:	010c1c13          	slli	s8,s8,0x10
80002b7c:	018e6e33          	or	t3,t3,s8
80002b80:	017e6e33          	or	t3,t3,s7
80002b84:	e65e16e3          	bne	t3,t0,800029f0 <qlz_compress+0x1f4>
80002b88:	e74874e3          	bgeu	a6,s4,800029f0 <qlz_compress+0x1f4>
80002b8c:	00384b83          	lbu	s7,3(a6)
80002b90:	00374e03          	lbu	t3,3(a4)
80002b94:	29cb9063          	bne	s7,t3,80002e14 <qlz_compress+0x618>
80002b98:	00300e13          	li	t3,3
80002b9c:	015e6663          	bltu	t3,s5,80002ba8 <qlz_compress+0x3ac>
80002ba0:	2740006f          	j	80002e14 <qlz_compress+0x618>
80002ba4:	1f9e8663          	beq	t4,s9,80002d90 <qlz_compress+0x594>
80002ba8:	000e0c93          	mv	s9,t3
80002bac:	001e0e13          	addi	t3,t3,1
80002bb0:	01c80c33          	add	s8,a6,t3
80002bb4:	01c70bb3          	add	s7,a4,t3
80002bb8:	000c4c03          	lbu	s8,0(s8)
80002bbc:	000bcb83          	lbu	s7,0(s7)
80002bc0:	ff7c02e3          	beq	s8,s7,80002ba4 <qlz_compress+0x3a8>
80002bc4:	e3cff6e3          	bgeu	t6,t3,800029f0 <qlz_compress+0x1f4>
80002bc8:	00050393          	mv	t2,a0
80002bcc:	000e0f93          	mv	t6,t3
80002bd0:	e21ff06f          	j	800029f0 <qlz_compress+0x1f4>
80002bd4:	00154803          	lbu	a6,1(a0) # 20000001 <_entry_offset+0x20000001>
80002bd8:	00254e03          	lbu	t3,2(a0)
80002bdc:	00054f83          	lbu	t6,0(a0)
80002be0:	00881813          	slli	a6,a6,0x8
80002be4:	010e1e13          	slli	t3,t3,0x10
80002be8:	01c86833          	or	a6,a6,t3
80002bec:	01f86833          	or	a6,a6,t6
80002bf0:	00000f93          	li	t6,0
80002bf4:	dc581ae3          	bne	a6,t0,800029c8 <qlz_compress+0x1cc>
80002bf8:	00354e03          	lbu	t3,3(a0)
80002bfc:	00374803          	lbu	a6,3(a4)
80002c00:	00300f93          	li	t6,3
80002c04:	dd0e12e3          	bne	t3,a6,800029c8 <qlz_compress+0x1cc>
80002c08:	00474e03          	lbu	t3,4(a4)
80002c0c:	00454803          	lbu	a6,4(a0)
80002c10:	00400f93          	li	t6,4
80002c14:	db0e1ae3          	bne	t3,a6,800029c8 <qlz_compress+0x1cc>
80002c18:	db54f8e3          	bgeu	s1,s5,800029c8 <qlz_compress+0x1cc>
80002c1c:	000f8393          	mv	t2,t6
80002c20:	001f8f93          	addi	t6,t6,1 # 80000001 <_end+0xffff1001>
80002c24:	01f50e33          	add	t3,a0,t6
80002c28:	01f70833          	add	a6,a4,t6
80002c2c:	000e4e03          	lbu	t3,0(t3)
80002c30:	00084803          	lbu	a6,0(a6)
80002c34:	d90e1ae3          	bne	t3,a6,800029c8 <qlz_compress+0x1cc>
80002c38:	fe7e92e3          	bne	t4,t2,80002c1c <qlz_compress+0x420>
80002c3c:	000a8f93          	mv	t6,s5
80002c40:	d89ff06f          	j	800029c8 <qlz_compress+0x1cc>
80002c44:	010f9613          	slli	a2,t6,0x10
80002c48:	00b66633          	or	a2,a2,a1
80002c4c:	00865513          	srli	a0,a2,0x8
80002c50:	01065593          	srli	a1,a2,0x10
80002c54:	00cf0023          	sb	a2,0(t5)
80002c58:	00af00a3          	sb	a0,1(t5)
80002c5c:	00bf0123          	sb	a1,2(t5)
80002c60:	003f0f13          	addi	t5,t5,3
80002c64:	cf9ff06f          	j	8000295c <qlz_compress+0x160>
80002c68:	00900793          	li	a5,9
80002c6c:	00f12a23          	sw	a5,20(sp)
80002c70:	bf1ff06f          	j	80002860 <qlz_compress+0x64>
80002c74:	02c10813          	addi	a6,sp,44
80002c78:	00059c63          	bnez	a1,80002c90 <qlz_compress+0x494>
80002c7c:	00030513          	mv	a0,t1
80002c80:	00135313          	srli	t1,t1,0x1
80002c84:	00137713          	andi	a4,t1,1
80002c88:	fe070ae3          	beqz	a4,80002c7c <qlz_compress+0x480>
80002c8c:	00255513          	srli	a0,a0,0x2
80002c90:	80000737          	lui	a4,0x80000
80002c94:	00e56533          	or	a0,a0,a4
80002c98:	02a12623          	sw	a0,44(sp)
80002c9c:	03010613          	addi	a2,sp,48
80002ca0:	00084703          	lbu	a4,0(a6)
80002ca4:	00180813          	addi	a6,a6,1
80002ca8:	00178793          	addi	a5,a5,1
80002cac:	fee78fa3          	sb	a4,-1(a5)
80002cb0:	ff0618e3          	bne	a2,a6,80002ca0 <qlz_compress+0x4a4>
80002cb4:	00c12783          	lw	a5,12(sp)
80002cb8:	40ff0533          	sub	a0,t5,a5
80002cbc:	00900793          	li	a5,9
80002cc0:	00f55463          	bge	a0,a5,80002cc8 <qlz_compress+0x4cc>
80002cc4:	00900513          	li	a0,9
80002cc8:	01412783          	lw	a5,20(sp)
80002ccc:	00f50533          	add	a0,a0,a5
80002cd0:	00100793          	li	a5,1
80002cd4:	0006a023          	sw	zero,0(a3)
80002cd8:	01412683          	lw	a3,20(sp)
80002cdc:	00300713          	li	a4,3
80002ce0:	0ce68063          	beq	a3,a4,80002da0 <qlz_compress+0x5a4>
80002ce4:	01012703          	lw	a4,16(sp)
80002ce8:	0027e793          	ori	a5,a5,2
80002cec:	02c10813          	addi	a6,sp,44
80002cf0:	00f70023          	sb	a5,0(a4) # 80000000 <_end+0xffff1000>
80002cf4:	02a12623          	sw	a0,44(sp)
80002cf8:	00080793          	mv	a5,a6
80002cfc:	00170713          	addi	a4,a4,1
80002d00:	03010613          	addi	a2,sp,48
80002d04:	0007c683          	lbu	a3,0(a5)
80002d08:	00178793          	addi	a5,a5,1
80002d0c:	00170713          	addi	a4,a4,1
80002d10:	fed70fa3          	sb	a3,-1(a4)
80002d14:	fef618e3          	bne	a2,a5,80002d04 <qlz_compress+0x508>
80002d18:	01812783          	lw	a5,24(sp)
80002d1c:	03010693          	addi	a3,sp,48
80002d20:	02f12623          	sw	a5,44(sp)
80002d24:	01012783          	lw	a5,16(sp)
80002d28:	00578793          	addi	a5,a5,5
80002d2c:	00084703          	lbu	a4,0(a6)
80002d30:	00180813          	addi	a6,a6,1
80002d34:	00178793          	addi	a5,a5,1
80002d38:	fee78fa3          	sb	a4,-1(a5)
80002d3c:	fed818e3          	bne	a6,a3,80002d2c <qlz_compress+0x530>
80002d40:	01012783          	lw	a5,16(sp)
80002d44:	0007c783          	lbu	a5,0(a5)
80002d48:	01012703          	lw	a4,16(sp)
80002d4c:	0487e793          	ori	a5,a5,72
80002d50:	00f70023          	sb	a5,0(a4)
80002d54:	06c12083          	lw	ra,108(sp)
80002d58:	06812403          	lw	s0,104(sp)
80002d5c:	06412483          	lw	s1,100(sp)
80002d60:	06012903          	lw	s2,96(sp)
80002d64:	05c12983          	lw	s3,92(sp)
80002d68:	05812a03          	lw	s4,88(sp)
80002d6c:	05412a83          	lw	s5,84(sp)
80002d70:	05012b03          	lw	s6,80(sp)
80002d74:	04c12b83          	lw	s7,76(sp)
80002d78:	04812c03          	lw	s8,72(sp)
80002d7c:	04412c83          	lw	s9,68(sp)
80002d80:	04012d03          	lw	s10,64(sp)
80002d84:	03c12d83          	lw	s11,60(sp)
80002d88:	07010113          	addi	sp,sp,112
80002d8c:	00008067          	ret
80002d90:	000a8e13          	mv	t3,s5
80002d94:	e31ff06f          	j	80002bc4 <qlz_compress+0x3c8>
80002d98:	00000513          	li	a0,0
80002d9c:	fb9ff06f          	j	80002d54 <qlz_compress+0x558>
80002da0:	01012703          	lw	a4,16(sp)
80002da4:	01812683          	lw	a3,24(sp)
80002da8:	00a700a3          	sb	a0,1(a4)
80002dac:	00d70123          	sb	a3,2(a4)
80002db0:	f99ff06f          	j	80002d48 <qlz_compress+0x54c>
80002db4:	08098c63          	beqz	s3,80002e4c <qlz_compress+0x650>
80002db8:	01812603          	lw	a2,24(sp)
80002dbc:	00c12703          	lw	a4,12(sp)
80002dc0:	00c987b3          	add	a5,s3,a2
80002dc4:	02f77a63          	bgeu	a4,a5,80002df8 <qlz_compress+0x5fc>
80002dc8:	02e9f863          	bgeu	s3,a4,80002df8 <qlz_compress+0x5fc>
80002dcc:	00c70733          	add	a4,a4,a2
80002dd0:	fff7c603          	lbu	a2,-1(a5)
80002dd4:	fff78793          	addi	a5,a5,-1
80002dd8:	fff70713          	addi	a4,a4,-1
80002ddc:	00c70023          	sb	a2,0(a4)
80002de0:	fef998e3          	bne	s3,a5,80002dd0 <qlz_compress+0x5d4>
80002de4:	01412783          	lw	a5,20(sp)
80002de8:	01812703          	lw	a4,24(sp)
80002dec:	00e78533          	add	a0,a5,a4
80002df0:	00000793          	li	a5,0
80002df4:	ee1ff06f          	j	80002cd4 <qlz_compress+0x4d8>
80002df8:	00c12703          	lw	a4,12(sp)
80002dfc:	0009c603          	lbu	a2,0(s3)
80002e00:	00198993          	addi	s3,s3,1
80002e04:	00170713          	addi	a4,a4,1
80002e08:	fec70fa3          	sb	a2,-1(a4)
80002e0c:	ff3798e3          	bne	a5,s3,80002dfc <qlz_compress+0x600>
80002e10:	fd5ff06f          	j	80002de4 <qlz_compress+0x5e8>
80002e14:	00300e13          	li	t3,3
80002e18:	dadff06f          	j	80002bc4 <qlz_compress+0x3c8>
80002e1c:	01c12783          	lw	a5,28(sp)
80002e20:	0137ee63          	bltu	a5,s3,80002e3c <qlz_compress+0x640>
80002e24:	00c12783          	lw	a5,12(sp)
80002e28:	00098713          	mv	a4,s3
80002e2c:	80000337          	lui	t1,0x80000
80002e30:	400002b7          	lui	t0,0x40000
80002e34:	00000613          	li	a2,0
80002e38:	c49ff06f          	j	80002a80 <qlz_compress+0x284>
80002e3c:	00c12783          	lw	a5,12(sp)
80002e40:	80000337          	lui	t1,0x80000
80002e44:	02c10813          	addi	a6,sp,44
80002e48:	e35ff06f          	j	80002c7c <qlz_compress+0x480>
80002e4c:	989ff0ef          	jal	ra,800027d4 <bench_memcpy.part.0>

80002e50 <bench_md5_prepare>:
80002e50:	00004797          	auipc	a5,0x4
80002e54:	c007a783          	lw	a5,-1024(a5) # 80006a50 <setting>
80002e58:	0007a783          	lw	a5,0(a5)
80002e5c:	ff010113          	addi	sp,sp,-16
80002e60:	00912223          	sw	s1,4(sp)
80002e64:	00100513          	li	a0,1
80002e68:	00004497          	auipc	s1,0x4
80002e6c:	c0448493          	addi	s1,s1,-1020 # 80006a6c <N>
80002e70:	00f4a023          	sw	a5,0(s1)
80002e74:	00112623          	sw	ra,12(sp)
80002e78:	01212023          	sw	s2,0(sp)
80002e7c:	00812423          	sw	s0,8(sp)
80002e80:	c98fe0ef          	jal	ra,80001318 <bench_srand>
80002e84:	0004a503          	lw	a0,0(s1)
80002e88:	00004917          	auipc	s2,0x4
80002e8c:	bec90913          	addi	s2,s2,-1044 # 80006a74 <str>
80002e90:	be0fe0ef          	jal	ra,80001270 <bench_alloc>
80002e94:	0004a783          	lw	a5,0(s1)
80002e98:	00a92023          	sw	a0,0(s2)
80002e9c:	02f05263          	blez	a5,80002ec0 <bench_md5_prepare+0x70>
80002ea0:	00000413          	li	s0,0
80002ea4:	c88fe0ef          	jal	ra,8000132c <bench_rand>
80002ea8:	00092783          	lw	a5,0(s2)
80002eac:	0004a703          	lw	a4,0(s1)
80002eb0:	008787b3          	add	a5,a5,s0
80002eb4:	00a78023          	sb	a0,0(a5)
80002eb8:	00140413          	addi	s0,s0,1
80002ebc:	fee444e3          	blt	s0,a4,80002ea4 <bench_md5_prepare+0x54>
80002ec0:	01000513          	li	a0,16
80002ec4:	bacfe0ef          	jal	ra,80001270 <bench_alloc>
80002ec8:	00c12083          	lw	ra,12(sp)
80002ecc:	00812403          	lw	s0,8(sp)
80002ed0:	00004797          	auipc	a5,0x4
80002ed4:	baa7a023          	sw	a0,-1120(a5) # 80006a70 <digest>
80002ed8:	00412483          	lw	s1,4(sp)
80002edc:	00012903          	lw	s2,0(sp)
80002ee0:	01010113          	addi	sp,sp,16
80002ee4:	00008067          	ret

80002ee8 <bench_md5_run>:
80002ee8:	00004617          	auipc	a2,0x4
80002eec:	b8462603          	lw	a2,-1148(a2) # 80006a6c <N>
80002ef0:	f9010113          	addi	sp,sp,-112
80002ef4:	00160793          	addi	a5,a2,1
80002ef8:	07212223          	sw	s2,100(sp)
80002efc:	05412e23          	sw	s4,92(sp)
80002f00:	00004917          	auipc	s2,0x4
80002f04:	b7492903          	lw	s2,-1164(s2) # 80006a74 <str>
80002f08:	06812623          	sw	s0,108(sp)
80002f0c:	06912423          	sw	s1,104(sp)
80002f10:	07312023          	sw	s3,96(sp)
80002f14:	05512c23          	sw	s5,88(sp)
80002f18:	05612a23          	sw	s6,84(sp)
80002f1c:	05712823          	sw	s7,80(sp)
80002f20:	05812623          	sw	s8,76(sp)
80002f24:	05912423          	sw	s9,72(sp)
80002f28:	05a12223          	sw	s10,68(sp)
80002f2c:	03f7f693          	andi	a3,a5,63
80002f30:	03800713          	li	a4,56
80002f34:	00004a17          	auipc	s4,0x4
80002f38:	b3ca2a03          	lw	s4,-1220(s4) # 80006a70 <digest>
80002f3c:	00c905b3          	add	a1,s2,a2
80002f40:	00078f13          	mv	t5,a5
80002f44:	2ce68663          	beq	a3,a4,80003210 <bench_md5_run+0x328>
80002f48:	03800693          	li	a3,56
80002f4c:	001f0f13          	addi	t5,t5,1
80002f50:	03ff7713          	andi	a4,t5,63
80002f54:	fed71ce3          	bne	a4,a3,80002f4c <bench_md5_run+0x64>
80002f58:	f8000713          	li	a4,-128
80002f5c:	00e58023          	sb	a4,0(a1)
80002f60:	2be7fc63          	bgeu	a5,t5,80003218 <bench_md5_run+0x330>
80002f64:	00f907b3          	add	a5,s2,a5
80002f68:	01e90733          	add	a4,s2,t5
80002f6c:	00078023          	sb	zero,0(a5)
80002f70:	00178793          	addi	a5,a5,1
80002f74:	fef71ce3          	bne	a4,a5,80002f6c <bench_md5_run+0x84>
80002f78:	00361693          	slli	a3,a2,0x3
80002f7c:	0086d813          	srli	a6,a3,0x8
80002f80:	0106d513          	srli	a0,a3,0x10
80002f84:	0186d593          	srli	a1,a3,0x18
80002f88:	004f0793          	addi	a5,t5,4
80002f8c:	00d70023          	sb	a3,0(a4)
80002f90:	010700a3          	sb	a6,1(a4)
80002f94:	00a70123          	sb	a0,2(a4)
80002f98:	00b701a3          	sb	a1,3(a4)
80002f9c:	00f907b3          	add	a5,s2,a5
80002fa0:	01d65613          	srli	a2,a2,0x1d
80002fa4:	103252b7          	lui	t0,0x10325
80002fa8:	98bae3b7          	lui	t2,0x98bae
80002fac:	efcdb437          	lui	s0,0xefcdb
80002fb0:	674524b7          	lui	s1,0x67452
80002fb4:	d76aa9b7          	lui	s3,0xd76aa
80002fb8:	00c78023          	sb	a2,0(a5)
80002fbc:	000780a3          	sb	zero,1(a5)
80002fc0:	00078123          	sb	zero,2(a5)
80002fc4:	000781a3          	sb	zero,3(a5)
80002fc8:	47628293          	addi	t0,t0,1142 # 10325476 <_entry_offset+0x10325476>
80002fcc:	cfe38393          	addi	t2,t2,-770 # 98badcfe <_end+0x18b9ecfe>
80002fd0:	b8940413          	addi	s0,s0,-1143 # efcdab89 <_end+0x6fccbb89>
80002fd4:	30148493          	addi	s1,s1,769 # 67452301 <_entry_offset+0x67452301>
80002fd8:	00000f93          	li	t6,0
80002fdc:	47898993          	addi	s3,s3,1144 # d76aa478 <_end+0x5769b478>
80002fe0:	00f00b13          	li	s6,15
80002fe4:	01f00b93          	li	s7,31
80002fe8:	02f00e93          	li	t4,47
80002fec:	03f00a93          	li	s5,63
80002ff0:	01f907b3          	add	a5,s2,t6
80002ff4:	00010713          	mv	a4,sp
80002ff8:	0017c583          	lbu	a1,1(a5)
80002ffc:	0007c503          	lbu	a0,0(a5)
80003000:	0027c603          	lbu	a2,2(a5)
80003004:	0037c683          	lbu	a3,3(a5)
80003008:	00859593          	slli	a1,a1,0x8
8000300c:	00a5e5b3          	or	a1,a1,a0
80003010:	01061613          	slli	a2,a2,0x10
80003014:	00b66633          	or	a2,a2,a1
80003018:	01869693          	slli	a3,a3,0x18
8000301c:	00c6e6b3          	or	a3,a3,a2
80003020:	00d72023          	sw	a3,0(a4)
80003024:	00470713          	addi	a4,a4,4
80003028:	04010693          	addi	a3,sp,64
8000302c:	00478793          	addi	a5,a5,4
80003030:	fce694e3          	bne	a3,a4,80002ff8 <bench_md5_run+0x110>
80003034:	00048c93          	mv	s9,s1
80003038:	00098d13          	mv	s10,s3
8000303c:	00000813          	li	a6,0
80003040:	00003597          	auipc	a1,0x3
80003044:	01458593          	addi	a1,a1,20 # 80006054 <k+0x4>
80003048:	00003617          	auipc	a2,0x3
8000304c:	10c60613          	addi	a2,a2,268 # 80006154 <r+0x4>
80003050:	00040713          	mv	a4,s0
80003054:	00028513          	mv	a0,t0
80003058:	00038693          	mv	a3,t2
8000305c:	00000e13          	li	t3,0
80003060:	00100893          	li	a7,1
80003064:	00500313          	li	t1,5
80003068:	00700c13          	li	s8,7
8000306c:	01ac8cb3          	add	s9,s9,s10
80003070:	070b7e63          	bgeu	s6,a6,800030ec <bench_md5_run+0x204>
80003074:	00e6c7b3          	xor	a5,a3,a4
80003078:	00a7f7b3          	and	a5,a5,a0
8000307c:	090be263          	bltu	s7,a6,80003100 <bench_md5_run+0x218>
80003080:	00d7c7b3          	xor	a5,a5,a3
80003084:	00f8fd13          	andi	s10,a7,15
80003088:	002d1d13          	slli	s10,s10,0x2
8000308c:	040d0d13          	addi	s10,s10,64
80003090:	002d0d33          	add	s10,s10,sp
80003094:	fc0d2d03          	lw	s10,-64(s10)
80003098:	019787b3          	add	a5,a5,s9
8000309c:	41800cb3          	neg	s9,s8
800030a0:	01a787b3          	add	a5,a5,s10
800030a4:	01879c33          	sll	s8,a5,s8
800030a8:	0197d7b3          	srl	a5,a5,s9
800030ac:	00fc67b3          	or	a5,s8,a5
800030b0:	00e787b3          	add	a5,a5,a4
800030b4:	0005ad03          	lw	s10,0(a1)
800030b8:	00050c93          	mv	s9,a0
800030bc:	00180813          	addi	a6,a6,1
800030c0:	00062c03          	lw	s8,0(a2)
800030c4:	00068513          	mv	a0,a3
800030c8:	00458593          	addi	a1,a1,4
800030cc:	00070693          	mv	a3,a4
800030d0:	00460613          	addi	a2,a2,4
800030d4:	00330313          	addi	t1,t1,3 # 80000003 <_end+0xffff1003>
800030d8:	00588893          	addi	a7,a7,5
800030dc:	007e0e13          	addi	t3,t3,7
800030e0:	00078713          	mv	a4,a5
800030e4:	01ac8cb3          	add	s9,s9,s10
800030e8:	f90b66e3          	bltu	s6,a6,80003074 <bench_md5_run+0x18c>
800030ec:	00a6c7b3          	xor	a5,a3,a0
800030f0:	00e7f7b3          	and	a5,a5,a4
800030f4:	00a7c7b3          	xor	a5,a5,a0
800030f8:	00080d13          	mv	s10,a6
800030fc:	f8dff06f          	j	80003088 <bench_md5_run+0x1a0>
80003100:	00a6c7b3          	xor	a5,a3,a0
80003104:	010ee863          	bltu	t4,a6,80003114 <bench_md5_run+0x22c>
80003108:	00e7c7b3          	xor	a5,a5,a4
8000310c:	00f37d13          	andi	s10,t1,15
80003110:	f79ff06f          	j	80003088 <bench_md5_run+0x1a0>
80003114:	00fe7d13          	andi	s10,t3,15
80003118:	002d1d13          	slli	s10,s10,0x2
8000311c:	040d0793          	addi	a5,s10,64
80003120:	00278d33          	add	s10,a5,sp
80003124:	fc0d2d03          	lw	s10,-64(s10)
80003128:	fff54793          	not	a5,a0
8000312c:	00e7e7b3          	or	a5,a5,a4
80003130:	00d7c7b3          	xor	a5,a5,a3
80003134:	01a787b3          	add	a5,a5,s10
80003138:	019787b3          	add	a5,a5,s9
8000313c:	41800cb3          	neg	s9,s8
80003140:	01879c33          	sll	s8,a5,s8
80003144:	0197d7b3          	srl	a5,a5,s9
80003148:	0187e7b3          	or	a5,a5,s8
8000314c:	00e787b3          	add	a5,a5,a4
80003150:	f75812e3          	bne	a6,s5,800030b4 <bench_md5_run+0x1cc>
80003154:	040f8f93          	addi	t6,t6,64
80003158:	00a484b3          	add	s1,s1,a0
8000315c:	00f40433          	add	s0,s0,a5
80003160:	00e383b3          	add	t2,t2,a4
80003164:	00d282b3          	add	t0,t0,a3
80003168:	e9efe4e3          	bltu	t6,t5,80002ff0 <bench_md5_run+0x108>
8000316c:	0084df13          	srli	t5,s1,0x8
80003170:	0104de93          	srli	t4,s1,0x10
80003174:	0184de13          	srli	t3,s1,0x18
80003178:	00845313          	srli	t1,s0,0x8
8000317c:	01045893          	srli	a7,s0,0x10
80003180:	01845813          	srli	a6,s0,0x18
80003184:	0083d513          	srli	a0,t2,0x8
80003188:	0103d593          	srli	a1,t2,0x10
8000318c:	0183d613          	srli	a2,t2,0x18
80003190:	0082d693          	srli	a3,t0,0x8
80003194:	0102d713          	srli	a4,t0,0x10
80003198:	0182d793          	srli	a5,t0,0x18
8000319c:	009a0023          	sb	s1,0(s4)
800031a0:	01ea00a3          	sb	t5,1(s4)
800031a4:	01da0123          	sb	t4,2(s4)
800031a8:	01ca01a3          	sb	t3,3(s4)
800031ac:	008a0223          	sb	s0,4(s4)
800031b0:	006a02a3          	sb	t1,5(s4)
800031b4:	011a0323          	sb	a7,6(s4)
800031b8:	010a03a3          	sb	a6,7(s4)
800031bc:	007a0423          	sb	t2,8(s4)
800031c0:	00aa04a3          	sb	a0,9(s4)
800031c4:	00ba0523          	sb	a1,10(s4)
800031c8:	00ca05a3          	sb	a2,11(s4)
800031cc:	005a0623          	sb	t0,12(s4)
800031d0:	00da06a3          	sb	a3,13(s4)
800031d4:	00ea0723          	sb	a4,14(s4)
800031d8:	00fa07a3          	sb	a5,15(s4)
800031dc:	06c12403          	lw	s0,108(sp)
800031e0:	06812483          	lw	s1,104(sp)
800031e4:	06412903          	lw	s2,100(sp)
800031e8:	06012983          	lw	s3,96(sp)
800031ec:	05c12a03          	lw	s4,92(sp)
800031f0:	05812a83          	lw	s5,88(sp)
800031f4:	05412b03          	lw	s6,84(sp)
800031f8:	05012b83          	lw	s7,80(sp)
800031fc:	04c12c03          	lw	s8,76(sp)
80003200:	04812c83          	lw	s9,72(sp)
80003204:	04412d03          	lw	s10,68(sp)
80003208:	07010113          	addi	sp,sp,112
8000320c:	00008067          	ret
80003210:	f8000793          	li	a5,-128
80003214:	00f58023          	sb	a5,0(a1)
80003218:	01e90733          	add	a4,s2,t5
8000321c:	d5dff06f          	j	80002f78 <bench_md5_run+0x90>

80003220 <bench_md5_validate>:
80003220:	00004517          	auipc	a0,0x4
80003224:	85052503          	lw	a0,-1968(a0) # 80006a70 <digest>
80003228:	ff010113          	addi	sp,sp,-16
8000322c:	01050593          	addi	a1,a0,16
80003230:	00112623          	sw	ra,12(sp)
80003234:	92cfe0ef          	jal	ra,80001360 <checksum>
80003238:	00004797          	auipc	a5,0x4
8000323c:	8187a783          	lw	a5,-2024(a5) # 80006a50 <setting>
80003240:	00c7a783          	lw	a5,12(a5)
80003244:	00c12083          	lw	ra,12(sp)
80003248:	40a78533          	sub	a0,a5,a0
8000324c:	00153513          	seqz	a0,a0
80003250:	01010113          	addi	sp,sp,16
80003254:	00008067          	ret

80003258 <bench_fib_prepare>:
80003258:	00003797          	auipc	a5,0x3
8000325c:	7f87a783          	lw	a5,2040(a5) # 80006a50 <setting>
80003260:	0007a783          	lw	a5,0(a5)
80003264:	ff010113          	addi	sp,sp,-16
80003268:	00812423          	sw	s0,8(sp)
8000326c:	02f78433          	mul	s0,a5,a5
80003270:	00112623          	sw	ra,12(sp)
80003274:	00004717          	auipc	a4,0x4
80003278:	80f72423          	sw	a5,-2040(a4) # 80006a7c <M>
8000327c:	00241413          	slli	s0,s0,0x2
80003280:	00040513          	mv	a0,s0
80003284:	fedfd0ef          	jal	ra,80001270 <bench_alloc>
80003288:	00050793          	mv	a5,a0
8000328c:	00040513          	mv	a0,s0
80003290:	00003717          	auipc	a4,0x3
80003294:	7ef72423          	sw	a5,2024(a4) # 80006a78 <A>
80003298:	fd9fd0ef          	jal	ra,80001270 <bench_alloc>
8000329c:	00050793          	mv	a5,a0
800032a0:	00040513          	mv	a0,s0
800032a4:	00003717          	auipc	a4,0x3
800032a8:	7cf72e23          	sw	a5,2012(a4) # 80006a80 <T>
800032ac:	fc5fd0ef          	jal	ra,80001270 <bench_alloc>
800032b0:	00050793          	mv	a5,a0
800032b4:	00040513          	mv	a0,s0
800032b8:	00003717          	auipc	a4,0x3
800032bc:	7cf72623          	sw	a5,1996(a4) # 80006a84 <ans>
800032c0:	fb1fd0ef          	jal	ra,80001270 <bench_alloc>
800032c4:	00c12083          	lw	ra,12(sp)
800032c8:	00812403          	lw	s0,8(sp)
800032cc:	00003797          	auipc	a5,0x3
800032d0:	7aa7ae23          	sw	a0,1980(a5) # 80006a88 <tmp>
800032d4:	01010113          	addi	sp,sp,16
800032d8:	00008067          	ret

800032dc <bench_fib_run>:
800032dc:	fe010113          	addi	sp,sp,-32
800032e0:	00812e23          	sw	s0,28(sp)
800032e4:	00912c23          	sw	s1,24(sp)
800032e8:	01212a23          	sw	s2,20(sp)
800032ec:	01312823          	sw	s3,16(sp)
800032f0:	01412623          	sw	s4,12(sp)
800032f4:	01512423          	sw	s5,8(sp)
800032f8:	01612223          	sw	s6,4(sp)
800032fc:	01712023          	sw	s7,0(sp)
80003300:	00003317          	auipc	t1,0x3
80003304:	77c32303          	lw	t1,1916(t1) # 80006a7c <M>
80003308:	00003e17          	auipc	t3,0x3
8000330c:	778e2e03          	lw	t3,1912(t3) # 80006a80 <T>
80003310:	00003f97          	auipc	t6,0x3
80003314:	774faf83          	lw	t6,1908(t6) # 80006a84 <ans>
80003318:	24605063          	blez	t1,80003558 <bench_fib_run+0x27c>
8000331c:	00003417          	auipc	s0,0x3
80003320:	75c42403          	lw	s0,1884(s0) # 80006a78 <A>
80003324:	fff30393          	addi	t2,t1,-1
80003328:	00231813          	slli	a6,t1,0x2
8000332c:	00000f13          	li	t5,0
80003330:	00000893          	li	a7,0
80003334:	00000e93          	li	t4,0
80003338:	001e8e93          	addi	t4,t4,1 # 8001 <_entry_offset+0x8001>
8000333c:	01e40533          	add	a0,s0,t5
80003340:	01ee05b3          	add	a1,t3,t5
80003344:	01ef8633          	add	a2,t6,t5
80003348:	00000793          	li	a5,0
8000334c:	41178733          	sub	a4,a5,a7
80003350:	41d782b3          	sub	t0,a5,t4
80003354:	00173713          	seqz	a4,a4
80003358:	00178793          	addi	a5,a5,1
8000335c:	00100693          	li	a3,1
80003360:	01138463          	beq	t2,a7,80003368 <bench_fib_run+0x8c>
80003364:	0012b693          	seqz	a3,t0
80003368:	00d52023          	sw	a3,0(a0)
8000336c:	00d5a023          	sw	a3,0(a1)
80003370:	00e62023          	sw	a4,0(a2)
80003374:	00450513          	addi	a0,a0,4
80003378:	00458593          	addi	a1,a1,4
8000337c:	00460613          	addi	a2,a2,4
80003380:	fc6796e3          	bne	a5,t1,8000334c <bench_fib_run+0x70>
80003384:	00188893          	addi	a7,a7,1
80003388:	010f0f33          	add	t5,t5,a6
8000338c:	fbd316e3          	bne	t1,t4,80003338 <bench_fib_run+0x5c>
80003390:	00003297          	auipc	t0,0x3
80003394:	6f82a283          	lw	t0,1784(t0) # 80006a88 <tmp>
80003398:	40600eb3          	neg	t4,t1
8000339c:	80000f37          	lui	t5,0x80000
800033a0:	010f84b3          	add	s1,t6,a6
800033a4:	01028433          	add	s0,t0,a6
800033a8:	01f00393          	li	t2,31
800033ac:	fd3f4f13          	xori	t5,t5,-45
800033b0:	003e9e93          	slli	t4,t4,0x3
800033b4:	001f7793          	andi	a5,t5,1
800033b8:	0e079663          	bnez	a5,800034a4 <bench_fib_run+0x1c8>
800033bc:	0a605a63          	blez	t1,80003470 <bench_fib_run+0x194>
800033c0:	000e0a93          	mv	s5,t3
800033c4:	00028b93          	mv	s7,t0
800033c8:	000e0a13          	mv	s4,t3
800033cc:	00000b13          	li	s6,0
800033d0:	000e0993          	mv	s3,t3
800033d4:	000b8893          	mv	a7,s7
800033d8:	00000913          	li	s2,0
800033dc:	0008a023          	sw	zero,0(a7)
800033e0:	00098593          	mv	a1,s3
800033e4:	000a0613          	mv	a2,s4
800033e8:	00000693          	li	a3,0
800033ec:	00000713          	li	a4,0
800033f0:	00062783          	lw	a5,0(a2)
800033f4:	0005a503          	lw	a0,0(a1)
800033f8:	00170713          	addi	a4,a4,1
800033fc:	00460613          	addi	a2,a2,4
80003400:	02a787b3          	mul	a5,a5,a0
80003404:	010585b3          	add	a1,a1,a6
80003408:	00f686b3          	add	a3,a3,a5
8000340c:	00d8a023          	sw	a3,0(a7)
80003410:	fe6740e3          	blt	a4,t1,800033f0 <bench_fib_run+0x114>
80003414:	00190913          	addi	s2,s2,1
80003418:	00488893          	addi	a7,a7,4
8000341c:	00498993          	addi	s3,s3,4
80003420:	fa694ee3          	blt	s2,t1,800033dc <bench_fib_run+0x100>
80003424:	001b0b13          	addi	s6,s6,1 # 8001 <_entry_offset+0x8001>
80003428:	010a0a33          	add	s4,s4,a6
8000342c:	010b8bb3          	add	s7,s7,a6
80003430:	fa6b40e3          	blt	s6,t1,800033d0 <bench_fib_run+0xf4>
80003434:	00028513          	mv	a0,t0
80003438:	00000593          	li	a1,0
8000343c:	000a8693          	mv	a3,s5
80003440:	00050713          	mv	a4,a0
80003444:	00000793          	li	a5,0
80003448:	00072603          	lw	a2,0(a4)
8000344c:	00178793          	addi	a5,a5,1
80003450:	00470713          	addi	a4,a4,4
80003454:	00c6a023          	sw	a2,0(a3)
80003458:	00468693          	addi	a3,a3,4
8000345c:	fe67c6e3          	blt	a5,t1,80003448 <bench_fib_run+0x16c>
80003460:	00158593          	addi	a1,a1,1
80003464:	01050533          	add	a0,a0,a6
80003468:	010a8ab3          	add	s5,s5,a6
8000346c:	fc65c8e3          	blt	a1,t1,8000343c <bench_fib_run+0x160>
80003470:	fff38393          	addi	t2,t2,-1
80003474:	401f5f13          	srai	t5,t5,0x1
80003478:	f2039ee3          	bnez	t2,800033b4 <bench_fib_run+0xd8>
8000347c:	01c12403          	lw	s0,28(sp)
80003480:	01812483          	lw	s1,24(sp)
80003484:	01412903          	lw	s2,20(sp)
80003488:	01012983          	lw	s3,16(sp)
8000348c:	00c12a03          	lw	s4,12(sp)
80003490:	00812a83          	lw	s5,8(sp)
80003494:	00412b03          	lw	s6,4(sp)
80003498:	00012b83          	lw	s7,0(sp)
8000349c:	02010113          	addi	sp,sp,32
800034a0:	00008067          	ret
800034a4:	fc6056e3          	blez	t1,80003470 <bench_fib_run+0x194>
800034a8:	00028b13          	mv	s6,t0
800034ac:	00048893          	mv	a7,s1
800034b0:	000f8a13          	mv	s4,t6
800034b4:	00000a93          	li	s5,0
800034b8:	000e0993          	mv	s3,t3
800034bc:	000b0513          	mv	a0,s6
800034c0:	00000913          	li	s2,0
800034c4:	00052023          	sw	zero,0(a0)
800034c8:	00098613          	mv	a2,s3
800034cc:	000a0793          	mv	a5,s4
800034d0:	00000693          	li	a3,0
800034d4:	0007a703          	lw	a4,0(a5)
800034d8:	00062583          	lw	a1,0(a2)
800034dc:	00478793          	addi	a5,a5,4
800034e0:	01060633          	add	a2,a2,a6
800034e4:	02b70733          	mul	a4,a4,a1
800034e8:	00e686b3          	add	a3,a3,a4
800034ec:	00d52023          	sw	a3,0(a0)
800034f0:	ff1792e3          	bne	a5,a7,800034d4 <bench_fib_run+0x1f8>
800034f4:	00190913          	addi	s2,s2,1
800034f8:	00450513          	addi	a0,a0,4
800034fc:	00498993          	addi	s3,s3,4
80003500:	fc6912e3          	bne	s2,t1,800034c4 <bench_fib_run+0x1e8>
80003504:	001a8a93          	addi	s5,s5,1
80003508:	010a0a33          	add	s4,s4,a6
8000350c:	010788b3          	add	a7,a5,a6
80003510:	010b0b33          	add	s6,s6,a6
80003514:	fa6a92e3          	bne	s5,t1,800034b8 <bench_fib_run+0x1dc>
80003518:	00040613          	mv	a2,s0
8000351c:	000f8513          	mv	a0,t6
80003520:	00000593          	li	a1,0
80003524:	410608b3          	sub	a7,a2,a6
80003528:	00050713          	mv	a4,a0
8000352c:	00088793          	mv	a5,a7
80003530:	0007a683          	lw	a3,0(a5)
80003534:	00478793          	addi	a5,a5,4
80003538:	00470713          	addi	a4,a4,4
8000353c:	fed72e23          	sw	a3,-4(a4)
80003540:	fef618e3          	bne	a2,a5,80003530 <bench_fib_run+0x254>
80003544:	00158593          	addi	a1,a1,1
80003548:	01050533          	add	a0,a0,a6
8000354c:	41d88633          	sub	a2,a7,t4
80003550:	fc659ae3          	bne	a1,t1,80003524 <bench_fib_run+0x248>
80003554:	e6dff06f          	j	800033c0 <bench_fib_run+0xe4>
80003558:	00231813          	slli	a6,t1,0x2
8000355c:	e35ff06f          	j	80003390 <bench_fib_run+0xb4>

80003560 <bench_fib_validate>:
80003560:	00003797          	auipc	a5,0x3
80003564:	51c7a783          	lw	a5,1308(a5) # 80006a7c <M>
80003568:	02f787b3          	mul	a5,a5,a5
8000356c:	00003717          	auipc	a4,0x3
80003570:	4e472703          	lw	a4,1252(a4) # 80006a50 <setting>
80003574:	00c72683          	lw	a3,12(a4)
80003578:	00003717          	auipc	a4,0x3
8000357c:	50c72703          	lw	a4,1292(a4) # 80006a84 <ans>
80003580:	fff78793          	addi	a5,a5,-1
80003584:	00279793          	slli	a5,a5,0x2
80003588:	00f707b3          	add	a5,a4,a5
8000358c:	0007a503          	lw	a0,0(a5)
80003590:	40d50533          	sub	a0,a0,a3
80003594:	00153513          	seqz	a0,a0
80003598:	00008067          	ret

8000359c <bench_sieve_prepare>:
8000359c:	00003797          	auipc	a5,0x3
800035a0:	4b47a783          	lw	a5,1204(a5) # 80006a50 <setting>
800035a4:	0007a783          	lw	a5,0(a5)
800035a8:	ff010113          	addi	sp,sp,-16
800035ac:	00812423          	sw	s0,8(sp)
800035b0:	41f7d513          	srai	a0,a5,0x1f
800035b4:	00757513          	andi	a0,a0,7
800035b8:	00f50533          	add	a0,a0,a5
800035bc:	40355513          	srai	a0,a0,0x3
800035c0:	00003417          	auipc	s0,0x3
800035c4:	4cc40413          	addi	s0,s0,1228 # 80006a8c <N>
800035c8:	08050513          	addi	a0,a0,128
800035cc:	00f42023          	sw	a5,0(s0)
800035d0:	00112623          	sw	ra,12(sp)
800035d4:	c9dfd0ef          	jal	ra,80001270 <bench_alloc>
800035d8:	00042783          	lw	a5,0(s0)
800035dc:	00003717          	auipc	a4,0x3
800035e0:	4aa72c23          	sw	a0,1208(a4) # 80006a94 <primes>
800035e4:	fe100693          	li	a3,-31
800035e8:	41f7d713          	srai	a4,a5,0x1f
800035ec:	01f77713          	andi	a4,a4,31
800035f0:	00f70733          	add	a4,a4,a5
800035f4:	02d7c063          	blt	a5,a3,80003614 <bench_sieve_prepare+0x78>
800035f8:	40575713          	srai	a4,a4,0x5
800035fc:	00000793          	li	a5,0
80003600:	fff00693          	li	a3,-1
80003604:	00d52023          	sw	a3,0(a0)
80003608:	00178793          	addi	a5,a5,1
8000360c:	00450513          	addi	a0,a0,4
80003610:	fef75ae3          	bge	a4,a5,80003604 <bench_sieve_prepare+0x68>
80003614:	00c12083          	lw	ra,12(sp)
80003618:	00812403          	lw	s0,8(sp)
8000361c:	01010113          	addi	sp,sp,16
80003620:	00008067          	ret

80003624 <bench_sieve_run>:
80003624:	00003517          	auipc	a0,0x3
80003628:	46852503          	lw	a0,1128(a0) # 80006a8c <N>
8000362c:	12a05063          	blez	a0,8000374c <bench_sieve_run+0x128>
80003630:	00003617          	auipc	a2,0x3
80003634:	46460613          	addi	a2,a2,1124 # 80006a94 <primes>
80003638:	00062683          	lw	a3,0(a2)
8000363c:	0006a703          	lw	a4,0(a3)
80003640:	00175713          	srli	a4,a4,0x1
80003644:	00177713          	andi	a4,a4,1
80003648:	00071c63          	bnez	a4,80003660 <bench_sieve_run+0x3c>
8000364c:	1140006f          	j	80003760 <bench_sieve_run+0x13c>
80003650:	0007a783          	lw	a5,0(a5)
80003654:	00e7d7b3          	srl	a5,a5,a4
80003658:	0017f793          	andi	a5,a5,1
8000365c:	10078063          	beqz	a5,8000375c <bench_sieve_run+0x138>
80003660:	00170713          	addi	a4,a4,1
80003664:	40575793          	srai	a5,a4,0x5
80003668:	00279793          	slli	a5,a5,0x2
8000366c:	00f687b3          	add	a5,a3,a5
80003670:	fee550e3          	bge	a0,a4,80003650 <bench_sieve_run+0x2c>
80003674:	00300793          	li	a5,3
80003678:	0ca7da63          	bge	a5,a0,8000374c <bench_sieve_run+0x128>
8000367c:	00062803          	lw	a6,0(a2)
80003680:	00400893          	li	a7,4
80003684:	00200593          	li	a1,2
80003688:	00100313          	li	t1,1
8000368c:	0140006f          	j	800036a0 <bench_sieve_run+0x7c>
80003690:	00158593          	addi	a1,a1,1
80003694:	02b587b3          	mul	a5,a1,a1
80003698:	00288893          	addi	a7,a7,2
8000369c:	06f54063          	blt	a0,a5,800036fc <bench_sieve_run+0xd8>
800036a0:	4055d793          	srai	a5,a1,0x5
800036a4:	00279793          	slli	a5,a5,0x2
800036a8:	00f807b3          	add	a5,a6,a5
800036ac:	0007a783          	lw	a5,0(a5)
800036b0:	00b7d7b3          	srl	a5,a5,a1
800036b4:	0017f793          	andi	a5,a5,1
800036b8:	fc078ce3          	beqz	a5,80003690 <bench_sieve_run+0x6c>
800036bc:	00088713          	mv	a4,a7
800036c0:	fd1548e3          	blt	a0,a7,80003690 <bench_sieve_run+0x6c>
800036c4:	40575793          	srai	a5,a4,0x5
800036c8:	00279793          	slli	a5,a5,0x2
800036cc:	00f807b3          	add	a5,a6,a5
800036d0:	0007a683          	lw	a3,0(a5)
800036d4:	00e31633          	sll	a2,t1,a4
800036d8:	fff64613          	not	a2,a2
800036dc:	00c6f6b3          	and	a3,a3,a2
800036e0:	00d7a023          	sw	a3,0(a5)
800036e4:	00b70733          	add	a4,a4,a1
800036e8:	fce55ee3          	bge	a0,a4,800036c4 <bench_sieve_run+0xa0>
800036ec:	00158593          	addi	a1,a1,1
800036f0:	02b587b3          	mul	a5,a1,a1
800036f4:	00288893          	addi	a7,a7,2
800036f8:	faf554e3          	bge	a0,a5,800036a0 <bench_sieve_run+0x7c>
800036fc:	00003797          	auipc	a5,0x3
80003700:	3807aa23          	sw	zero,916(a5) # 80006a90 <ans>
80003704:	00000613          	li	a2,0
80003708:	00000693          	li	a3,0
8000370c:	00200713          	li	a4,2
80003710:	40575793          	srai	a5,a4,0x5
80003714:	00279793          	slli	a5,a5,0x2
80003718:	00f807b3          	add	a5,a6,a5
8000371c:	0007a783          	lw	a5,0(a5)
80003720:	00e7d7b3          	srl	a5,a5,a4
80003724:	0017f793          	andi	a5,a5,1
80003728:	00170713          	addi	a4,a4,1
8000372c:	00078663          	beqz	a5,80003738 <bench_sieve_run+0x114>
80003730:	00168693          	addi	a3,a3,1
80003734:	00100613          	li	a2,1
80003738:	fce55ce3          	bge	a0,a4,80003710 <bench_sieve_run+0xec>
8000373c:	02060063          	beqz	a2,8000375c <bench_sieve_run+0x138>
80003740:	00003797          	auipc	a5,0x3
80003744:	34d7a823          	sw	a3,848(a5) # 80006a90 <ans>
80003748:	00008067          	ret
8000374c:	00003797          	auipc	a5,0x3
80003750:	3407a223          	sw	zero,836(a5) # 80006a90 <ans>
80003754:	00100793          	li	a5,1
80003758:	00a7c663          	blt	a5,a0,80003764 <bench_sieve_run+0x140>
8000375c:	00008067          	ret
80003760:	00008067          	ret
80003764:	00003817          	auipc	a6,0x3
80003768:	33082803          	lw	a6,816(a6) # 80006a94 <primes>
8000376c:	f99ff06f          	j	80003704 <bench_sieve_run+0xe0>

80003770 <bench_sieve_validate>:
80003770:	00003797          	auipc	a5,0x3
80003774:	2e07a783          	lw	a5,736(a5) # 80006a50 <setting>
80003778:	00c7a503          	lw	a0,12(a5)
8000377c:	00003797          	auipc	a5,0x3
80003780:	3147a783          	lw	a5,788(a5) # 80006a90 <ans>
80003784:	40f50533          	sub	a0,a0,a5
80003788:	00153513          	seqz	a0,a0
8000378c:	00008067          	ret

80003790 <_ZN5Dinic3DFSEii>:
80003790:	00c52283          	lw	t0,12(a0)
80003794:	f2010113          	addi	sp,sp,-224
80003798:	0c112e23          	sw	ra,220(sp)
8000379c:	0c812c23          	sw	s0,216(sp)
800037a0:	0c912a23          	sw	s1,212(sp)
800037a4:	0d212823          	sw	s2,208(sp)
800037a8:	0d312623          	sw	s3,204(sp)
800037ac:	0d412423          	sw	s4,200(sp)
800037b0:	0d512223          	sw	s5,196(sp)
800037b4:	0d612023          	sw	s6,192(sp)
800037b8:	0b712e23          	sw	s7,188(sp)
800037bc:	0b812c23          	sw	s8,184(sp)
800037c0:	0b912a23          	sw	s9,180(sp)
800037c4:	0ba12823          	sw	s10,176(sp)
800037c8:	0bb12623          	sw	s11,172(sp)
800037cc:	00c12e23          	sw	a2,28(sp)
800037d0:	56b28263          	beq	t0,a1,80003d34 <_ZN5Dinic3DFSEii+0x5a4>
800037d4:	00012c23          	sw	zero,24(sp)
800037d8:	56060263          	beqz	a2,80003d3c <_ZN5Dinic3DFSEii+0x5ac>
800037dc:	02052703          	lw	a4,32(a0)
800037e0:	00259f93          	slli	t6,a1,0x2
800037e4:	fff00793          	li	a5,-1
800037e8:	02e12423          	sw	a4,40(sp)
800037ec:	01f70733          	add	a4,a4,t6
800037f0:	00072e03          	lw	t3,0(a4)
800037f4:	54fe0463          	beq	t3,a5,80003d3c <_ZN5Dinic3DFSEii+0x5ac>
800037f8:	00512623          	sw	t0,12(sp)
800037fc:	fff00f13          	li	t5,-1
80003800:	01f12423          	sw	t6,8(sp)
80003804:	000e0293          	mv	t0,t3
80003808:	00050893          	mv	a7,a0
8000380c:	0180006f          	j	80003824 <_ZN5Dinic3DFSEii+0x94>
80003810:	0188a783          	lw	a5,24(a7)
80003814:	00229713          	slli	a4,t0,0x2
80003818:	00e787b3          	add	a5,a5,a4
8000381c:	0007a283          	lw	t0,0(a5)
80003820:	51e28e63          	beq	t0,t5,80003d3c <_ZN5Dinic3DFSEii+0x5ac>
80003824:	0108ae83          	lw	t4,16(a7)
80003828:	00429793          	slli	a5,t0,0x4
8000382c:	01c8a803          	lw	a6,28(a7)
80003830:	00fe8fb3          	add	t6,t4,a5
80003834:	004fa603          	lw	a2,4(t6)
80003838:	00812783          	lw	a5,8(sp)
8000383c:	00261693          	slli	a3,a2,0x2
80003840:	00f807b3          	add	a5,a6,a5
80003844:	0007a703          	lw	a4,0(a5)
80003848:	00d803b3          	add	t2,a6,a3
8000384c:	0003a783          	lw	a5,0(t2)
80003850:	00170713          	addi	a4,a4,1
80003854:	faf71ee3          	bne	a4,a5,80003810 <_ZN5Dinic3DFSEii+0x80>
80003858:	008fa583          	lw	a1,8(t6)
8000385c:	00cfa703          	lw	a4,12(t6)
80003860:	40e58733          	sub	a4,a1,a4
80003864:	01c12583          	lw	a1,28(sp)
80003868:	00e12823          	sw	a4,16(sp)
8000386c:	00e5d463          	bge	a1,a4,80003874 <_ZN5Dinic3DFSEii+0xe4>
80003870:	00b12823          	sw	a1,16(sp)
80003874:	00c12703          	lw	a4,12(sp)
80003878:	64c70863          	beq	a4,a2,80003ec8 <_ZN5Dinic3DFSEii+0x738>
8000387c:	01012703          	lw	a4,16(sp)
80003880:	f80708e3          	beqz	a4,80003810 <_ZN5Dinic3DFSEii+0x80>
80003884:	02812703          	lw	a4,40(sp)
80003888:	00d706b3          	add	a3,a4,a3
8000388c:	0006a303          	lw	t1,0(a3)
80003890:	f9e300e3          	beq	t1,t5,80003810 <_ZN5Dinic3DFSEii+0x80>
80003894:	00712a23          	sw	t2,20(sp)
80003898:	05f12023          	sw	t6,64(sp)
8000389c:	04512223          	sw	t0,68(sp)
800038a0:	02012223          	sw	zero,36(sp)
800038a4:	000e8393          	mv	t2,t4
800038a8:	00080293          	mv	t0,a6
800038ac:	00030f93          	mv	t6,t1
800038b0:	0200006f          	j	800038d0 <_ZN5Dinic3DFSEii+0x140>
800038b4:	0188a783          	lw	a5,24(a7)
800038b8:	002f9713          	slli	a4,t6,0x2
800038bc:	00e787b3          	add	a5,a5,a4
800038c0:	0007af83          	lw	t6,0(a5)
800038c4:	4bef8c63          	beq	t6,t5,80003d7c <_ZN5Dinic3DFSEii+0x5ec>
800038c8:	01412783          	lw	a5,20(sp)
800038cc:	0007a783          	lw	a5,0(a5)
800038d0:	004f9713          	slli	a4,t6,0x4
800038d4:	00e38eb3          	add	t4,t2,a4
800038d8:	004ea603          	lw	a2,4(t4)
800038dc:	00178793          	addi	a5,a5,1
800038e0:	00261693          	slli	a3,a2,0x2
800038e4:	00d28e33          	add	t3,t0,a3
800038e8:	000e2703          	lw	a4,0(t3)
800038ec:	fce794e3          	bne	a5,a4,800038b4 <_ZN5Dinic3DFSEii+0x124>
800038f0:	00cea783          	lw	a5,12(t4)
800038f4:	008ea583          	lw	a1,8(t4)
800038f8:	40f58333          	sub	t1,a1,a5
800038fc:	01012783          	lw	a5,16(sp)
80003900:	0067d463          	bge	a5,t1,80003908 <_ZN5Dinic3DFSEii+0x178>
80003904:	00078313          	mv	t1,a5
80003908:	00c12783          	lw	a5,12(sp)
8000390c:	64c78063          	beq	a5,a2,80003f4c <_ZN5Dinic3DFSEii+0x7bc>
80003910:	fa0302e3          	beqz	t1,800038b4 <_ZN5Dinic3DFSEii+0x124>
80003914:	02812783          	lw	a5,40(sp)
80003918:	00d786b3          	add	a3,a5,a3
8000391c:	0006a803          	lw	a6,0(a3)
80003920:	f9e80ae3          	beq	a6,t5,800038b4 <_ZN5Dinic3DFSEii+0x124>
80003924:	03c12023          	sw	t3,32(sp)
80003928:	05f12623          	sw	t6,76(sp)
8000392c:	02612a23          	sw	t1,52(sp)
80003930:	00038f93          	mv	t6,t2
80003934:	02012623          	sw	zero,44(sp)
80003938:	05d12423          	sw	t4,72(sp)
8000393c:	00028393          	mv	t2,t0
80003940:	00080313          	mv	t1,a6
80003944:	00088e13          	mv	t3,a7
80003948:	0200006f          	j	80003968 <_ZN5Dinic3DFSEii+0x1d8>
8000394c:	018e2783          	lw	a5,24(t3)
80003950:	00231713          	slli	a4,t1,0x2
80003954:	00e787b3          	add	a5,a5,a4
80003958:	0007a303          	lw	t1,0(a5)
8000395c:	47e30e63          	beq	t1,t5,80003dd8 <_ZN5Dinic3DFSEii+0x648>
80003960:	02012783          	lw	a5,32(sp)
80003964:	0007a703          	lw	a4,0(a5)
80003968:	00431793          	slli	a5,t1,0x4
8000396c:	00ff8eb3          	add	t4,t6,a5
80003970:	004ea603          	lw	a2,4(t4)
80003974:	00170713          	addi	a4,a4,1
80003978:	00261693          	slli	a3,a2,0x2
8000397c:	00d388b3          	add	a7,t2,a3
80003980:	0008a783          	lw	a5,0(a7)
80003984:	fcf714e3          	bne	a4,a5,8000394c <_ZN5Dinic3DFSEii+0x1bc>
80003988:	00cea703          	lw	a4,12(t4)
8000398c:	008ea583          	lw	a1,8(t4)
80003990:	40e58833          	sub	a6,a1,a4
80003994:	03412703          	lw	a4,52(sp)
80003998:	01075463          	bge	a4,a6,800039a0 <_ZN5Dinic3DFSEii+0x210>
8000399c:	00070813          	mv	a6,a4
800039a0:	00c12703          	lw	a4,12(sp)
800039a4:	60c70a63          	beq	a4,a2,80003fb8 <_ZN5Dinic3DFSEii+0x828>
800039a8:	fa0802e3          	beqz	a6,8000394c <_ZN5Dinic3DFSEii+0x1bc>
800039ac:	02812703          	lw	a4,40(sp)
800039b0:	00d706b3          	add	a3,a4,a3
800039b4:	0006a283          	lw	t0,0(a3)
800039b8:	f9e28ae3          	beq	t0,t5,8000394c <_ZN5Dinic3DFSEii+0x1bc>
800039bc:	05d12823          	sw	t4,80(sp)
800039c0:	00028413          	mv	s0,t0
800039c4:	02012823          	sw	zero,48(sp)
800039c8:	00038293          	mv	t0,t2
800039cc:	00088e93          	mv	t4,a7
800039d0:	04612a23          	sw	t1,84(sp)
800039d4:	000f8393          	mv	t2,t6
800039d8:	03012e23          	sw	a6,60(sp)
800039dc:	000e0993          	mv	s3,t3
800039e0:	01c0006f          	j	800039fc <_ZN5Dinic3DFSEii+0x26c>
800039e4:	0189a783          	lw	a5,24(s3)
800039e8:	00241413          	slli	s0,s0,0x2
800039ec:	00878433          	add	s0,a5,s0
800039f0:	00042403          	lw	s0,0(s0)
800039f4:	45e40e63          	beq	s0,t5,80003e50 <_ZN5Dinic3DFSEii+0x6c0>
800039f8:	000ea783          	lw	a5,0(t4)
800039fc:	00441713          	slli	a4,s0,0x4
80003a00:	00e38e33          	add	t3,t2,a4
80003a04:	004e2603          	lw	a2,4(t3)
80003a08:	00178793          	addi	a5,a5,1
80003a0c:	00261693          	slli	a3,a2,0x2
80003a10:	00d28fb3          	add	t6,t0,a3
80003a14:	000fa703          	lw	a4,0(t6)
80003a18:	fce796e3          	bne	a5,a4,800039e4 <_ZN5Dinic3DFSEii+0x254>
80003a1c:	00ce2783          	lw	a5,12(t3)
80003a20:	008e2583          	lw	a1,8(t3)
80003a24:	40f58833          	sub	a6,a1,a5
80003a28:	03c12783          	lw	a5,60(sp)
80003a2c:	4107ce63          	blt	a5,a6,80003e48 <_ZN5Dinic3DFSEii+0x6b8>
80003a30:	00c12783          	lw	a5,12(sp)
80003a34:	5cc78e63          	beq	a5,a2,80004010 <_ZN5Dinic3DFSEii+0x880>
80003a38:	fa0806e3          	beqz	a6,800039e4 <_ZN5Dinic3DFSEii+0x254>
80003a3c:	02812783          	lw	a5,40(sp)
80003a40:	00d786b3          	add	a3,a5,a3
80003a44:	0006a303          	lw	t1,0(a3)
80003a48:	f9e30ee3          	beq	t1,t5,800039e4 <_ZN5Dinic3DFSEii+0x254>
80003a4c:	00038a93          	mv	s5,t2
80003a50:	00028b93          	mv	s7,t0
80003a54:	06812023          	sw	s0,96(sp)
80003a58:	02012c23          	sw	zero,56(sp)
80003a5c:	05d12c23          	sw	t4,88(sp)
80003a60:	05c12e23          	sw	t3,92(sp)
80003a64:	000f8393          	mv	t2,t6
80003a68:	00030413          	mv	s0,t1
80003a6c:	00080293          	mv	t0,a6
80003a70:	01c0006f          	j	80003a8c <_ZN5Dinic3DFSEii+0x2fc>
80003a74:	0189a783          	lw	a5,24(s3)
80003a78:	00241413          	slli	s0,s0,0x2
80003a7c:	00878433          	add	s0,a5,s0
80003a80:	00042403          	lw	s0,0(s0)
80003a84:	45e40863          	beq	s0,t5,80003ed4 <_ZN5Dinic3DFSEii+0x744>
80003a88:	0003a703          	lw	a4,0(t2)
80003a8c:	00441913          	slli	s2,s0,0x4
80003a90:	012a8933          	add	s2,s5,s2
80003a94:	00492603          	lw	a2,4(s2)
80003a98:	00170713          	addi	a4,a4,1
80003a9c:	00261693          	slli	a3,a2,0x2
80003aa0:	00db8d33          	add	s10,s7,a3
80003aa4:	000d2783          	lw	a5,0(s10)
80003aa8:	fcf716e3          	bne	a4,a5,80003a74 <_ZN5Dinic3DFSEii+0x2e4>
80003aac:	00892583          	lw	a1,8(s2)
80003ab0:	00c92703          	lw	a4,12(s2)
80003ab4:	40e58fb3          	sub	t6,a1,a4
80003ab8:	01f2d463          	bge	t0,t6,80003ac0 <_ZN5Dinic3DFSEii+0x330>
80003abc:	00028f93          	mv	t6,t0
80003ac0:	00c12703          	lw	a4,12(sp)
80003ac4:	5cc70263          	beq	a4,a2,80004088 <_ZN5Dinic3DFSEii+0x8f8>
80003ac8:	fa0f86e3          	beqz	t6,80003a74 <_ZN5Dinic3DFSEii+0x2e4>
80003acc:	02812703          	lw	a4,40(sp)
80003ad0:	00d706b3          	add	a3,a4,a3
80003ad4:	0006a483          	lw	s1,0(a3)
80003ad8:	f9e48ee3          	beq	s1,t5,80003a74 <_ZN5Dinic3DFSEii+0x2e4>
80003adc:	00000e93          	li	t4,0
80003ae0:	06712223          	sw	t2,100(sp)
80003ae4:	07212423          	sw	s2,104(sp)
80003ae8:	000d0e13          	mv	t3,s10
80003aec:	06812623          	sw	s0,108(sp)
80003af0:	06512823          	sw	t0,112(sp)
80003af4:	01c0006f          	j	80003b10 <_ZN5Dinic3DFSEii+0x380>
80003af8:	0189a783          	lw	a5,24(s3)
80003afc:	00249493          	slli	s1,s1,0x2
80003b00:	009787b3          	add	a5,a5,s1
80003b04:	0007a483          	lw	s1,0(a5)
80003b08:	45e48663          	beq	s1,t5,80003f54 <_ZN5Dinic3DFSEii+0x7c4>
80003b0c:	000e2783          	lw	a5,0(t3)
80003b10:	00449913          	slli	s2,s1,0x4
80003b14:	012a8933          	add	s2,s5,s2
80003b18:	00492603          	lw	a2,4(s2)
80003b1c:	00178713          	addi	a4,a5,1
80003b20:	00261693          	slli	a3,a2,0x2
80003b24:	00db8db3          	add	s11,s7,a3
80003b28:	000da783          	lw	a5,0(s11)
80003b2c:	fcf716e3          	bne	a4,a5,80003af8 <_ZN5Dinic3DFSEii+0x368>
80003b30:	00892703          	lw	a4,8(s2)
80003b34:	00c92583          	lw	a1,12(s2)
80003b38:	40b70733          	sub	a4,a4,a1
80003b3c:	00efd463          	bge	t6,a4,80003b44 <_ZN5Dinic3DFSEii+0x3b4>
80003b40:	000f8713          	mv	a4,t6
80003b44:	00c12583          	lw	a1,12(sp)
80003b48:	5cc58263          	beq	a1,a2,8000410c <_ZN5Dinic3DFSEii+0x97c>
80003b4c:	fa0706e3          	beqz	a4,80003af8 <_ZN5Dinic3DFSEii+0x368>
80003b50:	02812603          	lw	a2,40(sp)
80003b54:	00d606b3          	add	a3,a2,a3
80003b58:	0006a403          	lw	s0,0(a3)
80003b5c:	f9e40ee3          	beq	s0,t5,80003af8 <_ZN5Dinic3DFSEii+0x368>
80003b60:	00000313          	li	t1,0
80003b64:	06912a23          	sw	s1,116(sp)
80003b68:	07212c23          	sw	s2,120(sp)
80003b6c:	000d8813          	mv	a6,s11
80003b70:	01c0006f          	j	80003b8c <_ZN5Dinic3DFSEii+0x3fc>
80003b74:	0189a783          	lw	a5,24(s3)
80003b78:	00241413          	slli	s0,s0,0x2
80003b7c:	008787b3          	add	a5,a5,s0
80003b80:	0007a403          	lw	s0,0(a5)
80003b84:	43e40e63          	beq	s0,t5,80003fc0 <_ZN5Dinic3DFSEii+0x830>
80003b88:	00082783          	lw	a5,0(a6)
80003b8c:	00441b13          	slli	s6,s0,0x4
80003b90:	016a8b33          	add	s6,s5,s6
80003b94:	004b2583          	lw	a1,4(s6)
80003b98:	00178693          	addi	a3,a5,1
80003b9c:	00259613          	slli	a2,a1,0x2
80003ba0:	00cb8db3          	add	s11,s7,a2
80003ba4:	000da783          	lw	a5,0(s11)
80003ba8:	fcf696e3          	bne	a3,a5,80003b74 <_ZN5Dinic3DFSEii+0x3e4>
80003bac:	008b2903          	lw	s2,8(s6)
80003bb0:	00cb2683          	lw	a3,12(s6)
80003bb4:	40d90933          	sub	s2,s2,a3
80003bb8:	01275463          	bge	a4,s2,80003bc0 <_ZN5Dinic3DFSEii+0x430>
80003bbc:	00070913          	mv	s2,a4
80003bc0:	00c12683          	lw	a3,12(sp)
80003bc4:	54b68863          	beq	a3,a1,80004114 <_ZN5Dinic3DFSEii+0x984>
80003bc8:	fa0906e3          	beqz	s2,80003b74 <_ZN5Dinic3DFSEii+0x3e4>
80003bcc:	02812683          	lw	a3,40(sp)
80003bd0:	00c68633          	add	a2,a3,a2
80003bd4:	00062a03          	lw	s4,0(a2)
80003bd8:	f9ea0ee3          	beq	s4,t5,80003b74 <_ZN5Dinic3DFSEii+0x3e4>
80003bdc:	00000693          	li	a3,0
80003be0:	06812e23          	sw	s0,124(sp)
80003be4:	09612823          	sw	s6,144(sp)
80003be8:	08e12c23          	sw	a4,152(sp)
80003bec:	00098b13          	mv	s6,s3
80003bf0:	000a8713          	mv	a4,s5
80003bf4:	000b8413          	mv	s0,s7
80003bf8:	09c12023          	sw	t3,128(sp)
80003bfc:	09012223          	sw	a6,132(sp)
80003c00:	09d12423          	sw	t4,136(sp)
80003c04:	09f12623          	sw	t6,140(sp)
80003c08:	08612a23          	sw	t1,148(sp)
80003c0c:	00068a93          	mv	s5,a3
80003c10:	000d8993          	mv	s3,s11
80003c14:	01c0006f          	j	80003c30 <_ZN5Dinic3DFSEii+0x4a0>
80003c18:	018b2783          	lw	a5,24(s6)
80003c1c:	002a1a13          	slli	s4,s4,0x2
80003c20:	014787b3          	add	a5,a5,s4
80003c24:	0007aa03          	lw	s4,0(a5)
80003c28:	3fea0863          	beq	s4,t5,80004018 <_ZN5Dinic3DFSEii+0x888>
80003c2c:	0009a783          	lw	a5,0(s3)
80003c30:	004a1c13          	slli	s8,s4,0x4
80003c34:	01870c33          	add	s8,a4,s8
80003c38:	004c2503          	lw	a0,4(s8)
80003c3c:	00178793          	addi	a5,a5,1
80003c40:	00251593          	slli	a1,a0,0x2
80003c44:	00b40d33          	add	s10,s0,a1
80003c48:	000d2603          	lw	a2,0(s10)
80003c4c:	fcc796e3          	bne	a5,a2,80003c18 <_ZN5Dinic3DFSEii+0x488>
80003c50:	008c2283          	lw	t0,8(s8)
80003c54:	00cc2783          	lw	a5,12(s8)
80003c58:	40f28cb3          	sub	s9,t0,a5
80003c5c:	01995463          	bge	s2,s9,80003c64 <_ZN5Dinic3DFSEii+0x4d4>
80003c60:	00090c93          	mv	s9,s2
80003c64:	00c12783          	lw	a5,12(sp)
80003c68:	4aa78a63          	beq	a5,a0,8000411c <_ZN5Dinic3DFSEii+0x98c>
80003c6c:	fa0c86e3          	beqz	s9,80003c18 <_ZN5Dinic3DFSEii+0x488>
80003c70:	02812783          	lw	a5,40(sp)
80003c74:	00b785b3          	add	a1,a5,a1
80003c78:	0005a483          	lw	s1,0(a1)
80003c7c:	f9e48ee3          	beq	s1,t5,80003c18 <_ZN5Dinic3DFSEii+0x488>
80003c80:	00000b93          	li	s7,0
80003c84:	09212e23          	sw	s2,156(sp)
80003c88:	00060693          	mv	a3,a2
80003c8c:	000b8913          	mv	s2,s7
80003c90:	000c8b93          	mv	s7,s9
80003c94:	00070c93          	mv	s9,a4
80003c98:	01c0006f          	j	80003cb4 <_ZN5Dinic3DFSEii+0x524>
80003c9c:	018b2783          	lw	a5,24(s6)
80003ca0:	00249493          	slli	s1,s1,0x2
80003ca4:	009787b3          	add	a5,a5,s1
80003ca8:	0007a483          	lw	s1,0(a5)
80003cac:	3fe48263          	beq	s1,t5,80004090 <_ZN5Dinic3DFSEii+0x900>
80003cb0:	000d2683          	lw	a3,0(s10)
80003cb4:	00449d93          	slli	s11,s1,0x4
80003cb8:	01bc8db3          	add	s11,s9,s11
80003cbc:	004da583          	lw	a1,4(s11)
80003cc0:	00168693          	addi	a3,a3,1
80003cc4:	00259793          	slli	a5,a1,0x2
80003cc8:	00f407b3          	add	a5,s0,a5
80003ccc:	0007a783          	lw	a5,0(a5)
80003cd0:	fcf696e3          	bne	a3,a5,80003c9c <_ZN5Dinic3DFSEii+0x50c>
80003cd4:	008da603          	lw	a2,8(s11)
80003cd8:	00cda783          	lw	a5,12(s11)
80003cdc:	000b0513          	mv	a0,s6
80003ce0:	40f60633          	sub	a2,a2,a5
80003ce4:	42cbc063          	blt	s7,a2,80004104 <_ZN5Dinic3DFSEii+0x974>
80003ce8:	aa9ff0ef          	jal	ra,80003790 <_ZN5Dinic3DFSEii>
80003cec:	0014c793          	xori	a5,s1,1
80003cf0:	00479793          	slli	a5,a5,0x4
80003cf4:	00fc87b3          	add	a5,s9,a5
80003cf8:	fff00f13          	li	t5,-1
80003cfc:	faa050e3          	blez	a0,80003c9c <_ZN5Dinic3DFSEii+0x50c>
80003d00:	00cda683          	lw	a3,12(s11)
80003d04:	40ab8bb3          	sub	s7,s7,a0
80003d08:	00a90933          	add	s2,s2,a0
80003d0c:	00a686b3          	add	a3,a3,a0
80003d10:	00dda623          	sw	a3,12(s11)
80003d14:	00c7a683          	lw	a3,12(a5)
80003d18:	40a686b3          	sub	a3,a3,a0
80003d1c:	00d7a623          	sw	a3,12(a5)
80003d20:	f60b9ee3          	bnez	s7,80003c9c <_ZN5Dinic3DFSEii+0x50c>
80003d24:	00090b93          	mv	s7,s2
80003d28:	000c8713          	mv	a4,s9
80003d2c:	09c12903          	lw	s2,156(sp)
80003d30:	3700006f          	j	800040a0 <_ZN5Dinic3DFSEii+0x910>
80003d34:	01c12783          	lw	a5,28(sp)
80003d38:	00f12c23          	sw	a5,24(sp)
80003d3c:	0dc12083          	lw	ra,220(sp)
80003d40:	0d812403          	lw	s0,216(sp)
80003d44:	01812503          	lw	a0,24(sp)
80003d48:	0d412483          	lw	s1,212(sp)
80003d4c:	0d012903          	lw	s2,208(sp)
80003d50:	0cc12983          	lw	s3,204(sp)
80003d54:	0c812a03          	lw	s4,200(sp)
80003d58:	0c412a83          	lw	s5,196(sp)
80003d5c:	0c012b03          	lw	s6,192(sp)
80003d60:	0bc12b83          	lw	s7,188(sp)
80003d64:	0b812c03          	lw	s8,184(sp)
80003d68:	0b412c83          	lw	s9,180(sp)
80003d6c:	0b012d03          	lw	s10,176(sp)
80003d70:	0ac12d83          	lw	s11,172(sp)
80003d74:	0e010113          	addi	sp,sp,224
80003d78:	00008067          	ret
80003d7c:	04012f83          	lw	t6,64(sp)
80003d80:	04412283          	lw	t0,68(sp)
80003d84:	00038e93          	mv	t4,t2
80003d88:	02412783          	lw	a5,36(sp)
80003d8c:	a8f052e3          	blez	a5,80003810 <_ZN5Dinic3DFSEii+0x80>
80003d90:	02412683          	lw	a3,36(sp)
80003d94:	00cfa703          	lw	a4,12(t6)
80003d98:	0012c793          	xori	a5,t0,1
80003d9c:	00479793          	slli	a5,a5,0x4
80003da0:	00d70733          	add	a4,a4,a3
80003da4:	00efa623          	sw	a4,12(t6)
80003da8:	00fe87b3          	add	a5,t4,a5
80003dac:	00c7a703          	lw	a4,12(a5)
80003db0:	01c12603          	lw	a2,28(sp)
80003db4:	01812583          	lw	a1,24(sp)
80003db8:	40d70733          	sub	a4,a4,a3
80003dbc:	40d60633          	sub	a2,a2,a3
80003dc0:	00d585b3          	add	a1,a1,a3
80003dc4:	00c12e23          	sw	a2,28(sp)
80003dc8:	00b12c23          	sw	a1,24(sp)
80003dcc:	00e7a623          	sw	a4,12(a5)
80003dd0:	a40610e3          	bnez	a2,80003810 <_ZN5Dinic3DFSEii+0x80>
80003dd4:	f69ff06f          	j	80003d3c <_ZN5Dinic3DFSEii+0x5ac>
80003dd8:	00038293          	mv	t0,t2
80003ddc:	04812e83          	lw	t4,72(sp)
80003de0:	000f8393          	mv	t2,t6
80003de4:	04c12f83          	lw	t6,76(sp)
80003de8:	000e0893          	mv	a7,t3
80003dec:	02c12783          	lw	a5,44(sp)
80003df0:	acf052e3          	blez	a5,800038b4 <_ZN5Dinic3DFSEii+0x124>
80003df4:	02c12683          	lw	a3,44(sp)
80003df8:	00cea703          	lw	a4,12(t4)
80003dfc:	001fc793          	xori	a5,t6,1
80003e00:	00479793          	slli	a5,a5,0x4
80003e04:	00d70733          	add	a4,a4,a3
80003e08:	00eea623          	sw	a4,12(t4)
80003e0c:	00f387b3          	add	a5,t2,a5
80003e10:	00c7a703          	lw	a4,12(a5)
80003e14:	01012603          	lw	a2,16(sp)
80003e18:	02412583          	lw	a1,36(sp)
80003e1c:	40d70733          	sub	a4,a4,a3
80003e20:	40d60633          	sub	a2,a2,a3
80003e24:	00d585b3          	add	a1,a1,a3
80003e28:	00c12823          	sw	a2,16(sp)
80003e2c:	02b12223          	sw	a1,36(sp)
80003e30:	00e7a623          	sw	a4,12(a5)
80003e34:	a80610e3          	bnez	a2,800038b4 <_ZN5Dinic3DFSEii+0x124>
80003e38:	04012f83          	lw	t6,64(sp)
80003e3c:	04412283          	lw	t0,68(sp)
80003e40:	00038e93          	mv	t4,t2
80003e44:	f4dff06f          	j	80003d90 <_ZN5Dinic3DFSEii+0x600>
80003e48:	00078813          	mv	a6,a5
80003e4c:	be5ff06f          	j	80003a30 <_ZN5Dinic3DFSEii+0x2a0>
80003e50:	05012e83          	lw	t4,80(sp)
80003e54:	05412303          	lw	t1,84(sp)
80003e58:	00038f93          	mv	t6,t2
80003e5c:	00098e13          	mv	t3,s3
80003e60:	00028393          	mv	t2,t0
80003e64:	03012783          	lw	a5,48(sp)
80003e68:	aef052e3          	blez	a5,8000394c <_ZN5Dinic3DFSEii+0x1bc>
80003e6c:	03012683          	lw	a3,48(sp)
80003e70:	00cea703          	lw	a4,12(t4)
80003e74:	00134793          	xori	a5,t1,1
80003e78:	00479793          	slli	a5,a5,0x4
80003e7c:	00d70733          	add	a4,a4,a3
80003e80:	00eea623          	sw	a4,12(t4)
80003e84:	00ff87b3          	add	a5,t6,a5
80003e88:	00c7a703          	lw	a4,12(a5)
80003e8c:	03412603          	lw	a2,52(sp)
80003e90:	02c12583          	lw	a1,44(sp)
80003e94:	40d70733          	sub	a4,a4,a3
80003e98:	40d60633          	sub	a2,a2,a3
80003e9c:	00d585b3          	add	a1,a1,a3
80003ea0:	02c12a23          	sw	a2,52(sp)
80003ea4:	02b12623          	sw	a1,44(sp)
80003ea8:	00e7a623          	sw	a4,12(a5)
80003eac:	aa0610e3          	bnez	a2,8000394c <_ZN5Dinic3DFSEii+0x1bc>
80003eb0:	00038293          	mv	t0,t2
80003eb4:	04812e83          	lw	t4,72(sp)
80003eb8:	000f8393          	mv	t2,t6
80003ebc:	000e0893          	mv	a7,t3
80003ec0:	04c12f83          	lw	t6,76(sp)
80003ec4:	f31ff06f          	j	80003df4 <_ZN5Dinic3DFSEii+0x664>
80003ec8:	01012783          	lw	a5,16(sp)
80003ecc:	02f12223          	sw	a5,36(sp)
80003ed0:	eb9ff06f          	j	80003d88 <_ZN5Dinic3DFSEii+0x5f8>
80003ed4:	05812e83          	lw	t4,88(sp)
80003ed8:	05c12e03          	lw	t3,92(sp)
80003edc:	06012403          	lw	s0,96(sp)
80003ee0:	000a8393          	mv	t2,s5
80003ee4:	000b8293          	mv	t0,s7
80003ee8:	03812783          	lw	a5,56(sp)
80003eec:	aef05ce3          	blez	a5,800039e4 <_ZN5Dinic3DFSEii+0x254>
80003ef0:	03812683          	lw	a3,56(sp)
80003ef4:	00ce2703          	lw	a4,12(t3)
80003ef8:	00144793          	xori	a5,s0,1
80003efc:	00479793          	slli	a5,a5,0x4
80003f00:	00d70733          	add	a4,a4,a3
80003f04:	00ee2623          	sw	a4,12(t3)
80003f08:	00f387b3          	add	a5,t2,a5
80003f0c:	00c7a703          	lw	a4,12(a5)
80003f10:	03c12603          	lw	a2,60(sp)
80003f14:	03012583          	lw	a1,48(sp)
80003f18:	40d70733          	sub	a4,a4,a3
80003f1c:	40d60633          	sub	a2,a2,a3
80003f20:	00d585b3          	add	a1,a1,a3
80003f24:	02c12e23          	sw	a2,60(sp)
80003f28:	02b12823          	sw	a1,48(sp)
80003f2c:	00e7a623          	sw	a4,12(a5)
80003f30:	aa061ae3          	bnez	a2,800039e4 <_ZN5Dinic3DFSEii+0x254>
80003f34:	00038f93          	mv	t6,t2
80003f38:	05012e83          	lw	t4,80(sp)
80003f3c:	05412303          	lw	t1,84(sp)
80003f40:	00028393          	mv	t2,t0
80003f44:	00098e13          	mv	t3,s3
80003f48:	f25ff06f          	j	80003e6c <_ZN5Dinic3DFSEii+0x6dc>
80003f4c:	02612623          	sw	t1,44(sp)
80003f50:	e9dff06f          	j	80003dec <_ZN5Dinic3DFSEii+0x65c>
80003f54:	06412383          	lw	t2,100(sp)
80003f58:	06812903          	lw	s2,104(sp)
80003f5c:	06c12403          	lw	s0,108(sp)
80003f60:	07012283          	lw	t0,112(sp)
80003f64:	b1d058e3          	blez	t4,80003a74 <_ZN5Dinic3DFSEii+0x2e4>
80003f68:	00c92703          	lw	a4,12(s2)
80003f6c:	00144793          	xori	a5,s0,1
80003f70:	00479793          	slli	a5,a5,0x4
80003f74:	01d70733          	add	a4,a4,t4
80003f78:	00e92623          	sw	a4,12(s2)
80003f7c:	00fa87b3          	add	a5,s5,a5
80003f80:	00c7a703          	lw	a4,12(a5)
80003f84:	03812683          	lw	a3,56(sp)
80003f88:	41d282b3          	sub	t0,t0,t4
80003f8c:	41d70733          	sub	a4,a4,t4
80003f90:	01d686b3          	add	a3,a3,t4
80003f94:	02d12c23          	sw	a3,56(sp)
80003f98:	00e7a623          	sw	a4,12(a5)
80003f9c:	ac029ce3          	bnez	t0,80003a74 <_ZN5Dinic3DFSEii+0x2e4>
80003fa0:	05812e83          	lw	t4,88(sp)
80003fa4:	05c12e03          	lw	t3,92(sp)
80003fa8:	06012403          	lw	s0,96(sp)
80003fac:	000a8393          	mv	t2,s5
80003fb0:	000b8293          	mv	t0,s7
80003fb4:	f3dff06f          	j	80003ef0 <_ZN5Dinic3DFSEii+0x760>
80003fb8:	03012823          	sw	a6,48(sp)
80003fbc:	ea9ff06f          	j	80003e64 <_ZN5Dinic3DFSEii+0x6d4>
80003fc0:	07412483          	lw	s1,116(sp)
80003fc4:	07812903          	lw	s2,120(sp)
80003fc8:	b26058e3          	blez	t1,80003af8 <_ZN5Dinic3DFSEii+0x368>
80003fcc:	00c92703          	lw	a4,12(s2)
80003fd0:	0014c793          	xori	a5,s1,1
80003fd4:	00479793          	slli	a5,a5,0x4
80003fd8:	00670733          	add	a4,a4,t1
80003fdc:	00e92623          	sw	a4,12(s2)
80003fe0:	00fa87b3          	add	a5,s5,a5
80003fe4:	00c7a703          	lw	a4,12(a5)
80003fe8:	406f8fb3          	sub	t6,t6,t1
80003fec:	006e8eb3          	add	t4,t4,t1
80003ff0:	40670733          	sub	a4,a4,t1
80003ff4:	00e7a623          	sw	a4,12(a5)
80003ff8:	b00f90e3          	bnez	t6,80003af8 <_ZN5Dinic3DFSEii+0x368>
80003ffc:	06412383          	lw	t2,100(sp)
80004000:	06812903          	lw	s2,104(sp)
80004004:	06c12403          	lw	s0,108(sp)
80004008:	07012283          	lw	t0,112(sp)
8000400c:	f5dff06f          	j	80003f68 <_ZN5Dinic3DFSEii+0x7d8>
80004010:	03012c23          	sw	a6,56(sp)
80004014:	ed5ff06f          	j	80003ee8 <_ZN5Dinic3DFSEii+0x758>
80004018:	00040b93          	mv	s7,s0
8000401c:	000a8693          	mv	a3,s5
80004020:	000b0993          	mv	s3,s6
80004024:	00070a93          	mv	s5,a4
80004028:	07c12403          	lw	s0,124(sp)
8000402c:	08012e03          	lw	t3,128(sp)
80004030:	08412803          	lw	a6,132(sp)
80004034:	08812e83          	lw	t4,136(sp)
80004038:	08c12f83          	lw	t6,140(sp)
8000403c:	09412303          	lw	t1,148(sp)
80004040:	09812703          	lw	a4,152(sp)
80004044:	09012b03          	lw	s6,144(sp)
80004048:	b2d056e3          	blez	a3,80003b74 <_ZN5Dinic3DFSEii+0x3e4>
8000404c:	00cb2603          	lw	a2,12(s6)
80004050:	00144793          	xori	a5,s0,1
80004054:	00479793          	slli	a5,a5,0x4
80004058:	00d60633          	add	a2,a2,a3
8000405c:	00cb2623          	sw	a2,12(s6)
80004060:	00fa87b3          	add	a5,s5,a5
80004064:	00c7a603          	lw	a2,12(a5)
80004068:	40d70733          	sub	a4,a4,a3
8000406c:	00d30333          	add	t1,t1,a3
80004070:	40d606b3          	sub	a3,a2,a3
80004074:	00d7a623          	sw	a3,12(a5)
80004078:	ae071ee3          	bnez	a4,80003b74 <_ZN5Dinic3DFSEii+0x3e4>
8000407c:	07412483          	lw	s1,116(sp)
80004080:	07812903          	lw	s2,120(sp)
80004084:	f49ff06f          	j	80003fcc <_ZN5Dinic3DFSEii+0x83c>
80004088:	000f8e93          	mv	t4,t6
8000408c:	ed9ff06f          	j	80003f64 <_ZN5Dinic3DFSEii+0x7d4>
80004090:	00090b93          	mv	s7,s2
80004094:	09c12903          	lw	s2,156(sp)
80004098:	000c8713          	mv	a4,s9
8000409c:	b7705ee3          	blez	s7,80003c18 <_ZN5Dinic3DFSEii+0x488>
800040a0:	00cc2603          	lw	a2,12(s8)
800040a4:	001a4793          	xori	a5,s4,1
800040a8:	00479793          	slli	a5,a5,0x4
800040ac:	01760633          	add	a2,a2,s7
800040b0:	00cc2623          	sw	a2,12(s8)
800040b4:	00f707b3          	add	a5,a4,a5
800040b8:	00c7a603          	lw	a2,12(a5)
800040bc:	41790933          	sub	s2,s2,s7
800040c0:	017a8ab3          	add	s5,s5,s7
800040c4:	41760633          	sub	a2,a2,s7
800040c8:	00c7a623          	sw	a2,12(a5)
800040cc:	b40916e3          	bnez	s2,80003c18 <_ZN5Dinic3DFSEii+0x488>
800040d0:	00040b93          	mv	s7,s0
800040d4:	000a8693          	mv	a3,s5
800040d8:	000b0993          	mv	s3,s6
800040dc:	00070a93          	mv	s5,a4
800040e0:	07c12403          	lw	s0,124(sp)
800040e4:	08012e03          	lw	t3,128(sp)
800040e8:	08412803          	lw	a6,132(sp)
800040ec:	08812e83          	lw	t4,136(sp)
800040f0:	08c12f83          	lw	t6,140(sp)
800040f4:	09412303          	lw	t1,148(sp)
800040f8:	09812703          	lw	a4,152(sp)
800040fc:	09012b03          	lw	s6,144(sp)
80004100:	f4dff06f          	j	8000404c <_ZN5Dinic3DFSEii+0x8bc>
80004104:	000b8613          	mv	a2,s7
80004108:	be1ff06f          	j	80003ce8 <_ZN5Dinic3DFSEii+0x558>
8000410c:	00070313          	mv	t1,a4
80004110:	eb9ff06f          	j	80003fc8 <_ZN5Dinic3DFSEii+0x838>
80004114:	00090693          	mv	a3,s2
80004118:	f31ff06f          	j	80004048 <_ZN5Dinic3DFSEii+0x8b8>
8000411c:	000c8b93          	mv	s7,s9
80004120:	f7dff06f          	j	8000409c <_ZN5Dinic3DFSEii+0x90c>

80004124 <bench_dinic_prepare>:
80004124:	00003797          	auipc	a5,0x3
80004128:	92c7a783          	lw	a5,-1748(a5) # 80006a50 <setting>
8000412c:	0007a783          	lw	a5,0(a5)
80004130:	fd010113          	addi	sp,sp,-48
80004134:	03212023          	sw	s2,32(sp)
80004138:	00100513          	li	a0,1
8000413c:	00003917          	auipc	s2,0x3
80004140:	96090913          	addi	s2,s2,-1696 # 80006a9c <_ZL1N>
80004144:	02112623          	sw	ra,44(sp)
80004148:	00f92023          	sw	a5,0(s2)
8000414c:	02812423          	sw	s0,40(sp)
80004150:	02912223          	sw	s1,36(sp)
80004154:	01312e23          	sw	s3,28(sp)
80004158:	01412c23          	sw	s4,24(sp)
8000415c:	01512a23          	sw	s5,20(sp)
80004160:	01612823          	sw	s6,16(sp)
80004164:	01712623          	sw	s7,12(sp)
80004168:	01812423          	sw	s8,8(sp)
8000416c:	01912223          	sw	s9,4(sp)
80004170:	01a12023          	sw	s10,0(sp)
80004174:	9a4fd0ef          	jal	ra,80001318 <bench_srand>
80004178:	02c00513          	li	a0,44
8000417c:	00092b03          	lw	s6,0(s2)
80004180:	8f0fd0ef          	jal	ra,80001270 <bench_alloc>
80004184:	00092703          	lw	a4,0(s2)
80004188:	00003997          	auipc	s3,0x3
8000418c:	91098993          	addi	s3,s3,-1776 # 80006a98 <_ZL1G>
80004190:	00050493          	mv	s1,a0
80004194:	00170713          	addi	a4,a4,1
80004198:	00171a13          	slli	s4,a4,0x1
8000419c:	ffea0793          	addi	a5,s4,-2
800041a0:	4017d793          	srai	a5,a5,0x1
800041a4:	02f78ab3          	mul	s5,a5,a5
800041a8:	00179793          	slli	a5,a5,0x1
800041ac:	00a9a023          	sw	a0,0(s3)
800041b0:	00371413          	slli	s0,a4,0x3
800041b4:	001b1b13          	slli	s6,s6,0x1
800041b8:	001b0b93          	addi	s7,s6,1
800041bc:	00fa8ab3          	add	s5,s5,a5
800041c0:	005a9513          	slli	a0,s5,0x5
800041c4:	8acfd0ef          	jal	ra,80001270 <bench_alloc>
800041c8:	00a4a823          	sw	a0,16(s1)
800041cc:	00040513          	mv	a0,s0
800041d0:	8a0fd0ef          	jal	ra,80001270 <bench_alloc>
800041d4:	00a4aa23          	sw	a0,20(s1)
800041d8:	003a9513          	slli	a0,s5,0x3
800041dc:	894fd0ef          	jal	ra,80001270 <bench_alloc>
800041e0:	00a4ac23          	sw	a0,24(s1)
800041e4:	000a0513          	mv	a0,s4
800041e8:	888fd0ef          	jal	ra,80001270 <bench_alloc>
800041ec:	02a4a423          	sw	a0,40(s1)
800041f0:	00040513          	mv	a0,s0
800041f4:	87cfd0ef          	jal	ra,80001270 <bench_alloc>
800041f8:	00a4ae23          	sw	a0,28(s1)
800041fc:	00040513          	mv	a0,s0
80004200:	870fd0ef          	jal	ra,80001270 <bench_alloc>
80004204:	02a4a023          	sw	a0,32(s1)
80004208:	00040513          	mv	a0,s0
8000420c:	864fd0ef          	jal	ra,80001270 <bench_alloc>
80004210:	02a4a223          	sw	a0,36(s1)
80004214:	0144a023          	sw	s4,0(s1)
80004218:	01405e63          	blez	s4,80004234 <bench_dinic_prepare+0x110>
8000421c:	0144a783          	lw	a5,20(s1)
80004220:	fff00693          	li	a3,-1
80004224:	00878733          	add	a4,a5,s0
80004228:	00d7a023          	sw	a3,0(a5)
8000422c:	00478793          	addi	a5,a5,4
80004230:	fee79ce3          	bne	a5,a4,80004228 <bench_dinic_prepare+0x104>
80004234:	00092c83          	lw	s9,0(s2)
80004238:	0004a223          	sw	zero,4(s1)
8000423c:	00a00a13          	li	s4,10
80004240:	00000493          	li	s1,0
80004244:	23905663          	blez	s9,80004470 <bench_dinic_prepare+0x34c>
80004248:	00249a93          	slli	s5,s1,0x2
8000424c:	00000c13          	li	s8,0
80004250:	0009a403          	lw	s0,0(s3)
80004254:	8d8fd0ef          	jal	ra,8000132c <bench_rand>
80004258:	03457533          	remu	a0,a0,s4
8000425c:	018c85b3          	add	a1,s9,s8
80004260:	00259893          	slli	a7,a1,0x2
80004264:	00092c83          	lw	s9,0(s2)
80004268:	001c0c13          	addi	s8,s8,1
8000426c:	08050863          	beqz	a0,800042fc <bench_dinic_prepare+0x1d8>
80004270:	00442703          	lw	a4,4(s0)
80004274:	01042783          	lw	a5,16(s0)
80004278:	01442603          	lw	a2,20(s0)
8000427c:	00471693          	slli	a3,a4,0x4
80004280:	00d786b3          	add	a3,a5,a3
80004284:	0096a023          	sw	s1,0(a3)
80004288:	00a6a423          	sw	a0,8(a3)
8000428c:	00b6a223          	sw	a1,4(a3)
80004290:	0006a623          	sw	zero,12(a3)
80004294:	01560533          	add	a0,a2,s5
80004298:	01842683          	lw	a3,24(s0)
8000429c:	00052803          	lw	a6,0(a0)
800042a0:	00271713          	slli	a4,a4,0x2
800042a4:	00e68733          	add	a4,a3,a4
800042a8:	01072023          	sw	a6,0(a4)
800042ac:	00442803          	lw	a6,4(s0)
800042b0:	01160733          	add	a4,a2,a7
800042b4:	00180613          	addi	a2,a6,1
800042b8:	00c42223          	sw	a2,4(s0)
800042bc:	01052023          	sw	a6,0(a0)
800042c0:	00442603          	lw	a2,4(s0)
800042c4:	00461513          	slli	a0,a2,0x4
800042c8:	00a787b3          	add	a5,a5,a0
800042cc:	00b7a023          	sw	a1,0(a5)
800042d0:	0097a223          	sw	s1,4(a5)
800042d4:	0007a423          	sw	zero,8(a5)
800042d8:	0007a623          	sw	zero,12(a5)
800042dc:	00072783          	lw	a5,0(a4)
800042e0:	00261613          	slli	a2,a2,0x2
800042e4:	00c686b3          	add	a3,a3,a2
800042e8:	00f6a023          	sw	a5,0(a3)
800042ec:	00442783          	lw	a5,4(s0)
800042f0:	00178693          	addi	a3,a5,1
800042f4:	00d42223          	sw	a3,4(s0)
800042f8:	00f72023          	sw	a5,0(a4)
800042fc:	f59c4ae3          	blt	s8,s9,80004250 <bench_dinic_prepare+0x12c>
80004300:	00148493          	addi	s1,s1,1
80004304:	f594c2e3          	blt	s1,s9,80004248 <bench_dinic_prepare+0x124>
80004308:	17905463          	blez	s9,80004470 <bench_dinic_prepare+0x34c>
8000430c:	002b1c93          	slli	s9,s6,0x2
80004310:	002b9c13          	slli	s8,s7,0x2
80004314:	00000a13          	li	s4,0
80004318:	3e800a93          	li	s5,1000
8000431c:	0009a483          	lw	s1,0(s3)
80004320:	80cfd0ef          	jal	ra,8000132c <bench_rand>
80004324:	03557533          	remu	a0,a0,s5
80004328:	0009a403          	lw	s0,0(s3)
8000432c:	00092d03          	lw	s10,0(s2)
80004330:	002a1813          	slli	a6,s4,0x2
80004334:	08050863          	beqz	a0,800043c4 <bench_dinic_prepare+0x2a0>
80004338:	0044a703          	lw	a4,4(s1)
8000433c:	0104a783          	lw	a5,16(s1)
80004340:	0144a603          	lw	a2,20(s1)
80004344:	00471693          	slli	a3,a4,0x4
80004348:	00d786b3          	add	a3,a5,a3
8000434c:	0166a023          	sw	s6,0(a3)
80004350:	0146a223          	sw	s4,4(a3)
80004354:	00a6a423          	sw	a0,8(a3)
80004358:	0006a623          	sw	zero,12(a3)
8000435c:	019605b3          	add	a1,a2,s9
80004360:	0184a683          	lw	a3,24(s1)
80004364:	0005a503          	lw	a0,0(a1)
80004368:	00271713          	slli	a4,a4,0x2
8000436c:	00e68733          	add	a4,a3,a4
80004370:	00a72023          	sw	a0,0(a4)
80004374:	0044a503          	lw	a0,4(s1)
80004378:	01060733          	add	a4,a2,a6
8000437c:	00150613          	addi	a2,a0,1
80004380:	00c4a223          	sw	a2,4(s1)
80004384:	00a5a023          	sw	a0,0(a1)
80004388:	0044a603          	lw	a2,4(s1)
8000438c:	00461593          	slli	a1,a2,0x4
80004390:	00b787b3          	add	a5,a5,a1
80004394:	0147a023          	sw	s4,0(a5)
80004398:	0167a223          	sw	s6,4(a5)
8000439c:	0007a423          	sw	zero,8(a5)
800043a0:	0007a623          	sw	zero,12(a5)
800043a4:	00072783          	lw	a5,0(a4)
800043a8:	00261613          	slli	a2,a2,0x2
800043ac:	00c686b3          	add	a3,a3,a2
800043b0:	00f6a023          	sw	a5,0(a3)
800043b4:	0044a783          	lw	a5,4(s1)
800043b8:	00178693          	addi	a3,a5,1
800043bc:	00d4a223          	sw	a3,4(s1)
800043c0:	00f72023          	sw	a5,0(a4)
800043c4:	f69fc0ef          	jal	ra,8000132c <bench_rand>
800043c8:	03557533          	remu	a0,a0,s5
800043cc:	014d0833          	add	a6,s10,s4
800043d0:	00092883          	lw	a7,0(s2)
800043d4:	00281593          	slli	a1,a6,0x2
800043d8:	001a0a13          	addi	s4,s4,1
800043dc:	08050863          	beqz	a0,8000446c <bench_dinic_prepare+0x348>
800043e0:	00442703          	lw	a4,4(s0)
800043e4:	01042783          	lw	a5,16(s0)
800043e8:	01442603          	lw	a2,20(s0)
800043ec:	00471693          	slli	a3,a4,0x4
800043f0:	00d786b3          	add	a3,a5,a3
800043f4:	0106a023          	sw	a6,0(a3)
800043f8:	00a6a423          	sw	a0,8(a3)
800043fc:	0176a223          	sw	s7,4(a3)
80004400:	0006a623          	sw	zero,12(a3)
80004404:	01842503          	lw	a0,24(s0)
80004408:	00b606b3          	add	a3,a2,a1
8000440c:	0006a583          	lw	a1,0(a3)
80004410:	00271713          	slli	a4,a4,0x2
80004414:	00e50733          	add	a4,a0,a4
80004418:	00b72023          	sw	a1,0(a4)
8000441c:	00442583          	lw	a1,4(s0)
80004420:	01860733          	add	a4,a2,s8
80004424:	00158613          	addi	a2,a1,1
80004428:	00c42223          	sw	a2,4(s0)
8000442c:	00b6a023          	sw	a1,0(a3)
80004430:	00442683          	lw	a3,4(s0)
80004434:	00469613          	slli	a2,a3,0x4
80004438:	00c787b3          	add	a5,a5,a2
8000443c:	0177a023          	sw	s7,0(a5)
80004440:	0107a223          	sw	a6,4(a5)
80004444:	0007a423          	sw	zero,8(a5)
80004448:	0007a623          	sw	zero,12(a5)
8000444c:	00072783          	lw	a5,0(a4)
80004450:	00269693          	slli	a3,a3,0x2
80004454:	00d50533          	add	a0,a0,a3
80004458:	00f52023          	sw	a5,0(a0)
8000445c:	00442783          	lw	a5,4(s0)
80004460:	00178693          	addi	a3,a5,1
80004464:	00d42223          	sw	a3,4(s0)
80004468:	00f72023          	sw	a5,0(a4)
8000446c:	eb1a48e3          	blt	s4,a7,8000431c <bench_dinic_prepare+0x1f8>
80004470:	02c12083          	lw	ra,44(sp)
80004474:	02812403          	lw	s0,40(sp)
80004478:	02412483          	lw	s1,36(sp)
8000447c:	02012903          	lw	s2,32(sp)
80004480:	01c12983          	lw	s3,28(sp)
80004484:	01812a03          	lw	s4,24(sp)
80004488:	01412a83          	lw	s5,20(sp)
8000448c:	01012b03          	lw	s6,16(sp)
80004490:	00c12b83          	lw	s7,12(sp)
80004494:	00812c03          	lw	s8,8(sp)
80004498:	00412c83          	lw	s9,4(sp)
8000449c:	00012d03          	lw	s10,0(sp)
800044a0:	03010113          	addi	sp,sp,48
800044a4:	00008067          	ret

800044a8 <bench_dinic_run>:
800044a8:	f8010113          	addi	sp,sp,-128
800044ac:	06812c23          	sw	s0,120(sp)
800044b0:	00002797          	auipc	a5,0x2
800044b4:	5ec7a783          	lw	a5,1516(a5) # 80006a9c <_ZL1N>
800044b8:	00002417          	auipc	s0,0x2
800044bc:	5e042403          	lw	s0,1504(s0) # 80006a98 <_ZL1G>
800044c0:	00179693          	slli	a3,a5,0x1
800044c4:	05b12623          	sw	s11,76(sp)
800044c8:	02842503          	lw	a0,40(s0)
800044cc:	02442303          	lw	t1,36(s0)
800044d0:	01c42d83          	lw	s11,28(s0)
800044d4:	01442883          	lw	a7,20(s0)
800044d8:	00042603          	lw	a2,0(s0)
800044dc:	06112e23          	sw	ra,124(sp)
800044e0:	06912a23          	sw	s1,116(sp)
800044e4:	07212823          	sw	s2,112(sp)
800044e8:	07312623          	sw	s3,108(sp)
800044ec:	07412423          	sw	s4,104(sp)
800044f0:	07512223          	sw	s5,100(sp)
800044f4:	07612023          	sw	s6,96(sp)
800044f8:	05712e23          	sw	s7,92(sp)
800044fc:	05812c23          	sw	s8,88(sp)
80004500:	05912a23          	sw	s9,84(sp)
80004504:	05a12823          	sw	s10,80(sp)
80004508:	00168713          	addi	a4,a3,1
8000450c:	00379793          	slli	a5,a5,0x3
80004510:	00d12623          	sw	a3,12(sp)
80004514:	00d42423          	sw	a3,8(s0)
80004518:	00e42623          	sw	a4,12(s0)
8000451c:	00f12c23          	sw	a5,24(sp)
80004520:	00012423          	sw	zero,8(sp)
80004524:	fff00393          	li	t2,-1
80004528:	00050793          	mv	a5,a0
8000452c:	00c50733          	add	a4,a0,a2
80004530:	00c05863          	blez	a2,80004540 <bench_dinic_run+0x98>
80004534:	00078023          	sb	zero,0(a5)
80004538:	00178793          	addi	a5,a5,1
8000453c:	fef71ce3          	bne	a4,a5,80004534 <bench_dinic_run+0x8c>
80004540:	00d32023          	sw	a3,0(t1)
80004544:	00842783          	lw	a5,8(s0)
80004548:	00100713          	li	a4,1
8000454c:	00030e93          	mv	t4,t1
80004550:	00279793          	slli	a5,a5,0x2
80004554:	00fd87b3          	add	a5,s11,a5
80004558:	0007a023          	sw	zero,0(a5)
8000455c:	00842783          	lw	a5,8(s0)
80004560:	00100f13          	li	t5,1
80004564:	00000e13          	li	t3,0
80004568:	00f507b3          	add	a5,a0,a5
8000456c:	00e78023          	sb	a4,0(a5)
80004570:	000ea703          	lw	a4,0(t4)
80004574:	001e0e13          	addi	t3,t3,1
80004578:	00271713          	slli	a4,a4,0x2
8000457c:	00e887b3          	add	a5,a7,a4
80004580:	0007a783          	lw	a5,0(a5)
80004584:	06778a63          	beq	a5,t2,800045f8 <bench_dinic_run+0x150>
80004588:	01042283          	lw	t0,16(s0)
8000458c:	01842f83          	lw	t6,24(s0)
80004590:	00ed86b3          	add	a3,s11,a4
80004594:	00479713          	slli	a4,a5,0x4
80004598:	00e28733          	add	a4,t0,a4
8000459c:	00472603          	lw	a2,4(a4)
800045a0:	00279793          	slli	a5,a5,0x2
800045a4:	00ff87b3          	add	a5,t6,a5
800045a8:	00c505b3          	add	a1,a0,a2
800045ac:	0005c803          	lbu	a6,0(a1)
800045b0:	04081063          	bnez	a6,800045f0 <bench_dinic_run+0x148>
800045b4:	00872903          	lw	s2,8(a4)
800045b8:	00c72483          	lw	s1,12(a4)
800045bc:	00261613          	slli	a2,a2,0x2
800045c0:	002f1813          	slli	a6,t5,0x2
800045c4:	00cd8633          	add	a2,s11,a2
800045c8:	01030833          	add	a6,t1,a6
800045cc:	0324d263          	bge	s1,s2,800045f0 <bench_dinic_run+0x148>
800045d0:	0006a483          	lw	s1,0(a3)
800045d4:	00100913          	li	s2,1
800045d8:	01258023          	sb	s2,0(a1)
800045dc:	00148593          	addi	a1,s1,1
800045e0:	00b62023          	sw	a1,0(a2)
800045e4:	00472703          	lw	a4,4(a4)
800045e8:	001f0f13          	addi	t5,t5,1 # 80000001 <_end+0xffff1001>
800045ec:	00e82023          	sw	a4,0(a6)
800045f0:	0007a783          	lw	a5,0(a5)
800045f4:	fa7790e3          	bne	a5,t2,80004594 <bench_dinic_run+0xec>
800045f8:	004e8e93          	addi	t4,t4,4
800045fc:	f7ee1ae3          	bne	t3,t5,80004570 <bench_dinic_run+0xc8>
80004600:	00c42e03          	lw	t3,12(s0)
80004604:	01c507b3          	add	a5,a0,t3
80004608:	0007c783          	lbu	a5,0(a5)
8000460c:	46078463          	beqz	a5,80004a74 <bench_dinic_run+0x5cc>
80004610:	00042603          	lw	a2,0(s0)
80004614:	02c05863          	blez	a2,80004644 <bench_dinic_run+0x19c>
80004618:	02042683          	lw	a3,32(s0)
8000461c:	00088713          	mv	a4,a7
80004620:	00000793          	li	a5,0
80004624:	00072603          	lw	a2,0(a4)
80004628:	00178793          	addi	a5,a5,1
8000462c:	00470713          	addi	a4,a4,4
80004630:	00c6a023          	sw	a2,0(a3)
80004634:	00042603          	lw	a2,0(s0)
80004638:	00468693          	addi	a3,a3,4
8000463c:	fec7c4e3          	blt	a5,a2,80004624 <bench_dinic_run+0x17c>
80004640:	00c42e03          	lw	t3,12(s0)
80004644:	00c12783          	lw	a5,12(sp)
80004648:	41c78063          	beq	a5,t3,80004a48 <bench_dinic_run+0x5a0>
8000464c:	02042783          	lw	a5,32(s0)
80004650:	01812703          	lw	a4,24(sp)
80004654:	00f12223          	sw	a5,4(sp)
80004658:	00e787b3          	add	a5,a5,a4
8000465c:	0007a903          	lw	s2,0(a5)
80004660:	28790063          	beq	s2,t2,800048e0 <bench_dinic_run+0x438>
80004664:	003f47b7          	lui	a5,0x3f4
80004668:	00ed88b3          	add	a7,s11,a4
8000466c:	00012023          	sw	zero,0(sp)
80004670:	f3f78f13          	addi	t5,a5,-193 # 3f3f3f <_entry_offset+0x3f3f3f>
80004674:	0180006f          	j	8000468c <bench_dinic_run+0x1e4>
80004678:	01842783          	lw	a5,24(s0)
8000467c:	00291913          	slli	s2,s2,0x2
80004680:	012787b3          	add	a5,a5,s2
80004684:	0007a903          	lw	s2,0(a5)
80004688:	22790a63          	beq	s2,t2,800048bc <bench_dinic_run+0x414>
8000468c:	01042a03          	lw	s4,16(s0)
80004690:	00491493          	slli	s1,s2,0x4
80004694:	0008a703          	lw	a4,0(a7)
80004698:	009a04b3          	add	s1,s4,s1
8000469c:	0044a603          	lw	a2,4(s1)
800046a0:	00170713          	addi	a4,a4,1
800046a4:	00261693          	slli	a3,a2,0x2
800046a8:	00dd8cb3          	add	s9,s11,a3
800046ac:	000ca783          	lw	a5,0(s9)
800046b0:	fcf714e3          	bne	a4,a5,80004678 <bench_dinic_run+0x1d0>
800046b4:	0084a703          	lw	a4,8(s1)
800046b8:	00c4a583          	lw	a1,12(s1)
800046bc:	40b70733          	sub	a4,a4,a1
800046c0:	00ef5463          	bge	t5,a4,800046c8 <bench_dinic_run+0x220>
800046c4:	000f0713          	mv	a4,t5
800046c8:	37c60c63          	beq	a2,t3,80004a40 <bench_dinic_run+0x598>
800046cc:	fa0706e3          	beqz	a4,80004678 <bench_dinic_run+0x1d0>
800046d0:	00412603          	lw	a2,4(sp)
800046d4:	00d606b3          	add	a3,a2,a3
800046d8:	0006a983          	lw	s3,0(a3)
800046dc:	f8798ee3          	beq	s3,t2,80004678 <bench_dinic_run+0x1d0>
800046e0:	00000313          	li	t1,0
800046e4:	00912823          	sw	s1,16(sp)
800046e8:	01212a23          	sw	s2,20(sp)
800046ec:	00070d13          	mv	s10,a4
800046f0:	00030913          	mv	s2,t1
800046f4:	000e0493          	mv	s1,t3
800046f8:	01c0006f          	j	80004714 <bench_dinic_run+0x26c>
800046fc:	01842783          	lw	a5,24(s0)
80004700:	00299993          	slli	s3,s3,0x2
80004704:	013787b3          	add	a5,a5,s3
80004708:	0007a983          	lw	s3,0(a5)
8000470c:	1c798e63          	beq	s3,t2,800048e8 <bench_dinic_run+0x440>
80004710:	000ca783          	lw	a5,0(s9)
80004714:	00499b13          	slli	s6,s3,0x4
80004718:	016a0b33          	add	s6,s4,s6
8000471c:	004b2583          	lw	a1,4(s6)
80004720:	00178693          	addi	a3,a5,1
80004724:	00259613          	slli	a2,a1,0x2
80004728:	00cd8333          	add	t1,s11,a2
8000472c:	00032783          	lw	a5,0(t1)
80004730:	fcf696e3          	bne	a3,a5,800046fc <bench_dinic_run+0x254>
80004734:	008b2683          	lw	a3,8(s6)
80004738:	00cb2503          	lw	a0,12(s6)
8000473c:	40a686b3          	sub	a3,a3,a0
80004740:	00dd5463          	bge	s10,a3,80004748 <bench_dinic_run+0x2a0>
80004744:	000d0693          	mv	a3,s10
80004748:	30958e63          	beq	a1,s1,80004a64 <bench_dinic_run+0x5bc>
8000474c:	fa0688e3          	beqz	a3,800046fc <bench_dinic_run+0x254>
80004750:	00412703          	lw	a4,4(sp)
80004754:	00c70633          	add	a2,a4,a2
80004758:	00062a83          	lw	s5,0(a2)
8000475c:	fa7a80e3          	beq	s5,t2,800046fc <bench_dinic_run+0x254>
80004760:	00000e13          	li	t3,0
80004764:	03912023          	sw	s9,32(sp)
80004768:	03612223          	sw	s6,36(sp)
8000476c:	03312623          	sw	s3,44(sp)
80004770:	03212823          	sw	s2,48(sp)
80004774:	00048b13          	mv	s6,s1
80004778:	01e12e23          	sw	t5,28(sp)
8000477c:	000a0493          	mv	s1,s4
80004780:	03a12423          	sw	s10,40(sp)
80004784:	00030913          	mv	s2,t1
80004788:	00068993          	mv	s3,a3
8000478c:	000e0a13          	mv	s4,t3
80004790:	03112a23          	sw	a7,52(sp)
80004794:	000d8c93          	mv	s9,s11
80004798:	01c0006f          	j	800047b4 <bench_dinic_run+0x30c>
8000479c:	01842783          	lw	a5,24(s0)
800047a0:	002a9a93          	slli	s5,s5,0x2
800047a4:	015787b3          	add	a5,a5,s5
800047a8:	0007aa83          	lw	s5,0(a5)
800047ac:	1a7a8863          	beq	s5,t2,8000495c <bench_dinic_run+0x4b4>
800047b0:	00092783          	lw	a5,0(s2)
800047b4:	004a9c13          	slli	s8,s5,0x4
800047b8:	01848c33          	add	s8,s1,s8
800047bc:	004c2503          	lw	a0,4(s8)
800047c0:	00178793          	addi	a5,a5,1
800047c4:	00251593          	slli	a1,a0,0x2
800047c8:	00bc8f33          	add	t5,s9,a1
800047cc:	000f2603          	lw	a2,0(t5)
800047d0:	fcc796e3          	bne	a5,a2,8000479c <bench_dinic_run+0x2f4>
800047d4:	008c2f83          	lw	t6,8(s8)
800047d8:	00cc2783          	lw	a5,12(s8)
800047dc:	40ff8db3          	sub	s11,t6,a5
800047e0:	01b9d463          	bge	s3,s11,800047e8 <bench_dinic_run+0x340>
800047e4:	00098d93          	mv	s11,s3
800047e8:	29650263          	beq	a0,s6,80004a6c <bench_dinic_run+0x5c4>
800047ec:	fa0d88e3          	beqz	s11,8000479c <bench_dinic_run+0x2f4>
800047f0:	00412783          	lw	a5,4(sp)
800047f4:	00b785b3          	add	a1,a5,a1
800047f8:	0005ab83          	lw	s7,0(a1)
800047fc:	fa7b80e3          	beq	s7,t2,8000479c <bench_dinic_run+0x2f4>
80004800:	00000d13          	li	s10,0
80004804:	03212c23          	sw	s2,56(sp)
80004808:	03312e23          	sw	s3,60(sp)
8000480c:	000d8913          	mv	s2,s11
80004810:	000d0993          	mv	s3,s10
80004814:	00060713          	mv	a4,a2
80004818:	000f0d13          	mv	s10,t5
8000481c:	01c0006f          	j	80004838 <bench_dinic_run+0x390>
80004820:	01842783          	lw	a5,24(s0)
80004824:	002b9b93          	slli	s7,s7,0x2
80004828:	017787b3          	add	a5,a5,s7
8000482c:	0007ab83          	lw	s7,0(a5)
80004830:	1a7b8063          	beq	s7,t2,800049d0 <bench_dinic_run+0x528>
80004834:	000d2703          	lw	a4,0(s10)
80004838:	004b9793          	slli	a5,s7,0x4
8000483c:	00f48db3          	add	s11,s1,a5
80004840:	004da583          	lw	a1,4(s11)
80004844:	00170713          	addi	a4,a4,1
80004848:	00259793          	slli	a5,a1,0x2
8000484c:	00fc87b3          	add	a5,s9,a5
80004850:	0007a783          	lw	a5,0(a5)
80004854:	fcf716e3          	bne	a4,a5,80004820 <bench_dinic_run+0x378>
80004858:	008da603          	lw	a2,8(s11)
8000485c:	00cda783          	lw	a5,12(s11)
80004860:	00040513          	mv	a0,s0
80004864:	40f60633          	sub	a2,a2,a5
80004868:	00c95463          	bge	s2,a2,80004870 <bench_dinic_run+0x3c8>
8000486c:	00090613          	mv	a2,s2
80004870:	f21fe0ef          	jal	ra,80003790 <_ZN5Dinic3DFSEii>
80004874:	001bc793          	xori	a5,s7,1
80004878:	00479793          	slli	a5,a5,0x4
8000487c:	00f487b3          	add	a5,s1,a5
80004880:	fff00393          	li	t2,-1
80004884:	f8a05ee3          	blez	a0,80004820 <bench_dinic_run+0x378>
80004888:	00cda703          	lw	a4,12(s11)
8000488c:	40a90933          	sub	s2,s2,a0
80004890:	00a989b3          	add	s3,s3,a0
80004894:	00a70733          	add	a4,a4,a0
80004898:	00eda623          	sw	a4,12(s11)
8000489c:	00c7a703          	lw	a4,12(a5)
800048a0:	40a70733          	sub	a4,a4,a0
800048a4:	00e7a623          	sw	a4,12(a5)
800048a8:	f6091ce3          	bnez	s2,80004820 <bench_dinic_run+0x378>
800048ac:	00098d13          	mv	s10,s3
800048b0:	03812903          	lw	s2,56(sp)
800048b4:	03c12983          	lw	s3,60(sp)
800048b8:	1280006f          	j	800049e0 <bench_dinic_run+0x538>
800048bc:	00812783          	lw	a5,8(sp)
800048c0:	00012703          	lw	a4,0(sp)
800048c4:	02442303          	lw	t1,36(s0)
800048c8:	01c42d83          	lw	s11,28(s0)
800048cc:	02842503          	lw	a0,40(s0)
800048d0:	01442883          	lw	a7,20(s0)
800048d4:	00042603          	lw	a2,0(s0)
800048d8:	00e787b3          	add	a5,a5,a4
800048dc:	00f12423          	sw	a5,8(sp)
800048e0:	00842683          	lw	a3,8(s0)
800048e4:	c45ff06f          	j	80004528 <bench_dinic_run+0x80>
800048e8:	00090313          	mv	t1,s2
800048ec:	00048e13          	mv	t3,s1
800048f0:	01412903          	lw	s2,20(sp)
800048f4:	01012483          	lw	s1,16(sp)
800048f8:	d86050e3          	blez	t1,80004678 <bench_dinic_run+0x1d0>
800048fc:	00c4a703          	lw	a4,12(s1)
80004900:	00194793          	xori	a5,s2,1
80004904:	00479793          	slli	a5,a5,0x4
80004908:	00670733          	add	a4,a4,t1
8000490c:	00e4a623          	sw	a4,12(s1)
80004910:	00fa0a33          	add	s4,s4,a5
80004914:	00ca2783          	lw	a5,12(s4)
80004918:	00012703          	lw	a4,0(sp)
8000491c:	406f0f33          	sub	t5,t5,t1
80004920:	406787b3          	sub	a5,a5,t1
80004924:	00670733          	add	a4,a4,t1
80004928:	00e12023          	sw	a4,0(sp)
8000492c:	00fa2623          	sw	a5,12(s4)
80004930:	d40f14e3          	bnez	t5,80004678 <bench_dinic_run+0x1d0>
80004934:	00812783          	lw	a5,8(sp)
80004938:	02442303          	lw	t1,36(s0)
8000493c:	01c42d83          	lw	s11,28(s0)
80004940:	00e787b3          	add	a5,a5,a4
80004944:	02842503          	lw	a0,40(s0)
80004948:	01442883          	lw	a7,20(s0)
8000494c:	00042603          	lw	a2,0(s0)
80004950:	00842683          	lw	a3,8(s0)
80004954:	00f12423          	sw	a5,8(sp)
80004958:	bd1ff06f          	j	80004528 <bench_dinic_run+0x80>
8000495c:	000a0e13          	mv	t3,s4
80004960:	000c8d93          	mv	s11,s9
80004964:	00048a13          	mv	s4,s1
80004968:	01c12f03          	lw	t5,28(sp)
8000496c:	000b0493          	mv	s1,s6
80004970:	02812d03          	lw	s10,40(sp)
80004974:	02c12983          	lw	s3,44(sp)
80004978:	03012903          	lw	s2,48(sp)
8000497c:	02412b03          	lw	s6,36(sp)
80004980:	03412883          	lw	a7,52(sp)
80004984:	02012c83          	lw	s9,32(sp)
80004988:	d7c05ae3          	blez	t3,800046fc <bench_dinic_run+0x254>
8000498c:	00cb2683          	lw	a3,12(s6)
80004990:	0019c793          	xori	a5,s3,1
80004994:	00479793          	slli	a5,a5,0x4
80004998:	01c686b3          	add	a3,a3,t3
8000499c:	00db2623          	sw	a3,12(s6)
800049a0:	00fa07b3          	add	a5,s4,a5
800049a4:	00c7a683          	lw	a3,12(a5)
800049a8:	41cd0d33          	sub	s10,s10,t3
800049ac:	01c90933          	add	s2,s2,t3
800049b0:	41c686b3          	sub	a3,a3,t3
800049b4:	00d7a623          	sw	a3,12(a5)
800049b8:	d40d12e3          	bnez	s10,800046fc <bench_dinic_run+0x254>
800049bc:	00090313          	mv	t1,s2
800049c0:	00048e13          	mv	t3,s1
800049c4:	01412903          	lw	s2,20(sp)
800049c8:	01012483          	lw	s1,16(sp)
800049cc:	f31ff06f          	j	800048fc <bench_dinic_run+0x454>
800049d0:	00098d13          	mv	s10,s3
800049d4:	03812903          	lw	s2,56(sp)
800049d8:	03c12983          	lw	s3,60(sp)
800049dc:	dda050e3          	blez	s10,8000479c <bench_dinic_run+0x2f4>
800049e0:	00cc2603          	lw	a2,12(s8)
800049e4:	001ac793          	xori	a5,s5,1
800049e8:	00479793          	slli	a5,a5,0x4
800049ec:	01a60633          	add	a2,a2,s10
800049f0:	00cc2623          	sw	a2,12(s8)
800049f4:	00f487b3          	add	a5,s1,a5
800049f8:	00c7a603          	lw	a2,12(a5)
800049fc:	41a989b3          	sub	s3,s3,s10
80004a00:	01aa0a33          	add	s4,s4,s10
80004a04:	41a60633          	sub	a2,a2,s10
80004a08:	00c7a623          	sw	a2,12(a5)
80004a0c:	d80998e3          	bnez	s3,8000479c <bench_dinic_run+0x2f4>
80004a10:	000a0e13          	mv	t3,s4
80004a14:	000c8d93          	mv	s11,s9
80004a18:	00048a13          	mv	s4,s1
80004a1c:	01c12f03          	lw	t5,28(sp)
80004a20:	000b0493          	mv	s1,s6
80004a24:	02812d03          	lw	s10,40(sp)
80004a28:	02c12983          	lw	s3,44(sp)
80004a2c:	03012903          	lw	s2,48(sp)
80004a30:	02412b03          	lw	s6,36(sp)
80004a34:	03412883          	lw	a7,52(sp)
80004a38:	02012c83          	lw	s9,32(sp)
80004a3c:	f51ff06f          	j	8000498c <bench_dinic_run+0x4e4>
80004a40:	00070313          	mv	t1,a4
80004a44:	eb5ff06f          	j	800048f8 <bench_dinic_run+0x450>
80004a48:	00812703          	lw	a4,8(sp)
80004a4c:	003f47b7          	lui	a5,0x3f4
80004a50:	f3f78793          	addi	a5,a5,-193 # 3f3f3f <_entry_offset+0x3f3f3f>
80004a54:	00f707b3          	add	a5,a4,a5
80004a58:	00842683          	lw	a3,8(s0)
80004a5c:	00f12423          	sw	a5,8(sp)
80004a60:	ac9ff06f          	j	80004528 <bench_dinic_run+0x80>
80004a64:	00068e13          	mv	t3,a3
80004a68:	f21ff06f          	j	80004988 <bench_dinic_run+0x4e0>
80004a6c:	000d8d13          	mv	s10,s11
80004a70:	f6dff06f          	j	800049dc <bench_dinic_run+0x534>
80004a74:	00812703          	lw	a4,8(sp)
80004a78:	07c12083          	lw	ra,124(sp)
80004a7c:	07812403          	lw	s0,120(sp)
80004a80:	00002797          	auipc	a5,0x2
80004a84:	02e7a023          	sw	a4,32(a5) # 80006aa0 <_ZL3ans>
80004a88:	07412483          	lw	s1,116(sp)
80004a8c:	07012903          	lw	s2,112(sp)
80004a90:	06c12983          	lw	s3,108(sp)
80004a94:	06812a03          	lw	s4,104(sp)
80004a98:	06412a83          	lw	s5,100(sp)
80004a9c:	06012b03          	lw	s6,96(sp)
80004aa0:	05c12b83          	lw	s7,92(sp)
80004aa4:	05812c03          	lw	s8,88(sp)
80004aa8:	05412c83          	lw	s9,84(sp)
80004aac:	05012d03          	lw	s10,80(sp)
80004ab0:	04c12d83          	lw	s11,76(sp)
80004ab4:	08010113          	addi	sp,sp,128
80004ab8:	00008067          	ret

80004abc <bench_dinic_validate>:
80004abc:	00002797          	auipc	a5,0x2
80004ac0:	f947a783          	lw	a5,-108(a5) # 80006a50 <setting>
80004ac4:	00c7a503          	lw	a0,12(a5)
80004ac8:	00002797          	auipc	a5,0x2
80004acc:	fd87a783          	lw	a5,-40(a5) # 80006aa0 <_ZL3ans>
80004ad0:	40f50533          	sub	a0,a0,a5
80004ad4:	00153513          	seqz	a0,a0
80004ad8:	00008067          	ret

80004adc <myqsort>:
80004adc:	fe010113          	addi	sp,sp,-32
80004ae0:	01212823          	sw	s2,16(sp)
80004ae4:	01312623          	sw	s3,12(sp)
80004ae8:	00112e23          	sw	ra,28(sp)
80004aec:	00812c23          	sw	s0,24(sp)
80004af0:	00912a23          	sw	s1,20(sp)
80004af4:	00050913          	mv	s2,a0
80004af8:	00060993          	mv	s3,a2
80004afc:	0935d063          	bge	a1,s3,80004b7c <myqsort+0xa0>
80004b00:	00299493          	slli	s1,s3,0x2
80004b04:	009904b3          	add	s1,s2,s1
80004b08:	00259793          	slli	a5,a1,0x2
80004b0c:	00f908b3          	add	a7,s2,a5
80004b10:	00158713          	addi	a4,a1,1
80004b14:	0008a803          	lw	a6,0(a7)
80004b18:	09375063          	bge	a4,s3,80004b98 <myqsort+0xbc>
80004b1c:	00478793          	addi	a5,a5,4
80004b20:	00f907b3          	add	a5,s2,a5
80004b24:	00058413          	mv	s0,a1
80004b28:	0007a683          	lw	a3,0(a5)
80004b2c:	0106de63          	bge	a3,a6,80004b48 <myqsort+0x6c>
80004b30:	00140413          	addi	s0,s0,1
80004b34:	00241713          	slli	a4,s0,0x2
80004b38:	00e90733          	add	a4,s2,a4
80004b3c:	00072503          	lw	a0,0(a4)
80004b40:	00d72023          	sw	a3,0(a4)
80004b44:	00a7a023          	sw	a0,0(a5)
80004b48:	00478793          	addi	a5,a5,4
80004b4c:	fcf49ee3          	bne	s1,a5,80004b28 <myqsort+0x4c>
80004b50:	00241793          	slli	a5,s0,0x2
80004b54:	0008a683          	lw	a3,0(a7)
80004b58:	00f907b3          	add	a5,s2,a5
80004b5c:	0007a703          	lw	a4,0(a5)
80004b60:	00d7a023          	sw	a3,0(a5)
80004b64:	00040613          	mv	a2,s0
80004b68:	00e8a023          	sw	a4,0(a7)
80004b6c:	00090513          	mv	a0,s2
80004b70:	f6dff0ef          	jal	ra,80004adc <myqsort>
80004b74:	00140593          	addi	a1,s0,1
80004b78:	f935c8e3          	blt	a1,s3,80004b08 <myqsort+0x2c>
80004b7c:	01c12083          	lw	ra,28(sp)
80004b80:	01812403          	lw	s0,24(sp)
80004b84:	01412483          	lw	s1,20(sp)
80004b88:	01012903          	lw	s2,16(sp)
80004b8c:	00c12983          	lw	s3,12(sp)
80004b90:	02010113          	addi	sp,sp,32
80004b94:	00008067          	ret
80004b98:	00058993          	mv	s3,a1
80004b9c:	f61ff06f          	j	80004afc <myqsort+0x20>

80004ba0 <bench_qsort_prepare>:
80004ba0:	fe010113          	addi	sp,sp,-32
80004ba4:	00100513          	li	a0,1
80004ba8:	00112e23          	sw	ra,28(sp)
80004bac:	01212823          	sw	s2,16(sp)
80004bb0:	01312623          	sw	s3,12(sp)
80004bb4:	00812c23          	sw	s0,24(sp)
80004bb8:	00912a23          	sw	s1,20(sp)
80004bbc:	f5cfc0ef          	jal	ra,80001318 <bench_srand>
80004bc0:	00002797          	auipc	a5,0x2
80004bc4:	e907a783          	lw	a5,-368(a5) # 80006a50 <setting>
80004bc8:	0007a783          	lw	a5,0(a5)
80004bcc:	00002917          	auipc	s2,0x2
80004bd0:	ed890913          	addi	s2,s2,-296 # 80006aa4 <N>
80004bd4:	00002997          	auipc	s3,0x2
80004bd8:	ed498993          	addi	s3,s3,-300 # 80006aa8 <data>
80004bdc:	00279513          	slli	a0,a5,0x2
80004be0:	00f92023          	sw	a5,0(s2)
80004be4:	e8cfc0ef          	jal	ra,80001270 <bench_alloc>
80004be8:	00092783          	lw	a5,0(s2)
80004bec:	00a9a023          	sw	a0,0(s3)
80004bf0:	02f05c63          	blez	a5,80004c28 <bench_qsort_prepare+0x88>
80004bf4:	00000493          	li	s1,0
80004bf8:	f34fc0ef          	jal	ra,8000132c <bench_rand>
80004bfc:	00050413          	mv	s0,a0
80004c00:	f2cfc0ef          	jal	ra,8000132c <bench_rand>
80004c04:	0009a783          	lw	a5,0(s3)
80004c08:	00249693          	slli	a3,s1,0x2
80004c0c:	01041413          	slli	s0,s0,0x10
80004c10:	00092703          	lw	a4,0(s2)
80004c14:	00d787b3          	add	a5,a5,a3
80004c18:	00a46433          	or	s0,s0,a0
80004c1c:	0087a023          	sw	s0,0(a5)
80004c20:	00148493          	addi	s1,s1,1
80004c24:	fce4cae3          	blt	s1,a4,80004bf8 <bench_qsort_prepare+0x58>
80004c28:	01c12083          	lw	ra,28(sp)
80004c2c:	01812403          	lw	s0,24(sp)
80004c30:	01412483          	lw	s1,20(sp)
80004c34:	01012903          	lw	s2,16(sp)
80004c38:	00c12983          	lw	s3,12(sp)
80004c3c:	02010113          	addi	sp,sp,32
80004c40:	00008067          	ret

80004c44 <bench_qsort_run>:
80004c44:	00002617          	auipc	a2,0x2
80004c48:	e6062603          	lw	a2,-416(a2) # 80006aa4 <N>
80004c4c:	00000593          	li	a1,0
80004c50:	00002517          	auipc	a0,0x2
80004c54:	e5852503          	lw	a0,-424(a0) # 80006aa8 <data>
80004c58:	e85ff06f          	j	80004adc <myqsort>

80004c5c <bench_qsort_validate>:
80004c5c:	00002597          	auipc	a1,0x2
80004c60:	e485a583          	lw	a1,-440(a1) # 80006aa4 <N>
80004c64:	00002517          	auipc	a0,0x2
80004c68:	e4452503          	lw	a0,-444(a0) # 80006aa8 <data>
80004c6c:	00259593          	slli	a1,a1,0x2
80004c70:	ff010113          	addi	sp,sp,-16
80004c74:	00b505b3          	add	a1,a0,a1
80004c78:	00112623          	sw	ra,12(sp)
80004c7c:	ee4fc0ef          	jal	ra,80001360 <checksum>
80004c80:	00002797          	auipc	a5,0x2
80004c84:	dd07a783          	lw	a5,-560(a5) # 80006a50 <setting>
80004c88:	00c7a783          	lw	a5,12(a5)
80004c8c:	00c12083          	lw	ra,12(sp)
80004c90:	40a78533          	sub	a0,a5,a0
80004c94:	00153513          	seqz	a0,a0
80004c98:	01010113          	addi	sp,sp,16
80004c9c:	00008067          	ret

80004ca0 <dfs>:
80004ca0:	fe010113          	addi	sp,sp,-32
80004ca4:	01212823          	sw	s2,16(sp)
80004ca8:	00112e23          	sw	ra,28(sp)
80004cac:	00812c23          	sw	s0,24(sp)
80004cb0:	00912a23          	sw	s1,20(sp)
80004cb4:	01312623          	sw	s3,12(sp)
80004cb8:	01412423          	sw	s4,8(sp)
80004cbc:	00002797          	auipc	a5,0x2
80004cc0:	df07a783          	lw	a5,-528(a5) # 80006aac <FULL>
80004cc4:	00100913          	li	s2,1
80004cc8:	04a78a63          	beq	a5,a0,80004d1c <dfs+0x7c>
80004ccc:	00c5e433          	or	s0,a1,a2
80004cd0:	00a46433          	or	s0,s0,a0
80004cd4:	fff44413          	not	s0,s0
80004cd8:	00f47433          	and	s0,s0,a5
80004cdc:	00050493          	mv	s1,a0
80004ce0:	00058a13          	mv	s4,a1
80004ce4:	00060993          	mv	s3,a2
80004ce8:	00000913          	li	s2,0
80004cec:	02040863          	beqz	s0,80004d1c <dfs+0x7c>
80004cf0:	408007b3          	neg	a5,s0
80004cf4:	0087f7b3          	and	a5,a5,s0
80004cf8:	00f9e633          	or	a2,s3,a5
80004cfc:	00fa65b3          	or	a1,s4,a5
80004d00:	00165613          	srli	a2,a2,0x1
80004d04:	00159593          	slli	a1,a1,0x1
80004d08:	00f4e533          	or	a0,s1,a5
80004d0c:	40f40433          	sub	s0,s0,a5
80004d10:	f91ff0ef          	jal	ra,80004ca0 <dfs>
80004d14:	00a90933          	add	s2,s2,a0
80004d18:	fc041ce3          	bnez	s0,80004cf0 <dfs+0x50>
80004d1c:	01c12083          	lw	ra,28(sp)
80004d20:	01812403          	lw	s0,24(sp)
80004d24:	01412483          	lw	s1,20(sp)
80004d28:	00c12983          	lw	s3,12(sp)
80004d2c:	00812a03          	lw	s4,8(sp)
80004d30:	00090513          	mv	a0,s2
80004d34:	01012903          	lw	s2,16(sp)
80004d38:	02010113          	addi	sp,sp,32
80004d3c:	00008067          	ret

80004d40 <bench_queen_prepare>:
80004d40:	00002797          	auipc	a5,0x2
80004d44:	d107a783          	lw	a5,-752(a5) # 80006a50 <setting>
80004d48:	0007a703          	lw	a4,0(a5)
80004d4c:	00002797          	auipc	a5,0x2
80004d50:	d607a223          	sw	zero,-668(a5) # 80006ab0 <ans>
80004d54:	00100793          	li	a5,1
80004d58:	00e797b3          	sll	a5,a5,a4
80004d5c:	fff78793          	addi	a5,a5,-1
80004d60:	00002717          	auipc	a4,0x2
80004d64:	d4f72623          	sw	a5,-692(a4) # 80006aac <FULL>
80004d68:	00008067          	ret

80004d6c <bench_queen_run>:
80004d6c:	ff010113          	addi	sp,sp,-16
80004d70:	00812423          	sw	s0,8(sp)
80004d74:	00912223          	sw	s1,4(sp)
80004d78:	00112623          	sw	ra,12(sp)
80004d7c:	00002417          	auipc	s0,0x2
80004d80:	d3042403          	lw	s0,-720(s0) # 80006aac <FULL>
80004d84:	00100493          	li	s1,1
80004d88:	02040463          	beqz	s0,80004db0 <bench_queen_run+0x44>
80004d8c:	00000493          	li	s1,0
80004d90:	40800533          	neg	a0,s0
80004d94:	00857533          	and	a0,a0,s0
80004d98:	00155613          	srli	a2,a0,0x1
80004d9c:	00151593          	slli	a1,a0,0x1
80004da0:	40a40433          	sub	s0,s0,a0
80004da4:	efdff0ef          	jal	ra,80004ca0 <dfs>
80004da8:	00a484b3          	add	s1,s1,a0
80004dac:	fe0412e3          	bnez	s0,80004d90 <bench_queen_run+0x24>
80004db0:	00c12083          	lw	ra,12(sp)
80004db4:	00812403          	lw	s0,8(sp)
80004db8:	00002797          	auipc	a5,0x2
80004dbc:	ce97ac23          	sw	s1,-776(a5) # 80006ab0 <ans>
80004dc0:	00412483          	lw	s1,4(sp)
80004dc4:	01010113          	addi	sp,sp,16
80004dc8:	00008067          	ret

80004dcc <bench_queen_validate>:
80004dcc:	00002797          	auipc	a5,0x2
80004dd0:	c847a783          	lw	a5,-892(a5) # 80006a50 <setting>
80004dd4:	00c7a503          	lw	a0,12(a5)
80004dd8:	00002797          	auipc	a5,0x2
80004ddc:	cd87a783          	lw	a5,-808(a5) # 80006ab0 <ans>
80004de0:	40f50533          	sub	a0,a0,a5
80004de4:	00153513          	seqz	a0,a0
80004de8:	00008067          	ret

80004dec <putch>:
80004dec:	a00007b7          	lui	a5,0xa0000
80004df0:	3ea78c23          	sb	a0,1016(a5) # a00003f8 <_end+0x1fff13f8>
80004df4:	00008067          	ret

80004df8 <halt>:
80004df8:	00050513          	mv	a0,a0
80004dfc:	00100073          	ebreak
80004e00:	0000006f          	j	80004e00 <halt+0x8>

80004e04 <_trm_init>:
80004e04:	ff010113          	addi	sp,sp,-16
80004e08:	00001517          	auipc	a0,0x1
80004e0c:	44850513          	addi	a0,a0,1096 # 80006250 <mainargs>
80004e10:	00112623          	sw	ra,12(sp)
80004e14:	fd5fb0ef          	jal	ra,80000de8 <main>
80004e18:	00050513          	mv	a0,a0
80004e1c:	00100073          	ebreak
80004e20:	0000006f          	j	80004e20 <_trm_init+0x1c>

80004e24 <__am_timer_config>:
80004e24:	00100793          	li	a5,1
80004e28:	00f50023          	sb	a5,0(a0)
80004e2c:	00f500a3          	sb	a5,1(a0)
80004e30:	00008067          	ret

80004e34 <__am_input_config>:
80004e34:	00100793          	li	a5,1
80004e38:	00f50023          	sb	a5,0(a0)
80004e3c:	00008067          	ret

80004e40 <__am_uart_config>:
80004e40:	00050023          	sb	zero,0(a0)
80004e44:	00008067          	ret

80004e48 <__am_net_config>:
80004e48:	00050023          	sb	zero,0(a0)
80004e4c:	00008067          	ret

80004e50 <fail>:
80004e50:	ff010113          	addi	sp,sp,-16
80004e54:	00812423          	sw	s0,8(sp)
80004e58:	00112623          	sw	ra,12(sp)
80004e5c:	00001417          	auipc	s0,0x1
80004e60:	43440413          	addi	s0,s0,1076 # 80006290 <mainargs+0x40>
80004e64:	04100513          	li	a0,65
80004e68:	00140413          	addi	s0,s0,1
80004e6c:	f81ff0ef          	jal	ra,80004dec <putch>
80004e70:	00044503          	lbu	a0,0(s0)
80004e74:	fe051ae3          	bnez	a0,80004e68 <fail+0x18>
80004e78:	00001417          	auipc	s0,0x1
80004e7c:	42440413          	addi	s0,s0,1060 # 8000629c <mainargs+0x4c>
80004e80:	06100513          	li	a0,97
80004e84:	00140413          	addi	s0,s0,1
80004e88:	f65ff0ef          	jal	ra,80004dec <putch>
80004e8c:	00044503          	lbu	a0,0(s0)
80004e90:	fe051ae3          	bnez	a0,80004e84 <fail+0x34>
80004e94:	00001417          	auipc	s0,0x1
80004e98:	42440413          	addi	s0,s0,1060 # 800062b8 <mainargs+0x68>
80004e9c:	02000513          	li	a0,32
80004ea0:	00140413          	addi	s0,s0,1
80004ea4:	f49ff0ef          	jal	ra,80004dec <putch>
80004ea8:	00044503          	lbu	a0,0(s0)
80004eac:	fe051ae3          	bnez	a0,80004ea0 <fail+0x50>
80004eb0:	00100513          	li	a0,1
80004eb4:	f45ff0ef          	jal	ra,80004df8 <halt>

80004eb8 <ioe_init>:
80004eb8:	ff010113          	addi	sp,sp,-16
80004ebc:	00112623          	sw	ra,12(sp)
80004ec0:	00002797          	auipc	a5,0x2
80004ec4:	92c78793          	addi	a5,a5,-1748 # 800067ec <lut>
80004ec8:	00002697          	auipc	a3,0x2
80004ecc:	b2468693          	addi	a3,a3,-1244 # 800069ec <seed>
80004ed0:	00000617          	auipc	a2,0x0
80004ed4:	f8060613          	addi	a2,a2,-128 # 80004e50 <fail>
80004ed8:	00c0006f          	j	80004ee4 <ioe_init+0x2c>
80004edc:	00478793          	addi	a5,a5,4
80004ee0:	00d78c63          	beq	a5,a3,80004ef8 <ioe_init+0x40>
80004ee4:	0007a703          	lw	a4,0(a5)
80004ee8:	fe071ae3          	bnez	a4,80004edc <ioe_init+0x24>
80004eec:	00c7a023          	sw	a2,0(a5)
80004ef0:	00478793          	addi	a5,a5,4
80004ef4:	fed798e3          	bne	a5,a3,80004ee4 <ioe_init+0x2c>
80004ef8:	098000ef          	jal	ra,80004f90 <__am_gpu_init>
80004efc:	034000ef          	jal	ra,80004f30 <__am_timer_init>
80004f00:	14c000ef          	jal	ra,8000504c <__am_audio_init>
80004f04:	00c12083          	lw	ra,12(sp)
80004f08:	00100513          	li	a0,1
80004f0c:	01010113          	addi	sp,sp,16
80004f10:	00008067          	ret

80004f14 <ioe_read>:
80004f14:	00251513          	slli	a0,a0,0x2
80004f18:	00002797          	auipc	a5,0x2
80004f1c:	8d478793          	addi	a5,a5,-1836 # 800067ec <lut>
80004f20:	00a787b3          	add	a5,a5,a0
80004f24:	0007a783          	lw	a5,0(a5)
80004f28:	00058513          	mv	a0,a1
80004f2c:	00078067          	jr	a5

80004f30 <__am_timer_init>:
80004f30:	00008067          	ret

80004f34 <__am_timer_uptime>:
80004f34:	a00007b7          	lui	a5,0xa0000
80004f38:	04c7a703          	lw	a4,76(a5) # a000004c <_end+0x1fff104c>
80004f3c:	0487a783          	lw	a5,72(a5)
80004f40:	00e52223          	sw	a4,4(a0)
80004f44:	00f52023          	sw	a5,0(a0)
80004f48:	00008067          	ret

80004f4c <__am_timer_rtc>:
80004f4c:	7e900793          	li	a5,2025
80004f50:	00052a23          	sw	zero,20(a0)
80004f54:	00052823          	sw	zero,16(a0)
80004f58:	00052623          	sw	zero,12(a0)
80004f5c:	00052423          	sw	zero,8(a0)
80004f60:	00052223          	sw	zero,4(a0)
80004f64:	00f52023          	sw	a5,0(a0)
80004f68:	00008067          	ret

80004f6c <__am_input_keybrd>:
80004f6c:	a00007b7          	lui	a5,0xa0000
80004f70:	0607a783          	lw	a5,96(a5) # a0000060 <_end+0x1fff1060>
80004f74:	00f7d713          	srli	a4,a5,0xf
80004f78:	01179793          	slli	a5,a5,0x11
80004f7c:	00177713          	andi	a4,a4,1
80004f80:	0117d793          	srli	a5,a5,0x11
80004f84:	00e50023          	sb	a4,0(a0)
80004f88:	00f52223          	sw	a5,4(a0)
80004f8c:	00008067          	ret

80004f90 <__am_gpu_init>:
80004f90:	00008067          	ret

80004f94 <__am_gpu_config>:
80004f94:	a00007b7          	lui	a5,0xa0000
80004f98:	1027d703          	lhu	a4,258(a5) # a0000102 <_end+0x1fff1102>
80004f9c:	1007d783          	lhu	a5,256(a5)
80004fa0:	00100693          	li	a3,1
80004fa4:	00d51023          	sh	a3,0(a0)
80004fa8:	00052623          	sw	zero,12(a0)
80004fac:	00e52223          	sw	a4,4(a0)
80004fb0:	00f52423          	sw	a5,8(a0)
80004fb4:	00008067          	ret

80004fb8 <__am_gpu_fbdraw>:
80004fb8:	01454783          	lbu	a5,20(a0)
80004fbc:	00078863          	beqz	a5,80004fcc <__am_gpu_fbdraw+0x14>
80004fc0:	a00007b7          	lui	a5,0xa0000
80004fc4:	00100713          	li	a4,1
80004fc8:	10e7a223          	sw	a4,260(a5) # a0000104 <_end+0x1fff1104>
80004fcc:	00452703          	lw	a4,4(a0)
80004fd0:	19000593          	li	a1,400
80004fd4:	00052783          	lw	a5,0(a0)
80004fd8:	02e585b3          	mul	a1,a1,a4
80004fdc:	01052883          	lw	a7,16(a0)
80004fe0:	00852683          	lw	a3,8(a0)
80004fe4:	00f585b3          	add	a1,a1,a5
80004fe8:	284007b7          	lui	a5,0x28400
80004fec:	00f585b3          	add	a1,a1,a5
80004ff0:	00259593          	slli	a1,a1,0x2
80004ff4:	05105463          	blez	a7,8000503c <__am_gpu_fbdraw+0x84>
80004ff8:	00c52603          	lw	a2,12(a0)
80004ffc:	00000813          	li	a6,0
80005000:	00058713          	mv	a4,a1
80005004:	00000793          	li	a5,0
80005008:	02c05263          	blez	a2,8000502c <__am_gpu_fbdraw+0x74>
8000500c:	0006a603          	lw	a2,0(a3)
80005010:	00178793          	addi	a5,a5,1 # 28400001 <_entry_offset+0x28400001>
80005014:	00468693          	addi	a3,a3,4
80005018:	00c72023          	sw	a2,0(a4)
8000501c:	00c52603          	lw	a2,12(a0)
80005020:	00470713          	addi	a4,a4,4
80005024:	fec7c4e3          	blt	a5,a2,8000500c <__am_gpu_fbdraw+0x54>
80005028:	01052883          	lw	a7,16(a0)
8000502c:	00180813          	addi	a6,a6,1
80005030:	64058593          	addi	a1,a1,1600
80005034:	fd1846e3          	blt	a6,a7,80005000 <__am_gpu_fbdraw+0x48>
80005038:	00008067          	ret
8000503c:	00008067          	ret

80005040 <__am_gpu_status>:
80005040:	00100793          	li	a5,1
80005044:	00f50023          	sb	a5,0(a0)
80005048:	00008067          	ret

8000504c <__am_audio_init>:
8000504c:	00008067          	ret

80005050 <__am_audio_config>:
80005050:	00050023          	sb	zero,0(a0)
80005054:	00008067          	ret

80005058 <__am_audio_ctrl>:
80005058:	00008067          	ret

8000505c <__am_audio_status>:
8000505c:	00052023          	sw	zero,0(a0)
80005060:	00008067          	ret

80005064 <__am_audio_play>:
80005064:	00008067          	ret

80005068 <__am_disk_config>:
80005068:	00050023          	sb	zero,0(a0)
8000506c:	00008067          	ret

80005070 <__am_disk_status>:
80005070:	00008067          	ret

80005074 <__am_disk_blkio>:
80005074:	00008067          	ret

80005078 <strcmp>:
80005078:	00054703          	lbu	a4,0(a0)
8000507c:	0005c783          	lbu	a5,0(a1)
80005080:	00150513          	addi	a0,a0,1
80005084:	00071863          	bnez	a4,80005094 <strcmp+0x1c>
80005088:	00f037b3          	snez	a5,a5
8000508c:	40f00533          	neg	a0,a5
80005090:	00008067          	ret
80005094:	00158593          	addi	a1,a1,1
80005098:	fef700e3          	beq	a4,a5,80005078 <strcmp>
8000509c:	00f76663          	bltu	a4,a5,800050a8 <strcmp+0x30>
800050a0:	00100513          	li	a0,1
800050a4:	00008067          	ret
800050a8:	fff00513          	li	a0,-1
800050ac:	00008067          	ret

800050b0 <__udivmoddi4>:
800050b0:	fe010113          	addi	sp,sp,-32
800050b4:	01212823          	sw	s2,16(sp)
800050b8:	01412423          	sw	s4,8(sp)
800050bc:	01512223          	sw	s5,4(sp)
800050c0:	01612023          	sw	s6,0(sp)
800050c4:	00112e23          	sw	ra,28(sp)
800050c8:	00812c23          	sw	s0,24(sp)
800050cc:	00912a23          	sw	s1,20(sp)
800050d0:	01312623          	sw	s3,12(sp)
800050d4:	00068a93          	mv	s5,a3
800050d8:	00050913          	mv	s2,a0
800050dc:	00060b13          	mv	s6,a2
800050e0:	00070a13          	mv	s4,a4
800050e4:	04059463          	bnez	a1,8000512c <__udivmoddi4+0x7c>
800050e8:	18069863          	bnez	a3,80005278 <__udivmoddi4+0x1c8>
800050ec:	00070863          	beqz	a4,800050fc <__udivmoddi4+0x4c>
800050f0:	02c577b3          	remu	a5,a0,a2
800050f4:	00072223          	sw	zero,4(a4)
800050f8:	00f72023          	sw	a5,0(a4)
800050fc:	03695533          	divu	a0,s2,s6
80005100:	00000593          	li	a1,0
80005104:	01c12083          	lw	ra,28(sp)
80005108:	01812403          	lw	s0,24(sp)
8000510c:	01412483          	lw	s1,20(sp)
80005110:	01012903          	lw	s2,16(sp)
80005114:	00c12983          	lw	s3,12(sp)
80005118:	00812a03          	lw	s4,8(sp)
8000511c:	00412a83          	lw	s5,4(sp)
80005120:	00012b03          	lw	s6,0(sp)
80005124:	02010113          	addi	sp,sp,32
80005128:	00008067          	ret
8000512c:	00058993          	mv	s3,a1
80005130:	00058413          	mv	s0,a1
80005134:	0e061863          	bnez	a2,80005224 <__udivmoddi4+0x174>
80005138:	1a068263          	beqz	a3,800052dc <__udivmoddi4+0x22c>
8000513c:	20050463          	beqz	a0,80005344 <__udivmoddi4+0x294>
80005140:	fff68793          	addi	a5,a3,-1
80005144:	00d7f733          	and	a4,a5,a3
80005148:	22070c63          	beqz	a4,80005380 <__udivmoddi4+0x2d0>
8000514c:	00068513          	mv	a0,a3
80005150:	2b0000ef          	jal	ra,80005400 <__clzsi2>
80005154:	00050493          	mv	s1,a0
80005158:	00098513          	mv	a0,s3
8000515c:	2a4000ef          	jal	ra,80005400 <__clzsi2>
80005160:	40a48733          	sub	a4,s1,a0
80005164:	01e00793          	li	a5,30
80005168:	16e7ec63          	bltu	a5,a4,800052e0 <__udivmoddi4+0x230>
8000516c:	00170713          	addi	a4,a4,1
80005170:	02000e93          	li	t4,32
80005174:	40ee8eb3          	sub	t4,t4,a4
80005178:	01d99633          	sll	a2,s3,t4
8000517c:	00e956b3          	srl	a3,s2,a4
80005180:	00e9d7b3          	srl	a5,s3,a4
80005184:	01d91eb3          	sll	t4,s2,t4
80005188:	00d66433          	or	s0,a2,a3
8000518c:	00000493          	li	s1,0
80005190:	00000313          	li	t1,0
80005194:	01fed693          	srli	a3,t4,0x1f
80005198:	00141813          	slli	a6,s0,0x1
8000519c:	00d86833          	or	a6,a6,a3
800051a0:	01f45413          	srli	s0,s0,0x1f
800051a4:	00179793          	slli	a5,a5,0x1
800051a8:	0087e7b3          	or	a5,a5,s0
800051ac:	410b0e33          	sub	t3,s6,a6
800051b0:	01cb36b3          	sltu	a3,s6,t3
800051b4:	40fa88b3          	sub	a7,s5,a5
800051b8:	40d888b3          	sub	a7,a7,a3
800051bc:	001e3e13          	seqz	t3,t3
800051c0:	41c888b3          	sub	a7,a7,t3
800051c4:	41f8de13          	srai	t3,a7,0x1f
800051c8:	016e7433          	and	s0,t3,s6
800051cc:	40880433          	sub	s0,a6,s0
800051d0:	015e7e33          	and	t3,t3,s5
800051d4:	01f4d693          	srli	a3,s1,0x1f
800051d8:	001e9e93          	slli	t4,t4,0x1
800051dc:	00149493          	slli	s1,s1,0x1
800051e0:	00883833          	sltu	a6,a6,s0
800051e4:	41c787b3          	sub	a5,a5,t3
800051e8:	fff70713          	addi	a4,a4,-1
800051ec:	0064e4b3          	or	s1,s1,t1
800051f0:	00deeeb3          	or	t4,t4,a3
800051f4:	01f8d313          	srli	t1,a7,0x1f
800051f8:	410787b3          	sub	a5,a5,a6
800051fc:	f8071ce3          	bnez	a4,80005194 <__udivmoddi4+0xe4>
80005200:	01f4d993          	srli	s3,s1,0x1f
80005204:	001e9e93          	slli	t4,t4,0x1
80005208:	00149493          	slli	s1,s1,0x1
8000520c:	0064e533          	or	a0,s1,t1
80005210:	01d9e5b3          	or	a1,s3,t4
80005214:	ee0a08e3          	beqz	s4,80005104 <__udivmoddi4+0x54>
80005218:	008a2023          	sw	s0,0(s4)
8000521c:	00fa2223          	sw	a5,4(s4)
80005220:	ee5ff06f          	j	80005104 <__udivmoddi4+0x54>
80005224:	06068663          	beqz	a3,80005290 <__udivmoddi4+0x1e0>
80005228:	00068513          	mv	a0,a3
8000522c:	1d4000ef          	jal	ra,80005400 <__clzsi2>
80005230:	00050493          	mv	s1,a0
80005234:	00098513          	mv	a0,s3
80005238:	1c8000ef          	jal	ra,80005400 <__clzsi2>
8000523c:	40a48733          	sub	a4,s1,a0
80005240:	01f00793          	li	a5,31
80005244:	08e7ee63          	bltu	a5,a4,800052e0 <__udivmoddi4+0x230>
80005248:	00170713          	addi	a4,a4,1
8000524c:	02000793          	li	a5,32
80005250:	00090e93          	mv	t4,s2
80005254:	14f70863          	beq	a4,a5,800053a4 <__udivmoddi4+0x2f4>
80005258:	40e786b3          	sub	a3,a5,a4
8000525c:	00e95633          	srl	a2,s2,a4
80005260:	00d995b3          	sll	a1,s3,a3
80005264:	00e9d7b3          	srl	a5,s3,a4
80005268:	00d91eb3          	sll	t4,s2,a3
8000526c:	00c5e433          	or	s0,a1,a2
80005270:	00000493          	li	s1,0
80005274:	f1dff06f          	j	80005190 <__udivmoddi4+0xe0>
80005278:	06070663          	beqz	a4,800052e4 <__udivmoddi4+0x234>
8000527c:	00aa2023          	sw	a0,0(s4)
80005280:	00072223          	sw	zero,4(a4)
80005284:	00000513          	li	a0,0
80005288:	00000593          	li	a1,0
8000528c:	e79ff06f          	j	80005104 <__udivmoddi4+0x54>
80005290:	fff60793          	addi	a5,a2,-1
80005294:	00c7f733          	and	a4,a5,a2
80005298:	04071c63          	bnez	a4,800052f0 <__udivmoddi4+0x240>
8000529c:	000a0863          	beqz	s4,800052ac <__udivmoddi4+0x1fc>
800052a0:	00a7f7b3          	and	a5,a5,a0
800052a4:	00fa2023          	sw	a5,0(s4)
800052a8:	000a2223          	sw	zero,4(s4)
800052ac:	00100793          	li	a5,1
800052b0:	0cfb0263          	beq	s6,a5,80005374 <__udivmoddi4+0x2c4>
800052b4:	000b0513          	mv	a0,s6
800052b8:	1e0000ef          	jal	ra,80005498 <__ctzsi2>
800052bc:	02000713          	li	a4,32
800052c0:	40a70733          	sub	a4,a4,a0
800052c4:	00050793          	mv	a5,a0
800052c8:	00e99733          	sll	a4,s3,a4
800052cc:	00a95933          	srl	s2,s2,a0
800052d0:	01276533          	or	a0,a4,s2
800052d4:	00f9d5b3          	srl	a1,s3,a5
800052d8:	e2dff06f          	j	80005104 <__udivmoddi4+0x54>
800052dc:	00100073          	ebreak
800052e0:	080a1063          	bnez	s4,80005360 <__udivmoddi4+0x2b0>
800052e4:	00000513          	li	a0,0
800052e8:	00000593          	li	a1,0
800052ec:	e19ff06f          	j	80005104 <__udivmoddi4+0x54>
800052f0:	00060513          	mv	a0,a2
800052f4:	00068493          	mv	s1,a3
800052f8:	108000ef          	jal	ra,80005400 <__clzsi2>
800052fc:	00050993          	mv	s3,a0
80005300:	00040513          	mv	a0,s0
80005304:	0fc000ef          	jal	ra,80005400 <__clzsi2>
80005308:	40a98533          	sub	a0,s3,a0
8000530c:	02150713          	addi	a4,a0,33
80005310:	02000693          	li	a3,32
80005314:	00090e93          	mv	t4,s2
80005318:	00000793          	li	a5,0
8000531c:	e6d70ae3          	beq	a4,a3,80005190 <__udivmoddi4+0xe0>
80005320:	01f00613          	li	a2,31
80005324:	08e66663          	bltu	a2,a4,800053b0 <__udivmoddi4+0x300>
80005328:	40e686b3          	sub	a3,a3,a4
8000532c:	00e95633          	srl	a2,s2,a4
80005330:	00d415b3          	sll	a1,s0,a3
80005334:	00e457b3          	srl	a5,s0,a4
80005338:	00d91eb3          	sll	t4,s2,a3
8000533c:	00c5e433          	or	s0,a1,a2
80005340:	e51ff06f          	j	80005190 <__udivmoddi4+0xe0>
80005344:	00070863          	beqz	a4,80005354 <__udivmoddi4+0x2a4>
80005348:	02d5f7b3          	remu	a5,a1,a3
8000534c:	00072023          	sw	zero,0(a4)
80005350:	00f72223          	sw	a5,4(a4)
80005354:	0359d533          	divu	a0,s3,s5
80005358:	00000593          	li	a1,0
8000535c:	da9ff06f          	j	80005104 <__udivmoddi4+0x54>
80005360:	012a2023          	sw	s2,0(s4)
80005364:	013a2223          	sw	s3,4(s4)
80005368:	00000513          	li	a0,0
8000536c:	00000593          	li	a1,0
80005370:	d95ff06f          	j	80005104 <__udivmoddi4+0x54>
80005374:	00090513          	mv	a0,s2
80005378:	00098593          	mv	a1,s3
8000537c:	d89ff06f          	j	80005104 <__udivmoddi4+0x54>
80005380:	000a0863          	beqz	s4,80005390 <__udivmoddi4+0x2e0>
80005384:	00b7f7b3          	and	a5,a5,a1
80005388:	00aa2023          	sw	a0,0(s4)
8000538c:	00fa2223          	sw	a5,4(s4)
80005390:	000a8513          	mv	a0,s5
80005394:	104000ef          	jal	ra,80005498 <__ctzsi2>
80005398:	00a9d533          	srl	a0,s3,a0
8000539c:	00000593          	li	a1,0
800053a0:	d65ff06f          	j	80005104 <__udivmoddi4+0x54>
800053a4:	00000793          	li	a5,0
800053a8:	00000493          	li	s1,0
800053ac:	de5ff06f          	j	80005190 <__udivmoddi4+0xe0>
800053b0:	04000693          	li	a3,64
800053b4:	40e686b3          	sub	a3,a3,a4
800053b8:	00150513          	addi	a0,a0,1
800053bc:	00d914b3          	sll	s1,s2,a3
800053c0:	00a95eb3          	srl	t4,s2,a0
800053c4:	00d416b3          	sll	a3,s0,a3
800053c8:	01d6eeb3          	or	t4,a3,t4
800053cc:	00a45433          	srl	s0,s0,a0
800053d0:	dc1ff06f          	j	80005190 <__udivmoddi4+0xe0>

800053d4 <__udivdi3>:
800053d4:	00000713          	li	a4,0
800053d8:	cd9ff06f          	j	800050b0 <__udivmoddi4>

800053dc <__umoddi3>:
800053dc:	fe010113          	addi	sp,sp,-32
800053e0:	00810713          	addi	a4,sp,8
800053e4:	00112e23          	sw	ra,28(sp)
800053e8:	cc9ff0ef          	jal	ra,800050b0 <__udivmoddi4>
800053ec:	01c12083          	lw	ra,28(sp)
800053f0:	00812503          	lw	a0,8(sp)
800053f4:	00c12583          	lw	a1,12(sp)
800053f8:	02010113          	addi	sp,sp,32
800053fc:	00008067          	ret

80005400 <__clzsi2>:
80005400:	ffff05b7          	lui	a1,0xffff0
80005404:	00b575b3          	and	a1,a0,a1
80005408:	0015b593          	seqz	a1,a1
8000540c:	00459593          	slli	a1,a1,0x4
80005410:	01000793          	li	a5,16
80005414:	40b787b3          	sub	a5,a5,a1
80005418:	00010737          	lui	a4,0x10
8000541c:	00f557b3          	srl	a5,a0,a5
80005420:	f0070713          	addi	a4,a4,-256 # ff00 <_entry_offset+0xff00>
80005424:	00e7f733          	and	a4,a5,a4
80005428:	00173713          	seqz	a4,a4
8000542c:	00371713          	slli	a4,a4,0x3
80005430:	00800693          	li	a3,8
80005434:	40e686b3          	sub	a3,a3,a4
80005438:	00d7d7b3          	srl	a5,a5,a3
8000543c:	0f07f613          	andi	a2,a5,240
80005440:	00163613          	seqz	a2,a2
80005444:	00261613          	slli	a2,a2,0x2
80005448:	00400693          	li	a3,4
8000544c:	40c686b3          	sub	a3,a3,a2
80005450:	00d7d7b3          	srl	a5,a5,a3
80005454:	00c7f693          	andi	a3,a5,12
80005458:	0016b693          	seqz	a3,a3
8000545c:	00169693          	slli	a3,a3,0x1
80005460:	00200813          	li	a6,2
80005464:	40d80533          	sub	a0,a6,a3
80005468:	00a7d7b3          	srl	a5,a5,a0
8000546c:	0017d513          	srli	a0,a5,0x1
80005470:	00154513          	xori	a0,a0,1
80005474:	00b70733          	add	a4,a4,a1
80005478:	00157513          	andi	a0,a0,1
8000547c:	00e60633          	add	a2,a2,a4
80005480:	40f80833          	sub	a6,a6,a5
80005484:	40a00733          	neg	a4,a0
80005488:	01077733          	and	a4,a4,a6
8000548c:	00c68533          	add	a0,a3,a2
80005490:	00a70533          	add	a0,a4,a0
80005494:	00008067          	ret

80005498 <__ctzsi2>:
80005498:	01051593          	slli	a1,a0,0x10
8000549c:	0105d593          	srli	a1,a1,0x10
800054a0:	0015b593          	seqz	a1,a1
800054a4:	00459593          	slli	a1,a1,0x4
800054a8:	00b557b3          	srl	a5,a0,a1
800054ac:	0ff7f613          	zext.b	a2,a5
800054b0:	00163613          	seqz	a2,a2
800054b4:	00361613          	slli	a2,a2,0x3
800054b8:	00c7d7b3          	srl	a5,a5,a2
800054bc:	00f7f693          	andi	a3,a5,15
800054c0:	0016b693          	seqz	a3,a3
800054c4:	00269693          	slli	a3,a3,0x2
800054c8:	00d7d7b3          	srl	a5,a5,a3
800054cc:	0037f713          	andi	a4,a5,3
800054d0:	00173713          	seqz	a4,a4
800054d4:	00171713          	slli	a4,a4,0x1
800054d8:	00e7d7b3          	srl	a5,a5,a4
800054dc:	0017d513          	srli	a0,a5,0x1
800054e0:	00b60633          	add	a2,a2,a1
800054e4:	0017f793          	andi	a5,a5,1
800054e8:	00157593          	andi	a1,a0,1
800054ec:	00200513          	li	a0,2
800054f0:	00c686b3          	add	a3,a3,a2
800054f4:	40b50533          	sub	a0,a0,a1
800054f8:	fff78793          	addi	a5,a5,-1
800054fc:	00f57533          	and	a0,a0,a5
80005500:	00d70733          	add	a4,a4,a3
80005504:	00e50533          	add	a0,a0,a4
80005508:	00008067          	ret

8000550c <sputch>:
8000550c:	00001717          	auipc	a4,0x1
80005510:	5a870713          	addi	a4,a4,1448 # 80006ab4 <__out>
80005514:	00072783          	lw	a5,0(a4)
80005518:	00178693          	addi	a3,a5,1
8000551c:	00d72023          	sw	a3,0(a4)
80005520:	00a78023          	sb	a0,0(a5)
80005524:	00008067          	ret

80005528 <printf>:
80005528:	fc010113          	addi	sp,sp,-64
8000552c:	02410313          	addi	t1,sp,36
80005530:	02b12223          	sw	a1,36(sp)
80005534:	02c12423          	sw	a2,40(sp)
80005538:	00050593          	mv	a1,a0
8000553c:	00030613          	mv	a2,t1
80005540:	00000517          	auipc	a0,0x0
80005544:	8ac50513          	addi	a0,a0,-1876 # 80004dec <putch>
80005548:	00112e23          	sw	ra,28(sp)
8000554c:	02d12623          	sw	a3,44(sp)
80005550:	02e12823          	sw	a4,48(sp)
80005554:	02f12a23          	sw	a5,52(sp)
80005558:	03012c23          	sw	a6,56(sp)
8000555c:	03112e23          	sw	a7,60(sp)
80005560:	00612623          	sw	t1,12(sp)
80005564:	010000ef          	jal	ra,80005574 <vprintf>
80005568:	01c12083          	lw	ra,28(sp)
8000556c:	04010113          	addi	sp,sp,64
80005570:	00008067          	ret

80005574 <vprintf>:
80005574:	f7010113          	addi	sp,sp,-144
80005578:	08112623          	sw	ra,140(sp)
8000557c:	08812423          	sw	s0,136(sp)
80005580:	08912223          	sw	s1,132(sp)
80005584:	09212023          	sw	s2,128(sp)
80005588:	07312e23          	sw	s3,124(sp)
8000558c:	07412c23          	sw	s4,120(sp)
80005590:	07512a23          	sw	s5,116(sp)
80005594:	07612823          	sw	s6,112(sp)
80005598:	07712623          	sw	s7,108(sp)
8000559c:	07812423          	sw	s8,104(sp)
800055a0:	07912223          	sw	s9,100(sp)
800055a4:	07a12023          	sw	s10,96(sp)
800055a8:	05b12e23          	sw	s11,92(sp)
800055ac:	0005c783          	lbu	a5,0(a1) # ffff0000 <_end+0x7ffe1000>
800055b0:	3a078a63          	beqz	a5,80005964 <vprintf+0x3f0>
800055b4:	ccccdc37          	lui	s8,0xccccd
800055b8:	100009b7          	lui	s3,0x10000
800055bc:	ccdc0493          	addi	s1,s8,-819 # cccccccd <_end+0x4ccbdccd>
800055c0:	00058413          	mv	s0,a1
800055c4:	00050a13          	mv	s4,a0
800055c8:	00060a93          	mv	s5,a2
800055cc:	00000913          	li	s2,0
800055d0:	00000d13          	li	s10,0
800055d4:	00000d93          	li	s11,0
800055d8:	02500b93          	li	s7,37
800055dc:	00001c97          	auipc	s9,0x1
800055e0:	d7cc8c93          	addi	s9,s9,-644 # 80006358 <mainargs+0x108>
800055e4:	01010b13          	addi	s6,sp,16
800055e8:	fff98993          	addi	s3,s3,-1 # fffffff <_entry_offset+0xfffffff>
800055ec:	cccc0c13          	addi	s8,s8,-820
800055f0:	07778063          	beq	a5,s7,80005650 <vprintf+0xdc>
800055f4:	060d9263          	bnez	s11,80005658 <vprintf+0xe4>
800055f8:	00078513          	mv	a0,a5
800055fc:	000a00e7          	jalr	s4
80005600:	00190913          	addi	s2,s2,1
80005604:	00144783          	lbu	a5,1(s0)
80005608:	00140413          	addi	s0,s0,1
8000560c:	fe0792e3          	bnez	a5,800055f0 <vprintf+0x7c>
80005610:	08c12083          	lw	ra,140(sp)
80005614:	08812403          	lw	s0,136(sp)
80005618:	08412483          	lw	s1,132(sp)
8000561c:	07c12983          	lw	s3,124(sp)
80005620:	07812a03          	lw	s4,120(sp)
80005624:	07412a83          	lw	s5,116(sp)
80005628:	07012b03          	lw	s6,112(sp)
8000562c:	06c12b83          	lw	s7,108(sp)
80005630:	06812c03          	lw	s8,104(sp)
80005634:	06412c83          	lw	s9,100(sp)
80005638:	06012d03          	lw	s10,96(sp)
8000563c:	05c12d83          	lw	s11,92(sp)
80005640:	00090513          	mv	a0,s2
80005644:	08012903          	lw	s2,128(sp)
80005648:	09010113          	addi	sp,sp,144
8000564c:	00008067          	ret
80005650:	001dbd93          	seqz	s11,s11
80005654:	01b40433          	add	s0,s0,s11
80005658:	00044783          	lbu	a5,0(s0)
8000565c:	11778663          	beq	a5,s7,80005768 <vprintf+0x1f4>
80005660:	f9d78793          	addi	a5,a5,-99
80005664:	0ff7f793          	zext.b	a5,a5
80005668:	01200713          	li	a4,18
8000566c:	00f76c63          	bltu	a4,a5,80005684 <vprintf+0x110>
80005670:	00279793          	slli	a5,a5,0x2
80005674:	019787b3          	add	a5,a5,s9
80005678:	0007a783          	lw	a5,0(a5)
8000567c:	019787b3          	add	a5,a5,s9
80005680:	00078067          	jr	a5
80005684:	00100d93          	li	s11,1
80005688:	f7dff06f          	j	80005604 <vprintf+0x90>
8000568c:	00200793          	li	a5,2
80005690:	31a7c663          	blt	a5,s10,8000599c <vprintf+0x428>
80005694:	28fd0863          	beq	s10,a5,80005924 <vprintf+0x3b0>
80005698:	000aa703          	lw	a4,0(s5)
8000569c:	00000693          	li	a3,0
800056a0:	004a8a93          	addi	s5,s5,4
800056a4:	00d767b3          	or	a5,a4,a3
800056a8:	0c079863          	bnez	a5,80005778 <vprintf+0x204>
800056ac:	03000513          	li	a0,48
800056b0:	00190913          	addi	s2,s2,1
800056b4:	000a00e7          	jalr	s4
800056b8:	00000d13          	li	s10,0
800056bc:	00000d93          	li	s11,0
800056c0:	f45ff06f          	j	80005604 <vprintf+0x90>
800056c4:	2c0d1863          	bnez	s10,80005994 <vprintf+0x420>
800056c8:	000aa783          	lw	a5,0(s5)
800056cc:	004a8a93          	addi	s5,s5,4
800056d0:	0007c503          	lbu	a0,0(a5)
800056d4:	00f12623          	sw	a5,12(sp)
800056d8:	26050e63          	beqz	a0,80005954 <vprintf+0x3e0>
800056dc:	00090d93          	mv	s11,s2
800056e0:	000a00e7          	jalr	s4
800056e4:	00c12703          	lw	a4,12(sp)
800056e8:	001d8d93          	addi	s11,s11,1
800056ec:	412d87b3          	sub	a5,s11,s2
800056f0:	00f707b3          	add	a5,a4,a5
800056f4:	0007c503          	lbu	a0,0(a5)
800056f8:	fe0514e3          	bnez	a0,800056e0 <vprintf+0x16c>
800056fc:	000d8913          	mv	s2,s11
80005700:	00000d93          	li	s11,0
80005704:	f01ff06f          	j	80005604 <vprintf+0x90>
80005708:	001d0d13          	addi	s10,s10,1
8000570c:	00100d93          	li	s11,1
80005710:	ef5ff06f          	j	80005604 <vprintf+0x90>
80005714:	00200793          	li	a5,2
80005718:	25a7ca63          	blt	a5,s10,8000596c <vprintf+0x3f8>
8000571c:	22fd0063          	beq	s10,a5,8000593c <vprintf+0x3c8>
80005720:	000aad83          	lw	s11,0(s5)
80005724:	004a8a93          	addi	s5,s5,4
80005728:	41fdd713          	srai	a4,s11,0x1f
8000572c:	00190d13          	addi	s10,s2,1
80005730:	10074a63          	bltz	a4,80005844 <vprintf+0x2d0>
80005734:	00ede7b3          	or	a5,s11,a4
80005738:	22079263          	bnez	a5,8000595c <vprintf+0x3e8>
8000573c:	03000513          	li	a0,48
80005740:	000a00e7          	jalr	s4
80005744:	000d0913          	mv	s2,s10
80005748:	f71ff06f          	j	800056b8 <vprintf+0x144>
8000574c:	240d1063          	bnez	s10,8000598c <vprintf+0x418>
80005750:	000ac503          	lbu	a0,0(s5)
80005754:	00190913          	addi	s2,s2,1
80005758:	004a8a93          	addi	s5,s5,4
8000575c:	000a00e7          	jalr	s4
80005760:	00000d93          	li	s11,0
80005764:	ea1ff06f          	j	80005604 <vprintf+0x90>
80005768:	02500513          	li	a0,37
8000576c:	000a00e7          	jalr	s4
80005770:	00000d93          	li	s11,0
80005774:	e91ff06f          	j	80005604 <vprintf+0x90>
80005778:	000b0613          	mv	a2,s6
8000577c:	00000593          	li	a1,0
80005780:	00500813          	li	a6,5
80005784:	00900893          	li	a7,9
80005788:	00469793          	slli	a5,a3,0x4
8000578c:	01c75513          	srli	a0,a4,0x1c
80005790:	00a7e533          	or	a0,a5,a0
80005794:	01357533          	and	a0,a0,s3
80005798:	013777b3          	and	a5,a4,s3
8000579c:	0186d313          	srli	t1,a3,0x18
800057a0:	00a787b3          	add	a5,a5,a0
800057a4:	006787b3          	add	a5,a5,t1
800057a8:	0307f7b3          	remu	a5,a5,a6
800057ac:	00068313          	mv	t1,a3
800057b0:	00160613          	addi	a2,a2,1
800057b4:	00058d13          	mv	s10,a1
800057b8:	00070e13          	mv	t3,a4
800057bc:	00158593          	addi	a1,a1,1
800057c0:	40f707b3          	sub	a5,a4,a5
800057c4:	00f73533          	sltu	a0,a4,a5
800057c8:	40a686b3          	sub	a3,a3,a0
800057cc:	03878eb3          	mul	t4,a5,s8
800057d0:	029686b3          	mul	a3,a3,s1
800057d4:	0297b533          	mulhu	a0,a5,s1
800057d8:	01d686b3          	add	a3,a3,t4
800057dc:	029787b3          	mul	a5,a5,s1
800057e0:	00a686b3          	add	a3,a3,a0
800057e4:	01f69513          	slli	a0,a3,0x1f
800057e8:	0016d693          	srli	a3,a3,0x1
800057ec:	0017d793          	srli	a5,a5,0x1
800057f0:	00f567b3          	or	a5,a0,a5
800057f4:	00279513          	slli	a0,a5,0x2
800057f8:	00f50533          	add	a0,a0,a5
800057fc:	00151513          	slli	a0,a0,0x1
80005800:	40a70533          	sub	a0,a4,a0
80005804:	03050513          	addi	a0,a0,48
80005808:	0ff57513          	zext.b	a0,a0
8000580c:	fea60fa3          	sb	a0,-1(a2)
80005810:	00078713          	mv	a4,a5
80005814:	f6031ae3          	bnez	t1,80005788 <vprintf+0x214>
80005818:	f7c8e8e3          	bltu	a7,t3,80005788 <vprintf+0x214>
8000581c:	01ab0db3          	add	s11,s6,s10
80005820:	00c0006f          	j	8000582c <vprintf+0x2b8>
80005824:	fffdc503          	lbu	a0,-1(s11)
80005828:	00078d93          	mv	s11,a5
8000582c:	000a00e7          	jalr	s4
80005830:	fffd8793          	addi	a5,s11,-1
80005834:	ffbb18e3          	bne	s6,s11,80005824 <vprintf+0x2b0>
80005838:	00190913          	addi	s2,s2,1
8000583c:	01a90933          	add	s2,s2,s10
80005840:	e79ff06f          	j	800056b8 <vprintf+0x144>
80005844:	01b037b3          	snez	a5,s11
80005848:	40e00733          	neg	a4,a4
8000584c:	40f70733          	sub	a4,a4,a5
80005850:	02d00513          	li	a0,45
80005854:	00e12623          	sw	a4,12(sp)
80005858:	000a00e7          	jalr	s4
8000585c:	00c12703          	lw	a4,12(sp)
80005860:	41b00db3          	neg	s11,s11
80005864:	000b0693          	mv	a3,s6
80005868:	00000613          	li	a2,0
8000586c:	00500593          	li	a1,5
80005870:	00471793          	slli	a5,a4,0x4
80005874:	01cdd513          	srli	a0,s11,0x1c
80005878:	00a7e533          	or	a0,a5,a0
8000587c:	01357533          	and	a0,a0,s3
80005880:	013df7b3          	and	a5,s11,s3
80005884:	01875813          	srli	a6,a4,0x18
80005888:	00a787b3          	add	a5,a5,a0
8000588c:	010787b3          	add	a5,a5,a6
80005890:	02b7f7b3          	remu	a5,a5,a1
80005894:	00168693          	addi	a3,a3,1
80005898:	00060913          	mv	s2,a2
8000589c:	00160613          	addi	a2,a2,1
800058a0:	40fd87b3          	sub	a5,s11,a5
800058a4:	00fdb533          	sltu	a0,s11,a5
800058a8:	40a70733          	sub	a4,a4,a0
800058ac:	03878833          	mul	a6,a5,s8
800058b0:	02970733          	mul	a4,a4,s1
800058b4:	0297b533          	mulhu	a0,a5,s1
800058b8:	01070733          	add	a4,a4,a6
800058bc:	029787b3          	mul	a5,a5,s1
800058c0:	00a70733          	add	a4,a4,a0
800058c4:	01f71513          	slli	a0,a4,0x1f
800058c8:	00175713          	srli	a4,a4,0x1
800058cc:	0017d793          	srli	a5,a5,0x1
800058d0:	00f567b3          	or	a5,a0,a5
800058d4:	00279513          	slli	a0,a5,0x2
800058d8:	00f50533          	add	a0,a0,a5
800058dc:	00151513          	slli	a0,a0,0x1
800058e0:	40ad8533          	sub	a0,s11,a0
800058e4:	03050513          	addi	a0,a0,48
800058e8:	0ff57513          	zext.b	a0,a0
800058ec:	00078d93          	mv	s11,a5
800058f0:	fea68fa3          	sb	a0,-1(a3)
800058f4:	00e7e7b3          	or	a5,a5,a4
800058f8:	f6079ce3          	bnez	a5,80005870 <vprintf+0x2fc>
800058fc:	012b0db3          	add	s11,s6,s2
80005900:	00c0006f          	j	8000590c <vprintf+0x398>
80005904:	fffdc503          	lbu	a0,-1(s11)
80005908:	00078d93          	mv	s11,a5
8000590c:	000a00e7          	jalr	s4
80005910:	fffd8793          	addi	a5,s11,-1
80005914:	ffbb18e3          	bne	s6,s11,80005904 <vprintf+0x390>
80005918:	001d0d13          	addi	s10,s10,1
8000591c:	012d0933          	add	s2,s10,s2
80005920:	d99ff06f          	j	800056b8 <vprintf+0x144>
80005924:	007a8a93          	addi	s5,s5,7
80005928:	ff8afa93          	andi	s5,s5,-8
8000592c:	000aa703          	lw	a4,0(s5)
80005930:	004aa683          	lw	a3,4(s5)
80005934:	008a8a93          	addi	s5,s5,8
80005938:	d6dff06f          	j	800056a4 <vprintf+0x130>
8000593c:	007a8a93          	addi	s5,s5,7
80005940:	ff8afa93          	andi	s5,s5,-8
80005944:	000aad83          	lw	s11,0(s5)
80005948:	004aa703          	lw	a4,4(s5)
8000594c:	008a8a93          	addi	s5,s5,8
80005950:	dddff06f          	j	8000572c <vprintf+0x1b8>
80005954:	00000d93          	li	s11,0
80005958:	cadff06f          	j	80005604 <vprintf+0x90>
8000595c:	00090d13          	mv	s10,s2
80005960:	f05ff06f          	j	80005864 <vprintf+0x2f0>
80005964:	00000913          	li	s2,0
80005968:	ca9ff06f          	j	80005610 <vprintf+0x9c>
8000596c:	03000613          	li	a2,48
80005970:	00001597          	auipc	a1,0x1
80005974:	9a458593          	addi	a1,a1,-1628 # 80006314 <mainargs+0xc4>
80005978:	00000517          	auipc	a0,0x0
8000597c:	4c050513          	addi	a0,a0,1216 # 80005e38 <_etext+0x428>
80005980:	ba9ff0ef          	jal	ra,80005528 <printf>
80005984:	00100513          	li	a0,1
80005988:	c70ff0ef          	jal	ra,80004df8 <halt>
8000598c:	02a00613          	li	a2,42
80005990:	fe1ff06f          	j	80005970 <vprintf+0x3fc>
80005994:	02100613          	li	a2,33
80005998:	fd9ff06f          	j	80005970 <vprintf+0x3fc>
8000599c:	04c00613          	li	a2,76
800059a0:	fd1ff06f          	j	80005970 <vprintf+0x3fc>

800059a4 <sprintf>:
800059a4:	fc010113          	addi	sp,sp,-64
800059a8:	02810313          	addi	t1,sp,40
800059ac:	00812c23          	sw	s0,24(sp)
800059b0:	00050e13          	mv	t3,a0
800059b4:	00001417          	auipc	s0,0x1
800059b8:	10040413          	addi	s0,s0,256 # 80006ab4 <__out>
800059bc:	02c12423          	sw	a2,40(sp)
800059c0:	00000517          	auipc	a0,0x0
800059c4:	b4c50513          	addi	a0,a0,-1204 # 8000550c <sputch>
800059c8:	00030613          	mv	a2,t1
800059cc:	00112e23          	sw	ra,28(sp)
800059d0:	02e12823          	sw	a4,48(sp)
800059d4:	02f12a23          	sw	a5,52(sp)
800059d8:	02d12623          	sw	a3,44(sp)
800059dc:	03012c23          	sw	a6,56(sp)
800059e0:	03112e23          	sw	a7,60(sp)
800059e4:	00612623          	sw	t1,12(sp)
800059e8:	01c42023          	sw	t3,0(s0)
800059ec:	b89ff0ef          	jal	ra,80005574 <vprintf>
800059f0:	00042783          	lw	a5,0(s0)
800059f4:	00078023          	sb	zero,0(a5)
800059f8:	00178713          	addi	a4,a5,1
800059fc:	01c12083          	lw	ra,28(sp)
80005a00:	00e42023          	sw	a4,0(s0)
80005a04:	01812403          	lw	s0,24(sp)
80005a08:	04010113          	addi	sp,sp,64
80005a0c:	00008067          	ret
