
/home/meowth/ysyx/ysyx-workbench/am-kernels/tests/am-tests/build/amtest-riscv32-nemu.elf:     file format elf32-littleriscv


Disassembly of section .text:

80000000 <_start>:
80000000:	00000413          	li	s0,0
80000004:	0009e117          	auipc	sp,0x9e
80000008:	ffc10113          	addi	sp,sp,-4 # 8009e000 <_end>
8000000c:	034010ef          	jal	ra,80001040 <_trm_init>

80000010 <rtc_test>:
80000010:	fb010113          	addi	sp,sp,-80
80000014:	05212023          	sw	s2,64(sp)
80000018:	000f4937          	lui	s2,0xf4
8000001c:	04812423          	sw	s0,72(sp)
80000020:	04912223          	sw	s1,68(sp)
80000024:	03312e23          	sw	s3,60(sp)
80000028:	03412c23          	sw	s4,56(sp)
8000002c:	03512a23          	sw	s5,52(sp)
80000030:	03612823          	sw	s6,48(sp)
80000034:	03712623          	sw	s7,44(sp)
80000038:	04112623          	sw	ra,76(sp)
8000003c:	00100493          	li	s1,1
80000040:	00000413          	li	s0,0
80000044:	24090913          	addi	s2,s2,576 # f4240 <_entry_offset+0xf4240>
80000048:	00000993          	li	s3,0
8000004c:	00002b17          	auipc	s6,0x2
80000050:	f78b0b13          	addi	s6,s6,-136 # 80001fc4 <_etext>
80000054:	00100a93          	li	s5,1
80000058:	00002b97          	auipc	s7,0x2
8000005c:	f9cb8b93          	addi	s7,s7,-100 # 80001ff4 <_etext+0x30>
80000060:	00002a17          	auipc	s4,0x2
80000064:	f84a0a13          	addi	s4,s4,-124 # 80001fe4 <_etext+0x20>
80000068:	00810593          	addi	a1,sp,8
8000006c:	00600513          	li	a0,6
80000070:	0e0010ef          	jal	ra,80001150 <ioe_read>
80000074:	00812503          	lw	a0,8(sp)
80000078:	00c12583          	lw	a1,12(sp)
8000007c:	00090613          	mv	a2,s2
80000080:	00098693          	mv	a3,s3
80000084:	1b1010ef          	jal	ra,80001a34 <__udivdi3>
80000088:	fe85e0e3          	bltu	a1,s0,80000068 <rtc_test+0x58>
8000008c:	00b41463          	bne	s0,a1,80000094 <rtc_test+0x84>
80000090:	fc956ce3          	bltu	a0,s1,80000068 <rtc_test+0x58>
80000094:	00810593          	addi	a1,sp,8
80000098:	00500513          	li	a0,5
8000009c:	0b4010ef          	jal	ra,80001150 <ioe_read>
800000a0:	00812583          	lw	a1,8(sp)
800000a4:	01c12803          	lw	a6,28(sp)
800000a8:	01812783          	lw	a5,24(sp)
800000ac:	01412703          	lw	a4,20(sp)
800000b0:	01012683          	lw	a3,16(sp)
800000b4:	00c12603          	lw	a2,12(sp)
800000b8:	000b0513          	mv	a0,s6
800000bc:	28d010ef          	jal	ra,80001b48 <printf>
800000c0:	00100593          	li	a1,1
800000c4:	000a0513          	mv	a0,s4
800000c8:	01548663          	beq	s1,s5,800000d4 <rtc_test+0xc4>
800000cc:	00048593          	mv	a1,s1
800000d0:	000b8513          	mv	a0,s7
800000d4:	275010ef          	jal	ra,80001b48 <printf>
800000d8:	00148793          	addi	a5,s1,1
800000dc:	0097b4b3          	sltu	s1,a5,s1
800000e0:	00848433          	add	s0,s1,s0
800000e4:	00078493          	mv	s1,a5
800000e8:	f81ff06f          	j	80000068 <rtc_test+0x58>

800000ec <redraw>:
800000ec:	fb010113          	addi	sp,sp,-80
800000f0:	00810593          	addi	a1,sp,8
800000f4:	00900513          	li	a0,9
800000f8:	04112623          	sw	ra,76(sp)
800000fc:	03312e23          	sw	s3,60(sp)
80000100:	03512a23          	sw	s5,52(sp)
80000104:	03712623          	sw	s7,44(sp)
80000108:	04812423          	sw	s0,72(sp)
8000010c:	04912223          	sw	s1,68(sp)
80000110:	05212023          	sw	s2,64(sp)
80000114:	03412c23          	sw	s4,56(sp)
80000118:	03612823          	sw	s6,48(sp)
8000011c:	03812423          	sw	s8,40(sp)
80000120:	03912223          	sw	s9,36(sp)
80000124:	02c010ef          	jal	ra,80001150 <ioe_read>
80000128:	00c12783          	lw	a5,12(sp)
8000012c:	00810593          	addi	a1,sp,8
80000130:	00900513          	li	a0,9
80000134:	41f7d993          	srai	s3,a5,0x1f
80000138:	01f9f993          	andi	s3,s3,31
8000013c:	00f989b3          	add	s3,s3,a5
80000140:	010010ef          	jal	ra,80001150 <ioe_read>
80000144:	01012783          	lw	a5,16(sp)
80000148:	4059d993          	srai	s3,s3,0x5
8000014c:	40000713          	li	a4,1024
80000150:	41f7da93          	srai	s5,a5,0x1f
80000154:	01fafa93          	andi	s5,s5,31
80000158:	00fa8ab3          	add	s5,s5,a5
8000015c:	405ada93          	srai	s5,s5,0x5
80000160:	03598bb3          	mul	s7,s3,s5
80000164:	0f776063          	bltu	a4,s7,80000244 <redraw+0x158>
80000168:	00012a17          	auipc	s4,0x12
8000016c:	ce4a0a13          	addi	s4,s4,-796 # 80011e4c <color_buf>
80000170:	002b9413          	slli	s0,s7,0x2
80000174:	00011b17          	auipc	s6,0x11
80000178:	d58b0b13          	addi	s6,s6,-680 # 80010ecc <canvas+0x80>
8000017c:	00012c17          	auipc	s8,0x12
80000180:	d50c0c13          	addi	s8,s8,-688 # 80011ecc <color_buf+0x80>
80000184:	008a0433          	add	s0,s4,s0
80000188:	00000c93          	li	s9,0
8000018c:	f80b0493          	addi	s1,s6,-128
80000190:	00000913          	li	s2,0
80000194:	000b8c63          	beqz	s7,800001ac <redraw+0xc0>
80000198:	0004a703          	lw	a4,0(s1)
8000019c:	000a0793          	mv	a5,s4
800001a0:	00e7a023          	sw	a4,0(a5)
800001a4:	00478793          	addi	a5,a5,4
800001a8:	fe879ce3          	bne	a5,s0,800001a0 <redraw+0xb4>
800001ac:	00448493          	addi	s1,s1,4
800001b0:	00810593          	addi	a1,sp,8
800001b4:	00b00513          	li	a0,11
800001b8:	01212423          	sw	s2,8(sp)
800001bc:	01912623          	sw	s9,12(sp)
800001c0:	01412823          	sw	s4,16(sp)
800001c4:	01312a23          	sw	s3,20(sp)
800001c8:	01512c23          	sw	s5,24(sp)
800001cc:	00010e23          	sb	zero,28(sp)
800001d0:	01390933          	add	s2,s2,s3
800001d4:	799000ef          	jal	ra,8000116c <ioe_write>
800001d8:	fb649ee3          	bne	s1,s6,80000194 <redraw+0xa8>
800001dc:	08048b13          	addi	s6,s1,128
800001e0:	015c8cb3          	add	s9,s9,s5
800001e4:	fb8b14e3          	bne	s6,s8,8000018c <redraw+0xa0>
800001e8:	00810593          	addi	a1,sp,8
800001ec:	00100793          	li	a5,1
800001f0:	00b00513          	li	a0,11
800001f4:	00012423          	sw	zero,8(sp)
800001f8:	00012623          	sw	zero,12(sp)
800001fc:	00012823          	sw	zero,16(sp)
80000200:	00012a23          	sw	zero,20(sp)
80000204:	00012c23          	sw	zero,24(sp)
80000208:	00f10e23          	sb	a5,28(sp)
8000020c:	761000ef          	jal	ra,8000116c <ioe_write>
80000210:	04c12083          	lw	ra,76(sp)
80000214:	04812403          	lw	s0,72(sp)
80000218:	04412483          	lw	s1,68(sp)
8000021c:	04012903          	lw	s2,64(sp)
80000220:	03c12983          	lw	s3,60(sp)
80000224:	03812a03          	lw	s4,56(sp)
80000228:	03412a83          	lw	s5,52(sp)
8000022c:	03012b03          	lw	s6,48(sp)
80000230:	02c12b83          	lw	s7,44(sp)
80000234:	02812c03          	lw	s8,40(sp)
80000238:	02412c83          	lw	s9,36(sp)
8000023c:	05010113          	addi	sp,sp,80
80000240:	00008067          	ret
80000244:	01600613          	li	a2,22
80000248:	00002597          	auipc	a1,0x2
8000024c:	dbc58593          	addi	a1,a1,-580 # 80002004 <_etext+0x40>
80000250:	00002517          	auipc	a0,0x2
80000254:	e0450513          	addi	a0,a0,-508 # 80002054 <_etext+0x90>
80000258:	0f1010ef          	jal	ra,80001b48 <printf>
8000025c:	00100513          	li	a0,1
80000260:	5d5000ef          	jal	ra,80001034 <halt>

80000264 <update>:
80000264:	00095797          	auipc	a5,0x95
80000268:	e0878793          	addi	a5,a5,-504 # 8009506c <tsc.2>
8000026c:	0007a383          	lw	t2,0(a5)
80000270:	ff010113          	addi	sp,sp,-16
80000274:	00812623          	sw	s0,12(sp)
80000278:	00912423          	sw	s1,8(sp)
8000027c:	01212223          	sw	s2,4(sp)
80000280:	01312023          	sw	s3,0(sp)
80000284:	00138393          	addi	t2,t2,1
80000288:	00013717          	auipc	a4,0x13
8000028c:	c4470713          	addi	a4,a4,-956 # 80012ecc <used+0x80>
80000290:	00014697          	auipc	a3,0x14
80000294:	c3c68693          	addi	a3,a3,-964 # 80013ecc <buf.0+0x80>
80000298:	0077a023          	sw	t2,0(a5)
8000029c:	f8070793          	addi	a5,a4,-128
800002a0:	0007a023          	sw	zero,0(a5)
800002a4:	00478793          	addi	a5,a5,4
800002a8:	fef71ce3          	bne	a4,a5,800002a0 <update+0x3c>
800002ac:	08070713          	addi	a4,a4,128
800002b0:	fed716e3          	bne	a4,a3,8000029c <update+0x38>
800002b4:	0ff3f693          	zext.b	a3,t2
800002b8:	00169793          	slli	a5,a3,0x1
800002bc:	00f687b3          	add	a5,a3,a5
800002c0:	00369713          	slli	a4,a3,0x3
800002c4:	00179793          	slli	a5,a5,0x1
800002c8:	40d70733          	sub	a4,a4,a3
800002cc:	0ff7f793          	zext.b	a5,a5
800002d0:	0ff77713          	zext.b	a4,a4
800002d4:	00871713          	slli	a4,a4,0x8
800002d8:	01079793          	slli	a5,a5,0x10
800002dc:	00e7e7b3          	or	a5,a5,a4
800002e0:	0ff3f713          	zext.b	a4,t2
800002e4:	00e7e7b3          	or	a5,a5,a4
800002e8:	00011417          	auipc	s0,0x11
800002ec:	b6440413          	addi	s0,s0,-1180 # 80010e4c <canvas>
800002f0:	00013e97          	auipc	t4,0x13
800002f4:	b5ce8e93          	addi	t4,t4,-1188 # 80012e4c <used>
800002f8:	00f42023          	sw	a5,0(s0)
800002fc:	00100793          	li	a5,1
80000300:	00fea023          	sw	a5,0(t4)
80000304:	00100713          	li	a4,1
80000308:	00000793          	li	a5,0
8000030c:	00100f93          	li	t6,1
80000310:	00000593          	li	a1,0
80000314:	00000913          	li	s2,0
80000318:	00000e13          	li	t3,0
8000031c:	01f00f13          	li	t5,31
80000320:	00002317          	auipc	t1,0x2
80000324:	d6030313          	addi	t1,t1,-672 # 80002080 <dx.1>
80000328:	00002897          	auipc	a7,0x2
8000032c:	d6888893          	addi	a7,a7,-664 # 80002090 <dy.0>
80000330:	00100493          	li	s1,1
80000334:	40000293          	li	t0,1024
80000338:	00400693          	li	a3,4
8000033c:	00fe0633          	add	a2,t3,a5
80000340:	00e90733          	add	a4,s2,a4
80000344:	00561793          	slli	a5,a2,0x5
80000348:	00e787b3          	add	a5,a5,a4
8000034c:	00279793          	slli	a5,a5,0x2
80000350:	00e66533          	or	a0,a2,a4
80000354:	00fe89b3          	add	s3,t4,a5
80000358:	00158813          	addi	a6,a1,1
8000035c:	fff68693          	addi	a3,a3,-1
80000360:	00af6663          	bltu	t5,a0,8000036c <update+0x108>
80000364:	0009a503          	lw	a0,0(s3)
80000368:	02050263          	beqz	a0,8000038c <update+0x128>
8000036c:	00387593          	andi	a1,a6,3
80000370:	00259793          	slli	a5,a1,0x2
80000374:	00f30633          	add	a2,t1,a5
80000378:	00f88733          	add	a4,a7,a5
8000037c:	06068063          	beqz	a3,800003dc <update+0x178>
80000380:	00062783          	lw	a5,0(a2)
80000384:	00072703          	lw	a4,0(a4)
80000388:	fb5ff06f          	j	8000033c <update+0xd8>
8000038c:	401fd813          	srai	a6,t6,0x1
80000390:	00780833          	add	a6,a6,t2
80000394:	0ff87e13          	zext.b	t3,a6
80000398:	001e1513          	slli	a0,t3,0x1
8000039c:	00ae0533          	add	a0,t3,a0
800003a0:	003e1693          	slli	a3,t3,0x3
800003a4:	41c686b3          	sub	a3,a3,t3
800003a8:	00151513          	slli	a0,a0,0x1
800003ac:	0ff57513          	zext.b	a0,a0
800003b0:	0ff6f693          	zext.b	a3,a3
800003b4:	00869693          	slli	a3,a3,0x8
800003b8:	01051513          	slli	a0,a0,0x10
800003bc:	00d56533          	or	a0,a0,a3
800003c0:	0ff87813          	zext.b	a6,a6
800003c4:	00f406b3          	add	a3,s0,a5
800003c8:	010567b3          	or	a5,a0,a6
800003cc:	0099a023          	sw	s1,0(s3)
800003d0:	00f6a023          	sw	a5,0(a3)
800003d4:	00070913          	mv	s2,a4
800003d8:	00060e13          	mv	t3,a2
800003dc:	001f8f93          	addi	t6,t6,1
800003e0:	005f8e63          	beq	t6,t0,800003fc <update+0x198>
800003e4:	00259793          	slli	a5,a1,0x2
800003e8:	00f88733          	add	a4,a7,a5
800003ec:	00f306b3          	add	a3,t1,a5
800003f0:	0006a783          	lw	a5,0(a3)
800003f4:	00072703          	lw	a4,0(a4)
800003f8:	f41ff06f          	j	80000338 <update+0xd4>
800003fc:	00c12403          	lw	s0,12(sp)
80000400:	00812483          	lw	s1,8(sp)
80000404:	00412903          	lw	s2,4(sp)
80000408:	00012983          	lw	s3,0(sp)
8000040c:	01010113          	addi	sp,sp,16
80000410:	00008067          	ret

80000414 <video_test>:
80000414:	fd010113          	addi	sp,sp,-48
80000418:	02912223          	sw	s1,36(sp)
8000041c:	03212023          	sw	s2,32(sp)
80000420:	01312e23          	sw	s3,28(sp)
80000424:	01412c23          	sw	s4,24(sp)
80000428:	01512a23          	sw	s5,20(sp)
8000042c:	01612823          	sw	s6,16(sp)
80000430:	02112623          	sw	ra,44(sp)
80000434:	02812423          	sw	s0,40(sp)
80000438:	00000993          	li	s3,0
8000043c:	00000913          	li	s2,0
80000440:	00000493          	li	s1,0
80000444:	02100a93          	li	s5,33
80000448:	3e800a13          	li	s4,1000
8000044c:	00002b17          	auipc	s6,0x2
80000450:	c24b0b13          	addi	s6,s6,-988 # 80002070 <_etext+0xac>
80000454:	00810593          	addi	a1,sp,8
80000458:	00600513          	li	a0,6
8000045c:	4f5000ef          	jal	ra,80001150 <ioe_read>
80000460:	00812503          	lw	a0,8(sp)
80000464:	00c12583          	lw	a1,12(sp)
80000468:	3e800613          	li	a2,1000
8000046c:	00000693          	li	a3,0
80000470:	5c4010ef          	jal	ra,80001a34 <__udivdi3>
80000474:	409507b3          	sub	a5,a0,s1
80000478:	00050413          	mv	s0,a0
8000047c:	02fae463          	bltu	s5,a5,800004a4 <video_test+0x90>
80000480:	412407b3          	sub	a5,s0,s2
80000484:	fcfa78e3          	bgeu	s4,a5,80000454 <video_test+0x40>
80000488:	00098613          	mv	a2,s3
8000048c:	00040593          	mv	a1,s0
80000490:	000b0513          	mv	a0,s6
80000494:	6b4010ef          	jal	ra,80001b48 <printf>
80000498:	00040913          	mv	s2,s0
8000049c:	00000993          	li	s3,0
800004a0:	fb5ff06f          	j	80000454 <video_test+0x40>
800004a4:	dc1ff0ef          	jal	ra,80000264 <update>
800004a8:	00198993          	addi	s3,s3,1
800004ac:	c41ff0ef          	jal	ra,800000ec <redraw>
800004b0:	00040493          	mv	s1,s0
800004b4:	fcdff06f          	j	80000480 <video_test+0x6c>

800004b8 <simple_trap>:
800004b8:	00052783          	lw	a5,0(a0)
800004bc:	ff010113          	addi	sp,sp,-16
800004c0:	00812423          	sw	s0,8(sp)
800004c4:	00112623          	sw	ra,12(sp)
800004c8:	00500713          	li	a4,5
800004cc:	00058413          	mv	s0,a1
800004d0:	0ae78a63          	beq	a5,a4,80000584 <simple_trap+0xcc>
800004d4:	00600713          	li	a4,6
800004d8:	08e78863          	beq	a5,a4,80000568 <simple_trap+0xb0>
800004dc:	00100713          	li	a4,1
800004e0:	06e78063          	beq	a5,a4,80000540 <simple_trap+0x88>
800004e4:	00002417          	auipc	s0,0x2
800004e8:	bbc40413          	addi	s0,s0,-1092 # 800020a0 <dy.0+0x10>
800004ec:	04100513          	li	a0,65
800004f0:	00140413          	addi	s0,s0,1
800004f4:	335000ef          	jal	ra,80001028 <putch>
800004f8:	00044503          	lbu	a0,0(s0)
800004fc:	fe051ae3          	bnez	a0,800004f0 <simple_trap+0x38>
80000500:	00002417          	auipc	s0,0x2
80000504:	bac40413          	addi	s0,s0,-1108 # 800020ac <dy.0+0x1c>
80000508:	05500513          	li	a0,85
8000050c:	00140413          	addi	s0,s0,1
80000510:	319000ef          	jal	ra,80001028 <putch>
80000514:	00044503          	lbu	a0,0(s0)
80000518:	fe051ae3          	bnez	a0,8000050c <simple_trap+0x54>
8000051c:	00002417          	auipc	s0,0x2
80000520:	ba040413          	addi	s0,s0,-1120 # 800020bc <dy.0+0x2c>
80000524:	02000513          	li	a0,32
80000528:	00140413          	addi	s0,s0,1
8000052c:	2fd000ef          	jal	ra,80001028 <putch>
80000530:	00044503          	lbu	a0,0(s0)
80000534:	fe051ae3          	bnez	a0,80000528 <simple_trap+0x70>
80000538:	00100513          	li	a0,1
8000053c:	2f9000ef          	jal	ra,80001034 <halt>
80000540:	07900513          	li	a0,121
80000544:	2e5000ef          	jal	ra,80001028 <putch>
80000548:	00002517          	auipc	a0,0x2
8000054c:	78c50513          	addi	a0,a0,1932 # 80002cd4 <mainargs+0xb4>
80000550:	5f8010ef          	jal	ra,80001b48 <printf>
80000554:	00c12083          	lw	ra,12(sp)
80000558:	00040513          	mv	a0,s0
8000055c:	00812403          	lw	s0,8(sp)
80000560:	01010113          	addi	sp,sp,16
80000564:	00008067          	ret
80000568:	06400513          	li	a0,100
8000056c:	2bd000ef          	jal	ra,80001028 <putch>
80000570:	00c12083          	lw	ra,12(sp)
80000574:	00040513          	mv	a0,s0
80000578:	00812403          	lw	s0,8(sp)
8000057c:	01010113          	addi	sp,sp,16
80000580:	00008067          	ret
80000584:	07400513          	li	a0,116
80000588:	2a1000ef          	jal	ra,80001028 <putch>
8000058c:	00c12083          	lw	ra,12(sp)
80000590:	00040513          	mv	a0,s0
80000594:	00812403          	lw	s0,8(sp)
80000598:	01010113          	addi	sp,sp,16
8000059c:	00008067          	ret

800005a0 <hello_intr>:
800005a0:	fe010113          	addi	sp,sp,-32
800005a4:	00002517          	auipc	a0,0x2
800005a8:	b7050513          	addi	a0,a0,-1168 # 80002114 <dy.0+0x84>
800005ac:	00112e23          	sw	ra,28(sp)
800005b0:	00812c23          	sw	s0,24(sp)
800005b4:	594010ef          	jal	ra,80001b48 <printf>
800005b8:	00002517          	auipc	a0,0x2
800005bc:	b7850513          	addi	a0,a0,-1160 # 80002130 <dy.0+0xa0>
800005c0:	588010ef          	jal	ra,80001b48 <printf>
800005c4:	00c10593          	addi	a1,sp,12
800005c8:	00700513          	li	a0,7
800005cc:	385000ef          	jal	ra,80001150 <ioe_read>
800005d0:	00100513          	li	a0,1
800005d4:	00002437          	lui	s0,0x2
800005d8:	651000ef          	jal	ra,80001428 <iset>
800005dc:	70f40413          	addi	s0,s0,1807 # 270f <_entry_offset+0x270f>
800005e0:	00012623          	sw	zero,12(sp)
800005e4:	00c12783          	lw	a5,12(sp)
800005e8:	00f44c63          	blt	s0,a5,80000600 <hello_intr+0x60>
800005ec:	00c12783          	lw	a5,12(sp)
800005f0:	00178793          	addi	a5,a5,1
800005f4:	00f12623          	sw	a5,12(sp)
800005f8:	00c12783          	lw	a5,12(sp)
800005fc:	fef458e3          	bge	s0,a5,800005ec <hello_intr+0x4c>
80000600:	61d000ef          	jal	ra,8000141c <yield>
80000604:	fddff06f          	j	800005e0 <hello_intr+0x40>

80000608 <hello>:
80000608:	ff010113          	addi	sp,sp,-16
8000060c:	00912223          	sw	s1,4(sp)
80000610:	00112623          	sw	ra,12(sp)
80000614:	00812423          	sw	s0,8(sp)
80000618:	00a00493          	li	s1,10
8000061c:	00002417          	auipc	s0,0x2
80000620:	af840413          	addi	s0,s0,-1288 # 80002114 <dy.0+0x84>
80000624:	04800513          	li	a0,72
80000628:	00140413          	addi	s0,s0,1
8000062c:	1fd000ef          	jal	ra,80001028 <putch>
80000630:	00044503          	lbu	a0,0(s0)
80000634:	fe051ae3          	bnez	a0,80000628 <hello+0x20>
80000638:	fff48493          	addi	s1,s1,-1
8000063c:	fe0490e3          	bnez	s1,8000061c <hello+0x14>
80000640:	00c12083          	lw	ra,12(sp)
80000644:	00812403          	lw	s0,8(sp)
80000648:	00412483          	lw	s1,4(sp)
8000064c:	01010113          	addi	sp,sp,16
80000650:	00008067          	ret

80000654 <devscan>:
80000654:	00010797          	auipc	a5,0x10
80000658:	7ec78793          	addi	a5,a5,2028 # 80010e40 <heap>
8000065c:	0047a603          	lw	a2,4(a5)
80000660:	0007a583          	lw	a1,0(a5)
80000664:	fc010113          	addi	sp,sp,-64
80000668:	00002517          	auipc	a0,0x2
8000066c:	aec50513          	addi	a0,a0,-1300 # 80002154 <dy.0+0xc4>
80000670:	02112e23          	sw	ra,60(sp)
80000674:	02912a23          	sw	s1,52(sp)
80000678:	02812c23          	sw	s0,56(sp)
8000067c:	03212823          	sw	s2,48(sp)
80000680:	03312623          	sw	s3,44(sp)
80000684:	03412423          	sw	s4,40(sp)
80000688:	03512223          	sw	s5,36(sp)
8000068c:	4bc010ef          	jal	ra,80001b48 <printf>
80000690:	00002517          	auipc	a0,0x2
80000694:	adc50513          	addi	a0,a0,-1316 # 8000216c <dy.0+0xdc>
80000698:	4b0010ef          	jal	ra,80001b48 <printf>
8000069c:	01010593          	addi	a1,sp,16
800006a0:	00600513          	li	a0,6
800006a4:	2ad000ef          	jal	ra,80001150 <ioe_read>
800006a8:	01012503          	lw	a0,16(sp)
800006ac:	01412583          	lw	a1,20(sp)
800006b0:	3e800613          	li	a2,1000
800006b4:	00000693          	li	a3,0
800006b8:	37c010ef          	jal	ra,80001a34 <__udivdi3>
800006bc:	00012623          	sw	zero,12(sp)
800006c0:	00c12783          	lw	a5,12(sp)
800006c4:	00989737          	lui	a4,0x989
800006c8:	67f70713          	addi	a4,a4,1663 # 98967f <_entry_offset+0x98967f>
800006cc:	00050493          	mv	s1,a0
800006d0:	00f74c63          	blt	a4,a5,800006e8 <devscan+0x94>
800006d4:	00c12783          	lw	a5,12(sp)
800006d8:	00178793          	addi	a5,a5,1
800006dc:	00f12623          	sw	a5,12(sp)
800006e0:	00c12783          	lw	a5,12(sp)
800006e4:	fef758e3          	bge	a4,a5,800006d4 <devscan+0x80>
800006e8:	01010593          	addi	a1,sp,16
800006ec:	00600513          	li	a0,6
800006f0:	261000ef          	jal	ra,80001150 <ioe_read>
800006f4:	01012503          	lw	a0,16(sp)
800006f8:	01412583          	lw	a1,20(sp)
800006fc:	3e800613          	li	a2,1000
80000700:	00000693          	li	a3,0
80000704:	330010ef          	jal	ra,80001a34 <__udivdi3>
80000708:	409505b3          	sub	a1,a0,s1
8000070c:	00002517          	auipc	a0,0x2
80000710:	a7c50513          	addi	a0,a0,-1412 # 80002188 <dy.0+0xf8>
80000714:	434010ef          	jal	ra,80001b48 <printf>
80000718:	01010593          	addi	a1,sp,16
8000071c:	00900513          	li	a0,9
80000720:	231000ef          	jal	ra,80001150 <ioe_read>
80000724:	01412983          	lw	s3,20(sp)
80000728:	01812903          	lw	s2,24(sp)
8000072c:	00002517          	auipc	a0,0x2
80000730:	a7c50513          	addi	a0,a0,-1412 # 800021a8 <dy.0+0x118>
80000734:	00098593          	mv	a1,s3
80000738:	00090613          	mv	a2,s2
8000073c:	00014417          	auipc	s0,0x14
80000740:	9e040413          	addi	s0,s0,-1568 # 8001411c <vmem+0xd0>
80000744:	404010ef          	jal	ra,80001b48 <printf>
80000748:	00094497          	auipc	s1,0x94
8000074c:	90448493          	addi	s1,s1,-1788 # 8009404c <prot>
80000750:	78d000ef          	jal	ra,800016dc <rand>
80000754:	00a40023          	sb	a0,0(s0)
80000758:	00140413          	addi	s0,s0,1
8000075c:	fe941ae3          	bne	s0,s1,80000750 <devscan+0xfc>
80000760:	41f9d713          	srai	a4,s3,0x1f
80000764:	00377713          	andi	a4,a4,3
80000768:	01370733          	add	a4,a4,s3
8000076c:	00014797          	auipc	a5,0x14
80000770:	8e078793          	addi	a5,a5,-1824 # 8001404c <vmem>
80000774:	40275713          	srai	a4,a4,0x2
80000778:	00e79323          	sh	a4,6(a5)
8000077c:	00014717          	auipc	a4,0x14
80000780:	8c071c23          	sh	zero,-1832(a4) # 80014054 <vmem+0x8>
80000784:	01f9d693          	srli	a3,s3,0x1f
80000788:	02500713          	li	a4,37
8000078c:	00e79923          	sh	a4,18(a5)
80000790:	013686b3          	add	a3,a3,s3
80000794:	00a00713          	li	a4,10
80000798:	ffff0837          	lui	a6,0xffff0
8000079c:	fff00613          	li	a2,-1
800007a0:	4016d693          	srai	a3,a3,0x1
800007a4:	00180813          	addi	a6,a6,1 # ffff0001 <_end+0x7ff52001>
800007a8:	00e79a23          	sh	a4,20(a5)
800007ac:	f9c90913          	addi	s2,s2,-100
800007b0:	0d000713          	li	a4,208
800007b4:	00e79b23          	sh	a4,22(a5)
800007b8:	0107a023          	sw	a6,0(a5)
800007bc:	00d79523          	sh	a3,10(a5)
800007c0:	00c79223          	sh	a2,4(a5)
800007c4:	00c79723          	sh	a2,14(a5)
800007c8:	00c79823          	sh	a2,16(a5)
800007cc:	01279623          	sh	s2,12(a5)
800007d0:	01010593          	addi	a1,sp,16
800007d4:	00c00513          	li	a0,12
800007d8:	00f12a23          	sw	a5,20(sp)
800007dc:	000807b7          	lui	a5,0x80
800007e0:	00f12c23          	sw	a5,24(sp)
800007e4:	00014717          	auipc	a4,0x14
800007e8:	88071023          	sh	zero,-1920(a4) # 80014064 <vmem+0x18>
800007ec:	00012823          	sw	zero,16(sp)
800007f0:	17d000ef          	jal	ra,8000116c <ioe_write>
800007f4:	00d00513          	li	a0,13
800007f8:	01010593          	addi	a1,sp,16
800007fc:	00012823          	sw	zero,16(sp)
80000800:	16d000ef          	jal	ra,8000116c <ioe_write>
80000804:	01010593          	addi	a1,sp,16
80000808:	01200513          	li	a0,18
8000080c:	145000ef          	jal	ra,80001150 <ioe_read>
80000810:	01412403          	lw	s0,20(sp)
80000814:	01812583          	lw	a1,24(sp)
80000818:	00002517          	auipc	a0,0x2
8000081c:	9a850513          	addi	a0,a0,-1624 # 800021c0 <dy.0+0x130>
80000820:	00040613          	mv	a2,s0
80000824:	324010ef          	jal	ra,80001b48 <printf>
80000828:	20000793          	li	a5,512
8000082c:	0287c7b3          	div	a5,a5,s0
80000830:	00013a97          	auipc	s5,0x13
80000834:	61ca8a93          	addi	s5,s5,1564 # 80013e4c <buf.0>
80000838:	01010593          	addi	a1,sp,16
8000083c:	01400513          	li	a0,20
80000840:	00010823          	sb	zero,16(sp)
80000844:	01512a23          	sw	s5,20(sp)
80000848:	00012c23          	sw	zero,24(sp)
8000084c:	00002917          	auipc	s2,0x2
80000850:	9ac90913          	addi	s2,s2,-1620 # 800021f8 <dy.0+0x168>
80000854:	00200493          	li	s1,2
80000858:	00013417          	auipc	s0,0x13
8000085c:	5f640413          	addi	s0,s0,1526 # 80013e4e <buf.0+0x2>
80000860:	00013997          	auipc	s3,0x13
80000864:	7ec98993          	addi	s3,s3,2028 # 8001404c <vmem>
80000868:	00002a17          	auipc	s4,0x2
8000086c:	46ca0a13          	addi	s4,s4,1132 # 80002cd4 <mainargs+0xb4>
80000870:	415484b3          	sub	s1,s1,s5
80000874:	00f12e23          	sw	a5,28(sp)
80000878:	0f5000ef          	jal	ra,8000116c <ioe_write>
8000087c:	001ac603          	lbu	a2,1(s5)
80000880:	000ac583          	lbu	a1,0(s5)
80000884:	00090513          	mv	a0,s2
80000888:	2c0010ef          	jal	ra,80001b48 <printf>
8000088c:	00090513          	mv	a0,s2
80000890:	03340463          	beq	s0,s3,800008b8 <devscan+0x264>
80000894:	00144603          	lbu	a2,1(s0)
80000898:	00044583          	lbu	a1,0(s0)
8000089c:	2ac010ef          	jal	ra,80001b48 <printf>
800008a0:	008487b3          	add	a5,s1,s0
800008a4:	01f7f793          	andi	a5,a5,31
800008a8:	02078063          	beqz	a5,800008c8 <devscan+0x274>
800008ac:	00240413          	addi	s0,s0,2
800008b0:	00090513          	mv	a0,s2
800008b4:	ff3410e3          	bne	s0,s3,80000894 <devscan+0x240>
800008b8:	00002517          	auipc	a0,0x2
800008bc:	94c50513          	addi	a0,a0,-1716 # 80002204 <dy.0+0x174>
800008c0:	288010ef          	jal	ra,80001b48 <printf>
800008c4:	0000006f          	j	800008c4 <devscan+0x270>
800008c8:	000a0513          	mv	a0,s4
800008cc:	27c010ef          	jal	ra,80001b48 <printf>
800008d0:	00240413          	addi	s0,s0,2
800008d4:	fddff06f          	j	800008b0 <devscan+0x25c>

800008d8 <simple_pgalloc>:
800008d8:	00094617          	auipc	a2,0x94
800008dc:	79860613          	addi	a2,a2,1944 # 80095070 <st>
800008e0:	00062683          	lw	a3,0(a2)
800008e4:	00069663          	bnez	a3,800008f0 <simple_pgalloc+0x18>
800008e8:	00010697          	auipc	a3,0x10
800008ec:	5586a683          	lw	a3,1368(a3) # 80010e40 <heap>
800008f0:	02a6f7b3          	remu	a5,a3,a0
800008f4:	00078c63          	beqz	a5,8000090c <simple_pgalloc+0x34>
800008f8:	00168793          	addi	a5,a3,1
800008fc:	02a7f733          	remu	a4,a5,a0
80000900:	00078693          	mv	a3,a5
80000904:	00178793          	addi	a5,a5,1 # 80001 <_entry_offset+0x80001>
80000908:	fe071ae3          	bnez	a4,800008fc <simple_pgalloc+0x24>
8000090c:	00d50533          	add	a0,a0,a3
80000910:	00a62023          	sw	a0,0(a2)
80000914:	00068513          	mv	a0,a3
80000918:	00008067          	ret

8000091c <simple_pgfree>:
8000091c:	00008067          	ret

80000920 <vm_handler>:
80000920:	00052783          	lw	a5,0(a0)
80000924:	fe010113          	addi	sp,sp,-32
80000928:	00812c23          	sw	s0,24(sp)
8000092c:	00112e23          	sw	ra,28(sp)
80000930:	00300713          	li	a4,3
80000934:	00452603          	lw	a2,4(a0)
80000938:	00058413          	mv	s0,a1
8000093c:	0ce78263          	beq	a5,a4,80000a00 <vm_handler+0xe0>
80000940:	08f76263          	bltu	a4,a5,800009c4 <vm_handler+0xa4>
80000944:	00100713          	li	a4,1
80000948:	08e78c63          	beq	a5,a4,800009e0 <vm_handler+0xc0>
8000094c:	00200713          	li	a4,2
80000950:	12e79463          	bne	a5,a4,80000a78 <vm_handler+0x158>
80000954:	00100513          	li	a0,1
80000958:	2d1000ef          	jal	ra,80001428 <iset>
8000095c:	00012623          	sw	zero,12(sp)
80000960:	00c12783          	lw	a5,12(sp)
80000964:	000f4737          	lui	a4,0xf4
80000968:	23f70713          	addi	a4,a4,575 # f423f <_entry_offset+0xf423f>
8000096c:	00f74c63          	blt	a4,a5,80000984 <vm_handler+0x64>
80000970:	00c12783          	lw	a5,12(sp)
80000974:	00178793          	addi	a5,a5,1
80000978:	00f12623          	sw	a5,12(sp)
8000097c:	00c12783          	lw	a5,12(sp)
80000980:	fef758e3          	bge	a4,a5,80000970 <vm_handler+0x50>
80000984:	00042583          	lw	a1,0(s0)
80000988:	00002517          	auipc	a0,0x2
8000098c:	8d050513          	addi	a0,a0,-1840 # 80002258 <dy.0+0x1c8>
80000990:	1b8010ef          	jal	ra,80001b48 <printf>
80000994:	00010797          	auipc	a5,0x10
80000998:	4a87a783          	lw	a5,1192(a5) # 80010e3c <first_trap>
8000099c:	00078a63          	beqz	a5,800009b0 <vm_handler+0x90>
800009a0:	00010797          	auipc	a5,0x10
800009a4:	4807ae23          	sw	zero,1180(a5) # 80010e3c <first_trap>
800009a8:	00094417          	auipc	s0,0x94
800009ac:	6cc42403          	lw	s0,1740(s0) # 80095074 <uctx>
800009b0:	01c12083          	lw	ra,28(sp)
800009b4:	00040513          	mv	a0,s0
800009b8:	01812403          	lw	s0,24(sp)
800009bc:	02010113          	addi	sp,sp,32
800009c0:	00008067          	ret
800009c4:	ffb78793          	addi	a5,a5,-5
800009c8:	00100713          	li	a4,1
800009cc:	0af76663          	bltu	a4,a5,80000a78 <vm_handler+0x158>
800009d0:	00c52583          	lw	a1,12(a0)
800009d4:	00002517          	auipc	a0,0x2
800009d8:	85850513          	addi	a0,a0,-1960 # 8000222c <dy.0+0x19c>
800009dc:	16c010ef          	jal	ra,80001b48 <printf>
800009e0:	00010797          	auipc	a5,0x10
800009e4:	45c7a783          	lw	a5,1116(a5) # 80010e3c <first_trap>
800009e8:	fc0784e3          	beqz	a5,800009b0 <vm_handler+0x90>
800009ec:	00010797          	auipc	a5,0x10
800009f0:	4407a823          	sw	zero,1104(a5) # 80010e3c <first_trap>
800009f4:	00094417          	auipc	s0,0x94
800009f8:	68042403          	lw	s0,1664(s0) # 80095074 <uctx>
800009fc:	fb5ff06f          	j	800009b0 <vm_handler+0x90>
80000a00:	00167793          	andi	a5,a2,1
80000a04:	00852583          	lw	a1,8(a0)
80000a08:	00002697          	auipc	a3,0x2
80000a0c:	80868693          	addi	a3,a3,-2040 # 80002210 <dy.0+0x180>
80000a10:	04078663          	beqz	a5,80000a5c <vm_handler+0x13c>
80000a14:	00267613          	andi	a2,a2,2
80000a18:	00002717          	auipc	a4,0x2
80000a1c:	80470713          	addi	a4,a4,-2044 # 8000221c <dy.0+0x18c>
80000a20:	00060e63          	beqz	a2,80000a3c <vm_handler+0x11c>
80000a24:	00001617          	auipc	a2,0x1
80000a28:	6ec60613          	addi	a2,a2,1772 # 80002110 <dy.0+0x80>
80000a2c:	00002517          	auipc	a0,0x2
80000a30:	81c50513          	addi	a0,a0,-2020 # 80002248 <dy.0+0x1b8>
80000a34:	114010ef          	jal	ra,80001b48 <printf>
80000a38:	fa9ff06f          	j	800009e0 <vm_handler+0xc0>
80000a3c:	00001717          	auipc	a4,0x1
80000a40:	6d470713          	addi	a4,a4,1748 # 80002110 <dy.0+0x80>
80000a44:	00001617          	auipc	a2,0x1
80000a48:	6cc60613          	addi	a2,a2,1740 # 80002110 <dy.0+0x80>
80000a4c:	00001517          	auipc	a0,0x1
80000a50:	7fc50513          	addi	a0,a0,2044 # 80002248 <dy.0+0x1b8>
80000a54:	0f4010ef          	jal	ra,80001b48 <printf>
80000a58:	f89ff06f          	j	800009e0 <vm_handler+0xc0>
80000a5c:	00267613          	andi	a2,a2,2
80000a60:	00001697          	auipc	a3,0x1
80000a64:	6b068693          	addi	a3,a3,1712 # 80002110 <dy.0+0x80>
80000a68:	00001717          	auipc	a4,0x1
80000a6c:	7b470713          	addi	a4,a4,1972 # 8000221c <dy.0+0x18c>
80000a70:	fa061ae3          	bnez	a2,80000a24 <vm_handler+0x104>
80000a74:	fc9ff06f          	j	80000a3c <vm_handler+0x11c>
80000a78:	02800613          	li	a2,40
80000a7c:	00001597          	auipc	a1,0x1
80000a80:	7e058593          	addi	a1,a1,2016 # 8000225c <dy.0+0x1cc>
80000a84:	00001517          	auipc	a0,0x1
80000a88:	5d050513          	addi	a0,a0,1488 # 80002054 <_etext+0x90>
80000a8c:	0bc010ef          	jal	ra,80001b48 <printf>
80000a90:	00100513          	li	a0,1
80000a94:	5a0000ef          	jal	ra,80001034 <halt>

80000a98 <vm_test>:
80000a98:	fe010113          	addi	sp,sp,-32
80000a9c:	00300613          	li	a2,3
80000aa0:	00002597          	auipc	a1,0x2
80000aa4:	80858593          	addi	a1,a1,-2040 # 800022a8 <dy.0+0x218>
80000aa8:	00002517          	auipc	a0,0x2
80000aac:	80450513          	addi	a0,a0,-2044 # 800022ac <dy.0+0x21c>
80000ab0:	00112e23          	sw	ra,28(sp)
80000ab4:	00812c23          	sw	s0,24(sp)
80000ab8:	00912a23          	sw	s1,20(sp)
80000abc:	01212823          	sw	s2,16(sp)
80000ac0:	3a5000ef          	jal	ra,80001664 <strncmp>
80000ac4:	00050e63          	beqz	a0,80000ae0 <vm_test+0x48>
80000ac8:	00001597          	auipc	a1,0x1
80000acc:	7ec58593          	addi	a1,a1,2028 # 800022b4 <dy.0+0x224>
80000ad0:	00001517          	auipc	a0,0x1
80000ad4:	7dc50513          	addi	a0,a0,2012 # 800022ac <dy.0+0x21c>
80000ad8:	355000ef          	jal	ra,8000162c <strcmp>
80000adc:	10051063          	bnez	a0,80000bdc <vm_test+0x144>
80000ae0:	00093917          	auipc	s2,0x93
80000ae4:	56c90913          	addi	s2,s2,1388 # 8009404c <prot>
80000ae8:	00090513          	mv	a0,s2
80000aec:	2d5000ef          	jal	ra,800015c0 <protect>
80000af0:	00892603          	lw	a2,8(s2)
80000af4:	00492583          	lw	a1,4(s2)
80000af8:	00001517          	auipc	a0,0x1
80000afc:	7e450513          	addi	a0,a0,2020 # 800022dc <dy.0+0x24c>
80000b00:	048010ef          	jal	ra,80001b48 <printf>
80000b04:	00492783          	lw	a5,4(s2)
80000b08:	00892483          	lw	s1,8(s2)
80000b0c:	00094697          	auipc	a3,0x94
80000b10:	56468693          	addi	a3,a3,1380 # 80095070 <st>
80000b14:	0006a403          	lw	s0,0(a3)
80000b18:	40f484b3          	sub	s1,s1,a5
80000b1c:	0014d493          	srli	s1,s1,0x1
80000b20:	00092703          	lw	a4,0(s2)
80000b24:	00f484b3          	add	s1,s1,a5
80000b28:	00041c63          	bnez	s0,80000b40 <vm_test+0xa8>
80000b2c:	00010417          	auipc	s0,0x10
80000b30:	31442403          	lw	s0,788(s0) # 80010e40 <heap>
80000b34:	02e477b3          	remu	a5,s0,a4
80000b38:	00078863          	beqz	a5,80000b48 <vm_test+0xb0>
80000b3c:	00140413          	addi	s0,s0,1
80000b40:	02e477b3          	remu	a5,s0,a4
80000b44:	fe079ce3          	bnez	a5,80000b3c <vm_test+0xa4>
80000b48:	00870733          	add	a4,a4,s0
80000b4c:	00f00613          	li	a2,15
80000b50:	00010597          	auipc	a1,0x10
80000b54:	0dc58593          	addi	a1,a1,220 # 80010c2c <code>
80000b58:	00040513          	mv	a0,s0
80000b5c:	00e6a023          	sw	a4,0(a3)
80000b60:	359000ef          	jal	ra,800016b8 <memcpy>
80000b64:	00300693          	li	a3,3
80000b68:	00040613          	mv	a2,s0
80000b6c:	00048593          	mv	a1,s1
80000b70:	00093517          	auipc	a0,0x93
80000b74:	4dc50513          	addi	a0,a0,1244 # 8009404c <prot>
80000b78:	2a1000ef          	jal	ra,80001618 <map>
80000b7c:	00040613          	mv	a2,s0
80000b80:	00048593          	mv	a1,s1
80000b84:	00001517          	auipc	a0,0x1
80000b88:	77c50513          	addi	a0,a0,1916 # 80002300 <dy.0+0x270>
80000b8c:	7bd000ef          	jal	ra,80001b48 <printf>
80000b90:	00048693          	mv	a3,s1
80000b94:	00093597          	auipc	a1,0x93
80000b98:	4c858593          	addi	a1,a1,1224 # 8009405c <stack.0>
80000b9c:	00094617          	auipc	a2,0x94
80000ba0:	4c060613          	addi	a2,a2,1216 # 8009505c <kas>
80000ba4:	00093517          	auipc	a0,0x93
80000ba8:	4a850513          	addi	a0,a0,1192 # 8009404c <prot>
80000bac:	271000ef          	jal	ra,8000161c <ucontext>
80000bb0:	00050793          	mv	a5,a0
80000bb4:	00100513          	li	a0,1
80000bb8:	00094717          	auipc	a4,0x94
80000bbc:	4af72e23          	sw	a5,1212(a4) # 80095074 <uctx>
80000bc0:	069000ef          	jal	ra,80001428 <iset>
80000bc4:	01812403          	lw	s0,24(sp)
80000bc8:	01c12083          	lw	ra,28(sp)
80000bcc:	01412483          	lw	s1,20(sp)
80000bd0:	01012903          	lw	s2,16(sp)
80000bd4:	02010113          	addi	sp,sp,32
80000bd8:	0450006f          	j	8000141c <yield>
80000bdc:	01812403          	lw	s0,24(sp)
80000be0:	01c12083          	lw	ra,28(sp)
80000be4:	01412483          	lw	s1,20(sp)
80000be8:	01012903          	lw	s2,16(sp)
80000bec:	00001517          	auipc	a0,0x1
80000bf0:	6d050513          	addi	a0,a0,1744 # 800022bc <dy.0+0x22c>
80000bf4:	02010113          	addi	sp,sp,32
80000bf8:	7510006f          	j	80001b48 <printf>

80000bfc <mp_print>:
80000bfc:	ff010113          	addi	sp,sp,-16
80000c00:	00812423          	sw	s0,8(sp)
80000c04:	00112623          	sw	ra,12(sp)
80000c08:	00001417          	auipc	s0,0x1
80000c0c:	72440413          	addi	s0,s0,1828 # 8000232c <dy.0+0x29c>
80000c10:	72c000ef          	jal	ra,8000133c <cpu_current>
80000c14:	00050593          	mv	a1,a0
80000c18:	00040513          	mv	a0,s0
80000c1c:	72d000ef          	jal	ra,80001b48 <printf>
80000c20:	ff1ff06f          	j	80000c10 <mp_print+0x14>

80000c24 <audio_test>:
80000c24:	fd010113          	addi	sp,sp,-48
80000c28:	00410593          	addi	a1,sp,4
80000c2c:	00e00513          	li	a0,14
80000c30:	02112623          	sw	ra,44(sp)
80000c34:	02812423          	sw	s0,40(sp)
80000c38:	02912223          	sw	s1,36(sp)
80000c3c:	03212023          	sw	s2,32(sp)
80000c40:	01312e23          	sw	s3,28(sp)
80000c44:	01412c23          	sw	s4,24(sp)
80000c48:	508000ef          	jal	ra,80001150 <ioe_read>
80000c4c:	00414783          	lbu	a5,4(sp)
80000c50:	0c078863          	beqz	a5,80000d20 <audio_test+0xfc>
80000c54:	000027b7          	lui	a5,0x2
80000c58:	f4078793          	addi	a5,a5,-192 # 1f40 <_entry_offset+0x1f40>
80000c5c:	00f12223          	sw	a5,4(sp)
80000c60:	00100793          	li	a5,1
80000c64:	00f12423          	sw	a5,8(sp)
80000c68:	00410593          	addi	a1,sp,4
80000c6c:	40000793          	li	a5,1024
80000c70:	00f00513          	li	a0,15
80000c74:	00f12623          	sw	a5,12(sp)
80000c78:	4f4000ef          	jal	ra,8000116c <ioe_write>
80000c7c:	00010797          	auipc	a5,0x10
80000c80:	fb078793          	addi	a5,a5,-80 # 80010c2c <code>
80000c84:	00002497          	auipc	s1,0x2
80000c88:	19c48493          	addi	s1,s1,412 # 80002e20 <audio_payload>
80000c8c:	40978933          	sub	s2,a5,s1
80000c90:	04978e63          	beq	a5,s1,80000cec <audio_test+0xc8>
80000c94:	00000413          	li	s0,0
80000c98:	00000793          	li	a5,0
80000c9c:	00001a37          	lui	s4,0x1
80000ca0:	00001997          	auipc	s3,0x1
80000ca4:	6c498993          	addi	s3,s3,1732 # 80002364 <dy.0+0x2d4>
80000ca8:	40f907b3          	sub	a5,s2,a5
80000cac:	00048713          	mv	a4,s1
80000cb0:	00410593          	addi	a1,sp,4
80000cb4:	01100513          	li	a0,17
80000cb8:	00fa7463          	bgeu	s4,a5,80000cc0 <audio_test+0x9c>
80000cbc:	000017b7          	lui	a5,0x1
80000cc0:	00f484b3          	add	s1,s1,a5
80000cc4:	00f40433          	add	s0,s0,a5
80000cc8:	00e12223          	sw	a4,4(sp)
80000ccc:	00912423          	sw	s1,8(sp)
80000cd0:	49c000ef          	jal	ra,8000116c <ioe_write>
80000cd4:	00090613          	mv	a2,s2
80000cd8:	00040593          	mv	a1,s0
80000cdc:	00098513          	mv	a0,s3
80000ce0:	669000ef          	jal	ra,80001b48 <printf>
80000ce4:	00040793          	mv	a5,s0
80000ce8:	fd2460e3          	bltu	s0,s2,80000ca8 <audio_test+0x84>
80000cec:	00410593          	addi	a1,sp,4
80000cf0:	01000513          	li	a0,16
80000cf4:	45c000ef          	jal	ra,80001150 <ioe_read>
80000cf8:	00412783          	lw	a5,4(sp)
80000cfc:	fef048e3          	bgtz	a5,80000cec <audio_test+0xc8>
80000d00:	02c12083          	lw	ra,44(sp)
80000d04:	02812403          	lw	s0,40(sp)
80000d08:	02412483          	lw	s1,36(sp)
80000d0c:	02012903          	lw	s2,32(sp)
80000d10:	01c12983          	lw	s3,28(sp)
80000d14:	01812a03          	lw	s4,24(sp)
80000d18:	03010113          	addi	sp,sp,48
80000d1c:	00008067          	ret
80000d20:	02812403          	lw	s0,40(sp)
80000d24:	02c12083          	lw	ra,44(sp)
80000d28:	02412483          	lw	s1,36(sp)
80000d2c:	02012903          	lw	s2,32(sp)
80000d30:	01c12983          	lw	s3,28(sp)
80000d34:	01812a03          	lw	s4,24(sp)
80000d38:	00001597          	auipc	a1,0x1
80000d3c:	5f858593          	addi	a1,a1,1528 # 80002330 <dy.0+0x2a0>
80000d40:	00001517          	auipc	a0,0x1
80000d44:	60050513          	addi	a0,a0,1536 # 80002340 <dy.0+0x2b0>
80000d48:	03010113          	addi	sp,sp,48
80000d4c:	5fd0006f          	j	80001b48 <printf>

80000d50 <keyboard_test>:
80000d50:	fc010113          	addi	sp,sp,-64
80000d54:	00001517          	auipc	a0,0x1
80000d58:	63450513          	addi	a0,a0,1588 # 80002388 <dy.0+0x2f8>
80000d5c:	02112e23          	sw	ra,60(sp)
80000d60:	02812c23          	sw	s0,56(sp)
80000d64:	02912a23          	sw	s1,52(sp)
80000d68:	03212823          	sw	s2,48(sp)
80000d6c:	03312623          	sw	s3,44(sp)
80000d70:	03412423          	sw	s4,40(sp)
80000d74:	03512223          	sw	s5,36(sp)
80000d78:	03612023          	sw	s6,32(sp)
80000d7c:	01712e23          	sw	s7,28(sp)
80000d80:	5c9000ef          	jal	ra,80001b48 <printf>
80000d84:	00810593          	addi	a1,sp,8
80000d88:	00100513          	li	a0,1
80000d8c:	3c4000ef          	jal	ra,80001150 <ioe_read>
80000d90:	00814783          	lbu	a5,8(sp)
80000d94:	00094b17          	auipc	s6,0x94
80000d98:	2e5b0b13          	addi	s6,s6,741 # 80095079 <has_uart>
80000d9c:	00810593          	addi	a1,sp,8
80000da0:	00700513          	li	a0,7
80000da4:	00fb0023          	sb	a5,0(s6)
80000da8:	3a8000ef          	jal	ra,80001150 <ioe_read>
80000dac:	00814783          	lbu	a5,8(sp)
80000db0:	00094a97          	auipc	s5,0x94
80000db4:	2c8a8a93          	addi	s5,s5,712 # 80095078 <has_kbd>
80000db8:	00001917          	auipc	s2,0x1
80000dbc:	7e090913          	addi	s2,s2,2016 # 80002598 <names>
80000dc0:	00fa8023          	sb	a5,0(s5)
80000dc4:	0ff00493          	li	s1,255
80000dc8:	00001417          	auipc	s0,0x1
80000dcc:	5ec40413          	addi	s0,s0,1516 # 800023b4 <dy.0+0x324>
80000dd0:	00001997          	auipc	s3,0x1
80000dd4:	7c098993          	addi	s3,s3,1984 # 80002590 <dy.0+0x500>
80000dd8:	00001a17          	auipc	s4,0x1
80000ddc:	7b0a0a13          	addi	s4,s4,1968 # 80002588 <dy.0+0x4f8>
80000de0:	000b4783          	lbu	a5,0(s6)
80000de4:	04079a63          	bnez	a5,80000e38 <keyboard_test+0xe8>
80000de8:	000ac783          	lbu	a5,0(s5)
80000dec:	fe078ae3          	beqz	a5,80000de0 <keyboard_test+0x90>
80000df0:	00001b97          	auipc	s7,0x1
80000df4:	5dcb8b93          	addi	s7,s7,1500 # 800023cc <dy.0+0x33c>
80000df8:	00800513          	li	a0,8
80000dfc:	00810593          	addi	a1,sp,8
80000e00:	350000ef          	jal	ra,80001150 <ioe_read>
80000e04:	00c12603          	lw	a2,12(sp)
80000e08:	00814703          	lbu	a4,8(sp)
80000e0c:	000b8513          	mv	a0,s7
80000e10:	00261793          	slli	a5,a2,0x2
80000e14:	00f907b3          	add	a5,s2,a5
80000e18:	fc0604e3          	beqz	a2,80000de0 <keyboard_test+0x90>
80000e1c:	0007a583          	lw	a1,0(a5) # 1000 <_entry_offset+0x1000>
80000e20:	00098693          	mv	a3,s3
80000e24:	00071463          	bnez	a4,80000e2c <keyboard_test+0xdc>
80000e28:	000a0693          	mv	a3,s4
80000e2c:	51d000ef          	jal	ra,80001b48 <printf>
80000e30:	fc9ff06f          	j	80000df8 <keyboard_test+0xa8>
80000e34:	515000ef          	jal	ra,80001b48 <printf>
80000e38:	00810593          	addi	a1,sp,8
80000e3c:	00300513          	li	a0,3
80000e40:	310000ef          	jal	ra,80001150 <ioe_read>
80000e44:	00814603          	lbu	a2,8(sp)
80000e48:	00040513          	mv	a0,s0
80000e4c:	00060593          	mv	a1,a2
80000e50:	fe9612e3          	bne	a2,s1,80000e34 <keyboard_test+0xe4>
80000e54:	f95ff06f          	j	80000de8 <keyboard_test+0x98>

80000e58 <main>:
80000e58:	fe010113          	addi	sp,sp,-32
80000e5c:	00112e23          	sw	ra,28(sp)
80000e60:	00812c23          	sw	s0,24(sp)
80000e64:	00912a23          	sw	s1,20(sp)
80000e68:	01212823          	sw	s2,16(sp)
80000e6c:	01312623          	sw	s3,12(sp)
80000e70:	00054783          	lbu	a5,0(a0)
80000e74:	01500713          	li	a4,21
80000e78:	f9f78793          	addi	a5,a5,-97
80000e7c:	0ff7f793          	zext.b	a5,a5
80000e80:	02f76063          	bltu	a4,a5,80000ea0 <main+0x48>
80000e84:	00002717          	auipc	a4,0x2
80000e88:	88870713          	addi	a4,a4,-1912 # 8000270c <names+0x174>
80000e8c:	00279793          	slli	a5,a5,0x2
80000e90:	00e787b3          	add	a5,a5,a4
80000e94:	0007a783          	lw	a5,0(a5)
80000e98:	00e787b3          	add	a5,a5,a4
80000e9c:	00078067          	jr	a5
80000ea0:	00002517          	auipc	a0,0x2
80000ea4:	84450513          	addi	a0,a0,-1980 # 800026e4 <names+0x14c>
80000ea8:	4a1000ef          	jal	ra,80001b48 <printf>
80000eac:	00002497          	auipc	s1,0x2
80000eb0:	97848493          	addi	s1,s1,-1672 # 80002824 <tests+0x4>
80000eb4:	00000413          	li	s0,0
80000eb8:	10000913          	li	s2,256
80000ebc:	00002997          	auipc	s3,0x2
80000ec0:	84498993          	addi	s3,s3,-1980 # 80002700 <names+0x168>
80000ec4:	00140413          	addi	s0,s0,1
80000ec8:	03240c63          	beq	s0,s2,80000f00 <main+0xa8>
80000ecc:	0004a603          	lw	a2,0(s1)
80000ed0:	00060863          	beqz	a2,80000ee0 <main+0x88>
80000ed4:	00040593          	mv	a1,s0
80000ed8:	00098513          	mv	a0,s3
80000edc:	46d000ef          	jal	ra,80001b48 <printf>
80000ee0:	00448493          	addi	s1,s1,4
80000ee4:	fe1ff06f          	j	80000ec4 <main+0x6c>
80000ee8:	00000797          	auipc	a5,0x0
80000eec:	d3c78793          	addi	a5,a5,-708 # 80000c24 <audio_test>
80000ef0:	00094717          	auipc	a4,0x94
80000ef4:	18f72623          	sw	a5,396(a4) # 8009507c <entry>
80000ef8:	1fc000ef          	jal	ra,800010f4 <ioe_init>
80000efc:	d29ff0ef          	jal	ra,80000c24 <audio_test>
80000f00:	01c12083          	lw	ra,28(sp)
80000f04:	01812403          	lw	s0,24(sp)
80000f08:	01412483          	lw	s1,20(sp)
80000f0c:	01012903          	lw	s2,16(sp)
80000f10:	00c12983          	lw	s3,12(sp)
80000f14:	00000513          	li	a0,0
80000f18:	02010113          	addi	sp,sp,32
80000f1c:	00008067          	ret
80000f20:	fffff797          	auipc	a5,0xfffff
80000f24:	73478793          	addi	a5,a5,1844 # 80000654 <devscan>
80000f28:	00094717          	auipc	a4,0x94
80000f2c:	14f72a23          	sw	a5,340(a4) # 8009507c <entry>
80000f30:	1c4000ef          	jal	ra,800010f4 <ioe_init>
80000f34:	f20ff0ef          	jal	ra,80000654 <devscan>
80000f38:	fc9ff06f          	j	80000f00 <main+0xa8>
80000f3c:	fffff797          	auipc	a5,0xfffff
80000f40:	6cc78793          	addi	a5,a5,1740 # 80000608 <hello>
80000f44:	00094717          	auipc	a4,0x94
80000f48:	12f72c23          	sw	a5,312(a4) # 8009507c <entry>
80000f4c:	ebcff0ef          	jal	ra,80000608 <hello>
80000f50:	fb1ff06f          	j	80000f00 <main+0xa8>
80000f54:	fffff797          	auipc	a5,0xfffff
80000f58:	64c78793          	addi	a5,a5,1612 # 800005a0 <hello_intr>
80000f5c:	00094717          	auipc	a4,0x94
80000f60:	12f72023          	sw	a5,288(a4) # 8009507c <entry>
80000f64:	190000ef          	jal	ra,800010f4 <ioe_init>
80000f68:	fffff517          	auipc	a0,0xfffff
80000f6c:	55050513          	addi	a0,a0,1360 # 800004b8 <simple_trap>
80000f70:	48c000ef          	jal	ra,800013fc <cte_init>
80000f74:	e2cff0ef          	jal	ra,800005a0 <hello_intr>
80000f78:	f89ff06f          	j	80000f00 <main+0xa8>
80000f7c:	00000797          	auipc	a5,0x0
80000f80:	dd478793          	addi	a5,a5,-556 # 80000d50 <keyboard_test>
80000f84:	00094717          	auipc	a4,0x94
80000f88:	0ef72c23          	sw	a5,248(a4) # 8009507c <entry>
80000f8c:	168000ef          	jal	ra,800010f4 <ioe_init>
80000f90:	dc1ff0ef          	jal	ra,80000d50 <keyboard_test>
80000f94:	f6dff06f          	j	80000f00 <main+0xa8>
80000f98:	00000797          	auipc	a5,0x0
80000f9c:	c6478793          	addi	a5,a5,-924 # 80000bfc <mp_print>
80000fa0:	00078513          	mv	a0,a5
80000fa4:	00094717          	auipc	a4,0x94
80000fa8:	0cf72c23          	sw	a5,216(a4) # 8009507c <entry>
80000fac:	324000ef          	jal	ra,800012d0 <mpe_init>
80000fb0:	c4dff0ef          	jal	ra,80000bfc <mp_print>
80000fb4:	f4dff06f          	j	80000f00 <main+0xa8>
80000fb8:	00000797          	auipc	a5,0x0
80000fbc:	ae078793          	addi	a5,a5,-1312 # 80000a98 <vm_test>
80000fc0:	00000517          	auipc	a0,0x0
80000fc4:	96050513          	addi	a0,a0,-1696 # 80000920 <vm_handler>
80000fc8:	00094717          	auipc	a4,0x94
80000fcc:	0af72a23          	sw	a5,180(a4) # 8009507c <entry>
80000fd0:	42c000ef          	jal	ra,800013fc <cte_init>
80000fd4:	00000597          	auipc	a1,0x0
80000fd8:	94858593          	addi	a1,a1,-1720 # 8000091c <simple_pgfree>
80000fdc:	00000517          	auipc	a0,0x0
80000fe0:	8fc50513          	addi	a0,a0,-1796 # 800008d8 <simple_pgalloc>
80000fe4:	58c000ef          	jal	ra,80001570 <vme_init>
80000fe8:	ab1ff0ef          	jal	ra,80000a98 <vm_test>
80000fec:	f15ff06f          	j	80000f00 <main+0xa8>
80000ff0:	fffff797          	auipc	a5,0xfffff
80000ff4:	02078793          	addi	a5,a5,32 # 80000010 <rtc_test>
80000ff8:	00094717          	auipc	a4,0x94
80000ffc:	08f72223          	sw	a5,132(a4) # 8009507c <entry>
80001000:	0f4000ef          	jal	ra,800010f4 <ioe_init>
80001004:	80cff0ef          	jal	ra,80000010 <rtc_test>
80001008:	ef9ff06f          	j	80000f00 <main+0xa8>
8000100c:	fffff797          	auipc	a5,0xfffff
80001010:	40878793          	addi	a5,a5,1032 # 80000414 <video_test>
80001014:	00094717          	auipc	a4,0x94
80001018:	06f72423          	sw	a5,104(a4) # 8009507c <entry>
8000101c:	0d8000ef          	jal	ra,800010f4 <ioe_init>
80001020:	bf4ff0ef          	jal	ra,80000414 <video_test>
80001024:	eddff06f          	j	80000f00 <main+0xa8>

80001028 <putch>:
80001028:	a00007b7          	lui	a5,0xa0000
8000102c:	3ea78c23          	sb	a0,1016(a5) # a00003f8 <_end+0x1ff623f8>
80001030:	00008067          	ret

80001034 <halt>:
80001034:	00050513          	mv	a0,a0
80001038:	00100073          	ebreak
8000103c:	0000006f          	j	8000103c <halt+0x8>

80001040 <_trm_init>:
80001040:	ff010113          	addi	sp,sp,-16
80001044:	00002517          	auipc	a0,0x2
80001048:	bdc50513          	addi	a0,a0,-1060 # 80002c20 <mainargs>
8000104c:	00112623          	sw	ra,12(sp)
80001050:	e09ff0ef          	jal	ra,80000e58 <main>
80001054:	00050513          	mv	a0,a0
80001058:	00100073          	ebreak
8000105c:	0000006f          	j	8000105c <_trm_init+0x1c>

80001060 <__am_timer_config>:
80001060:	00100793          	li	a5,1
80001064:	00f50023          	sb	a5,0(a0)
80001068:	00f500a3          	sb	a5,1(a0)
8000106c:	00008067          	ret

80001070 <__am_input_config>:
80001070:	00100793          	li	a5,1
80001074:	00f50023          	sb	a5,0(a0)
80001078:	00008067          	ret

8000107c <__am_uart_config>:
8000107c:	00050023          	sb	zero,0(a0)
80001080:	00008067          	ret

80001084 <__am_net_config>:
80001084:	00050023          	sb	zero,0(a0)
80001088:	00008067          	ret

8000108c <fail>:
8000108c:	ff010113          	addi	sp,sp,-16
80001090:	00812423          	sw	s0,8(sp)
80001094:	00112623          	sw	ra,12(sp)
80001098:	00001417          	auipc	s0,0x1
8000109c:	00840413          	addi	s0,s0,8 # 800020a0 <dy.0+0x10>
800010a0:	04100513          	li	a0,65
800010a4:	00140413          	addi	s0,s0,1
800010a8:	f81ff0ef          	jal	ra,80001028 <putch>
800010ac:	00044503          	lbu	a0,0(s0)
800010b0:	fe051ae3          	bnez	a0,800010a4 <fail+0x18>
800010b4:	00002417          	auipc	s0,0x2
800010b8:	bac40413          	addi	s0,s0,-1108 # 80002c60 <mainargs+0x40>
800010bc:	06100513          	li	a0,97
800010c0:	00140413          	addi	s0,s0,1
800010c4:	f65ff0ef          	jal	ra,80001028 <putch>
800010c8:	00044503          	lbu	a0,0(s0)
800010cc:	fe051ae3          	bnez	a0,800010c0 <fail+0x34>
800010d0:	00002417          	auipc	s0,0x2
800010d4:	bac40413          	addi	s0,s0,-1108 # 80002c7c <mainargs+0x5c>
800010d8:	02000513          	li	a0,32
800010dc:	00140413          	addi	s0,s0,1
800010e0:	f49ff0ef          	jal	ra,80001028 <putch>
800010e4:	00044503          	lbu	a0,0(s0)
800010e8:	fe051ae3          	bnez	a0,800010dc <fail+0x50>
800010ec:	00100513          	li	a0,1
800010f0:	f45ff0ef          	jal	ra,80001034 <halt>

800010f4 <ioe_init>:
800010f4:	ff010113          	addi	sp,sp,-16
800010f8:	00112623          	sw	ra,12(sp)
800010fc:	00010797          	auipc	a5,0x10
80001100:	b4078793          	addi	a5,a5,-1216 # 80010c3c <lut>
80001104:	00010697          	auipc	a3,0x10
80001108:	d3868693          	addi	a3,a3,-712 # 80010e3c <first_trap>
8000110c:	00000617          	auipc	a2,0x0
80001110:	f8060613          	addi	a2,a2,-128 # 8000108c <fail>
80001114:	00c0006f          	j	80001120 <ioe_init+0x2c>
80001118:	00478793          	addi	a5,a5,4
8000111c:	00d78c63          	beq	a5,a3,80001134 <ioe_init+0x40>
80001120:	0007a703          	lw	a4,0(a5)
80001124:	fe071ae3          	bnez	a4,80001118 <ioe_init+0x24>
80001128:	00c7a023          	sw	a2,0(a5)
8000112c:	00478793          	addi	a5,a5,4
80001130:	fed798e3          	bne	a5,a3,80001120 <ioe_init+0x2c>
80001134:	0b4000ef          	jal	ra,800011e8 <__am_gpu_init>
80001138:	050000ef          	jal	ra,80001188 <__am_timer_init>
8000113c:	168000ef          	jal	ra,800012a4 <__am_audio_init>
80001140:	00c12083          	lw	ra,12(sp)
80001144:	00100513          	li	a0,1
80001148:	01010113          	addi	sp,sp,16
8000114c:	00008067          	ret

80001150 <ioe_read>:
80001150:	00251513          	slli	a0,a0,0x2
80001154:	00010797          	auipc	a5,0x10
80001158:	ae878793          	addi	a5,a5,-1304 # 80010c3c <lut>
8000115c:	00a787b3          	add	a5,a5,a0
80001160:	0007a783          	lw	a5,0(a5)
80001164:	00058513          	mv	a0,a1
80001168:	00078067          	jr	a5

8000116c <ioe_write>:
8000116c:	00251513          	slli	a0,a0,0x2
80001170:	00010797          	auipc	a5,0x10
80001174:	acc78793          	addi	a5,a5,-1332 # 80010c3c <lut>
80001178:	00a787b3          	add	a5,a5,a0
8000117c:	0007a783          	lw	a5,0(a5)
80001180:	00058513          	mv	a0,a1
80001184:	00078067          	jr	a5

80001188 <__am_timer_init>:
80001188:	00008067          	ret

8000118c <__am_timer_uptime>:
8000118c:	a00007b7          	lui	a5,0xa0000
80001190:	04c7a703          	lw	a4,76(a5) # a000004c <_end+0x1ff6204c>
80001194:	0487a783          	lw	a5,72(a5)
80001198:	00e52223          	sw	a4,4(a0)
8000119c:	00f52023          	sw	a5,0(a0)
800011a0:	00008067          	ret

800011a4 <__am_timer_rtc>:
800011a4:	7e900793          	li	a5,2025
800011a8:	00052a23          	sw	zero,20(a0)
800011ac:	00052823          	sw	zero,16(a0)
800011b0:	00052623          	sw	zero,12(a0)
800011b4:	00052423          	sw	zero,8(a0)
800011b8:	00052223          	sw	zero,4(a0)
800011bc:	00f52023          	sw	a5,0(a0)
800011c0:	00008067          	ret

800011c4 <__am_input_keybrd>:
800011c4:	a00007b7          	lui	a5,0xa0000
800011c8:	0607a783          	lw	a5,96(a5) # a0000060 <_end+0x1ff62060>
800011cc:	00f7d713          	srli	a4,a5,0xf
800011d0:	01179793          	slli	a5,a5,0x11
800011d4:	00177713          	andi	a4,a4,1
800011d8:	0117d793          	srli	a5,a5,0x11
800011dc:	00e50023          	sb	a4,0(a0)
800011e0:	00f52223          	sw	a5,4(a0)
800011e4:	00008067          	ret

800011e8 <__am_gpu_init>:
800011e8:	00008067          	ret

800011ec <__am_gpu_config>:
800011ec:	a00007b7          	lui	a5,0xa0000
800011f0:	1027d703          	lhu	a4,258(a5) # a0000102 <_end+0x1ff62102>
800011f4:	1007d783          	lhu	a5,256(a5)
800011f8:	00100693          	li	a3,1
800011fc:	00d51023          	sh	a3,0(a0)
80001200:	00052623          	sw	zero,12(a0)
80001204:	00e52223          	sw	a4,4(a0)
80001208:	00f52423          	sw	a5,8(a0)
8000120c:	00008067          	ret

80001210 <__am_gpu_fbdraw>:
80001210:	01454783          	lbu	a5,20(a0)
80001214:	00078863          	beqz	a5,80001224 <__am_gpu_fbdraw+0x14>
80001218:	a00007b7          	lui	a5,0xa0000
8000121c:	00100713          	li	a4,1
80001220:	10e7a223          	sw	a4,260(a5) # a0000104 <_end+0x1ff62104>
80001224:	00452703          	lw	a4,4(a0)
80001228:	19000593          	li	a1,400
8000122c:	00052783          	lw	a5,0(a0)
80001230:	02e585b3          	mul	a1,a1,a4
80001234:	01052883          	lw	a7,16(a0)
80001238:	00852683          	lw	a3,8(a0)
8000123c:	00f585b3          	add	a1,a1,a5
80001240:	284007b7          	lui	a5,0x28400
80001244:	00f585b3          	add	a1,a1,a5
80001248:	00259593          	slli	a1,a1,0x2
8000124c:	05105463          	blez	a7,80001294 <__am_gpu_fbdraw+0x84>
80001250:	00c52603          	lw	a2,12(a0)
80001254:	00000813          	li	a6,0
80001258:	00058713          	mv	a4,a1
8000125c:	00000793          	li	a5,0
80001260:	02c05263          	blez	a2,80001284 <__am_gpu_fbdraw+0x74>
80001264:	0006a603          	lw	a2,0(a3)
80001268:	00178793          	addi	a5,a5,1 # 28400001 <_entry_offset+0x28400001>
8000126c:	00468693          	addi	a3,a3,4
80001270:	00c72023          	sw	a2,0(a4)
80001274:	00c52603          	lw	a2,12(a0)
80001278:	00470713          	addi	a4,a4,4
8000127c:	fec7c4e3          	blt	a5,a2,80001264 <__am_gpu_fbdraw+0x54>
80001280:	01052883          	lw	a7,16(a0)
80001284:	00180813          	addi	a6,a6,1
80001288:	64058593          	addi	a1,a1,1600
8000128c:	fd1846e3          	blt	a6,a7,80001258 <__am_gpu_fbdraw+0x48>
80001290:	00008067          	ret
80001294:	00008067          	ret

80001298 <__am_gpu_status>:
80001298:	00100793          	li	a5,1
8000129c:	00f50023          	sb	a5,0(a0)
800012a0:	00008067          	ret

800012a4 <__am_audio_init>:
800012a4:	00008067          	ret

800012a8 <__am_audio_config>:
800012a8:	00050023          	sb	zero,0(a0)
800012ac:	00008067          	ret

800012b0 <__am_audio_ctrl>:
800012b0:	00008067          	ret

800012b4 <__am_audio_status>:
800012b4:	00052023          	sw	zero,0(a0)
800012b8:	00008067          	ret

800012bc <__am_audio_play>:
800012bc:	00008067          	ret

800012c0 <__am_disk_config>:
800012c0:	00050023          	sb	zero,0(a0)
800012c4:	00008067          	ret

800012c8 <__am_disk_status>:
800012c8:	00008067          	ret

800012cc <__am_disk_blkio>:
800012cc:	00008067          	ret

800012d0 <mpe_init>:
800012d0:	ff010113          	addi	sp,sp,-16
800012d4:	00812423          	sw	s0,8(sp)
800012d8:	00112623          	sw	ra,12(sp)
800012dc:	000500e7          	jalr	a0
800012e0:	00001417          	auipc	s0,0x1
800012e4:	dc040413          	addi	s0,s0,-576 # 800020a0 <dy.0+0x10>
800012e8:	04100513          	li	a0,65
800012ec:	00140413          	addi	s0,s0,1
800012f0:	d39ff0ef          	jal	ra,80001028 <putch>
800012f4:	00044503          	lbu	a0,0(s0)
800012f8:	fe051ae3          	bnez	a0,800012ec <mpe_init+0x1c>
800012fc:	00002417          	auipc	s0,0x2
80001300:	9dc40413          	addi	s0,s0,-1572 # 80002cd8 <mainargs+0xb8>
80001304:	04d00513          	li	a0,77
80001308:	00140413          	addi	s0,s0,1
8000130c:	d1dff0ef          	jal	ra,80001028 <putch>
80001310:	00044503          	lbu	a0,0(s0)
80001314:	fe051ae3          	bnez	a0,80001308 <mpe_init+0x38>
80001318:	00002417          	auipc	s0,0x2
8000131c:	9d440413          	addi	s0,s0,-1580 # 80002cec <mainargs+0xcc>
80001320:	02000513          	li	a0,32
80001324:	00140413          	addi	s0,s0,1
80001328:	d01ff0ef          	jal	ra,80001028 <putch>
8000132c:	00044503          	lbu	a0,0(s0)
80001330:	fe051ae3          	bnez	a0,80001324 <mpe_init+0x54>
80001334:	00100513          	li	a0,1
80001338:	cfdff0ef          	jal	ra,80001034 <halt>

8000133c <cpu_current>:
8000133c:	00000513          	li	a0,0
80001340:	00008067          	ret

80001344 <__am_irq_handle>:
80001344:	00094797          	auipc	a5,0x94
80001348:	d3c7a783          	lw	a5,-708(a5) # 80095080 <user_handler>
8000134c:	00050593          	mv	a1,a0
80001350:	08078463          	beqz	a5,800013d8 <__am_irq_handle+0x94>
80001354:	08052683          	lw	a3,128(a0)
80001358:	fd010113          	addi	sp,sp,-48
8000135c:	02112623          	sw	ra,44(sp)
80001360:	00012a23          	sw	zero,20(sp)
80001364:	00012c23          	sw	zero,24(sp)
80001368:	00012e23          	sw	zero,28(sp)
8000136c:	00b00713          	li	a4,11
80001370:	04e68263          	beq	a3,a4,800013b4 <__am_irq_handle+0x70>
80001374:	00400713          	li	a4,4
80001378:	00e12823          	sw	a4,16(sp)
8000137c:	01012703          	lw	a4,16(sp)
80001380:	00010513          	mv	a0,sp
80001384:	00e12023          	sw	a4,0(sp)
80001388:	01412703          	lw	a4,20(sp)
8000138c:	00e12223          	sw	a4,4(sp)
80001390:	01812703          	lw	a4,24(sp)
80001394:	00e12423          	sw	a4,8(sp)
80001398:	01c12703          	lw	a4,28(sp)
8000139c:	00e12623          	sw	a4,12(sp)
800013a0:	000780e7          	jalr	a5
800013a4:	02050c63          	beqz	a0,800013dc <__am_irq_handle+0x98>
800013a8:	02c12083          	lw	ra,44(sp)
800013ac:	03010113          	addi	sp,sp,48
800013b0:	00008067          	ret
800013b4:	04452703          	lw	a4,68(a0)
800013b8:	08852683          	lw	a3,136(a0)
800013bc:	00170713          	addi	a4,a4,1
800013c0:	00e03733          	snez	a4,a4
800013c4:	00170713          	addi	a4,a4,1
800013c8:	00468693          	addi	a3,a3,4
800013cc:	00e12823          	sw	a4,16(sp)
800013d0:	08d52423          	sw	a3,136(a0)
800013d4:	fa9ff06f          	j	8000137c <__am_irq_handle+0x38>
800013d8:	00008067          	ret
800013dc:	01200613          	li	a2,18
800013e0:	00002597          	auipc	a1,0x2
800013e4:	96458593          	addi	a1,a1,-1692 # 80002d44 <mainargs+0x124>
800013e8:	00001517          	auipc	a0,0x1
800013ec:	c6c50513          	addi	a0,a0,-916 # 80002054 <_etext+0x90>
800013f0:	758000ef          	jal	ra,80001b48 <printf>
800013f4:	00100513          	li	a0,1
800013f8:	c3dff0ef          	jal	ra,80001034 <halt>

800013fc <cte_init>:
800013fc:	00050793          	mv	a5,a0
80001400:	00000717          	auipc	a4,0x0
80001404:	03070713          	addi	a4,a4,48 # 80001430 <__am_asm_trap>
80001408:	30571073          	csrw	mtvec,a4
8000140c:	00100513          	li	a0,1
80001410:	00094717          	auipc	a4,0x94
80001414:	c6f72823          	sw	a5,-912(a4) # 80095080 <user_handler>
80001418:	00008067          	ret

8000141c <yield>:
8000141c:	fff00893          	li	a7,-1
80001420:	00000073          	ecall
80001424:	00008067          	ret

80001428 <iset>:
80001428:	00008067          	ret
8000142c:	0000                	.2byte	0x0
	...

80001430 <__am_asm_trap>:
80001430:	f7410113          	addi	sp,sp,-140
80001434:	00112223          	sw	ra,4(sp)
80001438:	00312623          	sw	gp,12(sp)
8000143c:	00412823          	sw	tp,16(sp)
80001440:	00512a23          	sw	t0,20(sp)
80001444:	00612c23          	sw	t1,24(sp)
80001448:	00712e23          	sw	t2,28(sp)
8000144c:	02812023          	sw	s0,32(sp)
80001450:	02912223          	sw	s1,36(sp)
80001454:	02a12423          	sw	a0,40(sp)
80001458:	02b12623          	sw	a1,44(sp)
8000145c:	02c12823          	sw	a2,48(sp)
80001460:	02d12a23          	sw	a3,52(sp)
80001464:	02e12c23          	sw	a4,56(sp)
80001468:	02f12e23          	sw	a5,60(sp)
8000146c:	05012023          	sw	a6,64(sp)
80001470:	05112223          	sw	a7,68(sp)
80001474:	05212423          	sw	s2,72(sp)
80001478:	05312623          	sw	s3,76(sp)
8000147c:	05412823          	sw	s4,80(sp)
80001480:	05512a23          	sw	s5,84(sp)
80001484:	05612c23          	sw	s6,88(sp)
80001488:	05712e23          	sw	s7,92(sp)
8000148c:	07812023          	sw	s8,96(sp)
80001490:	07912223          	sw	s9,100(sp)
80001494:	07a12423          	sw	s10,104(sp)
80001498:	07b12623          	sw	s11,108(sp)
8000149c:	07c12823          	sw	t3,112(sp)
800014a0:	07d12a23          	sw	t4,116(sp)
800014a4:	07e12c23          	sw	t5,120(sp)
800014a8:	07f12e23          	sw	t6,124(sp)
800014ac:	342022f3          	csrr	t0,mcause
800014b0:	30002373          	csrr	t1,mstatus
800014b4:	341023f3          	csrr	t2,mepc
800014b8:	08512023          	sw	t0,128(sp)
800014bc:	08612223          	sw	t1,132(sp)
800014c0:	08712423          	sw	t2,136(sp)
800014c4:	00020537          	lui	a0,0x20
800014c8:	00a36333          	or	t1,t1,a0
800014cc:	30031073          	csrw	mstatus,t1
800014d0:	00010513          	mv	a0,sp
800014d4:	e71ff0ef          	jal	ra,80001344 <__am_irq_handle>
800014d8:	00050113          	mv	sp,a0
800014dc:	08412303          	lw	t1,132(sp)
800014e0:	08812383          	lw	t2,136(sp)
800014e4:	30031073          	csrw	mstatus,t1
800014e8:	34139073          	csrw	mepc,t2
800014ec:	00412083          	lw	ra,4(sp)
800014f0:	00c12183          	lw	gp,12(sp)
800014f4:	01012203          	lw	tp,16(sp)
800014f8:	01412283          	lw	t0,20(sp)
800014fc:	01812303          	lw	t1,24(sp)
80001500:	01c12383          	lw	t2,28(sp)
80001504:	02012403          	lw	s0,32(sp)
80001508:	02412483          	lw	s1,36(sp)
8000150c:	02812503          	lw	a0,40(sp)
80001510:	02c12583          	lw	a1,44(sp)
80001514:	03012603          	lw	a2,48(sp)
80001518:	03412683          	lw	a3,52(sp)
8000151c:	03812703          	lw	a4,56(sp)
80001520:	03c12783          	lw	a5,60(sp)
80001524:	04012803          	lw	a6,64(sp)
80001528:	04412883          	lw	a7,68(sp)
8000152c:	04812903          	lw	s2,72(sp)
80001530:	04c12983          	lw	s3,76(sp)
80001534:	05012a03          	lw	s4,80(sp)
80001538:	05412a83          	lw	s5,84(sp)
8000153c:	05812b03          	lw	s6,88(sp)
80001540:	05c12b83          	lw	s7,92(sp)
80001544:	06012c03          	lw	s8,96(sp)
80001548:	06412c83          	lw	s9,100(sp)
8000154c:	06812d03          	lw	s10,104(sp)
80001550:	06c12d83          	lw	s11,108(sp)
80001554:	07012e03          	lw	t3,112(sp)
80001558:	07412e83          	lw	t4,116(sp)
8000155c:	07812f03          	lw	t5,120(sp)
80001560:	07c12f83          	lw	t6,124(sp)
80001564:	08c10113          	addi	sp,sp,140
80001568:	30200073          	mret
8000156c:	0000                	.2byte	0x0
	...

80001570 <vme_init>:
80001570:	ff010113          	addi	sp,sp,-16
80001574:	00112623          	sw	ra,12(sp)
80001578:	00050793          	mv	a5,a0
8000157c:	00001537          	lui	a0,0x1
80001580:	00094717          	auipc	a4,0x94
80001584:	b0f72223          	sw	a5,-1276(a4) # 80095084 <pgalloc_usr>
80001588:	000780e7          	jalr	a5
8000158c:	00094717          	auipc	a4,0x94
80001590:	aca72e23          	sw	a0,-1316(a4) # 80095068 <kas+0xc>
80001594:	00c55793          	srli	a5,a0,0xc
80001598:	80000737          	lui	a4,0x80000
8000159c:	00e7e7b3          	or	a5,a5,a4
800015a0:	18079073          	csrw	satp,a5
800015a4:	00c12083          	lw	ra,12(sp)
800015a8:	00100793          	li	a5,1
800015ac:	00094717          	auipc	a4,0x94
800015b0:	acf72e23          	sw	a5,-1316(a4) # 80095088 <vme_enable>
800015b4:	00100513          	li	a0,1
800015b8:	01010113          	addi	sp,sp,16
800015bc:	00008067          	ret

800015c0 <protect>:
800015c0:	ff010113          	addi	sp,sp,-16
800015c4:	00812423          	sw	s0,8(sp)
800015c8:	00112623          	sw	ra,12(sp)
800015cc:	00050413          	mv	s0,a0
800015d0:	00094797          	auipc	a5,0x94
800015d4:	ab47a783          	lw	a5,-1356(a5) # 80095084 <pgalloc_usr>
800015d8:	00001537          	lui	a0,0x1
800015dc:	000780e7          	jalr	a5
800015e0:	400007b7          	lui	a5,0x40000
800015e4:	00f42223          	sw	a5,4(s0)
800015e8:	800007b7          	lui	a5,0x80000
800015ec:	00f42423          	sw	a5,8(s0)
800015f0:	000017b7          	lui	a5,0x1
800015f4:	00a42623          	sw	a0,12(s0)
800015f8:	00f42023          	sw	a5,0(s0)
800015fc:	00812403          	lw	s0,8(sp)
80001600:	00c12083          	lw	ra,12(sp)
80001604:	00094597          	auipc	a1,0x94
80001608:	a645a583          	lw	a1,-1436(a1) # 80095068 <kas+0xc>
8000160c:	00001637          	lui	a2,0x1
80001610:	01010113          	addi	sp,sp,16
80001614:	0a40006f          	j	800016b8 <memcpy>

80001618 <map>:
80001618:	00008067          	ret

8000161c <ucontext>:
8000161c:	ff010113          	addi	sp,sp,-16
80001620:	00000513          	li	a0,0
80001624:	01010113          	addi	sp,sp,16
80001628:	00008067          	ret

8000162c <strcmp>:
8000162c:	00054703          	lbu	a4,0(a0) # 1000 <_entry_offset+0x1000>
80001630:	0005c783          	lbu	a5,0(a1)
80001634:	00150513          	addi	a0,a0,1
80001638:	00071863          	bnez	a4,80001648 <strcmp+0x1c>
8000163c:	00f037b3          	snez	a5,a5
80001640:	40f00533          	neg	a0,a5
80001644:	00008067          	ret
80001648:	00158593          	addi	a1,a1,1
8000164c:	fef700e3          	beq	a4,a5,8000162c <strcmp>
80001650:	00f76663          	bltu	a4,a5,8000165c <strcmp+0x30>
80001654:	00100513          	li	a0,1
80001658:	00008067          	ret
8000165c:	fff00513          	li	a0,-1
80001660:	00008067          	ret

80001664 <strncmp>:
80001664:	02060c63          	beqz	a2,8000169c <strncmp+0x38>
80001668:	00c50633          	add	a2,a0,a2
8000166c:	0140006f          	j	80001680 <strncmp+0x1c>
80001670:	00158593          	addi	a1,a1,1
80001674:	02078863          	beqz	a5,800016a4 <strncmp+0x40>
80001678:	02f71a63          	bne	a4,a5,800016ac <strncmp+0x48>
8000167c:	02c50063          	beq	a0,a2,8000169c <strncmp+0x38>
80001680:	00054703          	lbu	a4,0(a0)
80001684:	0005c783          	lbu	a5,0(a1)
80001688:	00150513          	addi	a0,a0,1
8000168c:	fe0712e3          	bnez	a4,80001670 <strncmp+0xc>
80001690:	00f037b3          	snez	a5,a5
80001694:	40f00533          	neg	a0,a5
80001698:	00008067          	ret
8000169c:	00000513          	li	a0,0
800016a0:	00008067          	ret
800016a4:	00100513          	li	a0,1
800016a8:	00008067          	ret
800016ac:	fef77ce3          	bgeu	a4,a5,800016a4 <strncmp+0x40>
800016b0:	fff00513          	li	a0,-1
800016b4:	00008067          	ret

800016b8 <memcpy>:
800016b8:	02060063          	beqz	a2,800016d8 <memcpy+0x20>
800016bc:	00c50633          	add	a2,a0,a2
800016c0:	00050793          	mv	a5,a0
800016c4:	0005c703          	lbu	a4,0(a1)
800016c8:	00178793          	addi	a5,a5,1 # 1001 <_entry_offset+0x1001>
800016cc:	00158593          	addi	a1,a1,1
800016d0:	fee78fa3          	sb	a4,-1(a5)
800016d4:	fec798e3          	bne	a5,a2,800016c4 <memcpy+0xc>
800016d8:	00008067          	ret

800016dc <rand>:
800016dc:	0000f697          	auipc	a3,0xf
800016e0:	76c68693          	addi	a3,a3,1900 # 80010e48 <next>
800016e4:	0006a783          	lw	a5,0(a3)
800016e8:	41c65737          	lui	a4,0x41c65
800016ec:	e6d70713          	addi	a4,a4,-403 # 41c64e6d <_entry_offset+0x41c64e6d>
800016f0:	02e787b3          	mul	a5,a5,a4
800016f4:	00003737          	lui	a4,0x3
800016f8:	03970713          	addi	a4,a4,57 # 3039 <_entry_offset+0x3039>
800016fc:	00e787b3          	add	a5,a5,a4
80001700:	00179513          	slli	a0,a5,0x1
80001704:	00f6a023          	sw	a5,0(a3)
80001708:	01155513          	srli	a0,a0,0x11
8000170c:	00008067          	ret

80001710 <__udivmoddi4>:
80001710:	fe010113          	addi	sp,sp,-32
80001714:	01212823          	sw	s2,16(sp)
80001718:	01412423          	sw	s4,8(sp)
8000171c:	01512223          	sw	s5,4(sp)
80001720:	01612023          	sw	s6,0(sp)
80001724:	00112e23          	sw	ra,28(sp)
80001728:	00812c23          	sw	s0,24(sp)
8000172c:	00912a23          	sw	s1,20(sp)
80001730:	01312623          	sw	s3,12(sp)
80001734:	00068a93          	mv	s5,a3
80001738:	00050913          	mv	s2,a0
8000173c:	00060b13          	mv	s6,a2
80001740:	00070a13          	mv	s4,a4
80001744:	04059463          	bnez	a1,8000178c <__udivmoddi4+0x7c>
80001748:	18069863          	bnez	a3,800018d8 <__udivmoddi4+0x1c8>
8000174c:	00070863          	beqz	a4,8000175c <__udivmoddi4+0x4c>
80001750:	02c577b3          	remu	a5,a0,a2
80001754:	00072223          	sw	zero,4(a4)
80001758:	00f72023          	sw	a5,0(a4)
8000175c:	03695533          	divu	a0,s2,s6
80001760:	00000593          	li	a1,0
80001764:	01c12083          	lw	ra,28(sp)
80001768:	01812403          	lw	s0,24(sp)
8000176c:	01412483          	lw	s1,20(sp)
80001770:	01012903          	lw	s2,16(sp)
80001774:	00c12983          	lw	s3,12(sp)
80001778:	00812a03          	lw	s4,8(sp)
8000177c:	00412a83          	lw	s5,4(sp)
80001780:	00012b03          	lw	s6,0(sp)
80001784:	02010113          	addi	sp,sp,32
80001788:	00008067          	ret
8000178c:	00058993          	mv	s3,a1
80001790:	00058413          	mv	s0,a1
80001794:	0e061863          	bnez	a2,80001884 <__udivmoddi4+0x174>
80001798:	1a068263          	beqz	a3,8000193c <__udivmoddi4+0x22c>
8000179c:	20050463          	beqz	a0,800019a4 <__udivmoddi4+0x294>
800017a0:	fff68793          	addi	a5,a3,-1
800017a4:	00d7f733          	and	a4,a5,a3
800017a8:	22070c63          	beqz	a4,800019e0 <__udivmoddi4+0x2d0>
800017ac:	00068513          	mv	a0,a3
800017b0:	28c000ef          	jal	ra,80001a3c <__clzsi2>
800017b4:	00050493          	mv	s1,a0
800017b8:	00098513          	mv	a0,s3
800017bc:	280000ef          	jal	ra,80001a3c <__clzsi2>
800017c0:	40a48733          	sub	a4,s1,a0
800017c4:	01e00793          	li	a5,30
800017c8:	16e7ec63          	bltu	a5,a4,80001940 <__udivmoddi4+0x230>
800017cc:	00170713          	addi	a4,a4,1
800017d0:	02000e93          	li	t4,32
800017d4:	40ee8eb3          	sub	t4,t4,a4
800017d8:	01d99633          	sll	a2,s3,t4
800017dc:	00e956b3          	srl	a3,s2,a4
800017e0:	00e9d7b3          	srl	a5,s3,a4
800017e4:	01d91eb3          	sll	t4,s2,t4
800017e8:	00d66433          	or	s0,a2,a3
800017ec:	00000493          	li	s1,0
800017f0:	00000313          	li	t1,0
800017f4:	01fed693          	srli	a3,t4,0x1f
800017f8:	00141813          	slli	a6,s0,0x1
800017fc:	00d86833          	or	a6,a6,a3
80001800:	01f45413          	srli	s0,s0,0x1f
80001804:	00179793          	slli	a5,a5,0x1
80001808:	0087e7b3          	or	a5,a5,s0
8000180c:	410b0e33          	sub	t3,s6,a6
80001810:	01cb36b3          	sltu	a3,s6,t3
80001814:	40fa88b3          	sub	a7,s5,a5
80001818:	40d888b3          	sub	a7,a7,a3
8000181c:	001e3e13          	seqz	t3,t3
80001820:	41c888b3          	sub	a7,a7,t3
80001824:	41f8de13          	srai	t3,a7,0x1f
80001828:	016e7433          	and	s0,t3,s6
8000182c:	40880433          	sub	s0,a6,s0
80001830:	015e7e33          	and	t3,t3,s5
80001834:	01f4d693          	srli	a3,s1,0x1f
80001838:	001e9e93          	slli	t4,t4,0x1
8000183c:	00149493          	slli	s1,s1,0x1
80001840:	00883833          	sltu	a6,a6,s0
80001844:	41c787b3          	sub	a5,a5,t3
80001848:	fff70713          	addi	a4,a4,-1
8000184c:	0064e4b3          	or	s1,s1,t1
80001850:	00deeeb3          	or	t4,t4,a3
80001854:	01f8d313          	srli	t1,a7,0x1f
80001858:	410787b3          	sub	a5,a5,a6
8000185c:	f8071ce3          	bnez	a4,800017f4 <__udivmoddi4+0xe4>
80001860:	01f4d993          	srli	s3,s1,0x1f
80001864:	001e9e93          	slli	t4,t4,0x1
80001868:	00149493          	slli	s1,s1,0x1
8000186c:	0064e533          	or	a0,s1,t1
80001870:	01d9e5b3          	or	a1,s3,t4
80001874:	ee0a08e3          	beqz	s4,80001764 <__udivmoddi4+0x54>
80001878:	008a2023          	sw	s0,0(s4)
8000187c:	00fa2223          	sw	a5,4(s4)
80001880:	ee5ff06f          	j	80001764 <__udivmoddi4+0x54>
80001884:	06068663          	beqz	a3,800018f0 <__udivmoddi4+0x1e0>
80001888:	00068513          	mv	a0,a3
8000188c:	1b0000ef          	jal	ra,80001a3c <__clzsi2>
80001890:	00050493          	mv	s1,a0
80001894:	00098513          	mv	a0,s3
80001898:	1a4000ef          	jal	ra,80001a3c <__clzsi2>
8000189c:	40a48733          	sub	a4,s1,a0
800018a0:	01f00793          	li	a5,31
800018a4:	08e7ee63          	bltu	a5,a4,80001940 <__udivmoddi4+0x230>
800018a8:	00170713          	addi	a4,a4,1
800018ac:	02000793          	li	a5,32
800018b0:	00090e93          	mv	t4,s2
800018b4:	14f70863          	beq	a4,a5,80001a04 <__udivmoddi4+0x2f4>
800018b8:	40e786b3          	sub	a3,a5,a4
800018bc:	00e95633          	srl	a2,s2,a4
800018c0:	00d995b3          	sll	a1,s3,a3
800018c4:	00e9d7b3          	srl	a5,s3,a4
800018c8:	00d91eb3          	sll	t4,s2,a3
800018cc:	00c5e433          	or	s0,a1,a2
800018d0:	00000493          	li	s1,0
800018d4:	f1dff06f          	j	800017f0 <__udivmoddi4+0xe0>
800018d8:	06070663          	beqz	a4,80001944 <__udivmoddi4+0x234>
800018dc:	00aa2023          	sw	a0,0(s4)
800018e0:	00072223          	sw	zero,4(a4)
800018e4:	00000513          	li	a0,0
800018e8:	00000593          	li	a1,0
800018ec:	e79ff06f          	j	80001764 <__udivmoddi4+0x54>
800018f0:	fff60793          	addi	a5,a2,-1 # fff <_entry_offset+0xfff>
800018f4:	00c7f733          	and	a4,a5,a2
800018f8:	04071c63          	bnez	a4,80001950 <__udivmoddi4+0x240>
800018fc:	000a0863          	beqz	s4,8000190c <__udivmoddi4+0x1fc>
80001900:	00a7f7b3          	and	a5,a5,a0
80001904:	00fa2023          	sw	a5,0(s4)
80001908:	000a2223          	sw	zero,4(s4)
8000190c:	00100793          	li	a5,1
80001910:	0cfb0263          	beq	s6,a5,800019d4 <__udivmoddi4+0x2c4>
80001914:	000b0513          	mv	a0,s6
80001918:	1bc000ef          	jal	ra,80001ad4 <__ctzsi2>
8000191c:	02000713          	li	a4,32
80001920:	40a70733          	sub	a4,a4,a0
80001924:	00050793          	mv	a5,a0
80001928:	00e99733          	sll	a4,s3,a4
8000192c:	00a95933          	srl	s2,s2,a0
80001930:	01276533          	or	a0,a4,s2
80001934:	00f9d5b3          	srl	a1,s3,a5
80001938:	e2dff06f          	j	80001764 <__udivmoddi4+0x54>
8000193c:	00100073          	ebreak
80001940:	080a1063          	bnez	s4,800019c0 <__udivmoddi4+0x2b0>
80001944:	00000513          	li	a0,0
80001948:	00000593          	li	a1,0
8000194c:	e19ff06f          	j	80001764 <__udivmoddi4+0x54>
80001950:	00060513          	mv	a0,a2
80001954:	00068493          	mv	s1,a3
80001958:	0e4000ef          	jal	ra,80001a3c <__clzsi2>
8000195c:	00050993          	mv	s3,a0
80001960:	00040513          	mv	a0,s0
80001964:	0d8000ef          	jal	ra,80001a3c <__clzsi2>
80001968:	40a98533          	sub	a0,s3,a0
8000196c:	02150713          	addi	a4,a0,33
80001970:	02000693          	li	a3,32
80001974:	00090e93          	mv	t4,s2
80001978:	00000793          	li	a5,0
8000197c:	e6d70ae3          	beq	a4,a3,800017f0 <__udivmoddi4+0xe0>
80001980:	01f00613          	li	a2,31
80001984:	08e66663          	bltu	a2,a4,80001a10 <__udivmoddi4+0x300>
80001988:	40e686b3          	sub	a3,a3,a4
8000198c:	00e95633          	srl	a2,s2,a4
80001990:	00d415b3          	sll	a1,s0,a3
80001994:	00e457b3          	srl	a5,s0,a4
80001998:	00d91eb3          	sll	t4,s2,a3
8000199c:	00c5e433          	or	s0,a1,a2
800019a0:	e51ff06f          	j	800017f0 <__udivmoddi4+0xe0>
800019a4:	00070863          	beqz	a4,800019b4 <__udivmoddi4+0x2a4>
800019a8:	02d5f7b3          	remu	a5,a1,a3
800019ac:	00072023          	sw	zero,0(a4)
800019b0:	00f72223          	sw	a5,4(a4)
800019b4:	0359d533          	divu	a0,s3,s5
800019b8:	00000593          	li	a1,0
800019bc:	da9ff06f          	j	80001764 <__udivmoddi4+0x54>
800019c0:	012a2023          	sw	s2,0(s4)
800019c4:	013a2223          	sw	s3,4(s4)
800019c8:	00000513          	li	a0,0
800019cc:	00000593          	li	a1,0
800019d0:	d95ff06f          	j	80001764 <__udivmoddi4+0x54>
800019d4:	00090513          	mv	a0,s2
800019d8:	00098593          	mv	a1,s3
800019dc:	d89ff06f          	j	80001764 <__udivmoddi4+0x54>
800019e0:	000a0863          	beqz	s4,800019f0 <__udivmoddi4+0x2e0>
800019e4:	00b7f7b3          	and	a5,a5,a1
800019e8:	00aa2023          	sw	a0,0(s4)
800019ec:	00fa2223          	sw	a5,4(s4)
800019f0:	000a8513          	mv	a0,s5
800019f4:	0e0000ef          	jal	ra,80001ad4 <__ctzsi2>
800019f8:	00a9d533          	srl	a0,s3,a0
800019fc:	00000593          	li	a1,0
80001a00:	d65ff06f          	j	80001764 <__udivmoddi4+0x54>
80001a04:	00000793          	li	a5,0
80001a08:	00000493          	li	s1,0
80001a0c:	de5ff06f          	j	800017f0 <__udivmoddi4+0xe0>
80001a10:	04000693          	li	a3,64
80001a14:	40e686b3          	sub	a3,a3,a4
80001a18:	00150513          	addi	a0,a0,1
80001a1c:	00d914b3          	sll	s1,s2,a3
80001a20:	00a95eb3          	srl	t4,s2,a0
80001a24:	00d416b3          	sll	a3,s0,a3
80001a28:	01d6eeb3          	or	t4,a3,t4
80001a2c:	00a45433          	srl	s0,s0,a0
80001a30:	dc1ff06f          	j	800017f0 <__udivmoddi4+0xe0>

80001a34 <__udivdi3>:
80001a34:	00000713          	li	a4,0
80001a38:	cd9ff06f          	j	80001710 <__udivmoddi4>

80001a3c <__clzsi2>:
80001a3c:	ffff05b7          	lui	a1,0xffff0
80001a40:	00b575b3          	and	a1,a0,a1
80001a44:	0015b593          	seqz	a1,a1
80001a48:	00459593          	slli	a1,a1,0x4
80001a4c:	01000793          	li	a5,16
80001a50:	40b787b3          	sub	a5,a5,a1
80001a54:	00010737          	lui	a4,0x10
80001a58:	00f557b3          	srl	a5,a0,a5
80001a5c:	f0070713          	addi	a4,a4,-256 # ff00 <_entry_offset+0xff00>
80001a60:	00e7f733          	and	a4,a5,a4
80001a64:	00173713          	seqz	a4,a4
80001a68:	00371713          	slli	a4,a4,0x3
80001a6c:	00800693          	li	a3,8
80001a70:	40e686b3          	sub	a3,a3,a4
80001a74:	00d7d7b3          	srl	a5,a5,a3
80001a78:	0f07f613          	andi	a2,a5,240
80001a7c:	00163613          	seqz	a2,a2
80001a80:	00261613          	slli	a2,a2,0x2
80001a84:	00400693          	li	a3,4
80001a88:	40c686b3          	sub	a3,a3,a2
80001a8c:	00d7d7b3          	srl	a5,a5,a3
80001a90:	00c7f693          	andi	a3,a5,12
80001a94:	0016b693          	seqz	a3,a3
80001a98:	00169693          	slli	a3,a3,0x1
80001a9c:	00200813          	li	a6,2
80001aa0:	40d80533          	sub	a0,a6,a3
80001aa4:	00a7d7b3          	srl	a5,a5,a0
80001aa8:	0017d513          	srli	a0,a5,0x1
80001aac:	00154513          	xori	a0,a0,1
80001ab0:	00b70733          	add	a4,a4,a1
80001ab4:	00157513          	andi	a0,a0,1
80001ab8:	00e60633          	add	a2,a2,a4
80001abc:	40f80833          	sub	a6,a6,a5
80001ac0:	40a00733          	neg	a4,a0
80001ac4:	01077733          	and	a4,a4,a6
80001ac8:	00c68533          	add	a0,a3,a2
80001acc:	00a70533          	add	a0,a4,a0
80001ad0:	00008067          	ret

80001ad4 <__ctzsi2>:
80001ad4:	01051593          	slli	a1,a0,0x10
80001ad8:	0105d593          	srli	a1,a1,0x10
80001adc:	0015b593          	seqz	a1,a1
80001ae0:	00459593          	slli	a1,a1,0x4
80001ae4:	00b557b3          	srl	a5,a0,a1
80001ae8:	0ff7f613          	zext.b	a2,a5
80001aec:	00163613          	seqz	a2,a2
80001af0:	00361613          	slli	a2,a2,0x3
80001af4:	00c7d7b3          	srl	a5,a5,a2
80001af8:	00f7f693          	andi	a3,a5,15
80001afc:	0016b693          	seqz	a3,a3
80001b00:	00269693          	slli	a3,a3,0x2
80001b04:	00d7d7b3          	srl	a5,a5,a3
80001b08:	0037f713          	andi	a4,a5,3
80001b0c:	00173713          	seqz	a4,a4
80001b10:	00171713          	slli	a4,a4,0x1
80001b14:	00e7d7b3          	srl	a5,a5,a4
80001b18:	0017d513          	srli	a0,a5,0x1
80001b1c:	00b60633          	add	a2,a2,a1
80001b20:	0017f793          	andi	a5,a5,1
80001b24:	00157593          	andi	a1,a0,1
80001b28:	00200513          	li	a0,2
80001b2c:	00c686b3          	add	a3,a3,a2
80001b30:	40b50533          	sub	a0,a0,a1
80001b34:	fff78793          	addi	a5,a5,-1
80001b38:	00f57533          	and	a0,a0,a5
80001b3c:	00d70733          	add	a4,a4,a3
80001b40:	00e50533          	add	a0,a0,a4
80001b44:	00008067          	ret

80001b48 <printf>:
80001b48:	fc010113          	addi	sp,sp,-64
80001b4c:	02410313          	addi	t1,sp,36
80001b50:	02b12223          	sw	a1,36(sp)
80001b54:	02c12423          	sw	a2,40(sp)
80001b58:	00050593          	mv	a1,a0
80001b5c:	00030613          	mv	a2,t1
80001b60:	fffff517          	auipc	a0,0xfffff
80001b64:	4c850513          	addi	a0,a0,1224 # 80001028 <putch>
80001b68:	00112e23          	sw	ra,28(sp)
80001b6c:	02d12623          	sw	a3,44(sp)
80001b70:	02e12823          	sw	a4,48(sp)
80001b74:	02f12a23          	sw	a5,52(sp)
80001b78:	03012c23          	sw	a6,56(sp)
80001b7c:	03112e23          	sw	a7,60(sp)
80001b80:	00612623          	sw	t1,12(sp)
80001b84:	010000ef          	jal	ra,80001b94 <vprintf>
80001b88:	01c12083          	lw	ra,28(sp)
80001b8c:	04010113          	addi	sp,sp,64
80001b90:	00008067          	ret

80001b94 <vprintf>:
80001b94:	f7010113          	addi	sp,sp,-144
80001b98:	08112623          	sw	ra,140(sp)
80001b9c:	08812423          	sw	s0,136(sp)
80001ba0:	08912223          	sw	s1,132(sp)
80001ba4:	09212023          	sw	s2,128(sp)
80001ba8:	07312e23          	sw	s3,124(sp)
80001bac:	07412c23          	sw	s4,120(sp)
80001bb0:	07512a23          	sw	s5,116(sp)
80001bb4:	07612823          	sw	s6,112(sp)
80001bb8:	07712623          	sw	s7,108(sp)
80001bbc:	07812423          	sw	s8,104(sp)
80001bc0:	07912223          	sw	s9,100(sp)
80001bc4:	07a12023          	sw	s10,96(sp)
80001bc8:	05b12e23          	sw	s11,92(sp)
80001bcc:	0005c783          	lbu	a5,0(a1) # ffff0000 <_end+0x7ff52000>
80001bd0:	3a078a63          	beqz	a5,80001f84 <vprintf+0x3f0>
80001bd4:	ccccdc37          	lui	s8,0xccccd
80001bd8:	100009b7          	lui	s3,0x10000
80001bdc:	ccdc0493          	addi	s1,s8,-819 # cccccccd <_end+0x4cc2eccd>
80001be0:	00058413          	mv	s0,a1
80001be4:	00050a13          	mv	s4,a0
80001be8:	00060a93          	mv	s5,a2
80001bec:	00000913          	li	s2,0
80001bf0:	00000d13          	li	s10,0
80001bf4:	00000d93          	li	s11,0
80001bf8:	02500b93          	li	s7,37
80001bfc:	00001c97          	auipc	s9,0x1
80001c00:	1d8c8c93          	addi	s9,s9,472 # 80002dd4 <mainargs+0x1b4>
80001c04:	01010b13          	addi	s6,sp,16
80001c08:	fff98993          	addi	s3,s3,-1 # fffffff <_entry_offset+0xfffffff>
80001c0c:	cccc0c13          	addi	s8,s8,-820
80001c10:	07778063          	beq	a5,s7,80001c70 <vprintf+0xdc>
80001c14:	060d9263          	bnez	s11,80001c78 <vprintf+0xe4>
80001c18:	00078513          	mv	a0,a5
80001c1c:	000a00e7          	jalr	s4
80001c20:	00190913          	addi	s2,s2,1
80001c24:	00144783          	lbu	a5,1(s0)
80001c28:	00140413          	addi	s0,s0,1
80001c2c:	fe0792e3          	bnez	a5,80001c10 <vprintf+0x7c>
80001c30:	08c12083          	lw	ra,140(sp)
80001c34:	08812403          	lw	s0,136(sp)
80001c38:	08412483          	lw	s1,132(sp)
80001c3c:	07c12983          	lw	s3,124(sp)
80001c40:	07812a03          	lw	s4,120(sp)
80001c44:	07412a83          	lw	s5,116(sp)
80001c48:	07012b03          	lw	s6,112(sp)
80001c4c:	06c12b83          	lw	s7,108(sp)
80001c50:	06812c03          	lw	s8,104(sp)
80001c54:	06412c83          	lw	s9,100(sp)
80001c58:	06012d03          	lw	s10,96(sp)
80001c5c:	05c12d83          	lw	s11,92(sp)
80001c60:	00090513          	mv	a0,s2
80001c64:	08012903          	lw	s2,128(sp)
80001c68:	09010113          	addi	sp,sp,144
80001c6c:	00008067          	ret
80001c70:	001dbd93          	seqz	s11,s11
80001c74:	01b40433          	add	s0,s0,s11
80001c78:	00044783          	lbu	a5,0(s0)
80001c7c:	11778663          	beq	a5,s7,80001d88 <vprintf+0x1f4>
80001c80:	f9d78793          	addi	a5,a5,-99
80001c84:	0ff7f793          	zext.b	a5,a5
80001c88:	01200713          	li	a4,18
80001c8c:	00f76c63          	bltu	a4,a5,80001ca4 <vprintf+0x110>
80001c90:	00279793          	slli	a5,a5,0x2
80001c94:	019787b3          	add	a5,a5,s9
80001c98:	0007a783          	lw	a5,0(a5)
80001c9c:	019787b3          	add	a5,a5,s9
80001ca0:	00078067          	jr	a5
80001ca4:	00100d93          	li	s11,1
80001ca8:	f7dff06f          	j	80001c24 <vprintf+0x90>
80001cac:	00200793          	li	a5,2
80001cb0:	31a7c663          	blt	a5,s10,80001fbc <vprintf+0x428>
80001cb4:	28fd0863          	beq	s10,a5,80001f44 <vprintf+0x3b0>
80001cb8:	000aa703          	lw	a4,0(s5)
80001cbc:	00000693          	li	a3,0
80001cc0:	004a8a93          	addi	s5,s5,4
80001cc4:	00d767b3          	or	a5,a4,a3
80001cc8:	0c079863          	bnez	a5,80001d98 <vprintf+0x204>
80001ccc:	03000513          	li	a0,48
80001cd0:	00190913          	addi	s2,s2,1
80001cd4:	000a00e7          	jalr	s4
80001cd8:	00000d13          	li	s10,0
80001cdc:	00000d93          	li	s11,0
80001ce0:	f45ff06f          	j	80001c24 <vprintf+0x90>
80001ce4:	2c0d1863          	bnez	s10,80001fb4 <vprintf+0x420>
80001ce8:	000aa783          	lw	a5,0(s5)
80001cec:	004a8a93          	addi	s5,s5,4
80001cf0:	0007c503          	lbu	a0,0(a5)
80001cf4:	00f12623          	sw	a5,12(sp)
80001cf8:	26050e63          	beqz	a0,80001f74 <vprintf+0x3e0>
80001cfc:	00090d93          	mv	s11,s2
80001d00:	000a00e7          	jalr	s4
80001d04:	00c12703          	lw	a4,12(sp)
80001d08:	001d8d93          	addi	s11,s11,1
80001d0c:	412d87b3          	sub	a5,s11,s2
80001d10:	00f707b3          	add	a5,a4,a5
80001d14:	0007c503          	lbu	a0,0(a5)
80001d18:	fe0514e3          	bnez	a0,80001d00 <vprintf+0x16c>
80001d1c:	000d8913          	mv	s2,s11
80001d20:	00000d93          	li	s11,0
80001d24:	f01ff06f          	j	80001c24 <vprintf+0x90>
80001d28:	001d0d13          	addi	s10,s10,1
80001d2c:	00100d93          	li	s11,1
80001d30:	ef5ff06f          	j	80001c24 <vprintf+0x90>
80001d34:	00200793          	li	a5,2
80001d38:	25a7ca63          	blt	a5,s10,80001f8c <vprintf+0x3f8>
80001d3c:	22fd0063          	beq	s10,a5,80001f5c <vprintf+0x3c8>
80001d40:	000aad83          	lw	s11,0(s5)
80001d44:	004a8a93          	addi	s5,s5,4
80001d48:	41fdd713          	srai	a4,s11,0x1f
80001d4c:	00190d13          	addi	s10,s2,1
80001d50:	10074a63          	bltz	a4,80001e64 <vprintf+0x2d0>
80001d54:	00ede7b3          	or	a5,s11,a4
80001d58:	22079263          	bnez	a5,80001f7c <vprintf+0x3e8>
80001d5c:	03000513          	li	a0,48
80001d60:	000a00e7          	jalr	s4
80001d64:	000d0913          	mv	s2,s10
80001d68:	f71ff06f          	j	80001cd8 <vprintf+0x144>
80001d6c:	240d1063          	bnez	s10,80001fac <vprintf+0x418>
80001d70:	000ac503          	lbu	a0,0(s5)
80001d74:	00190913          	addi	s2,s2,1
80001d78:	004a8a93          	addi	s5,s5,4
80001d7c:	000a00e7          	jalr	s4
80001d80:	00000d93          	li	s11,0
80001d84:	ea1ff06f          	j	80001c24 <vprintf+0x90>
80001d88:	02500513          	li	a0,37
80001d8c:	000a00e7          	jalr	s4
80001d90:	00000d93          	li	s11,0
80001d94:	e91ff06f          	j	80001c24 <vprintf+0x90>
80001d98:	000b0613          	mv	a2,s6
80001d9c:	00000593          	li	a1,0
80001da0:	00500813          	li	a6,5
80001da4:	00900893          	li	a7,9
80001da8:	00469793          	slli	a5,a3,0x4
80001dac:	01c75513          	srli	a0,a4,0x1c
80001db0:	00a7e533          	or	a0,a5,a0
80001db4:	01357533          	and	a0,a0,s3
80001db8:	013777b3          	and	a5,a4,s3
80001dbc:	0186d313          	srli	t1,a3,0x18
80001dc0:	00a787b3          	add	a5,a5,a0
80001dc4:	006787b3          	add	a5,a5,t1
80001dc8:	0307f7b3          	remu	a5,a5,a6
80001dcc:	00068313          	mv	t1,a3
80001dd0:	00160613          	addi	a2,a2,1
80001dd4:	00058d13          	mv	s10,a1
80001dd8:	00070e13          	mv	t3,a4
80001ddc:	00158593          	addi	a1,a1,1
80001de0:	40f707b3          	sub	a5,a4,a5
80001de4:	00f73533          	sltu	a0,a4,a5
80001de8:	40a686b3          	sub	a3,a3,a0
80001dec:	03878eb3          	mul	t4,a5,s8
80001df0:	029686b3          	mul	a3,a3,s1
80001df4:	0297b533          	mulhu	a0,a5,s1
80001df8:	01d686b3          	add	a3,a3,t4
80001dfc:	029787b3          	mul	a5,a5,s1
80001e00:	00a686b3          	add	a3,a3,a0
80001e04:	01f69513          	slli	a0,a3,0x1f
80001e08:	0016d693          	srli	a3,a3,0x1
80001e0c:	0017d793          	srli	a5,a5,0x1
80001e10:	00f567b3          	or	a5,a0,a5
80001e14:	00279513          	slli	a0,a5,0x2
80001e18:	00f50533          	add	a0,a0,a5
80001e1c:	00151513          	slli	a0,a0,0x1
80001e20:	40a70533          	sub	a0,a4,a0
80001e24:	03050513          	addi	a0,a0,48
80001e28:	0ff57513          	zext.b	a0,a0
80001e2c:	fea60fa3          	sb	a0,-1(a2)
80001e30:	00078713          	mv	a4,a5
80001e34:	f6031ae3          	bnez	t1,80001da8 <vprintf+0x214>
80001e38:	f7c8e8e3          	bltu	a7,t3,80001da8 <vprintf+0x214>
80001e3c:	01ab0db3          	add	s11,s6,s10
80001e40:	00c0006f          	j	80001e4c <vprintf+0x2b8>
80001e44:	fffdc503          	lbu	a0,-1(s11)
80001e48:	00078d93          	mv	s11,a5
80001e4c:	000a00e7          	jalr	s4
80001e50:	fffd8793          	addi	a5,s11,-1
80001e54:	ffbb18e3          	bne	s6,s11,80001e44 <vprintf+0x2b0>
80001e58:	00190913          	addi	s2,s2,1
80001e5c:	01a90933          	add	s2,s2,s10
80001e60:	e79ff06f          	j	80001cd8 <vprintf+0x144>
80001e64:	01b037b3          	snez	a5,s11
80001e68:	40e00733          	neg	a4,a4
80001e6c:	40f70733          	sub	a4,a4,a5
80001e70:	02d00513          	li	a0,45
80001e74:	00e12623          	sw	a4,12(sp)
80001e78:	000a00e7          	jalr	s4
80001e7c:	00c12703          	lw	a4,12(sp)
80001e80:	41b00db3          	neg	s11,s11
80001e84:	000b0693          	mv	a3,s6
80001e88:	00000613          	li	a2,0
80001e8c:	00500593          	li	a1,5
80001e90:	00471793          	slli	a5,a4,0x4
80001e94:	01cdd513          	srli	a0,s11,0x1c
80001e98:	00a7e533          	or	a0,a5,a0
80001e9c:	01357533          	and	a0,a0,s3
80001ea0:	013df7b3          	and	a5,s11,s3
80001ea4:	01875813          	srli	a6,a4,0x18
80001ea8:	00a787b3          	add	a5,a5,a0
80001eac:	010787b3          	add	a5,a5,a6
80001eb0:	02b7f7b3          	remu	a5,a5,a1
80001eb4:	00168693          	addi	a3,a3,1
80001eb8:	00060913          	mv	s2,a2
80001ebc:	00160613          	addi	a2,a2,1
80001ec0:	40fd87b3          	sub	a5,s11,a5
80001ec4:	00fdb533          	sltu	a0,s11,a5
80001ec8:	40a70733          	sub	a4,a4,a0
80001ecc:	03878833          	mul	a6,a5,s8
80001ed0:	02970733          	mul	a4,a4,s1
80001ed4:	0297b533          	mulhu	a0,a5,s1
80001ed8:	01070733          	add	a4,a4,a6
80001edc:	029787b3          	mul	a5,a5,s1
80001ee0:	00a70733          	add	a4,a4,a0
80001ee4:	01f71513          	slli	a0,a4,0x1f
80001ee8:	00175713          	srli	a4,a4,0x1
80001eec:	0017d793          	srli	a5,a5,0x1
80001ef0:	00f567b3          	or	a5,a0,a5
80001ef4:	00279513          	slli	a0,a5,0x2
80001ef8:	00f50533          	add	a0,a0,a5
80001efc:	00151513          	slli	a0,a0,0x1
80001f00:	40ad8533          	sub	a0,s11,a0
80001f04:	03050513          	addi	a0,a0,48
80001f08:	0ff57513          	zext.b	a0,a0
80001f0c:	00078d93          	mv	s11,a5
80001f10:	fea68fa3          	sb	a0,-1(a3)
80001f14:	00e7e7b3          	or	a5,a5,a4
80001f18:	f6079ce3          	bnez	a5,80001e90 <vprintf+0x2fc>
80001f1c:	012b0db3          	add	s11,s6,s2
80001f20:	00c0006f          	j	80001f2c <vprintf+0x398>
80001f24:	fffdc503          	lbu	a0,-1(s11)
80001f28:	00078d93          	mv	s11,a5
80001f2c:	000a00e7          	jalr	s4
80001f30:	fffd8793          	addi	a5,s11,-1
80001f34:	ffbb18e3          	bne	s6,s11,80001f24 <vprintf+0x390>
80001f38:	001d0d13          	addi	s10,s10,1
80001f3c:	012d0933          	add	s2,s10,s2
80001f40:	d99ff06f          	j	80001cd8 <vprintf+0x144>
80001f44:	007a8a93          	addi	s5,s5,7
80001f48:	ff8afa93          	andi	s5,s5,-8
80001f4c:	000aa703          	lw	a4,0(s5)
80001f50:	004aa683          	lw	a3,4(s5)
80001f54:	008a8a93          	addi	s5,s5,8
80001f58:	d6dff06f          	j	80001cc4 <vprintf+0x130>
80001f5c:	007a8a93          	addi	s5,s5,7
80001f60:	ff8afa93          	andi	s5,s5,-8
80001f64:	000aad83          	lw	s11,0(s5)
80001f68:	004aa703          	lw	a4,4(s5)
80001f6c:	008a8a93          	addi	s5,s5,8
80001f70:	dddff06f          	j	80001d4c <vprintf+0x1b8>
80001f74:	00000d93          	li	s11,0
80001f78:	cadff06f          	j	80001c24 <vprintf+0x90>
80001f7c:	00090d13          	mv	s10,s2
80001f80:	f05ff06f          	j	80001e84 <vprintf+0x2f0>
80001f84:	00000913          	li	s2,0
80001f88:	ca9ff06f          	j	80001c30 <vprintf+0x9c>
80001f8c:	03000613          	li	a2,48
80001f90:	00001597          	auipc	a1,0x1
80001f94:	e0058593          	addi	a1,a1,-512 # 80002d90 <mainargs+0x170>
80001f98:	00000517          	auipc	a0,0x0
80001f9c:	0bc50513          	addi	a0,a0,188 # 80002054 <_etext+0x90>
80001fa0:	ba9ff0ef          	jal	ra,80001b48 <printf>
80001fa4:	00100513          	li	a0,1
80001fa8:	88cff0ef          	jal	ra,80001034 <halt>
80001fac:	02a00613          	li	a2,42
80001fb0:	fe1ff06f          	j	80001f90 <vprintf+0x3fc>
80001fb4:	02100613          	li	a2,33
80001fb8:	fd9ff06f          	j	80001f90 <vprintf+0x3fc>
80001fbc:	04c00613          	li	a2,76
80001fc0:	fd1ff06f          	j	80001f90 <vprintf+0x3fc>
