[1;34m[src/utils/log.c:30 init_log] Log is written to /home/meowth/ysyx/ysyx-workbench/am-kernels/tests/am-tests/build/nemu-log.txt[0m
[1;34m[src/memory/paddr.c:52 init_mem] physical memory area [0x80000000, 0x87ffffff][0m
[1;34m[src/device/io/mmio.c:50 add_mmio_map] Add mmio map 'serial' at [0xa00003f8, 0xa00003ff][0m
[1;34m[src/device/io/mmio.c:50 add_mmio_map] Add mmio map 'rtc' at [0xa0000048, 0xa000004f][0m
[1;34m[src/device/io/mmio.c:50 add_mmio_map] Add mmio map 'vgactl' at [0xa0000100, 0xa0000107][0m
[1;34m[src/device/io/mmio.c:50 add_mmio_map] Add mmio map 'vmem' at [0xa1000000, 0xa10752ff][0m
[1;34m[src/device/io/mmio.c:50 add_mmio_map] Add mmio map 'keyboard' at [0xa0000060, 0xa0000063][0m
[1;34m[src/device/io/mmio.c:50 add_mmio_map] Add mmio map 'audio' at [0xa0000200, 0xa0000217][0m
[1;34m[src/device/io/mmio.c:50 add_mmio_map] Add mmio map 'audio-sbuf' at [0xa1200000, 0xa120ffff][0m
[1;34m[src/monitor/monitor.c:61 load_img] The image is /home/meowth/ysyx/ysyx-workbench/am-kernels/tests/am-tests/build/amtest-riscv32-nemu.bin, size = 610444[0m
[1;34m[src/monitor/monitor.c:29 welcome] Trace: [1;32mON[0m[0m
[1;34m[src/monitor/monitor.c:30 welcome] If trace is enabled, a log file will be generated to record the trace. This may lead to a large log file. If it is not necessary, you can disable it in menuconfig[0m
[1;34m[src/monitor/monitor.c:33 welcome] Build time: 18:53:45, Aug 26 2025[0m
0x80000000: 00 00 04 13 mv	s0, zero
0x80000004: 00 09 e1 17 auipc	sp, 0x9e
0x80000008: ff c1 01 13 addi	sp, sp, -4
0x8000000c: 03 40 10 ef jal	0x1034
0x80001040: ff 01 01 13 addi	sp, sp, -0x10
0x80001044: 00 00 25 17 auipc	a0, 2
0x80001048: bd c5 05 13 addi	a0, a0, -0x424
0x8000104c: 00 11 26 23 sw	ra, 0xc(sp)
0x80001050: e0 9f f0 ef jal	-0x1f8
0x80000e58: fe 01 01 13 addi	sp, sp, -0x20
0x80000e5c: 00 11 2e 23 sw	ra, 0x1c(sp)
0x80000e60: 00 81 2c 23 sw	s0, 0x18(sp)
0x80000e64: 00 91 2a 23 sw	s1, 0x14(sp)
0x80000e68: 01 21 28 23 sw	s2, 0x10(sp)
0x80000e6c: 01 31 26 23 sw	s3, 0xc(sp)
0x80000e70: 00 05 47 83 lbu	a5, 0(a0)
0x80000e74: 01 50 07 13 addi	a4, zero, 0x15
0x80000e78: f9 f7 87 93 addi	a5, a5, -0x61
0x80000e7c: 0f f7 f7 93 andi	a5, a5, 0xff
0x80000e80: 02 f7 60 63 bltu	a4, a5, 0x20
0x80000e84: 00 00 27 17 auipc	a4, 2
0x80000e88: 88 87 07 13 addi	a4, a4, -0x778
0x80000e8c: 00 27 97 93 slli	a5, a5, 2
0x80000e90: 00 e7 87 b3 add	a5, a5, a4
0x80000e94: 00 07 a7 83 lw	a5, 0(a5)
0x80000e98: 00 e7 87 b3 add	a5, a5, a4
0x80000e9c: 00 07 80 67 jr	a5
0x80000ff0: ff ff f7 97 auipc	a5, 0xfffff
0x80000ff4: 02 07 87 93 addi	a5, a5, 0x20
0x80000ff8: 00 09 47 17 auipc	a4, 0x94
0x80000ffc: 08 f7 22 23 sw	a5, 0x84(a4)
0x80001000: 0f 40 00 ef jal	0xf4
0x800010f4: ff 01 01 13 addi	sp, sp, -0x10
0x800010f8: 00 11 26 23 sw	ra, 0xc(sp)
0x800010fc: 00 01 07 97 auipc	a5, 0x10
0x80001100: b4 07 87 93 addi	a5, a5, -0x4c0
0x80001104: 00 01 06 97 auipc	a3, 0x10
0x80001108: d3 86 86 93 addi	a3, a3, -0x2c8
0x8000110c: 00 00 06 17 auipc	a2, 0
0x80001110: f8 06 06 13 addi	a2, a2, -0x80
0x80001114: 00 c0 00 6f j	0xc
0x80001120: 00 07 a7 03 lw	a4, 0(a5)
0x80001124: fe 07 1a e3 bnez	a4, -0xc
0x80001128: 00 c7 a0 23 sw	a2, 0(a5)
0x8000112c: 00 47 87 93 addi	a5, a5, 4
0x80001130: fe d7 98 e3 bne	a5, a3, -0x10
0x80001120: 00 07 a7 03 lw	a4, 0(a5)
0x80001124: fe 07 1a e3 bnez	a4, -0xc
0x80001118: 00 47 87 93 addi	a5, a5, 4
0x8000111c: 00 d7 8c 63 beq	a5, a3, 0x18
0x80001120: 00 07 a7 03 lw	a4, 0(a5)
0x80001124: fe 07 1a e3 bnez	a4, -0xc
0x80001128: 00 c7 a0 23 sw	a2, 0(a5)
0x8000112c: 00 47 87 93 addi	a5, a5, 4
0x80001130: fe d7 98 e3 bne	a5, a3, -0x10
0x80001120: 00 07 a7 03 lw	a4, 0(a5)
0x80001124: fe 07 1a e3 bnez	a4, -0xc
0x80001128: 00 c7 a0 23 sw	a2, 0(a5)
0x8000112c: 00 47 87 93 addi	a5, a5, 4
0x80001130: fe d7 98 e3 bne	a5, a3, -0x10
0x80001120: 00 07 a7 03 lw	a4, 0(a5)
0x80001124: fe 07 1a e3 bnez	a4, -0xc
0x80001118: 00 47 87 93 addi	a5, a5, 4
0x8000111c: 00 d7 8c 63 beq	a5, a3, 0x18
0x80001120: 00 07 a7 03 lw	a4, 0(a5)
0x80001124: fe 07 1a e3 bnez	a4, -0xc
0x80001118: 00 47 87 93 addi	a5, a5, 4
0x8000111c: 00 d7 8c 63 beq	a5, a3, 0x18
0x80001120: 00 07 a7 03 lw	a4, 0(a5)
0x80001124: fe 07 1a e3 bnez	a4, -0xc
0x80001118: 00 47 87 93 addi	a5, a5, 4
0x8000111c: 00 d7 8c 63 beq	a5, a3, 0x18
0x80001120: 00 07 a7 03 lw	a4, 0(a5)
0x80001124: fe 07 1a e3 bnez	a4, -0xc
0x80001118: 00 47 87 93 addi	a5, a5, 4
0x8000111c: 00 d7 8c 63 beq	a5, a3, 0x18
0x80001120: 00 07 a7 03 lw	a4, 0(a5)
0x80001124: fe 07 1a e3 bnez	a4, -0xc
0x80001118: 00 47 87 93 addi	a5, a5, 4
0x8000111c: 00 d7 8c 63 beq	a5, a3, 0x18
0x80001120: 00 07 a7 03 lw	a4, 0(a5)
0x80001124: fe 07 1a e3 bnez	a4, -0xc
0x80001118: 00 47 87 93 addi	a5, a5, 4
0x8000111c: 00 d7 8c 63 beq	a5, a3, 0x18
0x80001120: 00 07 a7 03 lw	a4, 0(a5)
0x80001124: fe 07 1a e3 bnez	a4, -0xc
0x80001118: 00 47 87 93 addi	a5, a5, 4
0x8000111c: 00 d7 8c 63 beq	a5, a3, 0x18
0x80001120: 00 07 a7 03 lw	a4, 0(a5)
0x80001124: fe 07 1a e3 bnez	a4, -0xc
0x80001118: 00 47 87 93 addi	a5, a5, 4
0x8000111c: 00 d7 8c 63 beq	a5, a3, 0x18
0x80001120: 00 07 a7 03 lw	a4, 0(a5)
0x80001124: fe 07 1a e3 bnez	a4, -0xc
0x80001128: 00 c7 a0 23 sw	a2, 0(a5)
0x8000112c: 00 47 87 93 addi	a5, a5, 4
0x80001130: fe d7 98 e3 bne	a5, a3, -0x10
0x80001120: 00 07 a7 03 lw	a4, 0(a5)
0x80001124: fe 07 1a e3 bnez	a4, -0xc
0x80001128: 00 c7 a0 23 sw	a2, 0(a5)
0x8000112c: 00 47 87 93 addi	a5, a5, 4
0x80001130: fe d7 98 e3 bne	a5, a3, -0x10
0x80001120: 00 07 a7 03 lw	a4, 0(a5)
0x80001124: fe 07 1a e3 bnez	a4, -0xc
0x80001118: 00 47 87 93 addi	a5, a5, 4
0x8000111c: 00 d7 8c 63 beq	a5, a3, 0x18
0x80001120: 00 07 a7 03 lw	a4, 0(a5)
0x80001124: fe 07 1a e3 bnez	a4, -0xc
0x80001118: 00 47 87 93 addi	a5, a5, 4
0x8000111c: 00 d7 8c 63 beq	a5, a3, 0x18
0x80001120: 00 07 a7 03 lw	a4, 0(a5)
0x80001124: fe 07 1a e3 bnez	a4, -0xc
0x80001118: 00 47 87 93 addi	a5, a5, 4
0x8000111c: 00 d7 8c 63 beq	a5, a3, 0x18
0x80001120: 00 07 a7 03 lw	a4, 0(a5)
0x80001124: fe 07 1a e3 bnez	a4, -0xc
0x80001118: 00 47 87 93 addi	a5, a5, 4
0x8000111c: 00 d7 8c 63 beq	a5, a3, 0x18
0x80001120: 00 07 a7 03 lw	a4, 0(a5)
0x80001124: fe 07 1a e3 bnez	a4, -0xc
0x80001118: 00 47 87 93 addi	a5, a5, 4
0x8000111c: 00 d7 8c 63 beq	a5, a3, 0x18
0x80001120: 00 07 a7 03 lw	a4, 0(a5)
0x80001124: fe 07 1a e3 bnez	a4, -0xc
0x80001118: 00 47 87 93 addi	a5, a5, 4
0x8000111c: 00 d7 8c 63 beq	a5, a3, 0x18
0x80001120: 00 07 a7 03 lw	a4, 0(a5)
0x80001124: fe 07 1a e3 bnez	a4, -0xc
0x80001118: 00 47 87 93 addi	a5, a5, 4
0x8000111c: 00 d7 8c 63 beq	a5, a3, 0x18
0x80001120: 00 07 a7 03 lw	a4, 0(a5)
0x80001124: fe 07 1a e3 bnez	a4, -0xc
0x80001118: 00 47 87 93 addi	a5, a5, 4
0x8000111c: 00 d7 8c 63 beq	a5, a3, 0x18
0x80001120: 00 07 a7 03 lw	a4, 0(a5)
0x80001124: fe 07 1a e3 bnez	a4, -0xc
0x80001128: 00 c7 a0 23 sw	a2, 0(a5)
0x8000112c: 00 47 87 93 addi	a5, a5, 4
0x80001130: fe d7 98 e3 bne	a5, a3, -0x10
0x80001120: 00 07 a7 03 lw	a4, 0(a5)
0x80001124: fe 07 1a e3 bnez	a4, -0xc
0x80001128: 00 c7 a0 23 sw	a2, 0(a5)
0x8000112c: 00 47 87 93 addi	a5, a5, 4
0x80001130: fe d7 98 e3 bne	a5, a3, -0x10
0x80001120: 00 07 a7 03 lw	a4, 0(a5)
0x80001124: fe 07 1a e3 bnez	a4, -0xc
0x80001128: 00 c7 a0 23 sw	a2, 0(a5)
0x8000112c: 00 47 87 93 addi	a5, a5, 4
0x80001130: fe d7 98 e3 bne	a5, a3, -0x10
0x80001120: 00 07 a7 03 lw	a4, 0(a5)
0x80001124: fe 07 1a e3 bnez	a4, -0xc
0x80001128: 00 c7 a0 23 sw	a2, 0(a5)
0x8000112c: 00 47 87 93 addi	a5, a5, 4
0x80001130: fe d7 98 e3 bne	a5, a3, -0x10
0x80001120: 00 07 a7 03 lw	a4, 0(a5)
0x80001124: fe 07 1a e3 bnez	a4, -0xc
0x80001128: 00 c7 a0 23 sw	a2, 0(a5)
0x8000112c: 00 47 87 93 addi	a5, a5, 4
0x80001130: fe d7 98 e3 bne	a5, a3, -0x10
0x80001120: 00 07 a7 03 lw	a4, 0(a5)
0x80001124: fe 07 1a e3 bnez	a4, -0xc
0x80001128: 00 c7 a0 23 sw	a2, 0(a5)
0x8000112c: 00 47 87 93 addi	a5, a5, 4
0x80001130: fe d7 98 e3 bne	a5, a3, -0x10
0x80001120: 00 07 a7 03 lw	a4, 0(a5)
0x80001124: fe 07 1a e3 bnez	a4, -0xc
0x80001128: 00 c7 a0 23 sw	a2, 0(a5)
0x8000112c: 00 47 87 93 addi	a5, a5, 4
0x80001130: fe d7 98 e3 bne	a5, a3, -0x10
0x80001120: 00 07 a7 03 lw	a4, 0(a5)
0x80001124: fe 07 1a e3 bnez	a4, -0xc
0x80001128: 00 c7 a0 23 sw	a2, 0(a5)
0x8000112c: 00 47 87 93 addi	a5, a5, 4
0x80001130: fe d7 98 e3 bne	a5, a3, -0x10
0x80001120: 00 07 a7 03 lw	a4, 0(a5)
0x80001124: fe 07 1a e3 bnez	a4, -0xc
0x80001128: 00 c7 a0 23 sw	a2, 0(a5)
0x8000112c: 00 47 87 93 addi	a5, a5, 4
0x80001130: fe d7 98 e3 bne	a5, a3, -0x10
0x80001120: 00 07 a7 03 lw	a4, 0(a5)
0x80001124: fe 07 1a e3 bnez	a4, -0xc
0x80001128: 00 c7 a0 23 sw	a2, 0(a5)
0x8000112c: 00 47 87 93 addi	a5, a5, 4
0x80001130: fe d7 98 e3 bne	a5, a3, -0x10
0x80001120: 00 07 a7 03 lw	a4, 0(a5)
0x80001124: fe 07 1a e3 bnez	a4, -0xc
0x80001128: 00 c7 a0 23 sw	a2, 0(a5)
0x8000112c: 00 47 87 93 addi	a5, a5, 4
0x80001130: fe d7 98 e3 bne	a5, a3, -0x10
0x80001120: 00 07 a7 03 lw	a4, 0(a5)
0x80001124: fe 07 1a e3 bnez	a4, -0xc
0x80001128: 00 c7 a0 23 sw	a2, 0(a5)
0x8000112c: 00 47 87 93 addi	a5, a5, 4
0x80001130: fe d7 98 e3 bne	a5, a3, -0x10
0x80001120: 00 07 a7 03 lw	a4, 0(a5)
0x80001124: fe 07 1a e3 bnez	a4, -0xc
0x80001128: 00 c7 a0 23 sw	a2, 0(a5)
0x8000112c: 00 47 87 93 addi	a5, a5, 4
0x80001130: fe d7 98 e3 bne	a5, a3, -0x10
0x80001120: 00 07 a7 03 lw	a4, 0(a5)
0x80001124: fe 07 1a e3 bnez	a4, -0xc
0x80001128: 00 c7 a0 23 sw	a2, 0(a5)
0x8000112c: 00 47 87 93 addi	a5, a5, 4
0x80001130: fe d7 98 e3 bne	a5, a3, -0x10
0x80001120: 00 07 a7 03 lw	a4, 0(a5)
0x80001124: fe 07 1a e3 bnez	a4, -0xc
0x80001128: 00 c7 a0 23 sw	a2, 0(a5)
0x8000112c: 00 47 87 93 addi	a5, a5, 4
0x80001130: fe d7 98 e3 bne	a5, a3, -0x10
0x80001120: 00 07 a7 03 lw	a4, 0(a5)
0x80001124: fe 07 1a e3 bnez	a4, -0xc
0x80001128: 00 c7 a0 23 sw	a2, 0(a5)
0x8000112c: 00 47 87 93 addi	a5, a5, 4
0x80001130: fe d7 98 e3 bne	a5, a3, -0x10
0x80001120: 00 07 a7 03 lw	a4, 0(a5)
0x80001124: fe 07 1a e3 bnez	a4, -0xc
0x80001128: 00 c7 a0 23 sw	a2, 0(a5)
0x8000112c: 00 47 87 93 addi	a5, a5, 4
0x80001130: fe d7 98 e3 bne	a5, a3, -0x10
0x80001120: 00 07 a7 03 lw	a4, 0(a5)
0x80001124: fe 07 1a e3 bnez	a4, -0xc
0x80001128: 00 c7 a0 23 sw	a2, 0(a5)
0x8000112c: 00 47 87 93 addi	a5, a5, 4
0x80001130: fe d7 98 e3 bne	a5, a3, -0x10
0x80001120: 00 07 a7 03 lw	a4, 0(a5)
0x80001124: fe 07 1a e3 bnez	a4, -0xc
0x80001128: 00 c7 a0 23 sw	a2, 0(a5)
0x8000112c: 00 47 87 93 addi	a5, a5, 4
0x80001130: fe d7 98 e3 bne	a5, a3, -0x10
0x80001120: 00 07 a7 03 lw	a4, 0(a5)
0x80001124: fe 07 1a e3 bnez	a4, -0xc
0x80001128: 00 c7 a0 23 sw	a2, 0(a5)
0x8000112c: 00 47 87 93 addi	a5, a5, 4
0x80001130: fe d7 98 e3 bne	a5, a3, -0x10
0x80001120: 00 07 a7 03 lw	a4, 0(a5)
0x80001124: fe 07 1a e3 bnez	a4, -0xc
0x80001128: 00 c7 a0 23 sw	a2, 0(a5)
0x8000112c: 00 47 87 93 addi	a5, a5, 4
0x80001130: fe d7 98 e3 bne	a5, a3, -0x10
0x80001120: 00 07 a7 03 lw	a4, 0(a5)
0x80001124: fe 07 1a e3 bnez	a4, -0xc
0x80001128: 00 c7 a0 23 sw	a2, 0(a5)
0x8000112c: 00 47 87 93 addi	a5, a5, 4
0x80001130: fe d7 98 e3 bne	a5, a3, -0x10
0x80001120: 00 07 a7 03 lw	a4, 0(a5)
0x80001124: fe 07 1a e3 bnez	a4, -0xc
0x80001128: 00 c7 a0 23 sw	a2, 0(a5)
0x8000112c: 00 47 87 93 addi	a5, a5, 4
0x80001130: fe d7 98 e3 bne	a5, a3, -0x10
0x80001120: 00 07 a7 03 lw	a4, 0(a5)
0x80001124: fe 07 1a e3 bnez	a4, -0xc
0x80001128: 00 c7 a0 23 sw	a2, 0(a5)
0x8000112c: 00 47 87 93 addi	a5, a5, 4
0x80001130: fe d7 98 e3 bne	a5, a3, -0x10
0x80001120: 00 07 a7 03 lw	a4, 0(a5)
0x80001124: fe 07 1a e3 bnez	a4, -0xc
0x80001128: 00 c7 a0 23 sw	a2, 0(a5)
0x8000112c: 00 47 87 93 addi	a5, a5, 4
0x80001130: fe d7 98 e3 bne	a5, a3, -0x10
0x80001120: 00 07 a7 03 lw	a4, 0(a5)
0x80001124: fe 07 1a e3 bnez	a4, -0xc
0x80001128: 00 c7 a0 23 sw	a2, 0(a5)
0x8000112c: 00 47 87 93 addi	a5, a5, 4
0x80001130: fe d7 98 e3 bne	a5, a3, -0x10
0x80001120: 00 07 a7 03 lw	a4, 0(a5)
0x80001124: fe 07 1a e3 bnez	a4, -0xc
0x80001128: 00 c7 a0 23 sw	a2, 0(a5)
0x8000112c: 00 47 87 93 addi	a5, a5, 4
0x80001130: fe d7 98 e3 bne	a5, a3, -0x10
0x80001120: 00 07 a7 03 lw	a4, 0(a5)
0x80001124: fe 07 1a e3 bnez	a4, -0xc
0x80001128: 00 c7 a0 23 sw	a2, 0(a5)
0x8000112c: 00 47 87 93 addi	a5, a5, 4
0x80001130: fe d7 98 e3 bne	a5, a3, -0x10
0x80001120: 00 07 a7 03 lw	a4, 0(a5)
0x80001124: fe 07 1a e3 bnez	a4, -0xc
0x80001128: 00 c7 a0 23 sw	a2, 0(a5)
0x8000112c: 00 47 87 93 addi	a5, a5, 4
0x80001130: fe d7 98 e3 bne	a5, a3, -0x10
0x80001120: 00 07 a7 03 lw	a4, 0(a5)
0x80001124: fe 07 1a e3 bnez	a4, -0xc
0x80001128: 00 c7 a0 23 sw	a2, 0(a5)
0x8000112c: 00 47 87 93 addi	a5, a5, 4
0x80001130: fe d7 98 e3 bne	a5, a3, -0x10
0x80001120: 00 07 a7 03 lw	a4, 0(a5)
0x80001124: fe 07 1a e3 bnez	a4, -0xc
0x80001128: 00 c7 a0 23 sw	a2, 0(a5)
0x8000112c: 00 47 87 93 addi	a5, a5, 4
0x80001130: fe d7 98 e3 bne	a5, a3, -0x10
0x80001120: 00 07 a7 03 lw	a4, 0(a5)
0x80001124: fe 07 1a e3 bnez	a4, -0xc
0x80001128: 00 c7 a0 23 sw	a2, 0(a5)
0x8000112c: 00 47 87 93 addi	a5, a5, 4
0x80001130: fe d7 98 e3 bne	a5, a3, -0x10
0x80001120: 00 07 a7 03 lw	a4, 0(a5)
0x80001124: fe 07 1a e3 bnez	a4, -0xc
0x80001128: 00 c7 a0 23 sw	a2, 0(a5)
0x8000112c: 00 47 87 93 addi	a5, a5, 4
0x80001130: fe d7 98 e3 bne	a5, a3, -0x10
0x80001120: 00 07 a7 03 lw	a4, 0(a5)
0x80001124: fe 07 1a e3 bnez	a4, -0xc
0x80001128: 00 c7 a0 23 sw	a2, 0(a5)
0x8000112c: 00 47 87 93 addi	a5, a5, 4
0x80001130: fe d7 98 e3 bne	a5, a3, -0x10
0x80001120: 00 07 a7 03 lw	a4, 0(a5)
0x80001124: fe 07 1a e3 bnez	a4, -0xc
0x80001128: 00 c7 a0 23 sw	a2, 0(a5)
0x8000112c: 00 47 87 93 addi	a5, a5, 4
0x80001130: fe d7 98 e3 bne	a5, a3, -0x10
0x80001120: 00 07 a7 03 lw	a4, 0(a5)
0x80001124: fe 07 1a e3 bnez	a4, -0xc
0x80001128: 00 c7 a0 23 sw	a2, 0(a5)
0x8000112c: 00 47 87 93 addi	a5, a5, 4
0x80001130: fe d7 98 e3 bne	a5, a3, -0x10
0x80001120: 00 07 a7 03 lw	a4, 0(a5)
0x80001124: fe 07 1a e3 bnez	a4, -0xc
0x80001128: 00 c7 a0 23 sw	a2, 0(a5)
0x8000112c: 00 47 87 93 addi	a5, a5, 4
0x80001130: fe d7 98 e3 bne	a5, a3, -0x10
0x80001120: 00 07 a7 03 lw	a4, 0(a5)
0x80001124: fe 07 1a e3 bnez	a4, -0xc
0x80001128: 00 c7 a0 23 sw	a2, 0(a5)
0x8000112c: 00 47 87 93 addi	a5, a5, 4
0x80001130: fe d7 98 e3 bne	a5, a3, -0x10
0x80001120: 00 07 a7 03 lw	a4, 0(a5)
0x80001124: fe 07 1a e3 bnez	a4, -0xc
0x80001128: 00 c7 a0 23 sw	a2, 0(a5)
0x8000112c: 00 47 87 93 addi	a5, a5, 4
0x80001130: fe d7 98 e3 bne	a5, a3, -0x10
0x80001120: 00 07 a7 03 lw	a4, 0(a5)
0x80001124: fe 07 1a e3 bnez	a4, -0xc
0x80001128: 00 c7 a0 23 sw	a2, 0(a5)
0x8000112c: 00 47 87 93 addi	a5, a5, 4
0x80001130: fe d7 98 e3 bne	a5, a3, -0x10
0x80001120: 00 07 a7 03 lw	a4, 0(a5)
0x80001124: fe 07 1a e3 bnez	a4, -0xc
0x80001128: 00 c7 a0 23 sw	a2, 0(a5)
0x8000112c: 00 47 87 93 addi	a5, a5, 4
0x80001130: fe d7 98 e3 bne	a5, a3, -0x10
0x80001120: 00 07 a7 03 lw	a4, 0(a5)
0x80001124: fe 07 1a e3 bnez	a4, -0xc
0x80001128: 00 c7 a0 23 sw	a2, 0(a5)
0x8000112c: 00 47 87 93 addi	a5, a5, 4
0x80001130: fe d7 98 e3 bne	a5, a3, -0x10
0x80001120: 00 07 a7 03 lw	a4, 0(a5)
0x80001124: fe 07 1a e3 bnez	a4, -0xc
0x80001128: 00 c7 a0 23 sw	a2, 0(a5)
0x8000112c: 00 47 87 93 addi	a5, a5, 4
0x80001130: fe d7 98 e3 bne	a5, a3, -0x10
0x80001120: 00 07 a7 03 lw	a4, 0(a5)
0x80001124: fe 07 1a e3 bnez	a4, -0xc
0x80001128: 00 c7 a0 23 sw	a2, 0(a5)
0x8000112c: 00 47 87 93 addi	a5, a5, 4
0x80001130: fe d7 98 e3 bne	a5, a3, -0x10
0x80001120: 00 07 a7 03 lw	a4, 0(a5)
0x80001124: fe 07 1a e3 bnez	a4, -0xc
0x80001128: 00 c7 a0 23 sw	a2, 0(a5)
0x8000112c: 00 47 87 93 addi	a5, a5, 4
0x80001130: fe d7 98 e3 bne	a5, a3, -0x10
0x80001120: 00 07 a7 03 lw	a4, 0(a5)
0x80001124: fe 07 1a e3 bnez	a4, -0xc
0x80001128: 00 c7 a0 23 sw	a2, 0(a5)
0x8000112c: 00 47 87 93 addi	a5, a5, 4
0x80001130: fe d7 98 e3 bne	a5, a3, -0x10
0x80001120: 00 07 a7 03 lw	a4, 0(a5)
0x80001124: fe 07 1a e3 bnez	a4, -0xc
0x80001128: 00 c7 a0 23 sw	a2, 0(a5)
0x8000112c: 00 47 87 93 addi	a5, a5, 4
0x80001130: fe d7 98 e3 bne	a5, a3, -0x10
0x80001120: 00 07 a7 03 lw	a4, 0(a5)
0x80001124: fe 07 1a e3 bnez	a4, -0xc
0x80001128: 00 c7 a0 23 sw	a2, 0(a5)
0x8000112c: 00 47 87 93 addi	a5, a5, 4
0x80001130: fe d7 98 e3 bne	a5, a3, -0x10
0x80001120: 00 07 a7 03 lw	a4, 0(a5)
0x80001124: fe 07 1a e3 bnez	a4, -0xc
0x80001128: 00 c7 a0 23 sw	a2, 0(a5)
0x8000112c: 00 47 87 93 addi	a5, a5, 4
0x80001130: fe d7 98 e3 bne	a5, a3, -0x10
0x80001120: 00 07 a7 03 lw	a4, 0(a5)
0x80001124: fe 07 1a e3 bnez	a4, -0xc
0x80001128: 00 c7 a0 23 sw	a2, 0(a5)
0x8000112c: 00 47 87 93 addi	a5, a5, 4
0x80001130: fe d7 98 e3 bne	a5, a3, -0x10
0x80001120: 00 07 a7 03 lw	a4, 0(a5)
0x80001124: fe 07 1a e3 bnez	a4, -0xc
0x80001128: 00 c7 a0 23 sw	a2, 0(a5)
0x8000112c: 00 47 87 93 addi	a5, a5, 4
0x80001130: fe d7 98 e3 bne	a5, a3, -0x10
0x80001120: 00 07 a7 03 lw	a4, 0(a5)
0x80001124: fe 07 1a e3 bnez	a4, -0xc
0x80001128: 00 c7 a0 23 sw	a2, 0(a5)
0x8000112c: 00 47 87 93 addi	a5, a5, 4
0x80001130: fe d7 98 e3 bne	a5, a3, -0x10
0x80001120: 00 07 a7 03 lw	a4, 0(a5)
0x80001124: fe 07 1a e3 bnez	a4, -0xc
0x80001128: 00 c7 a0 23 sw	a2, 0(a5)
0x8000112c: 00 47 87 93 addi	a5, a5, 4
0x80001130: fe d7 98 e3 bne	a5, a3, -0x10
0x80001120: 00 07 a7 03 lw	a4, 0(a5)
0x80001124: fe 07 1a e3 bnez	a4, -0xc
0x80001128: 00 c7 a0 23 sw	a2, 0(a5)
0x8000112c: 00 47 87 93 addi	a5, a5, 4
0x80001130: fe d7 98 e3 bne	a5, a3, -0x10
0x80001120: 00 07 a7 03 lw	a4, 0(a5)
0x80001124: fe 07 1a e3 bnez	a4, -0xc
0x80001128: 00 c7 a0 23 sw	a2, 0(a5)
0x8000112c: 00 47 87 93 addi	a5, a5, 4
0x80001130: fe d7 98 e3 bne	a5, a3, -0x10
0x80001120: 00 07 a7 03 lw	a4, 0(a5)
0x80001124: fe 07 1a e3 bnez	a4, -0xc
0x80001128: 00 c7 a0 23 sw	a2, 0(a5)
0x8000112c: 00 47 87 93 addi	a5, a5, 4
0x80001130: fe d7 98 e3 bne	a5, a3, -0x10
0x80001120: 00 07 a7 03 lw	a4, 0(a5)
0x80001124: fe 07 1a e3 bnez	a4, -0xc
0x80001128: 00 c7 a0 23 sw	a2, 0(a5)
0x8000112c: 00 47 87 93 addi	a5, a5, 4
0x80001130: fe d7 98 e3 bne	a5, a3, -0x10
0x80001120: 00 07 a7 03 lw	a4, 0(a5)
0x80001124: fe 07 1a e3 bnez	a4, -0xc
0x80001128: 00 c7 a0 23 sw	a2, 0(a5)
0x8000112c: 00 47 87 93 addi	a5, a5, 4
0x80001130: fe d7 98 e3 bne	a5, a3, -0x10
0x80001120: 00 07 a7 03 lw	a4, 0(a5)
0x80001124: fe 07 1a e3 bnez	a4, -0xc
0x80001128: 00 c7 a0 23 sw	a2, 0(a5)
0x8000112c: 00 47 87 93 addi	a5, a5, 4
0x80001130: fe d7 98 e3 bne	a5, a3, -0x10
0x80001120: 00 07 a7 03 lw	a4, 0(a5)
0x80001124: fe 07 1a e3 bnez	a4, -0xc
0x80001128: 00 c7 a0 23 sw	a2, 0(a5)
0x8000112c: 00 47 87 93 addi	a5, a5, 4
0x80001130: fe d7 98 e3 bne	a5, a3, -0x10
0x80001120: 00 07 a7 03 lw	a4, 0(a5)
0x80001124: fe 07 1a e3 bnez	a4, -0xc
0x80001128: 00 c7 a0 23 sw	a2, 0(a5)
0x8000112c: 00 47 87 93 addi	a5, a5, 4
0x80001130: fe d7 98 e3 bne	a5, a3, -0x10
0x80001120: 00 07 a7 03 lw	a4, 0(a5)
0x80001124: fe 07 1a e3 bnez	a4, -0xc
0x80001128: 00 c7 a0 23 sw	a2, 0(a5)
0x8000112c: 00 47 87 93 addi	a5, a5, 4
0x80001130: fe d7 98 e3 bne	a5, a3, -0x10
0x80001120: 00 07 a7 03 lw	a4, 0(a5)
0x80001124: fe 07 1a e3 bnez	a4, -0xc
0x80001128: 00 c7 a0 23 sw	a2, 0(a5)
0x8000112c: 00 47 87 93 addi	a5, a5, 4
0x80001130: fe d7 98 e3 bne	a5, a3, -0x10
0x80001120: 00 07 a7 03 lw	a4, 0(a5)
0x80001124: fe 07 1a e3 bnez	a4, -0xc
0x80001128: 00 c7 a0 23 sw	a2, 0(a5)
0x8000112c: 00 47 87 93 addi	a5, a5, 4
0x80001130: fe d7 98 e3 bne	a5, a3, -0x10
0x80001120: 00 07 a7 03 lw	a4, 0(a5)
0x80001124: fe 07 1a e3 bnez	a4, -0xc
0x80001128: 00 c7 a0 23 sw	a2, 0(a5)
0x8000112c: 00 47 87 93 addi	a5, a5, 4
0x80001130: fe d7 98 e3 bne	a5, a3, -0x10
0x80001120: 00 07 a7 03 lw	a4, 0(a5)
0x80001124: fe 07 1a e3 bnez	a4, -0xc
0x80001128: 00 c7 a0 23 sw	a2, 0(a5)
0x8000112c: 00 47 87 93 addi	a5, a5, 4
0x80001130: fe d7 98 e3 bne	a5, a3, -0x10
0x80001120: 00 07 a7 03 lw	a4, 0(a5)
0x80001124: fe 07 1a e3 bnez	a4, -0xc
0x80001128: 00 c7 a0 23 sw	a2, 0(a5)
0x8000112c: 00 47 87 93 addi	a5, a5, 4
0x80001130: fe d7 98 e3 bne	a5, a3, -0x10
0x80001120: 00 07 a7 03 lw	a4, 0(a5)
0x80001124: fe 07 1a e3 bnez	a4, -0xc
0x80001128: 00 c7 a0 23 sw	a2, 0(a5)
0x8000112c: 00 47 87 93 addi	a5, a5, 4
0x80001130: fe d7 98 e3 bne	a5, a3, -0x10
0x80001120: 00 07 a7 03 lw	a4, 0(a5)
0x80001124: fe 07 1a e3 bnez	a4, -0xc
0x80001128: 00 c7 a0 23 sw	a2, 0(a5)
0x8000112c: 00 47 87 93 addi	a5, a5, 4
0x80001130: fe d7 98 e3 bne	a5, a3, -0x10
0x80001120: 00 07 a7 03 lw	a4, 0(a5)
0x80001124: fe 07 1a e3 bnez	a4, -0xc
0x80001128: 00 c7 a0 23 sw	a2, 0(a5)
0x8000112c: 00 47 87 93 addi	a5, a5, 4
0x80001130: fe d7 98 e3 bne	a5, a3, -0x10
0x80001120: 00 07 a7 03 lw	a4, 0(a5)
0x80001124: fe 07 1a e3 bnez	a4, -0xc
0x80001128: 00 c7 a0 23 sw	a2, 0(a5)
0x8000112c: 00 47 87 93 addi	a5, a5, 4
0x80001130: fe d7 98 e3 bne	a5, a3, -0x10
0x80001120: 00 07 a7 03 lw	a4, 0(a5)
0x80001124: fe 07 1a e3 bnez	a4, -0xc
0x80001128: 00 c7 a0 23 sw	a2, 0(a5)
0x8000112c: 00 47 87 93 addi	a5, a5, 4
0x80001130: fe d7 98 e3 bne	a5, a3, -0x10
0x80001120: 00 07 a7 03 lw	a4, 0(a5)
0x80001124: fe 07 1a e3 bnez	a4, -0xc
0x80001128: 00 c7 a0 23 sw	a2, 0(a5)
0x8000112c: 00 47 87 93 addi	a5, a5, 4
0x80001130: fe d7 98 e3 bne	a5, a3, -0x10
0x80001120: 00 07 a7 03 lw	a4, 0(a5)
0x80001124: fe 07 1a e3 bnez	a4, -0xc
0x80001128: 00 c7 a0 23 sw	a2, 0(a5)
0x8000112c: 00 47 87 93 addi	a5, a5, 4
0x80001130: fe d7 98 e3 bne	a5, a3, -0x10
0x80001120: 00 07 a7 03 lw	a4, 0(a5)
0x80001124: fe 07 1a e3 bnez	a4, -0xc
0x80001128: 00 c7 a0 23 sw	a2, 0(a5)
0x8000112c: 00 47 87 93 addi	a5, a5, 4
0x80001130: fe d7 98 e3 bne	a5, a3, -0x10
0x80001120: 00 07 a7 03 lw	a4, 0(a5)
0x80001124: fe 07 1a e3 bnez	a4, -0xc
0x80001128: 00 c7 a0 23 sw	a2, 0(a5)
0x8000112c: 00 47 87 93 addi	a5, a5, 4
0x80001130: fe d7 98 e3 bne	a5, a3, -0x10
0x80001120: 00 07 a7 03 lw	a4, 0(a5)
0x80001124: fe 07 1a e3 bnez	a4, -0xc
0x80001128: 00 c7 a0 23 sw	a2, 0(a5)
0x8000112c: 00 47 87 93 addi	a5, a5, 4
0x80001130: fe d7 98 e3 bne	a5, a3, -0x10
0x80001120: 00 07 a7 03 lw	a4, 0(a5)
0x80001124: fe 07 1a e3 bnez	a4, -0xc
0x80001128: 00 c7 a0 23 sw	a2, 0(a5)
0x8000112c: 00 47 87 93 addi	a5, a5, 4
0x80001130: fe d7 98 e3 bne	a5, a3, -0x10
0x80001120: 00 07 a7 03 lw	a4, 0(a5)
0x80001124: fe 07 1a e3 bnez	a4, -0xc
0x80001128: 00 c7 a0 23 sw	a2, 0(a5)
0x8000112c: 00 47 87 93 addi	a5, a5, 4
0x80001130: fe d7 98 e3 bne	a5, a3, -0x10
0x80001120: 00 07 a7 03 lw	a4, 0(a5)
0x80001124: fe 07 1a e3 bnez	a4, -0xc
0x80001128: 00 c7 a0 23 sw	a2, 0(a5)
0x8000112c: 00 47 87 93 addi	a5, a5, 4
0x80001130: fe d7 98 e3 bne	a5, a3, -0x10
0x80001120: 00 07 a7 03 lw	a4, 0(a5)
0x80001124: fe 07 1a e3 bnez	a4, -0xc
0x80001128: 00 c7 a0 23 sw	a2, 0(a5)
0x8000112c: 00 47 87 93 addi	a5, a5, 4
0x80001130: fe d7 98 e3 bne	a5, a3, -0x10
0x80001120: 00 07 a7 03 lw	a4, 0(a5)
0x80001124: fe 07 1a e3 bnez	a4, -0xc
0x80001128: 00 c7 a0 23 sw	a2, 0(a5)
0x8000112c: 00 47 87 93 addi	a5, a5, 4
0x80001130: fe d7 98 e3 bne	a5, a3, -0x10
0x80001120: 00 07 a7 03 lw	a4, 0(a5)
0x80001124: fe 07 1a e3 bnez	a4, -0xc
0x80001128: 00 c7 a0 23 sw	a2, 0(a5)
0x8000112c: 00 47 87 93 addi	a5, a5, 4
0x80001130: fe d7 98 e3 bne	a5, a3, -0x10
0x80001120: 00 07 a7 03 lw	a4, 0(a5)
0x80001124: fe 07 1a e3 bnez	a4, -0xc
0x80001128: 00 c7 a0 23 sw	a2, 0(a5)
0x8000112c: 00 47 87 93 addi	a5, a5, 4
0x80001130: fe d7 98 e3 bne	a5, a3, -0x10
0x80001120: 00 07 a7 03 lw	a4, 0(a5)
0x80001124: fe 07 1a e3 bnez	a4, -0xc
0x80001128: 00 c7 a0 23 sw	a2, 0(a5)
0x8000112c: 00 47 87 93 addi	a5, a5, 4
0x80001130: fe d7 98 e3 bne	a5, a3, -0x10
0x80001120: 00 07 a7 03 lw	a4, 0(a5)
0x80001124: fe 07 1a e3 bnez	a4, -0xc
0x80001128: 00 c7 a0 23 sw	a2, 0(a5)
0x8000112c: 00 47 87 93 addi	a5, a5, 4
0x80001130: fe d7 98 e3 bne	a5, a3, -0x10
0x80001120: 00 07 a7 03 lw	a4, 0(a5)
0x80001124: fe 07 1a e3 bnez	a4, -0xc
0x80001128: 00 c7 a0 23 sw	a2, 0(a5)
0x8000112c: 00 47 87 93 addi	a5, a5, 4
0x80001130: fe d7 98 e3 bne	a5, a3, -0x10
0x80001120: 00 07 a7 03 lw	a4, 0(a5)
0x80001124: fe 07 1a e3 bnez	a4, -0xc
0x80001128: 00 c7 a0 23 sw	a2, 0(a5)
0x8000112c: 00 47 87 93 addi	a5, a5, 4
0x80001130: fe d7 98 e3 bne	a5, a3, -0x10
0x80001120: 00 07 a7 03 lw	a4, 0(a5)
0x80001124: fe 07 1a e3 bnez	a4, -0xc
0x80001128: 00 c7 a0 23 sw	a2, 0(a5)
0x8000112c: 00 47 87 93 addi	a5, a5, 4
0x80001130: fe d7 98 e3 bne	a5, a3, -0x10
0x80001120: 00 07 a7 03 lw	a4, 0(a5)
0x80001124: fe 07 1a e3 bnez	a4, -0xc
0x80001128: 00 c7 a0 23 sw	a2, 0(a5)
0x8000112c: 00 47 87 93 addi	a5, a5, 4
0x80001130: fe d7 98 e3 bne	a5, a3, -0x10
0x80001120: 00 07 a7 03 lw	a4, 0(a5)
0x80001124: fe 07 1a e3 bnez	a4, -0xc
0x80001128: 00 c7 a0 23 sw	a2, 0(a5)
0x8000112c: 00 47 87 93 addi	a5, a5, 4
0x80001130: fe d7 98 e3 bne	a5, a3, -0x10
0x80001120: 00 07 a7 03 lw	a4, 0(a5)
0x80001124: fe 07 1a e3 bnez	a4, -0xc
0x80001128: 00 c7 a0 23 sw	a2, 0(a5)
0x8000112c: 00 47 87 93 addi	a5, a5, 4
0x80001130: fe d7 98 e3 bne	a5, a3, -0x10
0x80001120: 00 07 a7 03 lw	a4, 0(a5)
0x80001124: fe 07 1a e3 bnez	a4, -0xc
0x80001128: 00 c7 a0 23 sw	a2, 0(a5)
0x8000112c: 00 47 87 93 addi	a5, a5, 4
0x80001130: fe d7 98 e3 bne	a5, a3, -0x10
0x80001120: 00 07 a7 03 lw	a4, 0(a5)
0x80001124: fe 07 1a e3 bnez	a4, -0xc
0x80001128: 00 c7 a0 23 sw	a2, 0(a5)
0x8000112c: 00 47 87 93 addi	a5, a5, 4
0x80001130: fe d7 98 e3 bne	a5, a3, -0x10
0x80001120: 00 07 a7 03 lw	a4, 0(a5)
0x80001124: fe 07 1a e3 bnez	a4, -0xc
0x80001128: 00 c7 a0 23 sw	a2, 0(a5)
0x8000112c: 00 47 87 93 addi	a5, a5, 4
0x80001130: fe d7 98 e3 bne	a5, a3, -0x10
0x80001120: 00 07 a7 03 lw	a4, 0(a5)
0x80001124: fe 07 1a e3 bnez	a4, -0xc
0x80001128: 00 c7 a0 23 sw	a2, 0(a5)
0x8000112c: 00 47 87 93 addi	a5, a5, 4
0x80001130: fe d7 98 e3 bne	a5, a3, -0x10
0x80001120: 00 07 a7 03 lw	a4, 0(a5)
0x80001124: fe 07 1a e3 bnez	a4, -0xc
0x80001128: 00 c7 a0 23 sw	a2, 0(a5)
0x8000112c: 00 47 87 93 addi	a5, a5, 4
0x80001130: fe d7 98 e3 bne	a5, a3, -0x10
0x80001120: 00 07 a7 03 lw	a4, 0(a5)
0x80001124: fe 07 1a e3 bnez	a4, -0xc
0x80001128: 00 c7 a0 23 sw	a2, 0(a5)
0x8000112c: 00 47 87 93 addi	a5, a5, 4
0x80001130: fe d7 98 e3 bne	a5, a3, -0x10
0x80001120: 00 07 a7 03 lw	a4, 0(a5)
0x80001124: fe 07 1a e3 bnez	a4, -0xc
0x80001128: 00 c7 a0 23 sw	a2, 0(a5)
0x8000112c: 00 47 87 93 addi	a5, a5, 4
0x80001130: fe d7 98 e3 bne	a5, a3, -0x10
0x80001120: 00 07 a7 03 lw	a4, 0(a5)
0x80001124: fe 07 1a e3 bnez	a4, -0xc
0x80001128: 00 c7 a0 23 sw	a2, 0(a5)
0x8000112c: 00 47 87 93 addi	a5, a5, 4
0x80001130: fe d7 98 e3 bne	a5, a3, -0x10
0x80001120: 00 07 a7 03 lw	a4, 0(a5)
0x80001124: fe 07 1a e3 bnez	a4, -0xc
0x80001128: 00 c7 a0 23 sw	a2, 0(a5)
0x8000112c: 00 47 87 93 addi	a5, a5, 4
0x80001130: fe d7 98 e3 bne	a5, a3, -0x10
0x80001120: 00 07 a7 03 lw	a4, 0(a5)
0x80001124: fe 07 1a e3 bnez	a4, -0xc
0x80001128: 00 c7 a0 23 sw	a2, 0(a5)
0x8000112c: 00 47 87 93 addi	a5, a5, 4
0x80001130: fe d7 98 e3 bne	a5, a3, -0x10
0x80001120: 00 07 a7 03 lw	a4, 0(a5)
0x80001124: fe 07 1a e3 bnez	a4, -0xc
0x80001128: 00 c7 a0 23 sw	a2, 0(a5)
0x8000112c: 00 47 87 93 addi	a5, a5, 4
0x80001130: fe d7 98 e3 bne	a5, a3, -0x10
0x80001120: 00 07 a7 03 lw	a4, 0(a5)
0x80001124: fe 07 1a e3 bnez	a4, -0xc
0x80001128: 00 c7 a0 23 sw	a2, 0(a5)
0x8000112c: 00 47 87 93 addi	a5, a5, 4
0x80001130: fe d7 98 e3 bne	a5, a3, -0x10
0x80001120: 00 07 a7 03 lw	a4, 0(a5)
0x80001124: fe 07 1a e3 bnez	a4, -0xc
0x80001128: 00 c7 a0 23 sw	a2, 0(a5)
0x8000112c: 00 47 87 93 addi	a5, a5, 4
0x80001130: fe d7 98 e3 bne	a5, a3, -0x10
0x80001120: 00 07 a7 03 lw	a4, 0(a5)
0x80001124: fe 07 1a e3 bnez	a4, -0xc
0x80001128: 00 c7 a0 23 sw	a2, 0(a5)
0x8000112c: 00 47 87 93 addi	a5, a5, 4
0x80001130: fe d7 98 e3 bne	a5, a3, -0x10
0x80001134: 0b 40 00 ef jal	0xb4
0x800011e8: 00 00 80 67 ret
0x80001138: 05 00 00 ef jal	0x50
0x80001188: 00 00 80 67 ret
0x8000113c: 16 80 00 ef jal	0x168
0x800012a4: 00 00 80 67 ret
0x80001140: 00 c1 20 83 lw	ra, 0xc(sp)
0x80001144: 00 10 05 13 addi	a0, zero, 1
0x80001148: 01 01 01 13 addi	sp, sp, 0x10
0x8000114c: 00 00 80 67 ret
0x80001004: 80 cf f0 ef jal	-0xff4
0x80000010: fb 01 01 13 addi	sp, sp, -0x50
0x80000014: 05 21 20 23 sw	s2, 0x40(sp)
0x80000018: 00 0f 49 37 lui	s2, 0xf4
0x8000001c: 04 81 24 23 sw	s0, 0x48(sp)
0x80000020: 04 91 22 23 sw	s1, 0x44(sp)
0x80000024: 03 31 2e 23 sw	s3, 0x3c(sp)
0x80000028: 03 41 2c 23 sw	s4, 0x38(sp)
0x8000002c: 03 51 2a 23 sw	s5, 0x34(sp)
0x80000030: 03 61 28 23 sw	s6, 0x30(sp)
0x80000034: 03 71 26 23 sw	s7, 0x2c(sp)
0x80000038: 04 11 26 23 sw	ra, 0x4c(sp)
0x8000003c: 00 10 04 93 addi	s1, zero, 1
0x80000040: 00 00 04 13 mv	s0, zero
0x80000044: 24 09 09 13 addi	s2, s2, 0x240
0x80000048: 00 00 09 93 mv	s3, zero
0x8000004c: 00 00 2b 17 auipc	s6, 2
0x80000050: f7 8b 0b 13 addi	s6, s6, -0x88
0x80000054: 00 10 0a 93 addi	s5, zero, 1
0x80000058: 00 00 2b 97 auipc	s7, 2
0x8000005c: f9 cb 8b 93 addi	s7, s7, -0x64
0x80000060: 00 00 2a 17 auipc	s4, 2
0x80000064: f8 4a 0a 13 addi	s4, s4, -0x7c
0x80000068: 00 81 05 93 addi	a1, sp, 8
0x8000006c: 00 60 05 13 addi	a0, zero, 6
0x80000070: 0e 00 10 ef jal	0x10e0
0x80001150: 00 25 15 13 slli	a0, a0, 2
0x80001154: 00 01 07 97 auipc	a5, 0x10
0x80001158: ae 87 87 93 addi	a5, a5, -0x518
0x8000115c: 00 a7 87 b3 add	a5, a5, a0
0x80001160: 00 07 a7 83 lw	a5, 0(a5)
0x80001164: 00 05 85 13 mv	a0, a1
0x80001168: 00 07 80 67 jr	a5
0x8000118c: a0 00 07 b7 lui	a5, 0xa0000
0x80001190: 04 c7 a7 03 lw	a4, 0x4c(a5)
0x80001194: 04 87 a7 83 lw	a5, 0x48(a5)
0x80001198: 00 e5 22 23 sw	a4, 4(a0)
0x8000119c: 00 f5 20 23 sw	a5, 0(a0)
0x800011a0: 00 00 80 67 ret
0x80000074: 00 81 25 03 lw	a0, 8(sp)
0x80000078: 00 c1 25 83 lw	a1, 0xc(sp)
0x8000007c: 00 09 06 13 mv	a2, s2
0x80000080: 00 09 86 93 mv	a3, s3
0x80000084: 1b 10 10 ef jal	0x19b0
0x80001a34: 00 00 07 13 mv	a4, zero
0x80001a38: cd 9f f0 6f j	-0x328
0x80001710: fe 01 01 13 addi	sp, sp, -0x20
0x80001714: 01 21 28 23 sw	s2, 0x10(sp)
0x80001718: 01 41 24 23 sw	s4, 8(sp)
0x8000171c: 01 51 22 23 sw	s5, 4(sp)
0x80001720: 01 61 20 23 sw	s6, 0(sp)
0x80001724: 00 11 2e 23 sw	ra, 0x1c(sp)
0x80001728: 00 81 2c 23 sw	s0, 0x18(sp)
0x8000172c: 00 91 2a 23 sw	s1, 0x14(sp)
0x80001730: 01 31 26 23 sw	s3, 0xc(sp)
0x80001734: 00 06 8a 93 mv	s5, a3
0x80001738: 00 05 09 13 mv	s2, a0
0x8000173c: 00 06 0b 13 mv	s6, a2
0x80001740: 00 07 0a 13 mv	s4, a4
0x80001744: 04 05 94 63 bnez	a1, 0x48
0x80001748: 18 06 98 63 bnez	a3, 0x190
0x8000174c: 00 07 08 63 beqz	a4, 0x10
0x8000175c: 03 69 55 33 divu	a0, s2, s6
0x80001760: 00 00 05 93 mv	a1, zero
0x80001764: 01 c1 20 83 lw	ra, 0x1c(sp)
0x80001768: 01 81 24 03 lw	s0, 0x18(sp)
0x8000176c: 01 41 24 83 lw	s1, 0x14(sp)
0x80001770: 01 01 29 03 lw	s2, 0x10(sp)
0x80001774: 00 c1 29 83 lw	s3, 0xc(sp)
0x80001778: 00 81 2a 03 lw	s4, 8(sp)
0x8000177c: 00 41 2a 83 lw	s5, 4(sp)
0x80001780: 00 01 2b 03 lw	s6, 0(sp)
0x80001784: 02 01 01 13 addi	sp, sp, 0x20
0x80001788: 00 00 80 67 ret
0x80000088: fe 85 e0 e3 bltu	a1, s0, -0x20
0x8000008c: 00 b4 14 63 bne	s0, a1, 8
0x80000090: fc 95 6c e3 bltu	a0, s1, -0x28
0x80000068: 00 81 05 93 addi	a1, sp, 8
0x8000006c: 00 60 05 13 addi	a0, zero, 6
0x80000070: 0e 00 10 ef jal	0x10e0
0x80001150: 00 25 15 13 slli	a0, a0, 2
0x80001154: 00 01 07 97 auipc	a5, 0x10
0x80001158: ae 87 87 93 addi	a5, a5, -0x518
0x8000115c: 00 a7 87 b3 add	a5, a5, a0
0x80001160: 00 07 a7 83 lw	a5, 0(a5)
0x80001164: 00 05 85 13 mv	a0, a1
0x80001168: 00 07 80 67 jr	a5
0x8000118c: a0 00 07 b7 lui	a5, 0xa0000
0x80001190: 04 c7 a7 03 lw	a4, 0x4c(a5)
0x80001194: 04 87 a7 83 lw	a5, 0x48(a5)
0x80001198: 00 e5 22 23 sw	a4, 4(a0)
0x8000119c: 00 f5 20 23 sw	a5, 0(a0)
0x800011a0: 00 00 80 67 ret
0x80000074: 00 81 25 03 lw	a0, 8(sp)
0x80000078: 00 c1 25 83 lw	a1, 0xc(sp)
0x8000007c: 00 09 06 13 mv	a2, s2
0x80000080: 00 09 86 93 mv	a3, s3
0x80000084: 1b 10 10 ef jal	0x19b0
0x80001a34: 00 00 07 13 mv	a4, zero
0x80001a38: cd 9f f0 6f j	-0x328
0x80001710: fe 01 01 13 addi	sp, sp, -0x20
0x80001714: 01 21 28 23 sw	s2, 0x10(sp)
0x80001718: 01 41 24 23 sw	s4, 8(sp)
0x8000171c: 01 51 22 23 sw	s5, 4(sp)
0x80001720: 01 61 20 23 sw	s6, 0(sp)
0x80001724: 00 11 2e 23 sw	ra, 0x1c(sp)
0x80001728: 00 81 2c 23 sw	s0, 0x18(sp)
0x8000172c: 00 91 2a 23 sw	s1, 0x14(sp)
0x80001730: 01 31 26 23 sw	s3, 0xc(sp)
0x80001734: 00 06 8a 93 mv	s5, a3
0x80001738: 00 05 09 13 mv	s2, a0
0x8000173c: 00 06 0b 13 mv	s6, a2
0x80001740: 00 07 0a 13 mv	s4, a4
0x80001744: 04 05 94 63 bnez	a1, 0x48
0x80001748: 18 06 98 63 bnez	a3, 0x190
0x8000174c: 00 07 08 63 beqz	a4, 0x10
0x8000175c: 03 69 55 33 divu	a0, s2, s6
0x80001760: 00 00 05 93 mv	a1, zero
0x80001764: 01 c1 20 83 lw	ra, 0x1c(sp)
0x80001768: 01 81 24 03 lw	s0, 0x18(sp)
0x8000176c: 01 41 24 83 lw	s1, 0x14(sp)
0x80001770: 01 01 29 03 lw	s2, 0x10(sp)
0x80001774: 00 c1 29 83 lw	s3, 0xc(sp)
0x80001778: 00 81 2a 03 lw	s4, 8(sp)
0x8000177c: 00 41 2a 83 lw	s5, 4(sp)
0x80001780: 00 01 2b 03 lw	s6, 0(sp)
0x80001784: 02 01 01 13 addi	sp, sp, 0x20
0x80001788: 00 00 80 67 ret
0x80000088: fe 85 e0 e3 bltu	a1, s0, -0x20
0x8000008c: 00 b4 14 63 bne	s0, a1, 8
0x80000090: fc 95 6c e3 bltu	a0, s1, -0x28
0x80000068: 00 81 05 93 addi	a1, sp, 8
0x8000006c: 00 60 05 13 addi	a0, zero, 6
0x80000070: 0e 00 10 ef jal	0x10e0
0x80001150: 00 25 15 13 slli	a0, a0, 2
0x80001154: 00 01 07 97 auipc	a5, 0x10
0x80001158: ae 87 87 93 addi	a5, a5, -0x518
0x8000115c: 00 a7 87 b3 add	a5, a5, a0
0x80001160: 00 07 a7 83 lw	a5, 0(a5)
0x80001164: 00 05 85 13 mv	a0, a1
0x80001168: 00 07 80 67 jr	a5
0x8000118c: a0 00 07 b7 lui	a5, 0xa0000
0x80001190: 04 c7 a7 03 lw	a4, 0x4c(a5)
0x80001194: 04 87 a7 83 lw	a5, 0x48(a5)
0x80001198: 00 e5 22 23 sw	a4, 4(a0)
0x8000119c: 00 f5 20 23 sw	a5, 0(a0)
0x800011a0: 00 00 80 67 ret
0x80000074: 00 81 25 03 lw	a0, 8(sp)
0x80000078: 00 c1 25 83 lw	a1, 0xc(sp)
0x8000007c: 00 09 06 13 mv	a2, s2
0x80000080: 00 09 86 93 mv	a3, s3
0x80000084: 1b 10 10 ef jal	0x19b0
0x80001a34: 00 00 07 13 mv	a4, zero
0x80001a38: cd 9f f0 6f j	-0x328
0x80001710: fe 01 01 13 addi	sp, sp, -0x20
0x80001714: 01 21 28 23 sw	s2, 0x10(sp)
0x80001718: 01 41 24 23 sw	s4, 8(sp)
0x8000171c: 01 51 22 23 sw	s5, 4(sp)
0x80001720: 01 61 20 23 sw	s6, 0(sp)
0x80001724: 00 11 2e 23 sw	ra, 0x1c(sp)
0x80001728: 00 81 2c 23 sw	s0, 0x18(sp)
0x8000172c: 00 91 2a 23 sw	s1, 0x14(sp)
0x80001730: 01 31 26 23 sw	s3, 0xc(sp)
0x80001734: 00 06 8a 93 mv	s5, a3
0x80001738: 00 05 09 13 mv	s2, a0
0x8000173c: 00 06 0b 13 mv	s6, a2
0x80001740: 00 07 0a 13 mv	s4, a4
0x80001744: 04 05 94 63 bnez	a1, 0x48
0x80001748: 18 06 98 63 bnez	a3, 0x190
0x8000174c: 00 07 08 63 beqz	a4, 0x10
0x8000175c: 03 69 55 33 divu	a0, s2, s6
0x80001760: 00 00 05 93 mv	a1, zero
0x80001764: 01 c1 20 83 lw	ra, 0x1c(sp)
0x80001768: 01 81 24 03 lw	s0, 0x18(sp)
0x8000176c: 01 41 24 83 lw	s1, 0x14(sp)
0x80001770: 01 01 29 03 lw	s2, 0x10(sp)
0x80001774: 00 c1 29 83 lw	s3, 0xc(sp)
0x80001778: 00 81 2a 03 lw	s4, 8(sp)
0x8000177c: 00 41 2a 83 lw	s5, 4(sp)
0x80001780: 00 01 2b 03 lw	s6, 0(sp)
0x80001784: 02 01 01 13 addi	sp, sp, 0x20
0x80001788: 00 00 80 67 ret
0x80000088: fe 85 e0 e3 bltu	a1, s0, -0x20
0x8000008c: 00 b4 14 63 bne	s0, a1, 8
0x80000090: fc 95 6c e3 bltu	a0, s1, -0x28
0x80000068: 00 81 05 93 addi	a1, sp, 8
0x8000006c: 00 60 05 13 addi	a0, zero, 6
0x80000070: 0e 00 10 ef jal	0x10e0
0x80001150: 00 25 15 13 slli	a0, a0, 2
0x80001154: 00 01 07 97 auipc	a5, 0x10
0x80001158: ae 87 87 93 addi	a5, a5, -0x518
0x8000115c: 00 a7 87 b3 add	a5, a5, a0
0x80001160: 00 07 a7 83 lw	a5, 0(a5)
0x80001164: 00 05 85 13 mv	a0, a1
0x80001168: 00 07 80 67 jr	a5
0x8000118c: a0 00 07 b7 lui	a5, 0xa0000
0x80001190: 04 c7 a7 03 lw	a4, 0x4c(a5)
0x80001194: 04 87 a7 83 lw	a5, 0x48(a5)
0x80001198: 00 e5 22 23 sw	a4, 4(a0)
0x8000119c: 00 f5 20 23 sw	a5, 0(a0)
0x800011a0: 00 00 80 67 ret
0x80000074: 00 81 25 03 lw	a0, 8(sp)
0x80000078: 00 c1 25 83 lw	a1, 0xc(sp)
0x8000007c: 00 09 06 13 mv	a2, s2
0x80000080: 00 09 86 93 mv	a3, s3
0x80000084: 1b 10 10 ef jal	0x19b0
0x80001a34: 00 00 07 13 mv	a4, zero
0x80001a38: cd 9f f0 6f j	-0x328
0x80001710: fe 01 01 13 addi	sp, sp, -0x20
0x80001714: 01 21 28 23 sw	s2, 0x10(sp)
0x80001718: 01 41 24 23 sw	s4, 8(sp)
0x8000171c: 01 51 22 23 sw	s5, 4(sp)
0x80001720: 01 61 20 23 sw	s6, 0(sp)
0x80001724: 00 11 2e 23 sw	ra, 0x1c(sp)
0x80001728: 00 81 2c 23 sw	s0, 0x18(sp)
0x8000172c: 00 91 2a 23 sw	s1, 0x14(sp)
0x80001730: 01 31 26 23 sw	s3, 0xc(sp)
0x80001734: 00 06 8a 93 mv	s5, a3
0x80001738: 00 05 09 13 mv	s2, a0
0x8000173c: 00 06 0b 13 mv	s6, a2
0x80001740: 00 07 0a 13 mv	s4, a4
0x80001744: 04 05 94 63 bnez	a1, 0x48
0x80001748: 18 06 98 63 bnez	a3, 0x190
0x8000174c: 00 07 08 63 beqz	a4, 0x10
0x8000175c: 03 69 55 33 divu	a0, s2, s6
0x80001760: 00 00 05 93 mv	a1, zero
0x80001764: 01 c1 20 83 lw	ra, 0x1c(sp)
0x80001768: 01 81 24 03 lw	s0, 0x18(sp)
0x8000176c: 01 41 24 83 lw	s1, 0x14(sp)
0x80001770: 01 01 29 03 lw	s2, 0x10(sp)
0x80001774: 00 c1 29 83 lw	s3, 0xc(sp)
0x80001778: 00 81 2a 03 lw	s4, 8(sp)
0x8000177c: 00 41 2a 83 lw	s5, 4(sp)
0x80001780: 00 01 2b 03 lw	s6, 0(sp)
0x80001784: 02 01 01 13 addi	sp, sp, 0x20
0x80001788: 00 00 80 67 ret
0x80000088: fe 85 e0 e3 bltu	a1, s0, -0x20
0x8000008c: 00 b4 14 63 bne	s0, a1, 8
0x80000090: fc 95 6c e3 bltu	a0, s1, -0x28
0x80000068: 00 81 05 93 addi	a1, sp, 8
0x8000006c: 00 60 05 13 addi	a0, zero, 6
0x80000070: 0e 00 10 ef jal	0x10e0
0x80001150: 00 25 15 13 slli	a0, a0, 2
0x80001154: 00 01 07 97 auipc	a5, 0x10
0x80001158: ae 87 87 93 addi	a5, a5, -0x518
0x8000115c: 00 a7 87 b3 add	a5, a5, a0
0x80001160: 00 07 a7 83 lw	a5, 0(a5)
0x80001164: 00 05 85 13 mv	a0, a1
0x80001168: 00 07 80 67 jr	a5
0x8000118c: a0 00 07 b7 lui	a5, 0xa0000
0x80001190: 04 c7 a7 03 lw	a4, 0x4c(a5)
0x80001194: 04 87 a7 83 lw	a5, 0x48(a5)
0x80001198: 00 e5 22 23 sw	a4, 4(a0)
0x8000119c: 00 f5 20 23 sw	a5, 0(a0)
0x800011a0: 00 00 80 67 ret
0x80000074: 00 81 25 03 lw	a0, 8(sp)
0x80000078: 00 c1 25 83 lw	a1, 0xc(sp)
0x8000007c: 00 09 06 13 mv	a2, s2
0x80000080: 00 09 86 93 mv	a3, s3
0x80000084: 1b 10 10 ef jal	0x19b0
0x80001a34: 00 00 07 13 mv	a4, zero
0x80001a38: cd 9f f0 6f j	-0x328
0x80001710: fe 01 01 13 addi	sp, sp, -0x20
0x80001714: 01 21 28 23 sw	s2, 0x10(sp)
0x80001718: 01 41 24 23 sw	s4, 8(sp)
0x8000171c: 01 51 22 23 sw	s5, 4(sp)
0x80001720: 01 61 20 23 sw	s6, 0(sp)
0x80001724: 00 11 2e 23 sw	ra, 0x1c(sp)
0x80001728: 00 81 2c 23 sw	s0, 0x18(sp)
0x8000172c: 00 91 2a 23 sw	s1, 0x14(sp)
0x80001730: 01 31 26 23 sw	s3, 0xc(sp)
0x80001734: 00 06 8a 93 mv	s5, a3
0x80001738: 00 05 09 13 mv	s2, a0
0x8000173c: 00 06 0b 13 mv	s6, a2
0x80001740: 00 07 0a 13 mv	s4, a4
0x80001744: 04 05 94 63 bnez	a1, 0x48
0x80001748: 18 06 98 63 bnez	a3, 0x190
0x8000174c: 00 07 08 63 beqz	a4, 0x10
0x8000175c: 03 69 55 33 divu	a0, s2, s6
0x80001760: 00 00 05 93 mv	a1, zero
0x80001764: 01 c1 20 83 lw	ra, 0x1c(sp)
0x80001768: 01 81 24 03 lw	s0, 0x18(sp)
0x8000176c: 01 41 24 83 lw	s1, 0x14(sp)
0x80001770: 01 01 29 03 lw	s2, 0x10(sp)
0x80001774: 00 c1 29 83 lw	s3, 0xc(sp)
0x80001778: 00 81 2a 03 lw	s4, 8(sp)
0x8000177c: 00 41 2a 83 lw	s5, 4(sp)
0x80001780: 00 01 2b 03 lw	s6, 0(sp)
0x80001784: 02 01 01 13 addi	sp, sp, 0x20
0x80001788: 00 00 80 67 ret
0x80000088: fe 85 e0 e3 bltu	a1, s0, -0x20
0x8000008c: 00 b4 14 63 bne	s0, a1, 8
0x80000090: fc 95 6c e3 bltu	a0, s1, -0x28
0x80000068: 00 81 05 93 addi	a1, sp, 8
0x8000006c: 00 60 05 13 addi	a0, zero, 6
0x80000070: 0e 00 10 ef jal	0x10e0
0x80001150: 00 25 15 13 slli	a0, a0, 2
0x80001154: 00 01 07 97 auipc	a5, 0x10
0x80001158: ae 87 87 93 addi	a5, a5, -0x518
0x8000115c: 00 a7 87 b3 add	a5, a5, a0
0x80001160: 00 07 a7 83 lw	a5, 0(a5)
0x80001164: 00 05 85 13 mv	a0, a1
0x80001168: 00 07 80 67 jr	a5
0x8000118c: a0 00 07 b7 lui	a5, 0xa0000
0x80001190: 04 c7 a7 03 lw	a4, 0x4c(a5)
0x80001194: 04 87 a7 83 lw	a5, 0x48(a5)
0x80001198: 00 e5 22 23 sw	a4, 4(a0)
0x8000119c: 00 f5 20 23 sw	a5, 0(a0)
0x800011a0: 00 00 80 67 ret
0x80000074: 00 81 25 03 lw	a0, 8(sp)
0x80000078: 00 c1 25 83 lw	a1, 0xc(sp)
0x8000007c: 00 09 06 13 mv	a2, s2
0x80000080: 00 09 86 93 mv	a3, s3
0x80000084: 1b 10 10 ef jal	0x19b0
0x80001a34: 00 00 07 13 mv	a4, zero
0x80001a38: cd 9f f0 6f j	-0x328
0x80001710: fe 01 01 13 addi	sp, sp, -0x20
0x80001714: 01 21 28 23 sw	s2, 0x10(sp)
0x80001718: 01 41 24 23 sw	s4, 8(sp)
0x8000171c: 01 51 22 23 sw	s5, 4(sp)
0x80001720: 01 61 20 23 sw	s6, 0(sp)
0x80001724: 00 11 2e 23 sw	ra, 0x1c(sp)
0x80001728: 00 81 2c 23 sw	s0, 0x18(sp)
0x8000172c: 00 91 2a 23 sw	s1, 0x14(sp)
0x80001730: 01 31 26 23 sw	s3, 0xc(sp)
0x80001734: 00 06 8a 93 mv	s5, a3
0x80001738: 00 05 09 13 mv	s2, a0
0x8000173c: 00 06 0b 13 mv	s6, a2
0x80001740: 00 07 0a 13 mv	s4, a4
0x80001744: 04 05 94 63 bnez	a1, 0x48
0x80001748: 18 06 98 63 bnez	a3, 0x190
0x8000174c: 00 07 08 63 beqz	a4, 0x10
0x8000175c: 03 69 55 33 divu	a0, s2, s6
0x80001760: 00 00 05 93 mv	a1, zero
0x80001764: 01 c1 20 83 lw	ra, 0x1c(sp)
0x80001768: 01 81 24 03 lw	s0, 0x18(sp)
0x8000176c: 01 41 24 83 lw	s1, 0x14(sp)
0x80001770: 01 01 29 03 lw	s2, 0x10(sp)
0x80001774: 00 c1 29 83 lw	s3, 0xc(sp)
0x80001778: 00 81 2a 03 lw	s4, 8(sp)
0x8000177c: 00 41 2a 83 lw	s5, 4(sp)
0x80001780: 00 01 2b 03 lw	s6, 0(sp)
0x80001784: 02 01 01 13 addi	sp, sp, 0x20
0x80001788: 00 00 80 67 ret
0x80000088: fe 85 e0 e3 bltu	a1, s0, -0x20
0x8000008c: 00 b4 14 63 bne	s0, a1, 8
0x80000090: fc 95 6c e3 bltu	a0, s1, -0x28
0x80000068: 00 81 05 93 addi	a1, sp, 8
0x8000006c: 00 60 05 13 addi	a0, zero, 6
0x80000070: 0e 00 10 ef jal	0x10e0
0x80001150: 00 25 15 13 slli	a0, a0, 2
0x80001154: 00 01 07 97 auipc	a5, 0x10
0x80001158: ae 87 87 93 addi	a5, a5, -0x518
0x8000115c: 00 a7 87 b3 add	a5, a5, a0
0x80001160: 00 07 a7 83 lw	a5, 0(a5)
0x80001164: 00 05 85 13 mv	a0, a1
0x80001168: 00 07 80 67 jr	a5
0x8000118c: a0 00 07 b7 lui	a5, 0xa0000
0x80001190: 04 c7 a7 03 lw	a4, 0x4c(a5)
0x80001194: 04 87 a7 83 lw	a5, 0x48(a5)
0x80001198: 00 e5 22 23 sw	a4, 4(a0)
0x8000119c: 00 f5 20 23 sw	a5, 0(a0)
0x800011a0: 00 00 80 67 ret
0x80000074: 00 81 25 03 lw	a0, 8(sp)
0x80000078: 00 c1 25 83 lw	a1, 0xc(sp)
0x8000007c: 00 09 06 13 mv	a2, s2
0x80000080: 00 09 86 93 mv	a3, s3
0x80000084: 1b 10 10 ef jal	0x19b0
0x80001a34: 00 00 07 13 mv	a4, zero
0x80001a38: cd 9f f0 6f j	-0x328
0x80001710: fe 01 01 13 addi	sp, sp, -0x20
0x80001714: 01 21 28 23 sw	s2, 0x10(sp)
0x80001718: 01 41 24 23 sw	s4, 8(sp)
0x8000171c: 01 51 22 23 sw	s5, 4(sp)
0x80001720: 01 61 20 23 sw	s6, 0(sp)
0x80001724: 00 11 2e 23 sw	ra, 0x1c(sp)
0x80001728: 00 81 2c 23 sw	s0, 0x18(sp)
0x8000172c: 00 91 2a 23 sw	s1, 0x14(sp)
0x80001730: 01 31 26 23 sw	s3, 0xc(sp)
0x80001734: 00 06 8a 93 mv	s5, a3
0x80001738: 00 05 09 13 mv	s2, a0
0x8000173c: 00 06 0b 13 mv	s6, a2
0x80001740: 00 07 0a 13 mv	s4, a4
0x80001744: 04 05 94 63 bnez	a1, 0x48
0x80001748: 18 06 98 63 bnez	a3, 0x190
0x8000174c: 00 07 08 63 beqz	a4, 0x10
0x8000175c: 03 69 55 33 divu	a0, s2, s6
0x80001760: 00 00 05 93 mv	a1, zero
0x80001764: 01 c1 20 83 lw	ra, 0x1c(sp)
0x80001768: 01 81 24 03 lw	s0, 0x18(sp)
0x8000176c: 01 41 24 83 lw	s1, 0x14(sp)
0x80001770: 01 01 29 03 lw	s2, 0x10(sp)
0x80001774: 00 c1 29 83 lw	s3, 0xc(sp)
0x80001778: 00 81 2a 03 lw	s4, 8(sp)
0x8000177c: 00 41 2a 83 lw	s5, 4(sp)
0x80001780: 00 01 2b 03 lw	s6, 0(sp)
0x80001784: 02 01 01 13 addi	sp, sp, 0x20
0x80001788: 00 00 80 67 ret
0x80000088: fe 85 e0 e3 bltu	a1, s0, -0x20
0x8000008c: 00 b4 14 63 bne	s0, a1, 8
0x80000090: fc 95 6c e3 bltu	a0, s1, -0x28
0x80000068: 00 81 05 93 addi	a1, sp, 8
0x8000006c: 00 60 05 13 addi	a0, zero, 6
0x80000070: 0e 00 10 ef jal	0x10e0
0x80001150: 00 25 15 13 slli	a0, a0, 2
0x80001154: 00 01 07 97 auipc	a5, 0x10
0x80001158: ae 87 87 93 addi	a5, a5, -0x518
0x8000115c: 00 a7 87 b3 add	a5, a5, a0
0x80001160: 00 07 a7 83 lw	a5, 0(a5)
0x80001164: 00 05 85 13 mv	a0, a1
0x80001168: 00 07 80 67 jr	a5
0x8000118c: a0 00 07 b7 lui	a5, 0xa0000
0x80001190: 04 c7 a7 03 lw	a4, 0x4c(a5)
0x80001194: 04 87 a7 83 lw	a5, 0x48(a5)
0x80001198: 00 e5 22 23 sw	a4, 4(a0)
0x8000119c: 00 f5 20 23 sw	a5, 0(a0)
0x800011a0: 00 00 80 67 ret
0x80000074: 00 81 25 03 lw	a0, 8(sp)
0x80000078: 00 c1 25 83 lw	a1, 0xc(sp)
0x8000007c: 00 09 06 13 mv	a2, s2
0x80000080: 00 09 86 93 mv	a3, s3
0x80000084: 1b 10 10 ef jal	0x19b0
0x80001a34: 00 00 07 13 mv	a4, zero
0x80001a38: cd 9f f0 6f j	-0x328
0x80001710: fe 01 01 13 addi	sp, sp, -0x20
0x80001714: 01 21 28 23 sw	s2, 0x10(sp)
0x80001718: 01 41 24 23 sw	s4, 8(sp)
0x8000171c: 01 51 22 23 sw	s5, 4(sp)
0x80001720: 01 61 20 23 sw	s6, 0(sp)
0x80001724: 00 11 2e 23 sw	ra, 0x1c(sp)
0x80001728: 00 81 2c 23 sw	s0, 0x18(sp)
0x8000172c: 00 91 2a 23 sw	s1, 0x14(sp)
0x80001730: 01 31 26 23 sw	s3, 0xc(sp)
0x80001734: 00 06 8a 93 mv	s5, a3
0x80001738: 00 05 09 13 mv	s2, a0
0x8000173c: 00 06 0b 13 mv	s6, a2
0x80001740: 00 07 0a 13 mv	s4, a4
0x80001744: 04 05 94 63 bnez	a1, 0x48
0x80001748: 18 06 98 63 bnez	a3, 0x190
0x8000174c: 00 07 08 63 beqz	a4, 0x10
0x8000175c: 03 69 55 33 divu	a0, s2, s6
0x80001760: 00 00 05 93 mv	a1, zero
0x80001764: 01 c1 20 83 lw	ra, 0x1c(sp)
0x80001768: 01 81 24 03 lw	s0, 0x18(sp)
0x8000176c: 01 41 24 83 lw	s1, 0x14(sp)
0x80001770: 01 01 29 03 lw	s2, 0x10(sp)
0x80001774: 00 c1 29 83 lw	s3, 0xc(sp)
0x80001778: 00 81 2a 03 lw	s4, 8(sp)
0x8000177c: 00 41 2a 83 lw	s5, 4(sp)
0x80001780: 00 01 2b 03 lw	s6, 0(sp)
0x80001784: 02 01 01 13 addi	sp, sp, 0x20
0x80001788: 00 00 80 67 ret
0x80000088: fe 85 e0 e3 bltu	a1, s0, -0x20
0x8000008c: 00 b4 14 63 bne	s0, a1, 8
0x80000090: fc 95 6c e3 bltu	a0, s1, -0x28
0x80000068: 00 81 05 93 addi	a1, sp, 8
0x8000006c: 00 60 05 13 addi	a0, zero, 6
0x80000070: 0e 00 10 ef jal	0x10e0
0x80001150: 00 25 15 13 slli	a0, a0, 2
0x80001154: 00 01 07 97 auipc	a5, 0x10
0x80001158: ae 87 87 93 addi	a5, a5, -0x518
0x8000115c: 00 a7 87 b3 add	a5, a5, a0
0x80001160: 00 07 a7 83 lw	a5, 0(a5)
0x80001164: 00 05 85 13 mv	a0, a1
0x80001168: 00 07 80 67 jr	a5
0x8000118c: a0 00 07 b7 lui	a5, 0xa0000
0x80001190: 04 c7 a7 03 lw	a4, 0x4c(a5)
0x80001194: 04 87 a7 83 lw	a5, 0x48(a5)
0x80001198: 00 e5 22 23 sw	a4, 4(a0)
0x8000119c: 00 f5 20 23 sw	a5, 0(a0)
0x800011a0: 00 00 80 67 ret
0x80000074: 00 81 25 03 lw	a0, 8(sp)
0x80000078: 00 c1 25 83 lw	a1, 0xc(sp)
0x8000007c: 00 09 06 13 mv	a2, s2
0x80000080: 00 09 86 93 mv	a3, s3
0x80000084: 1b 10 10 ef jal	0x19b0
0x80001a34: 00 00 07 13 mv	a4, zero
0x80001a38: cd 9f f0 6f j	-0x328
0x80001710: fe 01 01 13 addi	sp, sp, -0x20
0x80001714: 01 21 28 23 sw	s2, 0x10(sp)
0x80001718: 01 41 24 23 sw	s4, 8(sp)
0x8000171c: 01 51 22 23 sw	s5, 4(sp)
0x80001720: 01 61 20 23 sw	s6, 0(sp)
0x80001724: 00 11 2e 23 sw	ra, 0x1c(sp)
0x80001728: 00 81 2c 23 sw	s0, 0x18(sp)
0x8000172c: 00 91 2a 23 sw	s1, 0x14(sp)
0x80001730: 01 31 26 23 sw	s3, 0xc(sp)
0x80001734: 00 06 8a 93 mv	s5, a3
0x80001738: 00 05 09 13 mv	s2, a0
0x8000173c: 00 06 0b 13 mv	s6, a2
0x80001740: 00 07 0a 13 mv	s4, a4
0x80001744: 04 05 94 63 bnez	a1, 0x48
0x80001748: 18 06 98 63 bnez	a3, 0x190
0x8000174c: 00 07 08 63 beqz	a4, 0x10
0x8000175c: 03 69 55 33 divu	a0, s2, s6
0x80001760: 00 00 05 93 mv	a1, zero
0x80001764: 01 c1 20 83 lw	ra, 0x1c(sp)
0x80001768: 01 81 24 03 lw	s0, 0x18(sp)
0x8000176c: 01 41 24 83 lw	s1, 0x14(sp)
0x80001770: 01 01 29 03 lw	s2, 0x10(sp)
0x80001774: 00 c1 29 83 lw	s3, 0xc(sp)
0x80001778: 00 81 2a 03 lw	s4, 8(sp)
0x8000177c: 00 41 2a 83 lw	s5, 4(sp)
0x80001780: 00 01 2b 03 lw	s6, 0(sp)
0x80001784: 02 01 01 13 addi	sp, sp, 0x20
0x80001788: 00 00 80 67 ret
0x80000088: fe 85 e0 e3 bltu	a1, s0, -0x20
0x8000008c: 00 b4 14 63 bne	s0, a1, 8
0x80000090: fc 95 6c e3 bltu	a0, s1, -0x28
0x80000068: 00 81 05 93 addi	a1, sp, 8
0x8000006c: 00 60 05 13 addi	a0, zero, 6
0x80000070: 0e 00 10 ef jal	0x10e0
0x80001150: 00 25 15 13 slli	a0, a0, 2
0x80001154: 00 01 07 97 auipc	a5, 0x10
0x80001158: ae 87 87 93 addi	a5, a5, -0x518
0x8000115c: 00 a7 87 b3 add	a5, a5, a0
0x80001160: 00 07 a7 83 lw	a5, 0(a5)
0x80001164: 00 05 85 13 mv	a0, a1
0x80001168: 00 07 80 67 jr	a5
0x8000118c: a0 00 07 b7 lui	a5, 0xa0000
0x80001190: 04 c7 a7 03 lw	a4, 0x4c(a5)
0x80001194: 04 87 a7 83 lw	a5, 0x48(a5)
0x80001198: 00 e5 22 23 sw	a4, 4(a0)
0x8000119c: 00 f5 20 23 sw	a5, 0(a0)
0x800011a0: 00 00 80 67 ret
0x80000074: 00 81 25 03 lw	a0, 8(sp)
0x80000078: 00 c1 25 83 lw	a1, 0xc(sp)
0x8000007c: 00 09 06 13 mv	a2, s2
0x80000080: 00 09 86 93 mv	a3, s3
0x80000084: 1b 10 10 ef jal	0x19b0
0x80001a34: 00 00 07 13 mv	a4, zero
0x80001a38: cd 9f f0 6f j	-0x328
0x80001710: fe 01 01 13 addi	sp, sp, -0x20
0x80001714: 01 21 28 23 sw	s2, 0x10(sp)
0x80001718: 01 41 24 23 sw	s4, 8(sp)
0x8000171c: 01 51 22 23 sw	s5, 4(sp)
0x80001720: 01 61 20 23 sw	s6, 0(sp)
0x80001724: 00 11 2e 23 sw	ra, 0x1c(sp)
0x80001728: 00 81 2c 23 sw	s0, 0x18(sp)
0x8000172c: 00 91 2a 23 sw	s1, 0x14(sp)
0x80001730: 01 31 26 23 sw	s3, 0xc(sp)
0x80001734: 00 06 8a 93 mv	s5, a3
0x80001738: 00 05 09 13 mv	s2, a0
0x8000173c: 00 06 0b 13 mv	s6, a2
0x80001740: 00 07 0a 13 mv	s4, a4
0x80001744: 04 05 94 63 bnez	a1, 0x48
0x80001748: 18 06 98 63 bnez	a3, 0x190
0x8000174c: 00 07 08 63 beqz	a4, 0x10
0x8000175c: 03 69 55 33 divu	a0, s2, s6
0x80001760: 00 00 05 93 mv	a1, zero
0x80001764: 01 c1 20 83 lw	ra, 0x1c(sp)
0x80001768: 01 81 24 03 lw	s0, 0x18(sp)
0x8000176c: 01 41 24 83 lw	s1, 0x14(sp)
0x80001770: 01 01 29 03 lw	s2, 0x10(sp)
0x80001774: 00 c1 29 83 lw	s3, 0xc(sp)
0x80001778: 00 81 2a 03 lw	s4, 8(sp)
0x8000177c: 00 41 2a 83 lw	s5, 4(sp)
0x80001780: 00 01 2b 03 lw	s6, 0(sp)
0x80001784: 02 01 01 13 addi	sp, sp, 0x20
0x80001788: 00 00 80 67 ret
0x80000088: fe 85 e0 e3 bltu	a1, s0, -0x20
0x8000008c: 00 b4 14 63 bne	s0, a1, 8
0x80000090: fc 95 6c e3 bltu	a0, s1, -0x28
0x80000068: 00 81 05 93 addi	a1, sp, 8
0x8000006c: 00 60 05 13 addi	a0, zero, 6
0x80000070: 0e 00 10 ef jal	0x10e0
0x80001150: 00 25 15 13 slli	a0, a0, 2
0x80001154: 00 01 07 97 auipc	a5, 0x10
0x80001158: ae 87 87 93 addi	a5, a5, -0x518
0x8000115c: 00 a7 87 b3 add	a5, a5, a0
0x80001160: 00 07 a7 83 lw	a5, 0(a5)
0x80001164: 00 05 85 13 mv	a0, a1
0x80001168: 00 07 80 67 jr	a5
0x8000118c: a0 00 07 b7 lui	a5, 0xa0000
0x80001190: 04 c7 a7 03 lw	a4, 0x4c(a5)
0x80001194: 04 87 a7 83 lw	a5, 0x48(a5)
0x80001198: 00 e5 22 23 sw	a4, 4(a0)
0x8000119c: 00 f5 20 23 sw	a5, 0(a0)
0x800011a0: 00 00 80 67 ret
0x80000074: 00 81 25 03 lw	a0, 8(sp)
0x80000078: 00 c1 25 83 lw	a1, 0xc(sp)
0x8000007c: 00 09 06 13 mv	a2, s2
0x80000080: 00 09 86 93 mv	a3, s3
0x80000084: 1b 10 10 ef jal	0x19b0
0x80001a34: 00 00 07 13 mv	a4, zero
0x80001a38: cd 9f f0 6f j	-0x328
0x80001710: fe 01 01 13 addi	sp, sp, -0x20
0x80001714: 01 21 28 23 sw	s2, 0x10(sp)
0x80001718: 01 41 24 23 sw	s4, 8(sp)
0x8000171c: 01 51 22 23 sw	s5, 4(sp)
0x80001720: 01 61 20 23 sw	s6, 0(sp)
0x80001724: 00 11 2e 23 sw	ra, 0x1c(sp)
0x80001728: 00 81 2c 23 sw	s0, 0x18(sp)
0x8000172c: 00 91 2a 23 sw	s1, 0x14(sp)
0x80001730: 01 31 26 23 sw	s3, 0xc(sp)
0x80001734: 00 06 8a 93 mv	s5, a3
0x80001738: 00 05 09 13 mv	s2, a0
0x8000173c: 00 06 0b 13 mv	s6, a2
0x80001740: 00 07 0a 13 mv	s4, a4
0x80001744: 04 05 94 63 bnez	a1, 0x48
0x80001748: 18 06 98 63 bnez	a3, 0x190
0x8000174c: 00 07 08 63 beqz	a4, 0x10
0x8000175c: 03 69 55 33 divu	a0, s2, s6
0x80001760: 00 00 05 93 mv	a1, zero
0x80001764: 01 c1 20 83 lw	ra, 0x1c(sp)
0x80001768: 01 81 24 03 lw	s0, 0x18(sp)
0x8000176c: 01 41 24 83 lw	s1, 0x14(sp)
0x80001770: 01 01 29 03 lw	s2, 0x10(sp)
0x80001774: 00 c1 29 83 lw	s3, 0xc(sp)
0x80001778: 00 81 2a 03 lw	s4, 8(sp)
0x8000177c: 00 41 2a 83 lw	s5, 4(sp)
0x80001780: 00 01 2b 03 lw	s6, 0(sp)
0x80001784: 02 01 01 13 addi	sp, sp, 0x20
0x80001788: 00 00 80 67 ret
0x80000088: fe 85 e0 e3 bltu	a1, s0, -0x20
0x8000008c: 00 b4 14 63 bne	s0, a1, 8
0x80000090: fc 95 6c e3 bltu	a0, s1, -0x28
0x80000068: 00 81 05 93 addi	a1, sp, 8
0x8000006c: 00 60 05 13 addi	a0, zero, 6
0x80000070: 0e 00 10 ef jal	0x10e0
0x80001150: 00 25 15 13 slli	a0, a0, 2
0x80001154: 00 01 07 97 auipc	a5, 0x10
0x80001158: ae 87 87 93 addi	a5, a5, -0x518
0x8000115c: 00 a7 87 b3 add	a5, a5, a0
0x80001160: 00 07 a7 83 lw	a5, 0(a5)
0x80001164: 00 05 85 13 mv	a0, a1
0x80001168: 00 07 80 67 jr	a5
0x8000118c: a0 00 07 b7 lui	a5, 0xa0000
0x80001190: 04 c7 a7 03 lw	a4, 0x4c(a5)
0x80001194: 04 87 a7 83 lw	a5, 0x48(a5)
0x80001198: 00 e5 22 23 sw	a4, 4(a0)
0x8000119c: 00 f5 20 23 sw	a5, 0(a0)
0x800011a0: 00 00 80 67 ret
0x80000074: 00 81 25 03 lw	a0, 8(sp)
0x80000078: 00 c1 25 83 lw	a1, 0xc(sp)
0x8000007c: 00 09 06 13 mv	a2, s2
0x80000080: 00 09 86 93 mv	a3, s3
0x80000084: 1b 10 10 ef jal	0x19b0
0x80001a34: 00 00 07 13 mv	a4, zero
0x80001a38: cd 9f f0 6f j	-0x328
0x80001710: fe 01 01 13 addi	sp, sp, -0x20
0x80001714: 01 21 28 23 sw	s2, 0x10(sp)
0x80001718: 01 41 24 23 sw	s4, 8(sp)
0x8000171c: 01 51 22 23 sw	s5, 4(sp)
0x80001720: 01 61 20 23 sw	s6, 0(sp)
0x80001724: 00 11 2e 23 sw	ra, 0x1c(sp)
0x80001728: 00 81 2c 23 sw	s0, 0x18(sp)
0x8000172c: 00 91 2a 23 sw	s1, 0x14(sp)
0x80001730: 01 31 26 23 sw	s3, 0xc(sp)
0x80001734: 00 06 8a 93 mv	s5, a3
0x80001738: 00 05 09 13 mv	s2, a0
0x8000173c: 00 06 0b 13 mv	s6, a2
0x80001740: 00 07 0a 13 mv	s4, a4
0x80001744: 04 05 94 63 bnez	a1, 0x48
0x80001748: 18 06 98 63 bnez	a3, 0x190
0x8000174c: 00 07 08 63 beqz	a4, 0x10
0x8000175c: 03 69 55 33 divu	a0, s2, s6
0x80001760: 00 00 05 93 mv	a1, zero
0x80001764: 01 c1 20 83 lw	ra, 0x1c(sp)
0x80001768: 01 81 24 03 lw	s0, 0x18(sp)
0x8000176c: 01 41 24 83 lw	s1, 0x14(sp)
0x80001770: 01 01 29 03 lw	s2, 0x10(sp)
0x80001774: 00 c1 29 83 lw	s3, 0xc(sp)
0x80001778: 00 81 2a 03 lw	s4, 8(sp)
0x8000177c: 00 41 2a 83 lw	s5, 4(sp)
0x80001780: 00 01 2b 03 lw	s6, 0(sp)
0x80001784: 02 01 01 13 addi	sp, sp, 0x20
0x80001788: 00 00 80 67 ret
0x80000088: fe 85 e0 e3 bltu	a1, s0, -0x20
0x8000008c: 00 b4 14 63 bne	s0, a1, 8
0x80000090: fc 95 6c e3 bltu	a0, s1, -0x28
0x80000068: 00 81 05 93 addi	a1, sp, 8
0x8000006c: 00 60 05 13 addi	a0, zero, 6
0x80000070: 0e 00 10 ef jal	0x10e0
0x80001150: 00 25 15 13 slli	a0, a0, 2
0x80001154: 00 01 07 97 auipc	a5, 0x10
0x80001158: ae 87 87 93 addi	a5, a5, -0x518
0x8000115c: 00 a7 87 b3 add	a5, a5, a0
0x80001160: 00 07 a7 83 lw	a5, 0(a5)
0x80001164: 00 05 85 13 mv	a0, a1
0x80001168: 00 07 80 67 jr	a5
0x8000118c: a0 00 07 b7 lui	a5, 0xa0000
0x80001190: 04 c7 a7 03 lw	a4, 0x4c(a5)
0x80001194: 04 87 a7 83 lw	a5, 0x48(a5)
0x80001198: 00 e5 22 23 sw	a4, 4(a0)
0x8000119c: 00 f5 20 23 sw	a5, 0(a0)
0x800011a0: 00 00 80 67 ret
0x80000074: 00 81 25 03 lw	a0, 8(sp)
0x80000078: 00 c1 25 83 lw	a1, 0xc(sp)
0x8000007c: 00 09 06 13 mv	a2, s2
0x80000080: 00 09 86 93 mv	a3, s3
0x80000084: 1b 10 10 ef jal	0x19b0
0x80001a34: 00 00 07 13 mv	a4, zero
0x80001a38: cd 9f f0 6f j	-0x328
0x80001710: fe 01 01 13 addi	sp, sp, -0x20
0x80001714: 01 21 28 23 sw	s2, 0x10(sp)
0x80001718: 01 41 24 23 sw	s4, 8(sp)
0x8000171c: 01 51 22 23 sw	s5, 4(sp)
0x80001720: 01 61 20 23 sw	s6, 0(sp)
0x80001724: 00 11 2e 23 sw	ra, 0x1c(sp)
0x80001728: 00 81 2c 23 sw	s0, 0x18(sp)
0x8000172c: 00 91 2a 23 sw	s1, 0x14(sp)
0x80001730: 01 31 26 23 sw	s3, 0xc(sp)
0x80001734: 00 06 8a 93 mv	s5, a3
0x80001738: 00 05 09 13 mv	s2, a0
0x8000173c: 00 06 0b 13 mv	s6, a2
0x80001740: 00 07 0a 13 mv	s4, a4
0x80001744: 04 05 94 63 bnez	a1, 0x48
0x80001748: 18 06 98 63 bnez	a3, 0x190
0x8000174c: 00 07 08 63 beqz	a4, 0x10
0x8000175c: 03 69 55 33 divu	a0, s2, s6
0x80001760: 00 00 05 93 mv	a1, zero
0x80001764: 01 c1 20 83 lw	ra, 0x1c(sp)
0x80001768: 01 81 24 03 lw	s0, 0x18(sp)
0x8000176c: 01 41 24 83 lw	s1, 0x14(sp)
0x80001770: 01 01 29 03 lw	s2, 0x10(sp)
0x80001774: 00 c1 29 83 lw	s3, 0xc(sp)
0x80001778: 00 81 2a 03 lw	s4, 8(sp)
0x8000177c: 00 41 2a 83 lw	s5, 4(sp)
0x80001780: 00 01 2b 03 lw	s6, 0(sp)
0x80001784: 02 01 01 13 addi	sp, sp, 0x20
0x80001788: 00 00 80 67 ret
0x80000088: fe 85 e0 e3 bltu	a1, s0, -0x20
0x8000008c: 00 b4 14 63 bne	s0, a1, 8
0x80000090: fc 95 6c e3 bltu	a0, s1, -0x28
0x80000068: 00 81 05 93 addi	a1, sp, 8
0x8000006c: 00 60 05 13 addi	a0, zero, 6
0x80000070: 0e 00 10 ef jal	0x10e0
0x80001150: 00 25 15 13 slli	a0, a0, 2
0x80001154: 00 01 07 97 auipc	a5, 0x10
0x80001158: ae 87 87 93 addi	a5, a5, -0x518
0x8000115c: 00 a7 87 b3 add	a5, a5, a0
0x80001160: 00 07 a7 83 lw	a5, 0(a5)
0x80001164: 00 05 85 13 mv	a0, a1
0x80001168: 00 07 80 67 jr	a5
0x8000118c: a0 00 07 b7 lui	a5, 0xa0000
0x80001190: 04 c7 a7 03 lw	a4, 0x4c(a5)
0x80001194: 04 87 a7 83 lw	a5, 0x48(a5)
0x80001198: 00 e5 22 23 sw	a4, 4(a0)
0x8000119c: 00 f5 20 23 sw	a5, 0(a0)
0x800011a0: 00 00 80 67 ret
0x80000074: 00 81 25 03 lw	a0, 8(sp)
0x80000078: 00 c1 25 83 lw	a1, 0xc(sp)
0x8000007c: 00 09 06 13 mv	a2, s2
0x80000080: 00 09 86 93 mv	a3, s3
0x80000084: 1b 10 10 ef jal	0x19b0
0x80001a34: 00 00 07 13 mv	a4, zero
0x80001a38: cd 9f f0 6f j	-0x328
0x80001710: fe 01 01 13 addi	sp, sp, -0x20
0x80001714: 01 21 28 23 sw	s2, 0x10(sp)
0x80001718: 01 41 24 23 sw	s4, 8(sp)
0x8000171c: 01 51 22 23 sw	s5, 4(sp)
0x80001720: 01 61 20 23 sw	s6, 0(sp)
0x80001724: 00 11 2e 23 sw	ra, 0x1c(sp)
0x80001728: 00 81 2c 23 sw	s0, 0x18(sp)
0x8000172c: 00 91 2a 23 sw	s1, 0x14(sp)
0x80001730: 01 31 26 23 sw	s3, 0xc(sp)
0x80001734: 00 06 8a 93 mv	s5, a3
0x80001738: 00 05 09 13 mv	s2, a0
0x8000173c: 00 06 0b 13 mv	s6, a2
0x80001740: 00 07 0a 13 mv	s4, a4
0x80001744: 04 05 94 63 bnez	a1, 0x48
0x80001748: 18 06 98 63 bnez	a3, 0x190
0x8000174c: 00 07 08 63 beqz	a4, 0x10
0x8000175c: 03 69 55 33 divu	a0, s2, s6
0x80001760: 00 00 05 93 mv	a1, zero
0x80001764: 01 c1 20 83 lw	ra, 0x1c(sp)
0x80001768: 01 81 24 03 lw	s0, 0x18(sp)
0x8000176c: 01 41 24 83 lw	s1, 0x14(sp)
0x80001770: 01 01 29 03 lw	s2, 0x10(sp)
0x80001774: 00 c1 29 83 lw	s3, 0xc(sp)
0x80001778: 00 81 2a 03 lw	s4, 8(sp)
0x8000177c: 00 41 2a 83 lw	s5, 4(sp)
0x80001780: 00 01 2b 03 lw	s6, 0(sp)
0x80001784: 02 01 01 13 addi	sp, sp, 0x20
0x80001788: 00 00 80 67 ret
0x80000088: fe 85 e0 e3 bltu	a1, s0, -0x20
0x8000008c: 00 b4 14 63 bne	s0, a1, 8
0x80000090: fc 95 6c e3 bltu	a0, s1, -0x28
0x80000068: 00 81 05 93 addi	a1, sp, 8
0x8000006c: 00 60 05 13 addi	a0, zero, 6
0x80000070: 0e 00 10 ef jal	0x10e0
0x80001150: 00 25 15 13 slli	a0, a0, 2
0x80001154: 00 01 07 97 auipc	a5, 0x10
0x80001158: ae 87 87 93 addi	a5, a5, -0x518
0x8000115c: 00 a7 87 b3 add	a5, a5, a0
0x80001160: 00 07 a7 83 lw	a5, 0(a5)
0x80001164: 00 05 85 13 mv	a0, a1
0x80001168: 00 07 80 67 jr	a5
0x8000118c: a0 00 07 b7 lui	a5, 0xa0000
0x80001190: 04 c7 a7 03 lw	a4, 0x4c(a5)
0x80001194: 04 87 a7 83 lw	a5, 0x48(a5)
0x80001198: 00 e5 22 23 sw	a4, 4(a0)
0x8000119c: 00 f5 20 23 sw	a5, 0(a0)
0x800011a0: 00 00 80 67 ret
0x80000074: 00 81 25 03 lw	a0, 8(sp)
0x80000078: 00 c1 25 83 lw	a1, 0xc(sp)
0x8000007c: 00 09 06 13 mv	a2, s2
0x80000080: 00 09 86 93 mv	a3, s3
0x80000084: 1b 10 10 ef jal	0x19b0
0x80001a34: 00 00 07 13 mv	a4, zero
0x80001a38: cd 9f f0 6f j	-0x328
0x80001710: fe 01 01 13 addi	sp, sp, -0x20
0x80001714: 01 21 28 23 sw	s2, 0x10(sp)
0x80001718: 01 41 24 23 sw	s4, 8(sp)
0x8000171c: 01 51 22 23 sw	s5, 4(sp)
0x80001720: 01 61 20 23 sw	s6, 0(sp)
0x80001724: 00 11 2e 23 sw	ra, 0x1c(sp)
0x80001728: 00 81 2c 23 sw	s0, 0x18(sp)
0x8000172c: 00 91 2a 23 sw	s1, 0x14(sp)
0x80001730: 01 31 26 23 sw	s3, 0xc(sp)
0x80001734: 00 06 8a 93 mv	s5, a3
0x80001738: 00 05 09 13 mv	s2, a0
0x8000173c: 00 06 0b 13 mv	s6, a2
0x80001740: 00 07 0a 13 mv	s4, a4
0x80001744: 04 05 94 63 bnez	a1, 0x48
0x80001748: 18 06 98 63 bnez	a3, 0x190
0x8000174c: 00 07 08 63 beqz	a4, 0x10
0x8000175c: 03 69 55 33 divu	a0, s2, s6
0x80001760: 00 00 05 93 mv	a1, zero
0x80001764: 01 c1 20 83 lw	ra, 0x1c(sp)
0x80001768: 01 81 24 03 lw	s0, 0x18(sp)
0x8000176c: 01 41 24 83 lw	s1, 0x14(sp)
0x80001770: 01 01 29 03 lw	s2, 0x10(sp)
0x80001774: 00 c1 29 83 lw	s3, 0xc(sp)
0x80001778: 00 81 2a 03 lw	s4, 8(sp)
0x8000177c: 00 41 2a 83 lw	s5, 4(sp)
0x80001780: 00 01 2b 03 lw	s6, 0(sp)
0x80001784: 02 01 01 13 addi	sp, sp, 0x20
0x80001788: 00 00 80 67 ret
0x80000088: fe 85 e0 e3 bltu	a1, s0, -0x20
0x8000008c: 00 b4 14 63 bne	s0, a1, 8
0x80000090: fc 95 6c e3 bltu	a0, s1, -0x28
0x80000068: 00 81 05 93 addi	a1, sp, 8
0x8000006c: 00 60 05 13 addi	a0, zero, 6
0x80000070: 0e 00 10 ef jal	0x10e0
0x80001150: 00 25 15 13 slli	a0, a0, 2
0x80001154: 00 01 07 97 auipc	a5, 0x10
0x80001158: ae 87 87 93 addi	a5, a5, -0x518
0x8000115c: 00 a7 87 b3 add	a5, a5, a0
0x80001160: 00 07 a7 83 lw	a5, 0(a5)
0x80001164: 00 05 85 13 mv	a0, a1
0x80001168: 00 07 80 67 jr	a5
0x8000118c: a0 00 07 b7 lui	a5, 0xa0000
0x80001190: 04 c7 a7 03 lw	a4, 0x4c(a5)
0x80001194: 04 87 a7 83 lw	a5, 0x48(a5)
0x80001198: 00 e5 22 23 sw	a4, 4(a0)
0x8000119c: 00 f5 20 23 sw	a5, 0(a0)
0x800011a0: 00 00 80 67 ret
0x80000074: 00 81 25 03 lw	a0, 8(sp)
0x80000078: 00 c1 25 83 lw	a1, 0xc(sp)
0x8000007c: 00 09 06 13 mv	a2, s2
0x80000080: 00 09 86 93 mv	a3, s3
0x80000084: 1b 10 10 ef jal	0x19b0
0x80001a34: 00 00 07 13 mv	a4, zero
0x80001a38: cd 9f f0 6f j	-0x328
0x80001710: fe 01 01 13 addi	sp, sp, -0x20
0x80001714: 01 21 28 23 sw	s2, 0x10(sp)
0x80001718: 01 41 24 23 sw	s4, 8(sp)
0x8000171c: 01 51 22 23 sw	s5, 4(sp)
0x80001720: 01 61 20 23 sw	s6, 0(sp)
0x80001724: 00 11 2e 23 sw	ra, 0x1c(sp)
0x80001728: 00 81 2c 23 sw	s0, 0x18(sp)
0x8000172c: 00 91 2a 23 sw	s1, 0x14(sp)
0x80001730: 01 31 26 23 sw	s3, 0xc(sp)
0x80001734: 00 06 8a 93 mv	s5, a3
0x80001738: 00 05 09 13 mv	s2, a0
0x8000173c: 00 06 0b 13 mv	s6, a2
0x80001740: 00 07 0a 13 mv	s4, a4
0x80001744: 04 05 94 63 bnez	a1, 0x48
0x80001748: 18 06 98 63 bnez	a3, 0x190
0x8000174c: 00 07 08 63 beqz	a4, 0x10
0x8000175c: 03 69 55 33 divu	a0, s2, s6
0x80001760: 00 00 05 93 mv	a1, zero
0x80001764: 01 c1 20 83 lw	ra, 0x1c(sp)
0x80001768: 01 81 24 03 lw	s0, 0x18(sp)
0x8000176c: 01 41 24 83 lw	s1, 0x14(sp)
0x80001770: 01 01 29 03 lw	s2, 0x10(sp)
0x80001774: 00 c1 29 83 lw	s3, 0xc(sp)
0x80001778: 00 81 2a 03 lw	s4, 8(sp)
0x8000177c: 00 41 2a 83 lw	s5, 4(sp)
0x80001780: 00 01 2b 03 lw	s6, 0(sp)
0x80001784: 02 01 01 13 addi	sp, sp, 0x20
0x80001788: 00 00 80 67 ret
0x80000088: fe 85 e0 e3 bltu	a1, s0, -0x20
0x8000008c: 00 b4 14 63 bne	s0, a1, 8
0x80000090: fc 95 6c e3 bltu	a0, s1, -0x28
0x80000068: 00 81 05 93 addi	a1, sp, 8
0x8000006c: 00 60 05 13 addi	a0, zero, 6
0x80000070: 0e 00 10 ef jal	0x10e0
0x80001150: 00 25 15 13 slli	a0, a0, 2
0x80001154: 00 01 07 97 auipc	a5, 0x10
0x80001158: ae 87 87 93 addi	a5, a5, -0x518
0x8000115c: 00 a7 87 b3 add	a5, a5, a0
0x80001160: 00 07 a7 83 lw	a5, 0(a5)
0x80001164: 00 05 85 13 mv	a0, a1
0x80001168: 00 07 80 67 jr	a5
0x8000118c: a0 00 07 b7 lui	a5, 0xa0000
0x80001190: 04 c7 a7 03 lw	a4, 0x4c(a5)
0x80001194: 04 87 a7 83 lw	a5, 0x48(a5)
0x80001198: 00 e5 22 23 sw	a4, 4(a0)
0x8000119c: 00 f5 20 23 sw	a5, 0(a0)
0x800011a0: 00 00 80 67 ret
0x80000074: 00 81 25 03 lw	a0, 8(sp)
0x80000078: 00 c1 25 83 lw	a1, 0xc(sp)
0x8000007c: 00 09 06 13 mv	a2, s2
0x80000080: 00 09 86 93 mv	a3, s3
0x80000084: 1b 10 10 ef jal	0x19b0
0x80001a34: 00 00 07 13 mv	a4, zero
0x80001a38: cd 9f f0 6f j	-0x328
0x80001710: fe 01 01 13 addi	sp, sp, -0x20
0x80001714: 01 21 28 23 sw	s2, 0x10(sp)
0x80001718: 01 41 24 23 sw	s4, 8(sp)
0x8000171c: 01 51 22 23 sw	s5, 4(sp)
0x80001720: 01 61 20 23 sw	s6, 0(sp)
0x80001724: 00 11 2e 23 sw	ra, 0x1c(sp)
0x80001728: 00 81 2c 23 sw	s0, 0x18(sp)
0x8000172c: 00 91 2a 23 sw	s1, 0x14(sp)
0x80001730: 01 31 26 23 sw	s3, 0xc(sp)
0x80001734: 00 06 8a 93 mv	s5, a3
0x80001738: 00 05 09 13 mv	s2, a0
0x8000173c: 00 06 0b 13 mv	s6, a2
0x80001740: 00 07 0a 13 mv	s4, a4
0x80001744: 04 05 94 63 bnez	a1, 0x48
0x80001748: 18 06 98 63 bnez	a3, 0x190
0x8000174c: 00 07 08 63 beqz	a4, 0x10
0x8000175c: 03 69 55 33 divu	a0, s2, s6
0x80001760: 00 00 05 93 mv	a1, zero
0x80001764: 01 c1 20 83 lw	ra, 0x1c(sp)
0x80001768: 01 81 24 03 lw	s0, 0x18(sp)
0x8000176c: 01 41 24 83 lw	s1, 0x14(sp)
0x80001770: 01 01 29 03 lw	s2, 0x10(sp)
0x80001774: 00 c1 29 83 lw	s3, 0xc(sp)
0x80001778: 00 81 2a 03 lw	s4, 8(sp)
0x8000177c: 00 41 2a 83 lw	s5, 4(sp)
0x80001780: 00 01 2b 03 lw	s6, 0(sp)
0x80001784: 02 01 01 13 addi	sp, sp, 0x20
0x80001788: 00 00 80 67 ret
0x80000088: fe 85 e0 e3 bltu	a1, s0, -0x20
0x8000008c: 00 b4 14 63 bne	s0, a1, 8
0x80000090: fc 95 6c e3 bltu	a0, s1, -0x28
0x80000068: 00 81 05 93 addi	a1, sp, 8
0x8000006c: 00 60 05 13 addi	a0, zero, 6
0x80000070: 0e 00 10 ef jal	0x10e0
0x80001150: 00 25 15 13 slli	a0, a0, 2
0x80001154: 00 01 07 97 auipc	a5, 0x10
0x80001158: ae 87 87 93 addi	a5, a5, -0x518
0x8000115c: 00 a7 87 b3 add	a5, a5, a0
0x80001160: 00 07 a7 83 lw	a5, 0(a5)
0x80001164: 00 05 85 13 mv	a0, a1
0x80001168: 00 07 80 67 jr	a5
0x8000118c: a0 00 07 b7 lui	a5, 0xa0000
0x80001190: 04 c7 a7 03 lw	a4, 0x4c(a5)
0x80001194: 04 87 a7 83 lw	a5, 0x48(a5)
0x80001198: 00 e5 22 23 sw	a4, 4(a0)
0x8000119c: 00 f5 20 23 sw	a5, 0(a0)
0x800011a0: 00 00 80 67 ret
0x80000074: 00 81 25 03 lw	a0, 8(sp)
0x80000078: 00 c1 25 83 lw	a1, 0xc(sp)
0x8000007c: 00 09 06 13 mv	a2, s2
0x80000080: 00 09 86 93 mv	a3, s3
0x80000084: 1b 10 10 ef jal	0x19b0
0x80001a34: 00 00 07 13 mv	a4, zero
0x80001a38: cd 9f f0 6f j	-0x328
0x80001710: fe 01 01 13 addi	sp, sp, -0x20
0x80001714: 01 21 28 23 sw	s2, 0x10(sp)
0x80001718: 01 41 24 23 sw	s4, 8(sp)
0x8000171c: 01 51 22 23 sw	s5, 4(sp)
0x80001720: 01 61 20 23 sw	s6, 0(sp)
0x80001724: 00 11 2e 23 sw	ra, 0x1c(sp)
0x80001728: 00 81 2c 23 sw	s0, 0x18(sp)
0x8000172c: 00 91 2a 23 sw	s1, 0x14(sp)
0x80001730: 01 31 26 23 sw	s3, 0xc(sp)
0x80001734: 00 06 8a 93 mv	s5, a3
0x80001738: 00 05 09 13 mv	s2, a0
0x8000173c: 00 06 0b 13 mv	s6, a2
0x80001740: 00 07 0a 13 mv	s4, a4
0x80001744: 04 05 94 63 bnez	a1, 0x48
0x80001748: 18 06 98 63 bnez	a3, 0x190
0x8000174c: 00 07 08 63 beqz	a4, 0x10
0x8000175c: 03 69 55 33 divu	a0, s2, s6
0x80001760: 00 00 05 93 mv	a1, zero
0x80001764: 01 c1 20 83 lw	ra, 0x1c(sp)
0x80001768: 01 81 24 03 lw	s0, 0x18(sp)
0x8000176c: 01 41 24 83 lw	s1, 0x14(sp)
0x80001770: 01 01 29 03 lw	s2, 0x10(sp)
0x80001774: 00 c1 29 83 lw	s3, 0xc(sp)
0x80001778: 00 81 2a 03 lw	s4, 8(sp)
0x8000177c: 00 41 2a 83 lw	s5, 4(sp)
0x80001780: 00 01 2b 03 lw	s6, 0(sp)
0x80001784: 02 01 01 13 addi	sp, sp, 0x20
0x80001788: 00 00 80 67 ret
0x80000088: fe 85 e0 e3 bltu	a1, s0, -0x20
0x8000008c: 00 b4 14 63 bne	s0, a1, 8
0x80000090: fc 95 6c e3 bltu	a0, s1, -0x28
0x80000068: 00 81 05 93 addi	a1, sp, 8
0x8000006c: 00 60 05 13 addi	a0, zero, 6
0x80000070: 0e 00 10 ef jal	0x10e0
0x80001150: 00 25 15 13 slli	a0, a0, 2
0x80001154: 00 01 07 97 auipc	a5, 0x10
0x80001158: ae 87 87 93 addi	a5, a5, -0x518
0x8000115c: 00 a7 87 b3 add	a5, a5, a0
0x80001160: 00 07 a7 83 lw	a5, 0(a5)
0x80001164: 00 05 85 13 mv	a0, a1
0x80001168: 00 07 80 67 jr	a5
0x8000118c: a0 00 07 b7 lui	a5, 0xa0000
0x80001190: 04 c7 a7 03 lw	a4, 0x4c(a5)
0x80001194: 04 87 a7 83 lw	a5, 0x48(a5)
0x80001198: 00 e5 22 23 sw	a4, 4(a0)
0x8000119c: 00 f5 20 23 sw	a5, 0(a0)
0x800011a0: 00 00 80 67 ret
0x80000074: 00 81 25 03 lw	a0, 8(sp)
0x80000078: 00 c1 25 83 lw	a1, 0xc(sp)
0x8000007c: 00 09 06 13 mv	a2, s2
0x80000080: 00 09 86 93 mv	a3, s3
0x80000084: 1b 10 10 ef jal	0x19b0
0x80001a34: 00 00 07 13 mv	a4, zero
0x80001a38: cd 9f f0 6f j	-0x328
0x80001710: fe 01 01 13 addi	sp, sp, -0x20
0x80001714: 01 21 28 23 sw	s2, 0x10(sp)
0x80001718: 01 41 24 23 sw	s4, 8(sp)
0x8000171c: 01 51 22 23 sw	s5, 4(sp)
0x80001720: 01 61 20 23 sw	s6, 0(sp)
0x80001724: 00 11 2e 23 sw	ra, 0x1c(sp)
0x80001728: 00 81 2c 23 sw	s0, 0x18(sp)
0x8000172c: 00 91 2a 23 sw	s1, 0x14(sp)
0x80001730: 01 31 26 23 sw	s3, 0xc(sp)
0x80001734: 00 06 8a 93 mv	s5, a3
0x80001738: 00 05 09 13 mv	s2, a0
0x8000173c: 00 06 0b 13 mv	s6, a2
0x80001740: 00 07 0a 13 mv	s4, a4
0x80001744: 04 05 94 63 bnez	a1, 0x48
0x80001748: 18 06 98 63 bnez	a3, 0x190
0x8000174c: 00 07 08 63 beqz	a4, 0x10
0x8000175c: 03 69 55 33 divu	a0, s2, s6
0x80001760: 00 00 05 93 mv	a1, zero
0x80001764: 01 c1 20 83 lw	ra, 0x1c(sp)
0x80001768: 01 81 24 03 lw	s0, 0x18(sp)
0x8000176c: 01 41 24 83 lw	s1, 0x14(sp)
0x80001770: 01 01 29 03 lw	s2, 0x10(sp)
0x80001774: 00 c1 29 83 lw	s3, 0xc(sp)
0x80001778: 00 81 2a 03 lw	s4, 8(sp)
0x8000177c: 00 41 2a 83 lw	s5, 4(sp)
0x80001780: 00 01 2b 03 lw	s6, 0(sp)
0x80001784: 02 01 01 13 addi	sp, sp, 0x20
0x80001788: 00 00 80 67 ret
0x80000088: fe 85 e0 e3 bltu	a1, s0, -0x20
0x8000008c: 00 b4 14 63 bne	s0, a1, 8
0x80000090: fc 95 6c e3 bltu	a0, s1, -0x28
0x80000068: 00 81 05 93 addi	a1, sp, 8
0x8000006c: 00 60 05 13 addi	a0, zero, 6
0x80000070: 0e 00 10 ef jal	0x10e0
0x80001150: 00 25 15 13 slli	a0, a0, 2
0x80001154: 00 01 07 97 auipc	a5, 0x10
0x80001158: ae 87 87 93 addi	a5, a5, -0x518
0x8000115c: 00 a7 87 b3 add	a5, a5, a0
0x80001160: 00 07 a7 83 lw	a5, 0(a5)
0x80001164: 00 05 85 13 mv	a0, a1
0x80001168: 00 07 80 67 jr	a5
0x8000118c: a0 00 07 b7 lui	a5, 0xa0000
0x80001190: 04 c7 a7 03 lw	a4, 0x4c(a5)
0x80001194: 04 87 a7 83 lw	a5, 0x48(a5)
0x80001198: 00 e5 22 23 sw	a4, 4(a0)
0x8000119c: 00 f5 20 23 sw	a5, 0(a0)
0x800011a0: 00 00 80 67 ret
0x80000074: 00 81 25 03 lw	a0, 8(sp)
0x80000078: 00 c1 25 83 lw	a1, 0xc(sp)
0x8000007c: 00 09 06 13 mv	a2, s2
0x80000080: 00 09 86 93 mv	a3, s3
0x80000084: 1b 10 10 ef jal	0x19b0
0x80001a34: 00 00 07 13 mv	a4, zero
0x80001a38: cd 9f f0 6f j	-0x328
0x80001710: fe 01 01 13 addi	sp, sp, -0x20
0x80001714: 01 21 28 23 sw	s2, 0x10(sp)
0x80001718: 01 41 24 23 sw	s4, 8(sp)
0x8000171c: 01 51 22 23 sw	s5, 4(sp)
0x80001720: 01 61 20 23 sw	s6, 0(sp)
0x80001724: 00 11 2e 23 sw	ra, 0x1c(sp)
0x80001728: 00 81 2c 23 sw	s0, 0x18(sp)
0x8000172c: 00 91 2a 23 sw	s1, 0x14(sp)
0x80001730: 01 31 26 23 sw	s3, 0xc(sp)
0x80001734: 00 06 8a 93 mv	s5, a3
0x80001738: 00 05 09 13 mv	s2, a0
0x8000173c: 00 06 0b 13 mv	s6, a2
0x80001740: 00 07 0a 13 mv	s4, a4
0x80001744: 04 05 94 63 bnez	a1, 0x48
0x80001748: 18 06 98 63 bnez	a3, 0x190
0x8000174c: 00 07 08 63 beqz	a4, 0x10
0x8000175c: 03 69 55 33 divu	a0, s2, s6
0x80001760: 00 00 05 93 mv	a1, zero
0x80001764: 01 c1 20 83 lw	ra, 0x1c(sp)
0x80001768: 01 81 24 03 lw	s0, 0x18(sp)
0x8000176c: 01 41 24 83 lw	s1, 0x14(sp)
0x80001770: 01 01 29 03 lw	s2, 0x10(sp)
0x80001774: 00 c1 29 83 lw	s3, 0xc(sp)
0x80001778: 00 81 2a 03 lw	s4, 8(sp)
0x8000177c: 00 41 2a 83 lw	s5, 4(sp)
0x80001780: 00 01 2b 03 lw	s6, 0(sp)
0x80001784: 02 01 01 13 addi	sp, sp, 0x20
0x80001788: 00 00 80 67 ret
0x80000088: fe 85 e0 e3 bltu	a1, s0, -0x20
0x8000008c: 00 b4 14 63 bne	s0, a1, 8
0x80000090: fc 95 6c e3 bltu	a0, s1, -0x28
0x80000068: 00 81 05 93 addi	a1, sp, 8
0x8000006c: 00 60 05 13 addi	a0, zero, 6
0x80000070: 0e 00 10 ef jal	0x10e0
0x80001150: 00 25 15 13 slli	a0, a0, 2
0x80001154: 00 01 07 97 auipc	a5, 0x10
0x80001158: ae 87 87 93 addi	a5, a5, -0x518
0x8000115c: 00 a7 87 b3 add	a5, a5, a0
0x80001160: 00 07 a7 83 lw	a5, 0(a5)
0x80001164: 00 05 85 13 mv	a0, a1
0x80001168: 00 07 80 67 jr	a5
0x8000118c: a0 00 07 b7 lui	a5, 0xa0000
0x80001190: 04 c7 a7 03 lw	a4, 0x4c(a5)
0x80001194: 04 87 a7 83 lw	a5, 0x48(a5)
0x80001198: 00 e5 22 23 sw	a4, 4(a0)
0x8000119c: 00 f5 20 23 sw	a5, 0(a0)
0x800011a0: 00 00 80 67 ret
0x80000074: 00 81 25 03 lw	a0, 8(sp)
0x80000078: 00 c1 25 83 lw	a1, 0xc(sp)
0x8000007c: 00 09 06 13 mv	a2, s2
0x80000080: 00 09 86 93 mv	a3, s3
0x80000084: 1b 10 10 ef jal	0x19b0
0x80001a34: 00 00 07 13 mv	a4, zero
0x80001a38: cd 9f f0 6f j	-0x328
0x80001710: fe 01 01 13 addi	sp, sp, -0x20
0x80001714: 01 21 28 23 sw	s2, 0x10(sp)
0x80001718: 01 41 24 23 sw	s4, 8(sp)
0x8000171c: 01 51 22 23 sw	s5, 4(sp)
0x80001720: 01 61 20 23 sw	s6, 0(sp)
0x80001724: 00 11 2e 23 sw	ra, 0x1c(sp)
0x80001728: 00 81 2c 23 sw	s0, 0x18(sp)
0x8000172c: 00 91 2a 23 sw	s1, 0x14(sp)
0x80001730: 01 31 26 23 sw	s3, 0xc(sp)
0x80001734: 00 06 8a 93 mv	s5, a3
0x80001738: 00 05 09 13 mv	s2, a0
0x8000173c: 00 06 0b 13 mv	s6, a2
0x80001740: 00 07 0a 13 mv	s4, a4
0x80001744: 04 05 94 63 bnez	a1, 0x48
0x80001748: 18 06 98 63 bnez	a3, 0x190
0x8000174c: 00 07 08 63 beqz	a4, 0x10
0x8000175c: 03 69 55 33 divu	a0, s2, s6
0x80001760: 00 00 05 93 mv	a1, zero
0x80001764: 01 c1 20 83 lw	ra, 0x1c(sp)
0x80001768: 01 81 24 03 lw	s0, 0x18(sp)
0x8000176c: 01 41 24 83 lw	s1, 0x14(sp)
0x80001770: 01 01 29 03 lw	s2, 0x10(sp)
0x80001774: 00 c1 29 83 lw	s3, 0xc(sp)
0x80001778: 00 81 2a 03 lw	s4, 8(sp)
0x8000177c: 00 41 2a 83 lw	s5, 4(sp)
0x80001780: 00 01 2b 03 lw	s6, 0(sp)
0x80001784: 02 01 01 13 addi	sp, sp, 0x20
0x80001788: 00 00 80 67 ret
0x80000088: fe 85 e0 e3 bltu	a1, s0, -0x20
0x8000008c: 00 b4 14 63 bne	s0, a1, 8
0x80000090: fc 95 6c e3 bltu	a0, s1, -0x28
0x80000068: 00 81 05 93 addi	a1, sp, 8
0x8000006c: 00 60 05 13 addi	a0, zero, 6
0x80000070: 0e 00 10 ef jal	0x10e0
0x80001150: 00 25 15 13 slli	a0, a0, 2
0x80001154: 00 01 07 97 auipc	a5, 0x10
0x80001158: ae 87 87 93 addi	a5, a5, -0x518
0x8000115c: 00 a7 87 b3 add	a5, a5, a0
0x80001160: 00 07 a7 83 lw	a5, 0(a5)
0x80001164: 00 05 85 13 mv	a0, a1
0x80001168: 00 07 80 67 jr	a5
0x8000118c: a0 00 07 b7 lui	a5, 0xa0000
0x80001190: 04 c7 a7 03 lw	a4, 0x4c(a5)
0x80001194: 04 87 a7 83 lw	a5, 0x48(a5)
0x80001198: 00 e5 22 23 sw	a4, 4(a0)
0x8000119c: 00 f5 20 23 sw	a5, 0(a0)
0x800011a0: 00 00 80 67 ret
0x80000074: 00 81 25 03 lw	a0, 8(sp)
0x80000078: 00 c1 25 83 lw	a1, 0xc(sp)
0x8000007c: 00 09 06 13 mv	a2, s2
0x80000080: 00 09 86 93 mv	a3, s3
0x80000084: 1b 10 10 ef jal	0x19b0
0x80001a34: 00 00 07 13 mv	a4, zero
0x80001a38: cd 9f f0 6f j	-0x328
0x80001710: fe 01 01 13 addi	sp, sp, -0x20
0x80001714: 01 21 28 23 sw	s2, 0x10(sp)
0x80001718: 01 41 24 23 sw	s4, 8(sp)
0x8000171c: 01 51 22 23 sw	s5, 4(sp)
0x80001720: 01 61 20 23 sw	s6, 0(sp)
0x80001724: 00 11 2e 23 sw	ra, 0x1c(sp)
0x80001728: 00 81 2c 23 sw	s0, 0x18(sp)
0x8000172c: 00 91 2a 23 sw	s1, 0x14(sp)
0x80001730: 01 31 26 23 sw	s3, 0xc(sp)
0x80001734: 00 06 8a 93 mv	s5, a3
0x80001738: 00 05 09 13 mv	s2, a0
0x8000173c: 00 06 0b 13 mv	s6, a2
0x80001740: 00 07 0a 13 mv	s4, a4
0x80001744: 04 05 94 63 bnez	a1, 0x48
0x80001748: 18 06 98 63 bnez	a3, 0x190
0x8000174c: 00 07 08 63 beqz	a4, 0x10
0x8000175c: 03 69 55 33 divu	a0, s2, s6
0x80001760: 00 00 05 93 mv	a1, zero
0x80001764: 01 c1 20 83 lw	ra, 0x1c(sp)
0x80001768: 01 81 24 03 lw	s0, 0x18(sp)
0x8000176c: 01 41 24 83 lw	s1, 0x14(sp)
0x80001770: 01 01 29 03 lw	s2, 0x10(sp)
0x80001774: 00 c1 29 83 lw	s3, 0xc(sp)
0x80001778: 00 81 2a 03 lw	s4, 8(sp)
0x8000177c: 00 41 2a 83 lw	s5, 4(sp)
0x80001780: 00 01 2b 03 lw	s6, 0(sp)
0x80001784: 02 01 01 13 addi	sp, sp, 0x20
0x80001788: 00 00 80 67 ret
0x80000088: fe 85 e0 e3 bltu	a1, s0, -0x20
0x8000008c: 00 b4 14 63 bne	s0, a1, 8
0x80000090: fc 95 6c e3 bltu	a0, s1, -0x28
0x80000068: 00 81 05 93 addi	a1, sp, 8
0x8000006c: 00 60 05 13 addi	a0, zero, 6
0x80000070: 0e 00 10 ef jal	0x10e0
0x80001150: 00 25 15 13 slli	a0, a0, 2
0x80001154: 00 01 07 97 auipc	a5, 0x10
0x80001158: ae 87 87 93 addi	a5, a5, -0x518
0x8000115c: 00 a7 87 b3 add	a5, a5, a0
0x80001160: 00 07 a7 83 lw	a5, 0(a5)
0x80001164: 00 05 85 13 mv	a0, a1
0x80001168: 00 07 80 67 jr	a5
0x8000118c: a0 00 07 b7 lui	a5, 0xa0000
0x80001190: 04 c7 a7 03 lw	a4, 0x4c(a5)
0x80001194: 04 87 a7 83 lw	a5, 0x48(a5)
0x80001198: 00 e5 22 23 sw	a4, 4(a0)
0x8000119c: 00 f5 20 23 sw	a5, 0(a0)
0x800011a0: 00 00 80 67 ret
0x80000074: 00 81 25 03 lw	a0, 8(sp)
0x80000078: 00 c1 25 83 lw	a1, 0xc(sp)
0x8000007c: 00 09 06 13 mv	a2, s2
0x80000080: 00 09 86 93 mv	a3, s3
0x80000084: 1b 10 10 ef jal	0x19b0
0x80001a34: 00 00 07 13 mv	a4, zero
0x80001a38: cd 9f f0 6f j	-0x328
0x80001710: fe 01 01 13 addi	sp, sp, -0x20
0x80001714: 01 21 28 23 sw	s2, 0x10(sp)
0x80001718: 01 41 24 23 sw	s4, 8(sp)
0x8000171c: 01 51 22 23 sw	s5, 4(sp)
0x80001720: 01 61 20 23 sw	s6, 0(sp)
0x80001724: 00 11 2e 23 sw	ra, 0x1c(sp)
0x80001728: 00 81 2c 23 sw	s0, 0x18(sp)
0x8000172c: 00 91 2a 23 sw	s1, 0x14(sp)
0x80001730: 01 31 26 23 sw	s3, 0xc(sp)
0x80001734: 00 06 8a 93 mv	s5, a3
0x80001738: 00 05 09 13 mv	s2, a0
0x8000173c: 00 06 0b 13 mv	s6, a2
0x80001740: 00 07 0a 13 mv	s4, a4
0x80001744: 04 05 94 63 bnez	a1, 0x48
0x80001748: 18 06 98 63 bnez	a3, 0x190
0x8000174c: 00 07 08 63 beqz	a4, 0x10
0x8000175c: 03 69 55 33 divu	a0, s2, s6
0x80001760: 00 00 05 93 mv	a1, zero
0x80001764: 01 c1 20 83 lw	ra, 0x1c(sp)
0x80001768: 01 81 24 03 lw	s0, 0x18(sp)
0x8000176c: 01 41 24 83 lw	s1, 0x14(sp)
0x80001770: 01 01 29 03 lw	s2, 0x10(sp)
0x80001774: 00 c1 29 83 lw	s3, 0xc(sp)
0x80001778: 00 81 2a 03 lw	s4, 8(sp)
0x8000177c: 00 41 2a 83 lw	s5, 4(sp)
0x80001780: 00 01 2b 03 lw	s6, 0(sp)
0x80001784: 02 01 01 13 addi	sp, sp, 0x20
0x80001788: 00 00 80 67 ret
0x80000088: fe 85 e0 e3 bltu	a1, s0, -0x20
0x8000008c: 00 b4 14 63 bne	s0, a1, 8
0x80000090: fc 95 6c e3 bltu	a0, s1, -0x28
0x80000068: 00 81 05 93 addi	a1, sp, 8
0x8000006c: 00 60 05 13 addi	a0, zero, 6
0x80000070: 0e 00 10 ef jal	0x10e0
0x80001150: 00 25 15 13 slli	a0, a0, 2
0x80001154: 00 01 07 97 auipc	a5, 0x10
0x80001158: ae 87 87 93 addi	a5, a5, -0x518
0x8000115c: 00 a7 87 b3 add	a5, a5, a0
0x80001160: 00 07 a7 83 lw	a5, 0(a5)
0x80001164: 00 05 85 13 mv	a0, a1
0x80001168: 00 07 80 67 jr	a5
0x8000118c: a0 00 07 b7 lui	a5, 0xa0000
0x80001190: 04 c7 a7 03 lw	a4, 0x4c(a5)
0x80001194: 04 87 a7 83 lw	a5, 0x48(a5)
0x80001198: 00 e5 22 23 sw	a4, 4(a0)
0x8000119c: 00 f5 20 23 sw	a5, 0(a0)
0x800011a0: 00 00 80 67 ret
0x80000074: 00 81 25 03 lw	a0, 8(sp)
0x80000078: 00 c1 25 83 lw	a1, 0xc(sp)
0x8000007c: 00 09 06 13 mv	a2, s2
0x80000080: 00 09 86 93 mv	a3, s3
0x80000084: 1b 10 10 ef jal	0x19b0
0x80001a34: 00 00 07 13 mv	a4, zero
0x80001a38: cd 9f f0 6f j	-0x328
0x80001710: fe 01 01 13 addi	sp, sp, -0x20
0x80001714: 01 21 28 23 sw	s2, 0x10(sp)
0x80001718: 01 41 24 23 sw	s4, 8(sp)
0x8000171c: 01 51 22 23 sw	s5, 4(sp)
0x80001720: 01 61 20 23 sw	s6, 0(sp)
0x80001724: 00 11 2e 23 sw	ra, 0x1c(sp)
0x80001728: 00 81 2c 23 sw	s0, 0x18(sp)
0x8000172c: 00 91 2a 23 sw	s1, 0x14(sp)
0x80001730: 01 31 26 23 sw	s3, 0xc(sp)
0x80001734: 00 06 8a 93 mv	s5, a3
0x80001738: 00 05 09 13 mv	s2, a0
0x8000173c: 00 06 0b 13 mv	s6, a2
0x80001740: 00 07 0a 13 mv	s4, a4
0x80001744: 04 05 94 63 bnez	a1, 0x48
0x80001748: 18 06 98 63 bnez	a3, 0x190
0x8000174c: 00 07 08 63 beqz	a4, 0x10
0x8000175c: 03 69 55 33 divu	a0, s2, s6
0x80001760: 00 00 05 93 mv	a1, zero
0x80001764: 01 c1 20 83 lw	ra, 0x1c(sp)
0x80001768: 01 81 24 03 lw	s0, 0x18(sp)
0x8000176c: 01 41 24 83 lw	s1, 0x14(sp)
0x80001770: 01 01 29 03 lw	s2, 0x10(sp)
0x80001774: 00 c1 29 83 lw	s3, 0xc(sp)
0x80001778: 00 81 2a 03 lw	s4, 8(sp)
0x8000177c: 00 41 2a 83 lw	s5, 4(sp)
0x80001780: 00 01 2b 03 lw	s6, 0(sp)
0x80001784: 02 01 01 13 addi	sp, sp, 0x20
0x80001788: 00 00 80 67 ret
0x80000088: fe 85 e0 e3 bltu	a1, s0, -0x20
0x8000008c: 00 b4 14 63 bne	s0, a1, 8
0x80000090: fc 95 6c e3 bltu	a0, s1, -0x28
0x80000068: 00 81 05 93 addi	a1, sp, 8
0x8000006c: 00 60 05 13 addi	a0, zero, 6
0x80000070: 0e 00 10 ef jal	0x10e0
0x80001150: 00 25 15 13 slli	a0, a0, 2
0x80001154: 00 01 07 97 auipc	a5, 0x10
0x80001158: ae 87 87 93 addi	a5, a5, -0x518
0x8000115c: 00 a7 87 b3 add	a5, a5, a0
0x80001160: 00 07 a7 83 lw	a5, 0(a5)
0x80001164: 00 05 85 13 mv	a0, a1
0x80001168: 00 07 80 67 jr	a5
0x8000118c: a0 00 07 b7 lui	a5, 0xa0000
0x80001190: 04 c7 a7 03 lw	a4, 0x4c(a5)
0x80001194: 04 87 a7 83 lw	a5, 0x48(a5)
0x80001198: 00 e5 22 23 sw	a4, 4(a0)
0x8000119c: 00 f5 20 23 sw	a5, 0(a0)
0x800011a0: 00 00 80 67 ret
0x80000074: 00 81 25 03 lw	a0, 8(sp)
0x80000078: 00 c1 25 83 lw	a1, 0xc(sp)
0x8000007c: 00 09 06 13 mv	a2, s2
0x80000080: 00 09 86 93 mv	a3, s3
0x80000084: 1b 10 10 ef jal	0x19b0
0x80001a34: 00 00 07 13 mv	a4, zero
0x80001a38: cd 9f f0 6f j	-0x328
0x80001710: fe 01 01 13 addi	sp, sp, -0x20
0x80001714: 01 21 28 23 sw	s2, 0x10(sp)
0x80001718: 01 41 24 23 sw	s4, 8(sp)
0x8000171c: 01 51 22 23 sw	s5, 4(sp)
0x80001720: 01 61 20 23 sw	s6, 0(sp)
0x80001724: 00 11 2e 23 sw	ra, 0x1c(sp)
0x80001728: 00 81 2c 23 sw	s0, 0x18(sp)
0x8000172c: 00 91 2a 23 sw	s1, 0x14(sp)
0x80001730: 01 31 26 23 sw	s3, 0xc(sp)
0x80001734: 00 06 8a 93 mv	s5, a3
0x80001738: 00 05 09 13 mv	s2, a0
0x8000173c: 00 06 0b 13 mv	s6, a2
0x80001740: 00 07 0a 13 mv	s4, a4
0x80001744: 04 05 94 63 bnez	a1, 0x48
0x80001748: 18 06 98 63 bnez	a3, 0x190
0x8000174c: 00 07 08 63 beqz	a4, 0x10
0x8000175c: 03 69 55 33 divu	a0, s2, s6
0x80001760: 00 00 05 93 mv	a1, zero
0x80001764: 01 c1 20 83 lw	ra, 0x1c(sp)
0x80001768: 01 81 24 03 lw	s0, 0x18(sp)
0x8000176c: 01 41 24 83 lw	s1, 0x14(sp)
0x80001770: 01 01 29 03 lw	s2, 0x10(sp)
0x80001774: 00 c1 29 83 lw	s3, 0xc(sp)
0x80001778: 00 81 2a 03 lw	s4, 8(sp)
0x8000177c: 00 41 2a 83 lw	s5, 4(sp)
0x80001780: 00 01 2b 03 lw	s6, 0(sp)
0x80001784: 02 01 01 13 addi	sp, sp, 0x20
0x80001788: 00 00 80 67 ret
0x80000088: fe 85 e0 e3 bltu	a1, s0, -0x20
0x8000008c: 00 b4 14 63 bne	s0, a1, 8
0x80000090: fc 95 6c e3 bltu	a0, s1, -0x28
0x80000068: 00 81 05 93 addi	a1, sp, 8
0x8000006c: 00 60 05 13 addi	a0, zero, 6
0x80000070: 0e 00 10 ef jal	0x10e0
0x80001150: 00 25 15 13 slli	a0, a0, 2
0x80001154: 00 01 07 97 auipc	a5, 0x10
0x80001158: ae 87 87 93 addi	a5, a5, -0x518
0x8000115c: 00 a7 87 b3 add	a5, a5, a0
0x80001160: 00 07 a7 83 lw	a5, 0(a5)
0x80001164: 00 05 85 13 mv	a0, a1
0x80001168: 00 07 80 67 jr	a5
0x8000118c: a0 00 07 b7 lui	a5, 0xa0000
0x80001190: 04 c7 a7 03 lw	a4, 0x4c(a5)
0x80001194: 04 87 a7 83 lw	a5, 0x48(a5)
0x80001198: 00 e5 22 23 sw	a4, 4(a0)
0x8000119c: 00 f5 20 23 sw	a5, 0(a0)
0x800011a0: 00 00 80 67 ret
0x80000074: 00 81 25 03 lw	a0, 8(sp)
0x80000078: 00 c1 25 83 lw	a1, 0xc(sp)
0x8000007c: 00 09 06 13 mv	a2, s2
0x80000080: 00 09 86 93 mv	a3, s3
0x80000084: 1b 10 10 ef jal	0x19b0
0x80001a34: 00 00 07 13 mv	a4, zero
0x80001a38: cd 9f f0 6f j	-0x328
0x80001710: fe 01 01 13 addi	sp, sp, -0x20
0x80001714: 01 21 28 23 sw	s2, 0x10(sp)
0x80001718: 01 41 24 23 sw	s4, 8(sp)
0x8000171c: 01 51 22 23 sw	s5, 4(sp)
0x80001720: 01 61 20 23 sw	s6, 0(sp)
0x80001724: 00 11 2e 23 sw	ra, 0x1c(sp)
0x80001728: 00 81 2c 23 sw	s0, 0x18(sp)
0x8000172c: 00 91 2a 23 sw	s1, 0x14(sp)
0x80001730: 01 31 26 23 sw	s3, 0xc(sp)
0x80001734: 00 06 8a 93 mv	s5, a3
0x80001738: 00 05 09 13 mv	s2, a0
0x8000173c: 00 06 0b 13 mv	s6, a2
0x80001740: 00 07 0a 13 mv	s4, a4
0x80001744: 04 05 94 63 bnez	a1, 0x48
0x80001748: 18 06 98 63 bnez	a3, 0x190
0x8000174c: 00 07 08 63 beqz	a4, 0x10
0x8000175c: 03 69 55 33 divu	a0, s2, s6
0x80001760: 00 00 05 93 mv	a1, zero
0x80001764: 01 c1 20 83 lw	ra, 0x1c(sp)
0x80001768: 01 81 24 03 lw	s0, 0x18(sp)
0x8000176c: 01 41 24 83 lw	s1, 0x14(sp)
0x80001770: 01 01 29 03 lw	s2, 0x10(sp)
0x80001774: 00 c1 29 83 lw	s3, 0xc(sp)
0x80001778: 00 81 2a 03 lw	s4, 8(sp)
0x8000177c: 00 41 2a 83 lw	s5, 4(sp)
0x80001780: 00 01 2b 03 lw	s6, 0(sp)
0x80001784: 02 01 01 13 addi	sp, sp, 0x20
0x80001788: 00 00 80 67 ret
0x80000088: fe 85 e0 e3 bltu	a1, s0, -0x20
0x8000008c: 00 b4 14 63 bne	s0, a1, 8
0x80000090: fc 95 6c e3 bltu	a0, s1, -0x28
0x80000068: 00 81 05 93 addi	a1, sp, 8
0x8000006c: 00 60 05 13 addi	a0, zero, 6
0x80000070: 0e 00 10 ef jal	0x10e0
0x80001150: 00 25 15 13 slli	a0, a0, 2
0x80001154: 00 01 07 97 auipc	a5, 0x10
0x80001158: ae 87 87 93 addi	a5, a5, -0x518
0x8000115c: 00 a7 87 b3 add	a5, a5, a0
0x80001160: 00 07 a7 83 lw	a5, 0(a5)
0x80001164: 00 05 85 13 mv	a0, a1
0x80001168: 00 07 80 67 jr	a5
0x8000118c: a0 00 07 b7 lui	a5, 0xa0000
0x80001190: 04 c7 a7 03 lw	a4, 0x4c(a5)
0x80001194: 04 87 a7 83 lw	a5, 0x48(a5)
0x80001198: 00 e5 22 23 sw	a4, 4(a0)
0x8000119c: 00 f5 20 23 sw	a5, 0(a0)
0x800011a0: 00 00 80 67 ret
0x80000074: 00 81 25 03 lw	a0, 8(sp)
0x80000078: 00 c1 25 83 lw	a1, 0xc(sp)
0x8000007c: 00 09 06 13 mv	a2, s2
0x80000080: 00 09 86 93 mv	a3, s3
0x80000084: 1b 10 10 ef jal	0x19b0
0x80001a34: 00 00 07 13 mv	a4, zero
0x80001a38: cd 9f f0 6f j	-0x328
0x80001710: fe 01 01 13 addi	sp, sp, -0x20
0x80001714: 01 21 28 23 sw	s2, 0x10(sp)
0x80001718: 01 41 24 23 sw	s4, 8(sp)
0x8000171c: 01 51 22 23 sw	s5, 4(sp)
0x80001720: 01 61 20 23 sw	s6, 0(sp)
0x80001724: 00 11 2e 23 sw	ra, 0x1c(sp)
0x80001728: 00 81 2c 23 sw	s0, 0x18(sp)
0x8000172c: 00 91 2a 23 sw	s1, 0x14(sp)
0x80001730: 01 31 26 23 sw	s3, 0xc(sp)
0x80001734: 00 06 8a 93 mv	s5, a3
0x80001738: 00 05 09 13 mv	s2, a0
0x8000173c: 00 06 0b 13 mv	s6, a2
0x80001740: 00 07 0a 13 mv	s4, a4
0x80001744: 04 05 94 63 bnez	a1, 0x48
0x80001748: 18 06 98 63 bnez	a3, 0x190
0x8000174c: 00 07 08 63 beqz	a4, 0x10
0x8000175c: 03 69 55 33 divu	a0, s2, s6
0x80001760: 00 00 05 93 mv	a1, zero
0x80001764: 01 c1 20 83 lw	ra, 0x1c(sp)
0x80001768: 01 81 24 03 lw	s0, 0x18(sp)
0x8000176c: 01 41 24 83 lw	s1, 0x14(sp)
0x80001770: 01 01 29 03 lw	s2, 0x10(sp)
0x80001774: 00 c1 29 83 lw	s3, 0xc(sp)
0x80001778: 00 81 2a 03 lw	s4, 8(sp)
0x8000177c: 00 41 2a 83 lw	s5, 4(sp)
0x80001780: 00 01 2b 03 lw	s6, 0(sp)
0x80001784: 02 01 01 13 addi	sp, sp, 0x20
0x80001788: 00 00 80 67 ret
0x80000088: fe 85 e0 e3 bltu	a1, s0, -0x20
0x8000008c: 00 b4 14 63 bne	s0, a1, 8
0x80000090: fc 95 6c e3 bltu	a0, s1, -0x28
0x80000068: 00 81 05 93 addi	a1, sp, 8
0x8000006c: 00 60 05 13 addi	a0, zero, 6
0x80000070: 0e 00 10 ef jal	0x10e0
0x80001150: 00 25 15 13 slli	a0, a0, 2
0x80001154: 00 01 07 97 auipc	a5, 0x10
0x80001158: ae 87 87 93 addi	a5, a5, -0x518
0x8000115c: 00 a7 87 b3 add	a5, a5, a0
0x80001160: 00 07 a7 83 lw	a5, 0(a5)
0x80001164: 00 05 85 13 mv	a0, a1
0x80001168: 00 07 80 67 jr	a5
0x8000118c: a0 00 07 b7 lui	a5, 0xa0000
0x80001190: 04 c7 a7 03 lw	a4, 0x4c(a5)
0x80001194: 04 87 a7 83 lw	a5, 0x48(a5)
0x80001198: 00 e5 22 23 sw	a4, 4(a0)
0x8000119c: 00 f5 20 23 sw	a5, 0(a0)
0x800011a0: 00 00 80 67 ret
0x80000074: 00 81 25 03 lw	a0, 8(sp)
0x80000078: 00 c1 25 83 lw	a1, 0xc(sp)
0x8000007c: 00 09 06 13 mv	a2, s2
0x80000080: 00 09 86 93 mv	a3, s3
0x80000084: 1b 10 10 ef jal	0x19b0
0x80001a34: 00 00 07 13 mv	a4, zero
0x80001a38: cd 9f f0 6f j	-0x328
0x80001710: fe 01 01 13 addi	sp, sp, -0x20
0x80001714: 01 21 28 23 sw	s2, 0x10(sp)
0x80001718: 01 41 24 23 sw	s4, 8(sp)
0x8000171c: 01 51 22 23 sw	s5, 4(sp)
0x80001720: 01 61 20 23 sw	s6, 0(sp)
0x80001724: 00 11 2e 23 sw	ra, 0x1c(sp)
0x80001728: 00 81 2c 23 sw	s0, 0x18(sp)
0x8000172c: 00 91 2a 23 sw	s1, 0x14(sp)
0x80001730: 01 31 26 23 sw	s3, 0xc(sp)
0x80001734: 00 06 8a 93 mv	s5, a3
0x80001738: 00 05 09 13 mv	s2, a0
0x8000173c: 00 06 0b 13 mv	s6, a2
0x80001740: 00 07 0a 13 mv	s4, a4
0x80001744: 04 05 94 63 bnez	a1, 0x48
0x80001748: 18 06 98 63 bnez	a3, 0x190
0x8000174c: 00 07 08 63 beqz	a4, 0x10
0x8000175c: 03 69 55 33 divu	a0, s2, s6
0x80001760: 00 00 05 93 mv	a1, zero
0x80001764: 01 c1 20 83 lw	ra, 0x1c(sp)
0x80001768: 01 81 24 03 lw	s0, 0x18(sp)
0x8000176c: 01 41 24 83 lw	s1, 0x14(sp)
0x80001770: 01 01 29 03 lw	s2, 0x10(sp)
0x80001774: 00 c1 29 83 lw	s3, 0xc(sp)
0x80001778: 00 81 2a 03 lw	s4, 8(sp)
0x8000177c: 00 41 2a 83 lw	s5, 4(sp)
0x80001780: 00 01 2b 03 lw	s6, 0(sp)
0x80001784: 02 01 01 13 addi	sp, sp, 0x20
0x80001788: 00 00 80 67 ret
0x80000088: fe 85 e0 e3 bltu	a1, s0, -0x20
0x8000008c: 00 b4 14 63 bne	s0, a1, 8
0x80000090: fc 95 6c e3 bltu	a0, s1, -0x28
0x80000068: 00 81 05 93 addi	a1, sp, 8
0x8000006c: 00 60 05 13 addi	a0, zero, 6
0x80000070: 0e 00 10 ef jal	0x10e0
0x80001150: 00 25 15 13 slli	a0, a0, 2
0x80001154: 00 01 07 97 auipc	a5, 0x10
0x80001158: ae 87 87 93 addi	a5, a5, -0x518
0x8000115c: 00 a7 87 b3 add	a5, a5, a0
0x80001160: 00 07 a7 83 lw	a5, 0(a5)
0x80001164: 00 05 85 13 mv	a0, a1
0x80001168: 00 07 80 67 jr	a5
0x8000118c: a0 00 07 b7 lui	a5, 0xa0000
0x80001190: 04 c7 a7 03 lw	a4, 0x4c(a5)
0x80001194: 04 87 a7 83 lw	a5, 0x48(a5)
0x80001198: 00 e5 22 23 sw	a4, 4(a0)
0x8000119c: 00 f5 20 23 sw	a5, 0(a0)
0x800011a0: 00 00 80 67 ret
0x80000074: 00 81 25 03 lw	a0, 8(sp)
0x80000078: 00 c1 25 83 lw	a1, 0xc(sp)
0x8000007c: 00 09 06 13 mv	a2, s2
0x80000080: 00 09 86 93 mv	a3, s3
0x80000084: 1b 10 10 ef jal	0x19b0
0x80001a34: 00 00 07 13 mv	a4, zero
0x80001a38: cd 9f f0 6f j	-0x328
0x80001710: fe 01 01 13 addi	sp, sp, -0x20
0x80001714: 01 21 28 23 sw	s2, 0x10(sp)
0x80001718: 01 41 24 23 sw	s4, 8(sp)
0x8000171c: 01 51 22 23 sw	s5, 4(sp)
0x80001720: 01 61 20 23 sw	s6, 0(sp)
0x80001724: 00 11 2e 23 sw	ra, 0x1c(sp)
0x80001728: 00 81 2c 23 sw	s0, 0x18(sp)
0x8000172c: 00 91 2a 23 sw	s1, 0x14(sp)
0x80001730: 01 31 26 23 sw	s3, 0xc(sp)
0x80001734: 00 06 8a 93 mv	s5, a3
0x80001738: 00 05 09 13 mv	s2, a0
0x8000173c: 00 06 0b 13 mv	s6, a2
0x80001740: 00 07 0a 13 mv	s4, a4
0x80001744: 04 05 94 63 bnez	a1, 0x48
0x80001748: 18 06 98 63 bnez	a3, 0x190
0x8000174c: 00 07 08 63 beqz	a4, 0x10
0x8000175c: 03 69 55 33 divu	a0, s2, s6
0x80001760: 00 00 05 93 mv	a1, zero
0x80001764: 01 c1 20 83 lw	ra, 0x1c(sp)
0x80001768: 01 81 24 03 lw	s0, 0x18(sp)
0x8000176c: 01 41 24 83 lw	s1, 0x14(sp)
0x80001770: 01 01 29 03 lw	s2, 0x10(sp)
0x80001774: 00 c1 29 83 lw	s3, 0xc(sp)
0x80001778: 00 81 2a 03 lw	s4, 8(sp)
0x8000177c: 00 41 2a 83 lw	s5, 4(sp)
0x80001780: 00 01 2b 03 lw	s6, 0(sp)
0x80001784: 02 01 01 13 addi	sp, sp, 0x20
0x80001788: 00 00 80 67 ret
0x80000088: fe 85 e0 e3 bltu	a1, s0, -0x20
0x8000008c: 00 b4 14 63 bne	s0, a1, 8
0x80000090: fc 95 6c e3 bltu	a0, s1, -0x28
0x80000068: 00 81 05 93 addi	a1, sp, 8
0x8000006c: 00 60 05 13 addi	a0, zero, 6
0x80000070: 0e 00 10 ef jal	0x10e0
0x80001150: 00 25 15 13 slli	a0, a0, 2
0x80001154: 00 01 07 97 auipc	a5, 0x10
0x80001158: ae 87 87 93 addi	a5, a5, -0x518
0x8000115c: 00 a7 87 b3 add	a5, a5, a0
0x80001160: 00 07 a7 83 lw	a5, 0(a5)
0x80001164: 00 05 85 13 mv	a0, a1
0x80001168: 00 07 80 67 jr	a5
0x8000118c: a0 00 07 b7 lui	a5, 0xa0000
0x80001190: 04 c7 a7 03 lw	a4, 0x4c(a5)
0x80001194: 04 87 a7 83 lw	a5, 0x48(a5)
0x80001198: 00 e5 22 23 sw	a4, 4(a0)
0x8000119c: 00 f5 20 23 sw	a5, 0(a0)
0x800011a0: 00 00 80 67 ret
0x80000074: 00 81 25 03 lw	a0, 8(sp)
0x80000078: 00 c1 25 83 lw	a1, 0xc(sp)
0x8000007c: 00 09 06 13 mv	a2, s2
0x80000080: 00 09 86 93 mv	a3, s3
0x80000084: 1b 10 10 ef jal	0x19b0
0x80001a34: 00 00 07 13 mv	a4, zero
0x80001a38: cd 9f f0 6f j	-0x328
0x80001710: fe 01 01 13 addi	sp, sp, -0x20
0x80001714: 01 21 28 23 sw	s2, 0x10(sp)
0x80001718: 01 41 24 23 sw	s4, 8(sp)
0x8000171c: 01 51 22 23 sw	s5, 4(sp)
0x80001720: 01 61 20 23 sw	s6, 0(sp)
0x80001724: 00 11 2e 23 sw	ra, 0x1c(sp)
0x80001728: 00 81 2c 23 sw	s0, 0x18(sp)
0x8000172c: 00 91 2a 23 sw	s1, 0x14(sp)
0x80001730: 01 31 26 23 sw	s3, 0xc(sp)
0x80001734: 00 06 8a 93 mv	s5, a3
0x80001738: 00 05 09 13 mv	s2, a0
0x8000173c: 00 06 0b 13 mv	s6, a2
0x80001740: 00 07 0a 13 mv	s4, a4
0x80001744: 04 05 94 63 bnez	a1, 0x48
0x80001748: 18 06 98 63 bnez	a3, 0x190
0x8000174c: 00 07 08 63 beqz	a4, 0x10
0x8000175c: 03 69 55 33 divu	a0, s2, s6
0x80001760: 00 00 05 93 mv	a1, zero
0x80001764: 01 c1 20 83 lw	ra, 0x1c(sp)
0x80001768: 01 81 24 03 lw	s0, 0x18(sp)
0x8000176c: 01 41 24 83 lw	s1, 0x14(sp)
0x80001770: 01 01 29 03 lw	s2, 0x10(sp)
0x80001774: 00 c1 29 83 lw	s3, 0xc(sp)
0x80001778: 00 81 2a 03 lw	s4, 8(sp)
0x8000177c: 00 41 2a 83 lw	s5, 4(sp)
0x80001780: 00 01 2b 03 lw	s6, 0(sp)
0x80001784: 02 01 01 13 addi	sp, sp, 0x20
0x80001788: 00 00 80 67 ret
0x80000088: fe 85 e0 e3 bltu	a1, s0, -0x20
0x8000008c: 00 b4 14 63 bne	s0, a1, 8
0x80000090: fc 95 6c e3 bltu	a0, s1, -0x28
0x80000068: 00 81 05 93 addi	a1, sp, 8
0x8000006c: 00 60 05 13 addi	a0, zero, 6
0x80000070: 0e 00 10 ef jal	0x10e0
0x80001150: 00 25 15 13 slli	a0, a0, 2
0x80001154: 00 01 07 97 auipc	a5, 0x10
0x80001158: ae 87 87 93 addi	a5, a5, -0x518
0x8000115c: 00 a7 87 b3 add	a5, a5, a0
0x80001160: 00 07 a7 83 lw	a5, 0(a5)
0x80001164: 00 05 85 13 mv	a0, a1
0x80001168: 00 07 80 67 jr	a5
0x8000118c: a0 00 07 b7 lui	a5, 0xa0000
0x80001190: 04 c7 a7 03 lw	a4, 0x4c(a5)
0x80001194: 04 87 a7 83 lw	a5, 0x48(a5)
0x80001198: 00 e5 22 23 sw	a4, 4(a0)
0x8000119c: 00 f5 20 23 sw	a5, 0(a0)
0x800011a0: 00 00 80 67 ret
0x80000074: 00 81 25 03 lw	a0, 8(sp)
0x80000078: 00 c1 25 83 lw	a1, 0xc(sp)
0x8000007c: 00 09 06 13 mv	a2, s2
0x80000080: 00 09 86 93 mv	a3, s3
0x80000084: 1b 10 10 ef jal	0x19b0
0x80001a34: 00 00 07 13 mv	a4, zero
0x80001a38: cd 9f f0 6f j	-0x328
0x80001710: fe 01 01 13 addi	sp, sp, -0x20
0x80001714: 01 21 28 23 sw	s2, 0x10(sp)
0x80001718: 01 41 24 23 sw	s4, 8(sp)
0x8000171c: 01 51 22 23 sw	s5, 4(sp)
0x80001720: 01 61 20 23 sw	s6, 0(sp)
0x80001724: 00 11 2e 23 sw	ra, 0x1c(sp)
0x80001728: 00 81 2c 23 sw	s0, 0x18(sp)
0x8000172c: 00 91 2a 23 sw	s1, 0x14(sp)
0x80001730: 01 31 26 23 sw	s3, 0xc(sp)
0x80001734: 00 06 8a 93 mv	s5, a3
0x80001738: 00 05 09 13 mv	s2, a0
0x8000173c: 00 06 0b 13 mv	s6, a2
0x80001740: 00 07 0a 13 mv	s4, a4
0x80001744: 04 05 94 63 bnez	a1, 0x48
0x80001748: 18 06 98 63 bnez	a3, 0x190
0x8000174c: 00 07 08 63 beqz	a4, 0x10
0x8000175c: 03 69 55 33 divu	a0, s2, s6
0x80001760: 00 00 05 93 mv	a1, zero
0x80001764: 01 c1 20 83 lw	ra, 0x1c(sp)
0x80001768: 01 81 24 03 lw	s0, 0x18(sp)
0x8000176c: 01 41 24 83 lw	s1, 0x14(sp)
0x80001770: 01 01 29 03 lw	s2, 0x10(sp)
0x80001774: 00 c1 29 83 lw	s3, 0xc(sp)
0x80001778: 00 81 2a 03 lw	s4, 8(sp)
0x8000177c: 00 41 2a 83 lw	s5, 4(sp)
0x80001780: 00 01 2b 03 lw	s6, 0(sp)
0x80001784: 02 01 01 13 addi	sp, sp, 0x20
0x80001788: 00 00 80 67 ret
0x80000088: fe 85 e0 e3 bltu	a1, s0, -0x20
0x8000008c: 00 b4 14 63 bne	s0, a1, 8
0x80000090: fc 95 6c e3 bltu	a0, s1, -0x28
0x80000068: 00 81 05 93 addi	a1, sp, 8
0x8000006c: 00 60 05 13 addi	a0, zero, 6
0x80000070: 0e 00 10 ef jal	0x10e0
0x80001150: 00 25 15 13 slli	a0, a0, 2
0x80001154: 00 01 07 97 auipc	a5, 0x10
0x80001158: ae 87 87 93 addi	a5, a5, -0x518
0x8000115c: 00 a7 87 b3 add	a5, a5, a0
0x80001160: 00 07 a7 83 lw	a5, 0(a5)
0x80001164: 00 05 85 13 mv	a0, a1
0x80001168: 00 07 80 67 jr	a5
0x8000118c: a0 00 07 b7 lui	a5, 0xa0000
0x80001190: 04 c7 a7 03 lw	a4, 0x4c(a5)
0x80001194: 04 87 a7 83 lw	a5, 0x48(a5)
0x80001198: 00 e5 22 23 sw	a4, 4(a0)
0x8000119c: 00 f5 20 23 sw	a5, 0(a0)
0x800011a0: 00 00 80 67 ret
0x80000074: 00 81 25 03 lw	a0, 8(sp)
0x80000078: 00 c1 25 83 lw	a1, 0xc(sp)
0x8000007c: 00 09 06 13 mv	a2, s2
0x80000080: 00 09 86 93 mv	a3, s3
0x80000084: 1b 10 10 ef jal	0x19b0
0x80001a34: 00 00 07 13 mv	a4, zero
0x80001a38: cd 9f f0 6f j	-0x328
0x80001710: fe 01 01 13 addi	sp, sp, -0x20
0x80001714: 01 21 28 23 sw	s2, 0x10(sp)
0x80001718: 01 41 24 23 sw	s4, 8(sp)
0x8000171c: 01 51 22 23 sw	s5, 4(sp)
0x80001720: 01 61 20 23 sw	s6, 0(sp)
0x80001724: 00 11 2e 23 sw	ra, 0x1c(sp)
0x80001728: 00 81 2c 23 sw	s0, 0x18(sp)
0x8000172c: 00 91 2a 23 sw	s1, 0x14(sp)
0x80001730: 01 31 26 23 sw	s3, 0xc(sp)
0x80001734: 00 06 8a 93 mv	s5, a3
0x80001738: 00 05 09 13 mv	s2, a0
0x8000173c: 00 06 0b 13 mv	s6, a2
0x80001740: 00 07 0a 13 mv	s4, a4
0x80001744: 04 05 94 63 bnez	a1, 0x48
0x80001748: 18 06 98 63 bnez	a3, 0x190
0x8000174c: 00 07 08 63 beqz	a4, 0x10
0x8000175c: 03 69 55 33 divu	a0, s2, s6
0x80001760: 00 00 05 93 mv	a1, zero
0x80001764: 01 c1 20 83 lw	ra, 0x1c(sp)
0x80001768: 01 81 24 03 lw	s0, 0x18(sp)
0x8000176c: 01 41 24 83 lw	s1, 0x14(sp)
0x80001770: 01 01 29 03 lw	s2, 0x10(sp)
0x80001774: 00 c1 29 83 lw	s3, 0xc(sp)
0x80001778: 00 81 2a 03 lw	s4, 8(sp)
0x8000177c: 00 41 2a 83 lw	s5, 4(sp)
0x80001780: 00 01 2b 03 lw	s6, 0(sp)
0x80001784: 02 01 01 13 addi	sp, sp, 0x20
0x80001788: 00 00 80 67 ret
0x80000088: fe 85 e0 e3 bltu	a1, s0, -0x20
0x8000008c: 00 b4 14 63 bne	s0, a1, 8
0x80000090: fc 95 6c e3 bltu	a0, s1, -0x28
0x80000068: 00 81 05 93 addi	a1, sp, 8
0x8000006c: 00 60 05 13 addi	a0, zero, 6
0x80000070: 0e 00 10 ef jal	0x10e0
0x80001150: 00 25 15 13 slli	a0, a0, 2
0x80001154: 00 01 07 97 auipc	a5, 0x10
0x80001158: ae 87 87 93 addi	a5, a5, -0x518
0x8000115c: 00 a7 87 b3 add	a5, a5, a0
0x80001160: 00 07 a7 83 lw	a5, 0(a5)
0x80001164: 00 05 85 13 mv	a0, a1
0x80001168: 00 07 80 67 jr	a5
0x8000118c: a0 00 07 b7 lui	a5, 0xa0000
0x80001190: 04 c7 a7 03 lw	a4, 0x4c(a5)
0x80001194: 04 87 a7 83 lw	a5, 0x48(a5)
0x80001198: 00 e5 22 23 sw	a4, 4(a0)
0x8000119c: 00 f5 20 23 sw	a5, 0(a0)
0x800011a0: 00 00 80 67 ret
0x80000074: 00 81 25 03 lw	a0, 8(sp)
0x80000078: 00 c1 25 83 lw	a1, 0xc(sp)
0x8000007c: 00 09 06 13 mv	a2, s2
0x80000080: 00 09 86 93 mv	a3, s3
0x80000084: 1b 10 10 ef jal	0x19b0
0x80001a34: 00 00 07 13 mv	a4, zero
0x80001a38: cd 9f f0 6f j	-0x328
0x80001710: fe 01 01 13 addi	sp, sp, -0x20
0x80001714: 01 21 28 23 sw	s2, 0x10(sp)
0x80001718: 01 41 24 23 sw	s4, 8(sp)
0x8000171c: 01 51 22 23 sw	s5, 4(sp)
0x80001720: 01 61 20 23 sw	s6, 0(sp)
0x80001724: 00 11 2e 23 sw	ra, 0x1c(sp)
0x80001728: 00 81 2c 23 sw	s0, 0x18(sp)
0x8000172c: 00 91 2a 23 sw	s1, 0x14(sp)
0x80001730: 01 31 26 23 sw	s3, 0xc(sp)
0x80001734: 00 06 8a 93 mv	s5, a3
0x80001738: 00 05 09 13 mv	s2, a0
0x8000173c: 00 06 0b 13 mv	s6, a2
0x80001740: 00 07 0a 13 mv	s4, a4
0x80001744: 04 05 94 63 bnez	a1, 0x48
0x80001748: 18 06 98 63 bnez	a3, 0x190
0x8000174c: 00 07 08 63 beqz	a4, 0x10
0x8000175c: 03 69 55 33 divu	a0, s2, s6
0x80001760: 00 00 05 93 mv	a1, zero
0x80001764: 01 c1 20 83 lw	ra, 0x1c(sp)
0x80001768: 01 81 24 03 lw	s0, 0x18(sp)
0x8000176c: 01 41 24 83 lw	s1, 0x14(sp)
0x80001770: 01 01 29 03 lw	s2, 0x10(sp)
0x80001774: 00 c1 29 83 lw	s3, 0xc(sp)
0x80001778: 00 81 2a 03 lw	s4, 8(sp)
0x8000177c: 00 41 2a 83 lw	s5, 4(sp)
0x80001780: 00 01 2b 03 lw	s6, 0(sp)
0x80001784: 02 01 01 13 addi	sp, sp, 0x20
0x80001788: 00 00 80 67 ret
0x80000088: fe 85 e0 e3 bltu	a1, s0, -0x20
0x8000008c: 00 b4 14 63 bne	s0, a1, 8
0x80000090: fc 95 6c e3 bltu	a0, s1, -0x28
0x80000068: 00 81 05 93 addi	a1, sp, 8
0x8000006c: 00 60 05 13 addi	a0, zero, 6
0x80000070: 0e 00 10 ef jal	0x10e0
0x80001150: 00 25 15 13 slli	a0, a0, 2
0x80001154: 00 01 07 97 auipc	a5, 0x10
0x80001158: ae 87 87 93 addi	a5, a5, -0x518
0x8000115c: 00 a7 87 b3 add	a5, a5, a0
0x80001160: 00 07 a7 83 lw	a5, 0(a5)
0x80001164: 00 05 85 13 mv	a0, a1
0x80001168: 00 07 80 67 jr	a5
0x8000118c: a0 00 07 b7 lui	a5, 0xa0000
0x80001190: 04 c7 a7 03 lw	a4, 0x4c(a5)
0x80001194: 04 87 a7 83 lw	a5, 0x48(a5)
0x80001198: 00 e5 22 23 sw	a4, 4(a0)
0x8000119c: 00 f5 20 23 sw	a5, 0(a0)
0x800011a0: 00 00 80 67 ret
0x80000074: 00 81 25 03 lw	a0, 8(sp)
0x80000078: 00 c1 25 83 lw	a1, 0xc(sp)
0x8000007c: 00 09 06 13 mv	a2, s2
0x80000080: 00 09 86 93 mv	a3, s3
0x80000084: 1b 10 10 ef jal	0x19b0
0x80001a34: 00 00 07 13 mv	a4, zero
0x80001a38: cd 9f f0 6f j	-0x328
0x80001710: fe 01 01 13 addi	sp, sp, -0x20
0x80001714: 01 21 28 23 sw	s2, 0x10(sp)
0x80001718: 01 41 24 23 sw	s4, 8(sp)
0x8000171c: 01 51 22 23 sw	s5, 4(sp)
0x80001720: 01 61 20 23 sw	s6, 0(sp)
0x80001724: 00 11 2e 23 sw	ra, 0x1c(sp)
0x80001728: 00 81 2c 23 sw	s0, 0x18(sp)
0x8000172c: 00 91 2a 23 sw	s1, 0x14(sp)
0x80001730: 01 31 26 23 sw	s3, 0xc(sp)
0x80001734: 00 06 8a 93 mv	s5, a3
0x80001738: 00 05 09 13 mv	s2, a0
0x8000173c: 00 06 0b 13 mv	s6, a2
0x80001740: 00 07 0a 13 mv	s4, a4
0x80001744: 04 05 94 63 bnez	a1, 0x48
0x80001748: 18 06 98 63 bnez	a3, 0x190
0x8000174c: 00 07 08 63 beqz	a4, 0x10
0x8000175c: 03 69 55 33 divu	a0, s2, s6
0x80001760: 00 00 05 93 mv	a1, zero
0x80001764: 01 c1 20 83 lw	ra, 0x1c(sp)
0x80001768: 01 81 24 03 lw	s0, 0x18(sp)
0x8000176c: 01 41 24 83 lw	s1, 0x14(sp)
0x80001770: 01 01 29 03 lw	s2, 0x10(sp)
0x80001774: 00 c1 29 83 lw	s3, 0xc(sp)
0x80001778: 00 81 2a 03 lw	s4, 8(sp)
0x8000177c: 00 41 2a 83 lw	s5, 4(sp)
0x80001780: 00 01 2b 03 lw	s6, 0(sp)
0x80001784: 02 01 01 13 addi	sp, sp, 0x20
0x80001788: 00 00 80 67 ret
0x80000088: fe 85 e0 e3 bltu	a1, s0, -0x20
0x8000008c: 00 b4 14 63 bne	s0, a1, 8
0x80000090: fc 95 6c e3 bltu	a0, s1, -0x28
0x80000068: 00 81 05 93 addi	a1, sp, 8
0x8000006c: 00 60 05 13 addi	a0, zero, 6
0x80000070: 0e 00 10 ef jal	0x10e0
0x80001150: 00 25 15 13 slli	a0, a0, 2
0x80001154: 00 01 07 97 auipc	a5, 0x10
0x80001158: ae 87 87 93 addi	a5, a5, -0x518
0x8000115c: 00 a7 87 b3 add	a5, a5, a0
0x80001160: 00 07 a7 83 lw	a5, 0(a5)
0x80001164: 00 05 85 13 mv	a0, a1
0x80001168: 00 07 80 67 jr	a5
0x8000118c: a0 00 07 b7 lui	a5, 0xa0000
0x80001190: 04 c7 a7 03 lw	a4, 0x4c(a5)
0x80001194: 04 87 a7 83 lw	a5, 0x48(a5)
0x80001198: 00 e5 22 23 sw	a4, 4(a0)
0x8000119c: 00 f5 20 23 sw	a5, 0(a0)
0x800011a0: 00 00 80 67 ret
0x80000074: 00 81 25 03 lw	a0, 8(sp)
0x80000078: 00 c1 25 83 lw	a1, 0xc(sp)
0x8000007c: 00 09 06 13 mv	a2, s2
0x80000080: 00 09 86 93 mv	a3, s3
0x80000084: 1b 10 10 ef jal	0x19b0
0x80001a34: 00 00 07 13 mv	a4, zero
0x80001a38: cd 9f f0 6f j	-0x328
0x80001710: fe 01 01 13 addi	sp, sp, -0x20
0x80001714: 01 21 28 23 sw	s2, 0x10(sp)
0x80001718: 01 41 24 23 sw	s4, 8(sp)
0x8000171c: 01 51 22 23 sw	s5, 4(sp)
0x80001720: 01 61 20 23 sw	s6, 0(sp)
0x80001724: 00 11 2e 23 sw	ra, 0x1c(sp)
0x80001728: 00 81 2c 23 sw	s0, 0x18(sp)
0x8000172c: 00 91 2a 23 sw	s1, 0x14(sp)
0x80001730: 01 31 26 23 sw	s3, 0xc(sp)
0x80001734: 00 06 8a 93 mv	s5, a3
0x80001738: 00 05 09 13 mv	s2, a0
0x8000173c: 00 06 0b 13 mv	s6, a2
0x80001740: 00 07 0a 13 mv	s4, a4
0x80001744: 04 05 94 63 bnez	a1, 0x48
0x80001748: 18 06 98 63 bnez	a3, 0x190
0x8000174c: 00 07 08 63 beqz	a4, 0x10
0x8000175c: 03 69 55 33 divu	a0, s2, s6
0x80001760: 00 00 05 93 mv	a1, zero
0x80001764: 01 c1 20 83 lw	ra, 0x1c(sp)
0x80001768: 01 81 24 03 lw	s0, 0x18(sp)
0x8000176c: 01 41 24 83 lw	s1, 0x14(sp)
0x80001770: 01 01 29 03 lw	s2, 0x10(sp)
0x80001774: 00 c1 29 83 lw	s3, 0xc(sp)
0x80001778: 00 81 2a 03 lw	s4, 8(sp)
0x8000177c: 00 41 2a 83 lw	s5, 4(sp)
0x80001780: 00 01 2b 03 lw	s6, 0(sp)
0x80001784: 02 01 01 13 addi	sp, sp, 0x20
0x80001788: 00 00 80 67 ret
0x80000088: fe 85 e0 e3 bltu	a1, s0, -0x20
0x8000008c: 00 b4 14 63 bne	s0, a1, 8
0x80000090: fc 95 6c e3 bltu	a0, s1, -0x28
0x80000068: 00 81 05 93 addi	a1, sp, 8
0x8000006c: 00 60 05 13 addi	a0, zero, 6
0x80000070: 0e 00 10 ef jal	0x10e0
0x80001150: 00 25 15 13 slli	a0, a0, 2
0x80001154: 00 01 07 97 auipc	a5, 0x10
0x80001158: ae 87 87 93 addi	a5, a5, -0x518
0x8000115c: 00 a7 87 b3 add	a5, a5, a0
0x80001160: 00 07 a7 83 lw	a5, 0(a5)
0x80001164: 00 05 85 13 mv	a0, a1
0x80001168: 00 07 80 67 jr	a5
0x8000118c: a0 00 07 b7 lui	a5, 0xa0000
0x80001190: 04 c7 a7 03 lw	a4, 0x4c(a5)
0x80001194: 04 87 a7 83 lw	a5, 0x48(a5)
0x80001198: 00 e5 22 23 sw	a4, 4(a0)
0x8000119c: 00 f5 20 23 sw	a5, 0(a0)
0x800011a0: 00 00 80 67 ret
0x80000074: 00 81 25 03 lw	a0, 8(sp)
0x80000078: 00 c1 25 83 lw	a1, 0xc(sp)
0x8000007c: 00 09 06 13 mv	a2, s2
0x80000080: 00 09 86 93 mv	a3, s3
0x80000084: 1b 10 10 ef jal	0x19b0
0x80001a34: 00 00 07 13 mv	a4, zero
0x80001a38: cd 9f f0 6f j	-0x328
0x80001710: fe 01 01 13 addi	sp, sp, -0x20
0x80001714: 01 21 28 23 sw	s2, 0x10(sp)
0x80001718: 01 41 24 23 sw	s4, 8(sp)
0x8000171c: 01 51 22 23 sw	s5, 4(sp)
0x80001720: 01 61 20 23 sw	s6, 0(sp)
0x80001724: 00 11 2e 23 sw	ra, 0x1c(sp)
0x80001728: 00 81 2c 23 sw	s0, 0x18(sp)
0x8000172c: 00 91 2a 23 sw	s1, 0x14(sp)
0x80001730: 01 31 26 23 sw	s3, 0xc(sp)
0x80001734: 00 06 8a 93 mv	s5, a3
0x80001738: 00 05 09 13 mv	s2, a0
0x8000173c: 00 06 0b 13 mv	s6, a2
0x80001740: 00 07 0a 13 mv	s4, a4
0x80001744: 04 05 94 63 bnez	a1, 0x48
0x80001748: 18 06 98 63 bnez	a3, 0x190
0x8000174c: 00 07 08 63 beqz	a4, 0x10
0x8000175c: 03 69 55 33 divu	a0, s2, s6
0x80001760: 00 00 05 93 mv	a1, zero
0x80001764: 01 c1 20 83 lw	ra, 0x1c(sp)
0x80001768: 01 81 24 03 lw	s0, 0x18(sp)
0x8000176c: 01 41 24 83 lw	s1, 0x14(sp)
0x80001770: 01 01 29 03 lw	s2, 0x10(sp)
0x80001774: 00 c1 29 83 lw	s3, 0xc(sp)
0x80001778: 00 81 2a 03 lw	s4, 8(sp)
0x8000177c: 00 41 2a 83 lw	s5, 4(sp)
0x80001780: 00 01 2b 03 lw	s6, 0(sp)
0x80001784: 02 01 01 13 addi	sp, sp, 0x20
0x80001788: 00 00 80 67 ret
0x80000088: fe 85 e0 e3 bltu	a1, s0, -0x20
0x8000008c: 00 b4 14 63 bne	s0, a1, 8
0x80000090: fc 95 6c e3 bltu	a0, s1, -0x28
0x80000068: 00 81 05 93 addi	a1, sp, 8
0x8000006c: 00 60 05 13 addi	a0, zero, 6
0x80000070: 0e 00 10 ef jal	0x10e0
0x80001150: 00 25 15 13 slli	a0, a0, 2
0x80001154: 00 01 07 97 auipc	a5, 0x10
0x80001158: ae 87 87 93 addi	a5, a5, -0x518
0x8000115c: 00 a7 87 b3 add	a5, a5, a0
0x80001160: 00 07 a7 83 lw	a5, 0(a5)
0x80001164: 00 05 85 13 mv	a0, a1
0x80001168: 00 07 80 67 jr	a5
0x8000118c: a0 00 07 b7 lui	a5, 0xa0000
0x80001190: 04 c7 a7 03 lw	a4, 0x4c(a5)
0x80001194: 04 87 a7 83 lw	a5, 0x48(a5)
0x80001198: 00 e5 22 23 sw	a4, 4(a0)
0x8000119c: 00 f5 20 23 sw	a5, 0(a0)
0x800011a0: 00 00 80 67 ret
0x80000074: 00 81 25 03 lw	a0, 8(sp)
0x80000078: 00 c1 25 83 lw	a1, 0xc(sp)
0x8000007c: 00 09 06 13 mv	a2, s2
0x80000080: 00 09 86 93 mv	a3, s3
0x80000084: 1b 10 10 ef jal	0x19b0
0x80001a34: 00 00 07 13 mv	a4, zero
0x80001a38: cd 9f f0 6f j	-0x328
0x80001710: fe 01 01 13 addi	sp, sp, -0x20
0x80001714: 01 21 28 23 sw	s2, 0x10(sp)
0x80001718: 01 41 24 23 sw	s4, 8(sp)
0x8000171c: 01 51 22 23 sw	s5, 4(sp)
0x80001720: 01 61 20 23 sw	s6, 0(sp)
0x80001724: 00 11 2e 23 sw	ra, 0x1c(sp)
0x80001728: 00 81 2c 23 sw	s0, 0x18(sp)
0x8000172c: 00 91 2a 23 sw	s1, 0x14(sp)
0x80001730: 01 31 26 23 sw	s3, 0xc(sp)
0x80001734: 00 06 8a 93 mv	s5, a3
0x80001738: 00 05 09 13 mv	s2, a0
0x8000173c: 00 06 0b 13 mv	s6, a2
0x80001740: 00 07 0a 13 mv	s4, a4
0x80001744: 04 05 94 63 bnez	a1, 0x48
0x80001748: 18 06 98 63 bnez	a3, 0x190
0x8000174c: 00 07 08 63 beqz	a4, 0x10
0x8000175c: 03 69 55 33 divu	a0, s2, s6
0x80001760: 00 00 05 93 mv	a1, zero
0x80001764: 01 c1 20 83 lw	ra, 0x1c(sp)
0x80001768: 01 81 24 03 lw	s0, 0x18(sp)
0x8000176c: 01 41 24 83 lw	s1, 0x14(sp)
0x80001770: 01 01 29 03 lw	s2, 0x10(sp)
0x80001774: 00 c1 29 83 lw	s3, 0xc(sp)
0x80001778: 00 81 2a 03 lw	s4, 8(sp)
0x8000177c: 00 41 2a 83 lw	s5, 4(sp)
0x80001780: 00 01 2b 03 lw	s6, 0(sp)
0x80001784: 02 01 01 13 addi	sp, sp, 0x20
0x80001788: 00 00 80 67 ret
0x80000088: fe 85 e0 e3 bltu	a1, s0, -0x20
0x8000008c: 00 b4 14 63 bne	s0, a1, 8
0x80000090: fc 95 6c e3 bltu	a0, s1, -0x28
0x80000068: 00 81 05 93 addi	a1, sp, 8
0x8000006c: 00 60 05 13 addi	a0, zero, 6
0x80000070: 0e 00 10 ef jal	0x10e0
0x80001150: 00 25 15 13 slli	a0, a0, 2
0x80001154: 00 01 07 97 auipc	a5, 0x10
0x80001158: ae 87 87 93 addi	a5, a5, -0x518
0x8000115c: 00 a7 87 b3 add	a5, a5, a0
0x80001160: 00 07 a7 83 lw	a5, 0(a5)
0x80001164: 00 05 85 13 mv	a0, a1
0x80001168: 00 07 80 67 jr	a5
0x8000118c: a0 00 07 b7 lui	a5, 0xa0000
0x80001190: 04 c7 a7 03 lw	a4, 0x4c(a5)
0x80001194: 04 87 a7 83 lw	a5, 0x48(a5)
0x80001198: 00 e5 22 23 sw	a4, 4(a0)
0x8000119c: 00 f5 20 23 sw	a5, 0(a0)
0x800011a0: 00 00 80 67 ret
0x80000074: 00 81 25 03 lw	a0, 8(sp)
0x80000078: 00 c1 25 83 lw	a1, 0xc(sp)
0x8000007c: 00 09 06 13 mv	a2, s2
0x80000080: 00 09 86 93 mv	a3, s3
0x80000084: 1b 10 10 ef jal	0x19b0
0x80001a34: 00 00 07 13 mv	a4, zero
0x80001a38: cd 9f f0 6f j	-0x328
0x80001710: fe 01 01 13 addi	sp, sp, -0x20
0x80001714: 01 21 28 23 sw	s2, 0x10(sp)
0x80001718: 01 41 24 23 sw	s4, 8(sp)
0x8000171c: 01 51 22 23 sw	s5, 4(sp)
0x80001720: 01 61 20 23 sw	s6, 0(sp)
0x80001724: 00 11 2e 23 sw	ra, 0x1c(sp)
0x80001728: 00 81 2c 23 sw	s0, 0x18(sp)
0x8000172c: 00 91 2a 23 sw	s1, 0x14(sp)
0x80001730: 01 31 26 23 sw	s3, 0xc(sp)
0x80001734: 00 06 8a 93 mv	s5, a3
0x80001738: 00 05 09 13 mv	s2, a0
0x8000173c: 00 06 0b 13 mv	s6, a2
0x80001740: 00 07 0a 13 mv	s4, a4
0x80001744: 04 05 94 63 bnez	a1, 0x48
0x80001748: 18 06 98 63 bnez	a3, 0x190
0x8000174c: 00 07 08 63 beqz	a4, 0x10
0x8000175c: 03 69 55 33 divu	a0, s2, s6
0x80001760: 00 00 05 93 mv	a1, zero
0x80001764: 01 c1 20 83 lw	ra, 0x1c(sp)
0x80001768: 01 81 24 03 lw	s0, 0x18(sp)
0x8000176c: 01 41 24 83 lw	s1, 0x14(sp)
0x80001770: 01 01 29 03 lw	s2, 0x10(sp)
0x80001774: 00 c1 29 83 lw	s3, 0xc(sp)
0x80001778: 00 81 2a 03 lw	s4, 8(sp)
0x8000177c: 00 41 2a 83 lw	s5, 4(sp)
0x80001780: 00 01 2b 03 lw	s6, 0(sp)
0x80001784: 02 01 01 13 addi	sp, sp, 0x20
0x80001788: 00 00 80 67 ret
0x80000088: fe 85 e0 e3 bltu	a1, s0, -0x20
0x8000008c: 00 b4 14 63 bne	s0, a1, 8
0x80000090: fc 95 6c e3 bltu	a0, s1, -0x28
0x80000068: 00 81 05 93 addi	a1, sp, 8
0x8000006c: 00 60 05 13 addi	a0, zero, 6
0x80000070: 0e 00 10 ef jal	0x10e0
0x80001150: 00 25 15 13 slli	a0, a0, 2
0x80001154: 00 01 07 97 auipc	a5, 0x10
0x80001158: ae 87 87 93 addi	a5, a5, -0x518
0x8000115c: 00 a7 87 b3 add	a5, a5, a0
0x80001160: 00 07 a7 83 lw	a5, 0(a5)
0x80001164: 00 05 85 13 mv	a0, a1
0x80001168: 00 07 80 67 jr	a5
0x8000118c: a0 00 07 b7 lui	a5, 0xa0000
0x80001190: 04 c7 a7 03 lw	a4, 0x4c(a5)
0x80001194: 04 87 a7 83 lw	a5, 0x48(a5)
0x80001198: 00 e5 22 23 sw	a4, 4(a0)
0x8000119c: 00 f5 20 23 sw	a5, 0(a0)
0x800011a0: 00 00 80 67 ret
0x80000074: 00 81 25 03 lw	a0, 8(sp)
0x80000078: 00 c1 25 83 lw	a1, 0xc(sp)
0x8000007c: 00 09 06 13 mv	a2, s2
0x80000080: 00 09 86 93 mv	a3, s3
0x80000084: 1b 10 10 ef jal	0x19b0
0x80001a34: 00 00 07 13 mv	a4, zero
0x80001a38: cd 9f f0 6f j	-0x328
0x80001710: fe 01 01 13 addi	sp, sp, -0x20
0x80001714: 01 21 28 23 sw	s2, 0x10(sp)
0x80001718: 01 41 24 23 sw	s4, 8(sp)
0x8000171c: 01 51 22 23 sw	s5, 4(sp)
0x80001720: 01 61 20 23 sw	s6, 0(sp)
0x80001724: 00 11 2e 23 sw	ra, 0x1c(sp)
0x80001728: 00 81 2c 23 sw	s0, 0x18(sp)
0x8000172c: 00 91 2a 23 sw	s1, 0x14(sp)
0x80001730: 01 31 26 23 sw	s3, 0xc(sp)
0x80001734: 00 06 8a 93 mv	s5, a3
0x80001738: 00 05 09 13 mv	s2, a0
0x8000173c: 00 06 0b 13 mv	s6, a2
0x80001740: 00 07 0a 13 mv	s4, a4
0x80001744: 04 05 94 63 bnez	a1, 0x48
0x80001748: 18 06 98 63 bnez	a3, 0x190
0x8000174c: 00 07 08 63 beqz	a4, 0x10
0x8000175c: 03 69 55 33 divu	a0, s2, s6
0x80001760: 00 00 05 93 mv	a1, zero
0x80001764: 01 c1 20 83 lw	ra, 0x1c(sp)
0x80001768: 01 81 24 03 lw	s0, 0x18(sp)
0x8000176c: 01 41 24 83 lw	s1, 0x14(sp)
0x80001770: 01 01 29 03 lw	s2, 0x10(sp)
0x80001774: 00 c1 29 83 lw	s3, 0xc(sp)
0x80001778: 00 81 2a 03 lw	s4, 8(sp)
0x8000177c: 00 41 2a 83 lw	s5, 4(sp)
0x80001780: 00 01 2b 03 lw	s6, 0(sp)
0x80001784: 02 01 01 13 addi	sp, sp, 0x20
0x80001788: 00 00 80 67 ret
0x80000088: fe 85 e0 e3 bltu	a1, s0, -0x20
0x8000008c: 00 b4 14 63 bne	s0, a1, 8
0x80000090: fc 95 6c e3 bltu	a0, s1, -0x28
0x80000068: 00 81 05 93 addi	a1, sp, 8
0x8000006c: 00 60 05 13 addi	a0, zero, 6
0x80000070: 0e 00 10 ef jal	0x10e0
0x80001150: 00 25 15 13 slli	a0, a0, 2
0x80001154: 00 01 07 97 auipc	a5, 0x10
0x80001158: ae 87 87 93 addi	a5, a5, -0x518
0x8000115c: 00 a7 87 b3 add	a5, a5, a0
0x80001160: 00 07 a7 83 lw	a5, 0(a5)
0x80001164: 00 05 85 13 mv	a0, a1
0x80001168: 00 07 80 67 jr	a5
0x8000118c: a0 00 07 b7 lui	a5, 0xa0000
0x80001190: 04 c7 a7 03 lw	a4, 0x4c(a5)
0x80001194: 04 87 a7 83 lw	a5, 0x48(a5)
0x80001198: 00 e5 22 23 sw	a4, 4(a0)
0x8000119c: 00 f5 20 23 sw	a5, 0(a0)
0x800011a0: 00 00 80 67 ret
0x80000074: 00 81 25 03 lw	a0, 8(sp)
0x80000078: 00 c1 25 83 lw	a1, 0xc(sp)
0x8000007c: 00 09 06 13 mv	a2, s2
0x80000080: 00 09 86 93 mv	a3, s3
0x80000084: 1b 10 10 ef jal	0x19b0
0x80001a34: 00 00 07 13 mv	a4, zero
0x80001a38: cd 9f f0 6f j	-0x328
0x80001710: fe 01 01 13 addi	sp, sp, -0x20
0x80001714: 01 21 28 23 sw	s2, 0x10(sp)
0x80001718: 01 41 24 23 sw	s4, 8(sp)
0x8000171c: 01 51 22 23 sw	s5, 4(sp)
0x80001720: 01 61 20 23 sw	s6, 0(sp)
0x80001724: 00 11 2e 23 sw	ra, 0x1c(sp)
0x80001728: 00 81 2c 23 sw	s0, 0x18(sp)
0x8000172c: 00 91 2a 23 sw	s1, 0x14(sp)
0x80001730: 01 31 26 23 sw	s3, 0xc(sp)
0x80001734: 00 06 8a 93 mv	s5, a3
0x80001738: 00 05 09 13 mv	s2, a0
0x8000173c: 00 06 0b 13 mv	s6, a2
0x80001740: 00 07 0a 13 mv	s4, a4
0x80001744: 04 05 94 63 bnez	a1, 0x48
0x80001748: 18 06 98 63 bnez	a3, 0x190
0x8000174c: 00 07 08 63 beqz	a4, 0x10
0x8000175c: 03 69 55 33 divu	a0, s2, s6
0x80001760: 00 00 05 93 mv	a1, zero
0x80001764: 01 c1 20 83 lw	ra, 0x1c(sp)
0x80001768: 01 81 24 03 lw	s0, 0x18(sp)
0x8000176c: 01 41 24 83 lw	s1, 0x14(sp)
0x80001770: 01 01 29 03 lw	s2, 0x10(sp)
0x80001774: 00 c1 29 83 lw	s3, 0xc(sp)
0x80001778: 00 81 2a 03 lw	s4, 8(sp)
0x8000177c: 00 41 2a 83 lw	s5, 4(sp)
0x80001780: 00 01 2b 03 lw	s6, 0(sp)
0x80001784: 02 01 01 13 addi	sp, sp, 0x20
0x80001788: 00 00 80 67 ret
0x80000088: fe 85 e0 e3 bltu	a1, s0, -0x20
0x8000008c: 00 b4 14 63 bne	s0, a1, 8
0x80000090: fc 95 6c e3 bltu	a0, s1, -0x28
0x80000068: 00 81 05 93 addi	a1, sp, 8
0x8000006c: 00 60 05 13 addi	a0, zero, 6
0x80000070: 0e 00 10 ef jal	0x10e0
0x80001150: 00 25 15 13 slli	a0, a0, 2
0x80001154: 00 01 07 97 auipc	a5, 0x10
0x80001158: ae 87 87 93 addi	a5, a5, -0x518
0x8000115c: 00 a7 87 b3 add	a5, a5, a0
0x80001160: 00 07 a7 83 lw	a5, 0(a5)
0x80001164: 00 05 85 13 mv	a0, a1
0x80001168: 00 07 80 67 jr	a5
0x8000118c: a0 00 07 b7 lui	a5, 0xa0000
0x80001190: 04 c7 a7 03 lw	a4, 0x4c(a5)
0x80001194: 04 87 a7 83 lw	a5, 0x48(a5)
0x80001198: 00 e5 22 23 sw	a4, 4(a0)
0x8000119c: 00 f5 20 23 sw	a5, 0(a0)
0x800011a0: 00 00 80 67 ret
0x80000074: 00 81 25 03 lw	a0, 8(sp)
0x80000078: 00 c1 25 83 lw	a1, 0xc(sp)
0x8000007c: 00 09 06 13 mv	a2, s2
0x80000080: 00 09 86 93 mv	a3, s3
0x80000084: 1b 10 10 ef jal	0x19b0
0x80001a34: 00 00 07 13 mv	a4, zero
0x80001a38: cd 9f f0 6f j	-0x328
0x80001710: fe 01 01 13 addi	sp, sp, -0x20
0x80001714: 01 21 28 23 sw	s2, 0x10(sp)
0x80001718: 01 41 24 23 sw	s4, 8(sp)
0x8000171c: 01 51 22 23 sw	s5, 4(sp)
0x80001720: 01 61 20 23 sw	s6, 0(sp)
0x80001724: 00 11 2e 23 sw	ra, 0x1c(sp)
0x80001728: 00 81 2c 23 sw	s0, 0x18(sp)
0x8000172c: 00 91 2a 23 sw	s1, 0x14(sp)
0x80001730: 01 31 26 23 sw	s3, 0xc(sp)
0x80001734: 00 06 8a 93 mv	s5, a3
0x80001738: 00 05 09 13 mv	s2, a0
0x8000173c: 00 06 0b 13 mv	s6, a2
0x80001740: 00 07 0a 13 mv	s4, a4
0x80001744: 04 05 94 63 bnez	a1, 0x48
0x80001748: 18 06 98 63 bnez	a3, 0x190
0x8000174c: 00 07 08 63 beqz	a4, 0x10
0x8000175c: 03 69 55 33 divu	a0, s2, s6
0x80001760: 00 00 05 93 mv	a1, zero
0x80001764: 01 c1 20 83 lw	ra, 0x1c(sp)
0x80001768: 01 81 24 03 lw	s0, 0x18(sp)
0x8000176c: 01 41 24 83 lw	s1, 0x14(sp)
0x80001770: 01 01 29 03 lw	s2, 0x10(sp)
0x80001774: 00 c1 29 83 lw	s3, 0xc(sp)
0x80001778: 00 81 2a 03 lw	s4, 8(sp)
0x8000177c: 00 41 2a 83 lw	s5, 4(sp)
0x80001780: 00 01 2b 03 lw	s6, 0(sp)
0x80001784: 02 01 01 13 addi	sp, sp, 0x20
0x80001788: 00 00 80 67 ret
0x80000088: fe 85 e0 e3 bltu	a1, s0, -0x20
0x8000008c: 00 b4 14 63 bne	s0, a1, 8
0x80000090: fc 95 6c e3 bltu	a0, s1, -0x28
0x80000068: 00 81 05 93 addi	a1, sp, 8
0x8000006c: 00 60 05 13 addi	a0, zero, 6
0x80000070: 0e 00 10 ef jal	0x10e0
0x80001150: 00 25 15 13 slli	a0, a0, 2
0x80001154: 00 01 07 97 auipc	a5, 0x10
0x80001158: ae 87 87 93 addi	a5, a5, -0x518
0x8000115c: 00 a7 87 b3 add	a5, a5, a0
0x80001160: 00 07 a7 83 lw	a5, 0(a5)
0x80001164: 00 05 85 13 mv	a0, a1
0x80001168: 00 07 80 67 jr	a5
0x8000118c: a0 00 07 b7 lui	a5, 0xa0000
0x80001190: 04 c7 a7 03 lw	a4, 0x4c(a5)
0x80001194: 04 87 a7 83 lw	a5, 0x48(a5)
0x80001198: 00 e5 22 23 sw	a4, 4(a0)
0x8000119c: 00 f5 20 23 sw	a5, 0(a0)
0x800011a0: 00 00 80 67 ret
0x80000074: 00 81 25 03 lw	a0, 8(sp)
0x80000078: 00 c1 25 83 lw	a1, 0xc(sp)
0x8000007c: 00 09 06 13 mv	a2, s2
0x80000080: 00 09 86 93 mv	a3, s3
0x80000084: 1b 10 10 ef jal	0x19b0
0x80001a34: 00 00 07 13 mv	a4, zero
0x80001a38: cd 9f f0 6f j	-0x328
0x80001710: fe 01 01 13 addi	sp, sp, -0x20
0x80001714: 01 21 28 23 sw	s2, 0x10(sp)
0x80001718: 01 41 24 23 sw	s4, 8(sp)
0x8000171c: 01 51 22 23 sw	s5, 4(sp)
0x80001720: 01 61 20 23 sw	s6, 0(sp)
0x80001724: 00 11 2e 23 sw	ra, 0x1c(sp)
0x80001728: 00 81 2c 23 sw	s0, 0x18(sp)
0x8000172c: 00 91 2a 23 sw	s1, 0x14(sp)
0x80001730: 01 31 26 23 sw	s3, 0xc(sp)
0x80001734: 00 06 8a 93 mv	s5, a3
0x80001738: 00 05 09 13 mv	s2, a0
0x8000173c: 00 06 0b 13 mv	s6, a2
0x80001740: 00 07 0a 13 mv	s4, a4
0x80001744: 04 05 94 63 bnez	a1, 0x48
0x80001748: 18 06 98 63 bnez	a3, 0x190
0x8000174c: 00 07 08 63 beqz	a4, 0x10
0x8000175c: 03 69 55 33 divu	a0, s2, s6
0x80001760: 00 00 05 93 mv	a1, zero
0x80001764: 01 c1 20 83 lw	ra, 0x1c(sp)
0x80001768: 01 81 24 03 lw	s0, 0x18(sp)
0x8000176c: 01 41 24 83 lw	s1, 0x14(sp)
0x80001770: 01 01 29 03 lw	s2, 0x10(sp)
0x80001774: 00 c1 29 83 lw	s3, 0xc(sp)
0x80001778: 00 81 2a 03 lw	s4, 8(sp)
0x8000177c: 00 41 2a 83 lw	s5, 4(sp)
0x80001780: 00 01 2b 03 lw	s6, 0(sp)
0x80001784: 02 01 01 13 addi	sp, sp, 0x20
0x80001788: 00 00 80 67 ret
0x80000088: fe 85 e0 e3 bltu	a1, s0, -0x20
0x8000008c: 00 b4 14 63 bne	s0, a1, 8
0x80000090: fc 95 6c e3 bltu	a0, s1, -0x28
0x80000068: 00 81 05 93 addi	a1, sp, 8
0x8000006c: 00 60 05 13 addi	a0, zero, 6
0x80000070: 0e 00 10 ef jal	0x10e0
0x80001150: 00 25 15 13 slli	a0, a0, 2
0x80001154: 00 01 07 97 auipc	a5, 0x10
0x80001158: ae 87 87 93 addi	a5, a5, -0x518
0x8000115c: 00 a7 87 b3 add	a5, a5, a0
0x80001160: 00 07 a7 83 lw	a5, 0(a5)
0x80001164: 00 05 85 13 mv	a0, a1
0x80001168: 00 07 80 67 jr	a5
0x8000118c: a0 00 07 b7 lui	a5, 0xa0000
0x80001190: 04 c7 a7 03 lw	a4, 0x4c(a5)
0x80001194: 04 87 a7 83 lw	a5, 0x48(a5)
0x80001198: 00 e5 22 23 sw	a4, 4(a0)
0x8000119c: 00 f5 20 23 sw	a5, 0(a0)
0x800011a0: 00 00 80 67 ret
0x80000074: 00 81 25 03 lw	a0, 8(sp)
0x80000078: 00 c1 25 83 lw	a1, 0xc(sp)
0x8000007c: 00 09 06 13 mv	a2, s2
0x80000080: 00 09 86 93 mv	a3, s3
0x80000084: 1b 10 10 ef jal	0x19b0
0x80001a34: 00 00 07 13 mv	a4, zero
0x80001a38: cd 9f f0 6f j	-0x328
0x80001710: fe 01 01 13 addi	sp, sp, -0x20
0x80001714: 01 21 28 23 sw	s2, 0x10(sp)
0x80001718: 01 41 24 23 sw	s4, 8(sp)
0x8000171c: 01 51 22 23 sw	s5, 4(sp)
0x80001720: 01 61 20 23 sw	s6, 0(sp)
0x80001724: 00 11 2e 23 sw	ra, 0x1c(sp)
0x80001728: 00 81 2c 23 sw	s0, 0x18(sp)
0x8000172c: 00 91 2a 23 sw	s1, 0x14(sp)
0x80001730: 01 31 26 23 sw	s3, 0xc(sp)
0x80001734: 00 06 8a 93 mv	s5, a3
0x80001738: 00 05 09 13 mv	s2, a0
0x8000173c: 00 06 0b 13 mv	s6, a2
0x80001740: 00 07 0a 13 mv	s4, a4
0x80001744: 04 05 94 63 bnez	a1, 0x48
0x80001748: 18 06 98 63 bnez	a3, 0x190
0x8000174c: 00 07 08 63 beqz	a4, 0x10
0x8000175c: 03 69 55 33 divu	a0, s2, s6
0x80001760: 00 00 05 93 mv	a1, zero
0x80001764: 01 c1 20 83 lw	ra, 0x1c(sp)
0x80001768: 01 81 24 03 lw	s0, 0x18(sp)
0x8000176c: 01 41 24 83 lw	s1, 0x14(sp)
0x80001770: 01 01 29 03 lw	s2, 0x10(sp)
0x80001774: 00 c1 29 83 lw	s3, 0xc(sp)
0x80001778: 00 81 2a 03 lw	s4, 8(sp)
0x8000177c: 00 41 2a 83 lw	s5, 4(sp)
0x80001780: 00 01 2b 03 lw	s6, 0(sp)
0x80001784: 02 01 01 13 addi	sp, sp, 0x20
0x80001788: 00 00 80 67 ret
0x80000088: fe 85 e0 e3 bltu	a1, s0, -0x20
0x8000008c: 00 b4 14 63 bne	s0, a1, 8
0x80000090: fc 95 6c e3 bltu	a0, s1, -0x28
0x80000068: 00 81 05 93 addi	a1, sp, 8
0x8000006c: 00 60 05 13 addi	a0, zero, 6
0x80000070: 0e 00 10 ef jal	0x10e0
0x80001150: 00 25 15 13 slli	a0, a0, 2
0x80001154: 00 01 07 97 auipc	a5, 0x10
0x80001158: ae 87 87 93 addi	a5, a5, -0x518
0x8000115c: 00 a7 87 b3 add	a5, a5, a0
0x80001160: 00 07 a7 83 lw	a5, 0(a5)
0x80001164: 00 05 85 13 mv	a0, a1
0x80001168: 00 07 80 67 jr	a5
0x8000118c: a0 00 07 b7 lui	a5, 0xa0000
0x80001190: 04 c7 a7 03 lw	a4, 0x4c(a5)
0x80001194: 04 87 a7 83 lw	a5, 0x48(a5)
0x80001198: 00 e5 22 23 sw	a4, 4(a0)
0x8000119c: 00 f5 20 23 sw	a5, 0(a0)
0x800011a0: 00 00 80 67 ret
0x80000074: 00 81 25 03 lw	a0, 8(sp)
0x80000078: 00 c1 25 83 lw	a1, 0xc(sp)
0x8000007c: 00 09 06 13 mv	a2, s2
0x80000080: 00 09 86 93 mv	a3, s3
0x80000084: 1b 10 10 ef jal	0x19b0
0x80001a34: 00 00 07 13 mv	a4, zero
0x80001a38: cd 9f f0 6f j	-0x328
0x80001710: fe 01 01 13 addi	sp, sp, -0x20
0x80001714: 01 21 28 23 sw	s2, 0x10(sp)
0x80001718: 01 41 24 23 sw	s4, 8(sp)
0x8000171c: 01 51 22 23 sw	s5, 4(sp)
0x80001720: 01 61 20 23 sw	s6, 0(sp)
0x80001724: 00 11 2e 23 sw	ra, 0x1c(sp)
0x80001728: 00 81 2c 23 sw	s0, 0x18(sp)
0x8000172c: 00 91 2a 23 sw	s1, 0x14(sp)
0x80001730: 01 31 26 23 sw	s3, 0xc(sp)
0x80001734: 00 06 8a 93 mv	s5, a3
0x80001738: 00 05 09 13 mv	s2, a0
0x8000173c: 00 06 0b 13 mv	s6, a2
0x80001740: 00 07 0a 13 mv	s4, a4
0x80001744: 04 05 94 63 bnez	a1, 0x48
0x80001748: 18 06 98 63 bnez	a3, 0x190
0x8000174c: 00 07 08 63 beqz	a4, 0x10
0x8000175c: 03 69 55 33 divu	a0, s2, s6
0x80001760: 00 00 05 93 mv	a1, zero
0x80001764: 01 c1 20 83 lw	ra, 0x1c(sp)
0x80001768: 01 81 24 03 lw	s0, 0x18(sp)
0x8000176c: 01 41 24 83 lw	s1, 0x14(sp)
0x80001770: 01 01 29 03 lw	s2, 0x10(sp)
0x80001774: 00 c1 29 83 lw	s3, 0xc(sp)
0x80001778: 00 81 2a 03 lw	s4, 8(sp)
0x8000177c: 00 41 2a 83 lw	s5, 4(sp)
0x80001780: 00 01 2b 03 lw	s6, 0(sp)
0x80001784: 02 01 01 13 addi	sp, sp, 0x20
0x80001788: 00 00 80 67 ret
0x80000088: fe 85 e0 e3 bltu	a1, s0, -0x20
0x8000008c: 00 b4 14 63 bne	s0, a1, 8
0x80000090: fc 95 6c e3 bltu	a0, s1, -0x28
0x80000068: 00 81 05 93 addi	a1, sp, 8
0x8000006c: 00 60 05 13 addi	a0, zero, 6
0x80000070: 0e 00 10 ef jal	0x10e0
0x80001150: 00 25 15 13 slli	a0, a0, 2
0x80001154: 00 01 07 97 auipc	a5, 0x10
0x80001158: ae 87 87 93 addi	a5, a5, -0x518
0x8000115c: 00 a7 87 b3 add	a5, a5, a0
0x80001160: 00 07 a7 83 lw	a5, 0(a5)
0x80001164: 00 05 85 13 mv	a0, a1
0x80001168: 00 07 80 67 jr	a5
0x8000118c: a0 00 07 b7 lui	a5, 0xa0000
0x80001190: 04 c7 a7 03 lw	a4, 0x4c(a5)
0x80001194: 04 87 a7 83 lw	a5, 0x48(a5)
0x80001198: 00 e5 22 23 sw	a4, 4(a0)
0x8000119c: 00 f5 20 23 sw	a5, 0(a0)
0x800011a0: 00 00 80 67 ret
0x80000074: 00 81 25 03 lw	a0, 8(sp)
0x80000078: 00 c1 25 83 lw	a1, 0xc(sp)
0x8000007c: 00 09 06 13 mv	a2, s2
0x80000080: 00 09 86 93 mv	a3, s3
0x80000084: 1b 10 10 ef jal	0x19b0
0x80001a34: 00 00 07 13 mv	a4, zero
0x80001a38: cd 9f f0 6f j	-0x328
0x80001710: fe 01 01 13 addi	sp, sp, -0x20
0x80001714: 01 21 28 23 sw	s2, 0x10(sp)
0x80001718: 01 41 24 23 sw	s4, 8(sp)
0x8000171c: 01 51 22 23 sw	s5, 4(sp)
0x80001720: 01 61 20 23 sw	s6, 0(sp)
0x80001724: 00 11 2e 23 sw	ra, 0x1c(sp)
0x80001728: 00 81 2c 23 sw	s0, 0x18(sp)
0x8000172c: 00 91 2a 23 sw	s1, 0x14(sp)
0x80001730: 01 31 26 23 sw	s3, 0xc(sp)
0x80001734: 00 06 8a 93 mv	s5, a3
0x80001738: 00 05 09 13 mv	s2, a0
0x8000173c: 00 06 0b 13 mv	s6, a2
0x80001740: 00 07 0a 13 mv	s4, a4
0x80001744: 04 05 94 63 bnez	a1, 0x48
0x80001748: 18 06 98 63 bnez	a3, 0x190
0x8000174c: 00 07 08 63 beqz	a4, 0x10
0x8000175c: 03 69 55 33 divu	a0, s2, s6
0x80001760: 00 00 05 93 mv	a1, zero
0x80001764: 01 c1 20 83 lw	ra, 0x1c(sp)
0x80001768: 01 81 24 03 lw	s0, 0x18(sp)
0x8000176c: 01 41 24 83 lw	s1, 0x14(sp)
0x80001770: 01 01 29 03 lw	s2, 0x10(sp)
0x80001774: 00 c1 29 83 lw	s3, 0xc(sp)
0x80001778: 00 81 2a 03 lw	s4, 8(sp)
0x8000177c: 00 41 2a 83 lw	s5, 4(sp)
0x80001780: 00 01 2b 03 lw	s6, 0(sp)
0x80001784: 02 01 01 13 addi	sp, sp, 0x20
0x80001788: 00 00 80 67 ret
0x80000088: fe 85 e0 e3 bltu	a1, s0, -0x20
0x8000008c: 00 b4 14 63 bne	s0, a1, 8
0x80000090: fc 95 6c e3 bltu	a0, s1, -0x28
0x80000068: 00 81 05 93 addi	a1, sp, 8
0x8000006c: 00 60 05 13 addi	a0, zero, 6
0x80000070: 0e 00 10 ef jal	0x10e0
0x80001150: 00 25 15 13 slli	a0, a0, 2
0x80001154: 00 01 07 97 auipc	a5, 0x10
0x80001158: ae 87 87 93 addi	a5, a5, -0x518
0x8000115c: 00 a7 87 b3 add	a5, a5, a0
0x80001160: 00 07 a7 83 lw	a5, 0(a5)
0x80001164: 00 05 85 13 mv	a0, a1
0x80001168: 00 07 80 67 jr	a5
0x8000118c: a0 00 07 b7 lui	a5, 0xa0000
0x80001190: 04 c7 a7 03 lw	a4, 0x4c(a5)
0x80001194: 04 87 a7 83 lw	a5, 0x48(a5)
0x80001198: 00 e5 22 23 sw	a4, 4(a0)
0x8000119c: 00 f5 20 23 sw	a5, 0(a0)
0x800011a0: 00 00 80 67 ret
0x80000074: 00 81 25 03 lw	a0, 8(sp)
0x80000078: 00 c1 25 83 lw	a1, 0xc(sp)
0x8000007c: 00 09 06 13 mv	a2, s2
0x80000080: 00 09 86 93 mv	a3, s3
0x80000084: 1b 10 10 ef jal	0x19b0
0x80001a34: 00 00 07 13 mv	a4, zero
0x80001a38: cd 9f f0 6f j	-0x328
0x80001710: fe 01 01 13 addi	sp, sp, -0x20
0x80001714: 01 21 28 23 sw	s2, 0x10(sp)
0x80001718: 01 41 24 23 sw	s4, 8(sp)
0x8000171c: 01 51 22 23 sw	s5, 4(sp)
0x80001720: 01 61 20 23 sw	s6, 0(sp)
0x80001724: 00 11 2e 23 sw	ra, 0x1c(sp)
0x80001728: 00 81 2c 23 sw	s0, 0x18(sp)
0x8000172c: 00 91 2a 23 sw	s1, 0x14(sp)
0x80001730: 01 31 26 23 sw	s3, 0xc(sp)
0x80001734: 00 06 8a 93 mv	s5, a3
0x80001738: 00 05 09 13 mv	s2, a0
0x8000173c: 00 06 0b 13 mv	s6, a2
0x80001740: 00 07 0a 13 mv	s4, a4
0x80001744: 04 05 94 63 bnez	a1, 0x48
0x80001748: 18 06 98 63 bnez	a3, 0x190
0x8000174c: 00 07 08 63 beqz	a4, 0x10
0x8000175c: 03 69 55 33 divu	a0, s2, s6
0x80001760: 00 00 05 93 mv	a1, zero
0x80001764: 01 c1 20 83 lw	ra, 0x1c(sp)
0x80001768: 01 81 24 03 lw	s0, 0x18(sp)
0x8000176c: 01 41 24 83 lw	s1, 0x14(sp)
0x80001770: 01 01 29 03 lw	s2, 0x10(sp)
0x80001774: 00 c1 29 83 lw	s3, 0xc(sp)
0x80001778: 00 81 2a 03 lw	s4, 8(sp)
0x8000177c: 00 41 2a 83 lw	s5, 4(sp)
0x80001780: 00 01 2b 03 lw	s6, 0(sp)
0x80001784: 02 01 01 13 addi	sp, sp, 0x20
0x80001788: 00 00 80 67 ret
0x80000088: fe 85 e0 e3 bltu	a1, s0, -0x20
0x8000008c: 00 b4 14 63 bne	s0, a1, 8
0x80000090: fc 95 6c e3 bltu	a0, s1, -0x28
0x80000068: 00 81 05 93 addi	a1, sp, 8
0x8000006c: 00 60 05 13 addi	a0, zero, 6
0x80000070: 0e 00 10 ef jal	0x10e0
0x80001150: 00 25 15 13 slli	a0, a0, 2
0x80001154: 00 01 07 97 auipc	a5, 0x10
0x80001158: ae 87 87 93 addi	a5, a5, -0x518
0x8000115c: 00 a7 87 b3 add	a5, a5, a0
0x80001160: 00 07 a7 83 lw	a5, 0(a5)
0x80001164: 00 05 85 13 mv	a0, a1
0x80001168: 00 07 80 67 jr	a5
0x8000118c: a0 00 07 b7 lui	a5, 0xa0000
0x80001190: 04 c7 a7 03 lw	a4, 0x4c(a5)
0x80001194: 04 87 a7 83 lw	a5, 0x48(a5)
0x80001198: 00 e5 22 23 sw	a4, 4(a0)
0x8000119c: 00 f5 20 23 sw	a5, 0(a0)
0x800011a0: 00 00 80 67 ret
0x80000074: 00 81 25 03 lw	a0, 8(sp)
0x80000078: 00 c1 25 83 lw	a1, 0xc(sp)
0x8000007c: 00 09 06 13 mv	a2, s2
0x80000080: 00 09 86 93 mv	a3, s3
0x80000084: 1b 10 10 ef jal	0x19b0
0x80001a34: 00 00 07 13 mv	a4, zero
0x80001a38: cd 9f f0 6f j	-0x328
0x80001710: fe 01 01 13 addi	sp, sp, -0x20
0x80001714: 01 21 28 23 sw	s2, 0x10(sp)
0x80001718: 01 41 24 23 sw	s4, 8(sp)
0x8000171c: 01 51 22 23 sw	s5, 4(sp)
0x80001720: 01 61 20 23 sw	s6, 0(sp)
0x80001724: 00 11 2e 23 sw	ra, 0x1c(sp)
0x80001728: 00 81 2c 23 sw	s0, 0x18(sp)
0x8000172c: 00 91 2a 23 sw	s1, 0x14(sp)
0x80001730: 01 31 26 23 sw	s3, 0xc(sp)
0x80001734: 00 06 8a 93 mv	s5, a3
0x80001738: 00 05 09 13 mv	s2, a0
0x8000173c: 00 06 0b 13 mv	s6, a2
0x80001740: 00 07 0a 13 mv	s4, a4
0x80001744: 04 05 94 63 bnez	a1, 0x48
0x80001748: 18 06 98 63 bnez	a3, 0x190
0x8000174c: 00 07 08 63 beqz	a4, 0x10
0x8000175c: 03 69 55 33 divu	a0, s2, s6
0x80001760: 00 00 05 93 mv	a1, zero
0x80001764: 01 c1 20 83 lw	ra, 0x1c(sp)
0x80001768: 01 81 24 03 lw	s0, 0x18(sp)
0x8000176c: 01 41 24 83 lw	s1, 0x14(sp)
0x80001770: 01 01 29 03 lw	s2, 0x10(sp)
0x80001774: 00 c1 29 83 lw	s3, 0xc(sp)
0x80001778: 00 81 2a 03 lw	s4, 8(sp)
0x8000177c: 00 41 2a 83 lw	s5, 4(sp)
0x80001780: 00 01 2b 03 lw	s6, 0(sp)
0x80001784: 02 01 01 13 addi	sp, sp, 0x20
0x80001788: 00 00 80 67 ret
0x80000088: fe 85 e0 e3 bltu	a1, s0, -0x20
0x8000008c: 00 b4 14 63 bne	s0, a1, 8
0x80000090: fc 95 6c e3 bltu	a0, s1, -0x28
0x80000068: 00 81 05 93 addi	a1, sp, 8
0x8000006c: 00 60 05 13 addi	a0, zero, 6
0x80000070: 0e 00 10 ef jal	0x10e0
0x80001150: 00 25 15 13 slli	a0, a0, 2
0x80001154: 00 01 07 97 auipc	a5, 0x10
0x80001158: ae 87 87 93 addi	a5, a5, -0x518
0x8000115c: 00 a7 87 b3 add	a5, a5, a0
0x80001160: 00 07 a7 83 lw	a5, 0(a5)
0x80001164: 00 05 85 13 mv	a0, a1
0x80001168: 00 07 80 67 jr	a5
0x8000118c: a0 00 07 b7 lui	a5, 0xa0000
0x80001190: 04 c7 a7 03 lw	a4, 0x4c(a5)
0x80001194: 04 87 a7 83 lw	a5, 0x48(a5)
0x80001198: 00 e5 22 23 sw	a4, 4(a0)
0x8000119c: 00 f5 20 23 sw	a5, 0(a0)
0x800011a0: 00 00 80 67 ret
0x80000074: 00 81 25 03 lw	a0, 8(sp)
0x80000078: 00 c1 25 83 lw	a1, 0xc(sp)
0x8000007c: 00 09 06 13 mv	a2, s2
0x80000080: 00 09 86 93 mv	a3, s3
0x80000084: 1b 10 10 ef jal	0x19b0
0x80001a34: 00 00 07 13 mv	a4, zero
0x80001a38: cd 9f f0 6f j	-0x328
0x80001710: fe 01 01 13 addi	sp, sp, -0x20
0x80001714: 01 21 28 23 sw	s2, 0x10(sp)
0x80001718: 01 41 24 23 sw	s4, 8(sp)
0x8000171c: 01 51 22 23 sw	s5, 4(sp)
0x80001720: 01 61 20 23 sw	s6, 0(sp)
0x80001724: 00 11 2e 23 sw	ra, 0x1c(sp)
0x80001728: 00 81 2c 23 sw	s0, 0x18(sp)
0x8000172c: 00 91 2a 23 sw	s1, 0x14(sp)
0x80001730: 01 31 26 23 sw	s3, 0xc(sp)
0x80001734: 00 06 8a 93 mv	s5, a3
0x80001738: 00 05 09 13 mv	s2, a0
0x8000173c: 00 06 0b 13 mv	s6, a2
0x80001740: 00 07 0a 13 mv	s4, a4
0x80001744: 04 05 94 63 bnez	a1, 0x48
0x80001748: 18 06 98 63 bnez	a3, 0x190
0x8000174c: 00 07 08 63 beqz	a4, 0x10
0x8000175c: 03 69 55 33 divu	a0, s2, s6
0x80001760: 00 00 05 93 mv	a1, zero
0x80001764: 01 c1 20 83 lw	ra, 0x1c(sp)
0x80001768: 01 81 24 03 lw	s0, 0x18(sp)
0x8000176c: 01 41 24 83 lw	s1, 0x14(sp)
0x80001770: 01 01 29 03 lw	s2, 0x10(sp)
0x80001774: 00 c1 29 83 lw	s3, 0xc(sp)
0x80001778: 00 81 2a 03 lw	s4, 8(sp)
0x8000177c: 00 41 2a 83 lw	s5, 4(sp)
0x80001780: 00 01 2b 03 lw	s6, 0(sp)
0x80001784: 02 01 01 13 addi	sp, sp, 0x20
0x80001788: 00 00 80 67 ret
0x80000088: fe 85 e0 e3 bltu	a1, s0, -0x20
0x8000008c: 00 b4 14 63 bne	s0, a1, 8
0x80000090: fc 95 6c e3 bltu	a0, s1, -0x28
0x80000068: 00 81 05 93 addi	a1, sp, 8
0x8000006c: 00 60 05 13 addi	a0, zero, 6
0x80000070: 0e 00 10 ef jal	0x10e0
0x80001150: 00 25 15 13 slli	a0, a0, 2
0x80001154: 00 01 07 97 auipc	a5, 0x10
0x80001158: ae 87 87 93 addi	a5, a5, -0x518
0x8000115c: 00 a7 87 b3 add	a5, a5, a0
0x80001160: 00 07 a7 83 lw	a5, 0(a5)
0x80001164: 00 05 85 13 mv	a0, a1
0x80001168: 00 07 80 67 jr	a5
0x8000118c: a0 00 07 b7 lui	a5, 0xa0000
0x80001190: 04 c7 a7 03 lw	a4, 0x4c(a5)
0x80001194: 04 87 a7 83 lw	a5, 0x48(a5)
0x80001198: 00 e5 22 23 sw	a4, 4(a0)
0x8000119c: 00 f5 20 23 sw	a5, 0(a0)
0x800011a0: 00 00 80 67 ret
0x80000074: 00 81 25 03 lw	a0, 8(sp)
0x80000078: 00 c1 25 83 lw	a1, 0xc(sp)
0x8000007c: 00 09 06 13 mv	a2, s2
0x80000080: 00 09 86 93 mv	a3, s3
0x80000084: 1b 10 10 ef jal	0x19b0
0x80001a34: 00 00 07 13 mv	a4, zero
0x80001a38: cd 9f f0 6f j	-0x328
0x80001710: fe 01 01 13 addi	sp, sp, -0x20
0x80001714: 01 21 28 23 sw	s2, 0x10(sp)
0x80001718: 01 41 24 23 sw	s4, 8(sp)
0x8000171c: 01 51 22 23 sw	s5, 4(sp)
0x80001720: 01 61 20 23 sw	s6, 0(sp)
0x80001724: 00 11 2e 23 sw	ra, 0x1c(sp)
0x80001728: 00 81 2c 23 sw	s0, 0x18(sp)
0x8000172c: 00 91 2a 23 sw	s1, 0x14(sp)
0x80001730: 01 31 26 23 sw	s3, 0xc(sp)
0x80001734: 00 06 8a 93 mv	s5, a3
0x80001738: 00 05 09 13 mv	s2, a0
0x8000173c: 00 06 0b 13 mv	s6, a2
0x80001740: 00 07 0a 13 mv	s4, a4
0x80001744: 04 05 94 63 bnez	a1, 0x48
0x80001748: 18 06 98 63 bnez	a3, 0x190
0x8000174c: 00 07 08 63 beqz	a4, 0x10
0x8000175c: 03 69 55 33 divu	a0, s2, s6
0x80001760: 00 00 05 93 mv	a1, zero
0x80001764: 01 c1 20 83 lw	ra, 0x1c(sp)
0x80001768: 01 81 24 03 lw	s0, 0x18(sp)
0x8000176c: 01 41 24 83 lw	s1, 0x14(sp)
0x80001770: 01 01 29 03 lw	s2, 0x10(sp)
0x80001774: 00 c1 29 83 lw	s3, 0xc(sp)
0x80001778: 00 81 2a 03 lw	s4, 8(sp)
0x8000177c: 00 41 2a 83 lw	s5, 4(sp)
0x80001780: 00 01 2b 03 lw	s6, 0(sp)
0x80001784: 02 01 01 13 addi	sp, sp, 0x20
0x80001788: 00 00 80 67 ret
0x80000088: fe 85 e0 e3 bltu	a1, s0, -0x20
0x8000008c: 00 b4 14 63 bne	s0, a1, 8
0x80000090: fc 95 6c e3 bltu	a0, s1, -0x28
0x80000068: 00 81 05 93 addi	a1, sp, 8
0x8000006c: 00 60 05 13 addi	a0, zero, 6
0x80000070: 0e 00 10 ef jal	0x10e0
0x80001150: 00 25 15 13 slli	a0, a0, 2
0x80001154: 00 01 07 97 auipc	a5, 0x10
0x80001158: ae 87 87 93 addi	a5, a5, -0x518
0x8000115c: 00 a7 87 b3 add	a5, a5, a0
0x80001160: 00 07 a7 83 lw	a5, 0(a5)
0x80001164: 00 05 85 13 mv	a0, a1
0x80001168: 00 07 80 67 jr	a5
0x8000118c: a0 00 07 b7 lui	a5, 0xa0000
0x80001190: 04 c7 a7 03 lw	a4, 0x4c(a5)
0x80001194: 04 87 a7 83 lw	a5, 0x48(a5)
0x80001198: 00 e5 22 23 sw	a4, 4(a0)
0x8000119c: 00 f5 20 23 sw	a5, 0(a0)
0x800011a0: 00 00 80 67 ret
0x80000074: 00 81 25 03 lw	a0, 8(sp)
0x80000078: 00 c1 25 83 lw	a1, 0xc(sp)
0x8000007c: 00 09 06 13 mv	a2, s2
0x80000080: 00 09 86 93 mv	a3, s3
0x80000084: 1b 10 10 ef jal	0x19b0
0x80001a34: 00 00 07 13 mv	a4, zero
0x80001a38: cd 9f f0 6f j	-0x328
0x80001710: fe 01 01 13 addi	sp, sp, -0x20
0x80001714: 01 21 28 23 sw	s2, 0x10(sp)
0x80001718: 01 41 24 23 sw	s4, 8(sp)
0x8000171c: 01 51 22 23 sw	s5, 4(sp)
0x80001720: 01 61 20 23 sw	s6, 0(sp)
0x80001724: 00 11 2e 23 sw	ra, 0x1c(sp)
0x80001728: 00 81 2c 23 sw	s0, 0x18(sp)
0x8000172c: 00 91 2a 23 sw	s1, 0x14(sp)
0x80001730: 01 31 26 23 sw	s3, 0xc(sp)
0x80001734: 00 06 8a 93 mv	s5, a3
0x80001738: 00 05 09 13 mv	s2, a0
0x8000173c: 00 06 0b 13 mv	s6, a2
0x80001740: 00 07 0a 13 mv	s4, a4
0x80001744: 04 05 94 63 bnez	a1, 0x48
0x80001748: 18 06 98 63 bnez	a3, 0x190
0x8000174c: 00 07 08 63 beqz	a4, 0x10
0x8000175c: 03 69 55 33 divu	a0, s2, s6
0x80001760: 00 00 05 93 mv	a1, zero
0x80001764: 01 c1 20 83 lw	ra, 0x1c(sp)
0x80001768: 01 81 24 03 lw	s0, 0x18(sp)
0x8000176c: 01 41 24 83 lw	s1, 0x14(sp)
0x80001770: 01 01 29 03 lw	s2, 0x10(sp)
0x80001774: 00 c1 29 83 lw	s3, 0xc(sp)
0x80001778: 00 81 2a 03 lw	s4, 8(sp)
0x8000177c: 00 41 2a 83 lw	s5, 4(sp)
0x80001780: 00 01 2b 03 lw	s6, 0(sp)
0x80001784: 02 01 01 13 addi	sp, sp, 0x20
0x80001788: 00 00 80 67 ret
0x80000088: fe 85 e0 e3 bltu	a1, s0, -0x20
0x8000008c: 00 b4 14 63 bne	s0, a1, 8
0x80000090: fc 95 6c e3 bltu	a0, s1, -0x28
0x80000068: 00 81 05 93 addi	a1, sp, 8
0x8000006c: 00 60 05 13 addi	a0, zero, 6
0x80000070: 0e 00 10 ef jal	0x10e0
0x80001150: 00 25 15 13 slli	a0, a0, 2
0x80001154: 00 01 07 97 auipc	a5, 0x10
0x80001158: ae 87 87 93 addi	a5, a5, -0x518
0x8000115c: 00 a7 87 b3 add	a5, a5, a0
0x80001160: 00 07 a7 83 lw	a5, 0(a5)
0x80001164: 00 05 85 13 mv	a0, a1
0x80001168: 00 07 80 67 jr	a5
0x8000118c: a0 00 07 b7 lui	a5, 0xa0000
0x80001190: 04 c7 a7 03 lw	a4, 0x4c(a5)
0x80001194: 04 87 a7 83 lw	a5, 0x48(a5)
0x80001198: 00 e5 22 23 sw	a4, 4(a0)
0x8000119c: 00 f5 20 23 sw	a5, 0(a0)
0x800011a0: 00 00 80 67 ret
0x80000074: 00 81 25 03 lw	a0, 8(sp)
0x80000078: 00 c1 25 83 lw	a1, 0xc(sp)
0x8000007c: 00 09 06 13 mv	a2, s2
0x80000080: 00 09 86 93 mv	a3, s3
0x80000084: 1b 10 10 ef jal	0x19b0
0x80001a34: 00 00 07 13 mv	a4, zero
0x80001a38: cd 9f f0 6f j	-0x328
0x80001710: fe 01 01 13 addi	sp, sp, -0x20
0x80001714: 01 21 28 23 sw	s2, 0x10(sp)
0x80001718: 01 41 24 23 sw	s4, 8(sp)
0x8000171c: 01 51 22 23 sw	s5, 4(sp)
0x80001720: 01 61 20 23 sw	s6, 0(sp)
0x80001724: 00 11 2e 23 sw	ra, 0x1c(sp)
0x80001728: 00 81 2c 23 sw	s0, 0x18(sp)
0x8000172c: 00 91 2a 23 sw	s1, 0x14(sp)
0x80001730: 01 31 26 23 sw	s3, 0xc(sp)
0x80001734: 00 06 8a 93 mv	s5, a3
0x80001738: 00 05 09 13 mv	s2, a0
0x8000173c: 00 06 0b 13 mv	s6, a2
0x80001740: 00 07 0a 13 mv	s4, a4
0x80001744: 04 05 94 63 bnez	a1, 0x48
0x80001748: 18 06 98 63 bnez	a3, 0x190
0x8000174c: 00 07 08 63 beqz	a4, 0x10
0x8000175c: 03 69 55 33 divu	a0, s2, s6
0x80001760: 00 00 05 93 mv	a1, zero
0x80001764: 01 c1 20 83 lw	ra, 0x1c(sp)
0x80001768: 01 81 24 03 lw	s0, 0x18(sp)
0x8000176c: 01 41 24 83 lw	s1, 0x14(sp)
0x80001770: 01 01 29 03 lw	s2, 0x10(sp)
0x80001774: 00 c1 29 83 lw	s3, 0xc(sp)
0x80001778: 00 81 2a 03 lw	s4, 8(sp)
0x8000177c: 00 41 2a 83 lw	s5, 4(sp)
0x80001780: 00 01 2b 03 lw	s6, 0(sp)
0x80001784: 02 01 01 13 addi	sp, sp, 0x20
0x80001788: 00 00 80 67 ret
0x80000088: fe 85 e0 e3 bltu	a1, s0, -0x20
0x8000008c: 00 b4 14 63 bne	s0, a1, 8
0x80000090: fc 95 6c e3 bltu	a0, s1, -0x28
0x80000068: 00 81 05 93 addi	a1, sp, 8
0x8000006c: 00 60 05 13 addi	a0, zero, 6
0x80000070: 0e 00 10 ef jal	0x10e0
0x80001150: 00 25 15 13 slli	a0, a0, 2
0x80001154: 00 01 07 97 auipc	a5, 0x10
0x80001158: ae 87 87 93 addi	a5, a5, -0x518
0x8000115c: 00 a7 87 b3 add	a5, a5, a0
0x80001160: 00 07 a7 83 lw	a5, 0(a5)
0x80001164: 00 05 85 13 mv	a0, a1
0x80001168: 00 07 80 67 jr	a5
0x8000118c: a0 00 07 b7 lui	a5, 0xa0000
0x80001190: 04 c7 a7 03 lw	a4, 0x4c(a5)
0x80001194: 04 87 a7 83 lw	a5, 0x48(a5)
0x80001198: 00 e5 22 23 sw	a4, 4(a0)
0x8000119c: 00 f5 20 23 sw	a5, 0(a0)
0x800011a0: 00 00 80 67 ret
0x80000074: 00 81 25 03 lw	a0, 8(sp)
0x80000078: 00 c1 25 83 lw	a1, 0xc(sp)
0x8000007c: 00 09 06 13 mv	a2, s2
0x80000080: 00 09 86 93 mv	a3, s3
0x80000084: 1b 10 10 ef jal	0x19b0
0x80001a34: 00 00 07 13 mv	a4, zero
0x80001a38: cd 9f f0 6f j	-0x328
0x80001710: fe 01 01 13 addi	sp, sp, -0x20
0x80001714: 01 21 28 23 sw	s2, 0x10(sp)
0x80001718: 01 41 24 23 sw	s4, 8(sp)
0x8000171c: 01 51 22 23 sw	s5, 4(sp)
0x80001720: 01 61 20 23 sw	s6, 0(sp)
0x80001724: 00 11 2e 23 sw	ra, 0x1c(sp)
0x80001728: 00 81 2c 23 sw	s0, 0x18(sp)
0x8000172c: 00 91 2a 23 sw	s1, 0x14(sp)
0x80001730: 01 31 26 23 sw	s3, 0xc(sp)
0x80001734: 00 06 8a 93 mv	s5, a3
0x80001738: 00 05 09 13 mv	s2, a0
0x8000173c: 00 06 0b 13 mv	s6, a2
0x80001740: 00 07 0a 13 mv	s4, a4
0x80001744: 04 05 94 63 bnez	a1, 0x48
0x80001748: 18 06 98 63 bnez	a3, 0x190
0x8000174c: 00 07 08 63 beqz	a4, 0x10
0x8000175c: 03 69 55 33 divu	a0, s2, s6
0x80001760: 00 00 05 93 mv	a1, zero
0x80001764: 01 c1 20 83 lw	ra, 0x1c(sp)
0x80001768: 01 81 24 03 lw	s0, 0x18(sp)
0x8000176c: 01 41 24 83 lw	s1, 0x14(sp)
0x80001770: 01 01 29 03 lw	s2, 0x10(sp)
0x80001774: 00 c1 29 83 lw	s3, 0xc(sp)
0x80001778: 00 81 2a 03 lw	s4, 8(sp)
0x8000177c: 00 41 2a 83 lw	s5, 4(sp)
0x80001780: 00 01 2b 03 lw	s6, 0(sp)
0x80001784: 02 01 01 13 addi	sp, sp, 0x20
0x80001788: 00 00 80 67 ret
0x80000088: fe 85 e0 e3 bltu	a1, s0, -0x20
0x8000008c: 00 b4 14 63 bne	s0, a1, 8
0x80000090: fc 95 6c e3 bltu	a0, s1, -0x28
0x80000068: 00 81 05 93 addi	a1, sp, 8
0x8000006c: 00 60 05 13 addi	a0, zero, 6
0x80000070: 0e 00 10 ef jal	0x10e0
0x80001150: 00 25 15 13 slli	a0, a0, 2
0x80001154: 00 01 07 97 auipc	a5, 0x10
0x80001158: ae 87 87 93 addi	a5, a5, -0x518
0x8000115c: 00 a7 87 b3 add	a5, a5, a0
0x80001160: 00 07 a7 83 lw	a5, 0(a5)
0x80001164: 00 05 85 13 mv	a0, a1
0x80001168: 00 07 80 67 jr	a5
0x8000118c: a0 00 07 b7 lui	a5, 0xa0000
0x80001190: 04 c7 a7 03 lw	a4, 0x4c(a5)
0x80001194: 04 87 a7 83 lw	a5, 0x48(a5)
0x80001198: 00 e5 22 23 sw	a4, 4(a0)
0x8000119c: 00 f5 20 23 sw	a5, 0(a0)
0x800011a0: 00 00 80 67 ret
0x80000074: 00 81 25 03 lw	a0, 8(sp)
0x80000078: 00 c1 25 83 lw	a1, 0xc(sp)
0x8000007c: 00 09 06 13 mv	a2, s2
0x80000080: 00 09 86 93 mv	a3, s3
0x80000084: 1b 10 10 ef jal	0x19b0
0x80001a34: 00 00 07 13 mv	a4, zero
0x80001a38: cd 9f f0 6f j	-0x328
0x80001710: fe 01 01 13 addi	sp, sp, -0x20
0x80001714: 01 21 28 23 sw	s2, 0x10(sp)
0x80001718: 01 41 24 23 sw	s4, 8(sp)
0x8000171c: 01 51 22 23 sw	s5, 4(sp)
0x80001720: 01 61 20 23 sw	s6, 0(sp)
0x80001724: 00 11 2e 23 sw	ra, 0x1c(sp)
0x80001728: 00 81 2c 23 sw	s0, 0x18(sp)
0x8000172c: 00 91 2a 23 sw	s1, 0x14(sp)
0x80001730: 01 31 26 23 sw	s3, 0xc(sp)
0x80001734: 00 06 8a 93 mv	s5, a3
0x80001738: 00 05 09 13 mv	s2, a0
0x8000173c: 00 06 0b 13 mv	s6, a2
0x80001740: 00 07 0a 13 mv	s4, a4
0x80001744: 04 05 94 63 bnez	a1, 0x48
0x80001748: 18 06 98 63 bnez	a3, 0x190
0x8000174c: 00 07 08 63 beqz	a4, 0x10
0x8000175c: 03 69 55 33 divu	a0, s2, s6
0x80001760: 00 00 05 93 mv	a1, zero
0x80001764: 01 c1 20 83 lw	ra, 0x1c(sp)
0x80001768: 01 81 24 03 lw	s0, 0x18(sp)
0x8000176c: 01 41 24 83 lw	s1, 0x14(sp)
0x80001770: 01 01 29 03 lw	s2, 0x10(sp)
0x80001774: 00 c1 29 83 lw	s3, 0xc(sp)
0x80001778: 00 81 2a 03 lw	s4, 8(sp)
0x8000177c: 00 41 2a 83 lw	s5, 4(sp)
0x80001780: 00 01 2b 03 lw	s6, 0(sp)
0x80001784: 02 01 01 13 addi	sp, sp, 0x20
0x80001788: 00 00 80 67 ret
0x80000088: fe 85 e0 e3 bltu	a1, s0, -0x20
0x8000008c: 00 b4 14 63 bne	s0, a1, 8
0x80000090: fc 95 6c e3 bltu	a0, s1, -0x28
0x80000068: 00 81 05 93 addi	a1, sp, 8
0x8000006c: 00 60 05 13 addi	a0, zero, 6
0x80000070: 0e 00 10 ef jal	0x10e0
0x80001150: 00 25 15 13 slli	a0, a0, 2
0x80001154: 00 01 07 97 auipc	a5, 0x10
0x80001158: ae 87 87 93 addi	a5, a5, -0x518
0x8000115c: 00 a7 87 b3 add	a5, a5, a0
0x80001160: 00 07 a7 83 lw	a5, 0(a5)
0x80001164: 00 05 85 13 mv	a0, a1
0x80001168: 00 07 80 67 jr	a5
0x8000118c: a0 00 07 b7 lui	a5, 0xa0000
0x80001190: 04 c7 a7 03 lw	a4, 0x4c(a5)
0x80001194: 04 87 a7 83 lw	a5, 0x48(a5)
0x80001198: 00 e5 22 23 sw	a4, 4(a0)
0x8000119c: 00 f5 20 23 sw	a5, 0(a0)
0x800011a0: 00 00 80 67 ret
0x80000074: 00 81 25 03 lw	a0, 8(sp)
0x80000078: 00 c1 25 83 lw	a1, 0xc(sp)
0x8000007c: 00 09 06 13 mv	a2, s2
0x80000080: 00 09 86 93 mv	a3, s3
0x80000084: 1b 10 10 ef jal	0x19b0
0x80001a34: 00 00 07 13 mv	a4, zero
0x80001a38: cd 9f f0 6f j	-0x328
0x80001710: fe 01 01 13 addi	sp, sp, -0x20
0x80001714: 01 21 28 23 sw	s2, 0x10(sp)
0x80001718: 01 41 24 23 sw	s4, 8(sp)
0x8000171c: 01 51 22 23 sw	s5, 4(sp)
0x80001720: 01 61 20 23 sw	s6, 0(sp)
0x80001724: 00 11 2e 23 sw	ra, 0x1c(sp)
0x80001728: 00 81 2c 23 sw	s0, 0x18(sp)
0x8000172c: 00 91 2a 23 sw	s1, 0x14(sp)
0x80001730: 01 31 26 23 sw	s3, 0xc(sp)
0x80001734: 00 06 8a 93 mv	s5, a3
0x80001738: 00 05 09 13 mv	s2, a0
0x8000173c: 00 06 0b 13 mv	s6, a2
0x80001740: 00 07 0a 13 mv	s4, a4
0x80001744: 04 05 94 63 bnez	a1, 0x48
0x80001748: 18 06 98 63 bnez	a3, 0x190
0x8000174c: 00 07 08 63 beqz	a4, 0x10
0x8000175c: 03 69 55 33 divu	a0, s2, s6
0x80001760: 00 00 05 93 mv	a1, zero
0x80001764: 01 c1 20 83 lw	ra, 0x1c(sp)
0x80001768: 01 81 24 03 lw	s0, 0x18(sp)
0x8000176c: 01 41 24 83 lw	s1, 0x14(sp)
0x80001770: 01 01 29 03 lw	s2, 0x10(sp)
0x80001774: 00 c1 29 83 lw	s3, 0xc(sp)
0x80001778: 00 81 2a 03 lw	s4, 8(sp)
0x8000177c: 00 41 2a 83 lw	s5, 4(sp)
0x80001780: 00 01 2b 03 lw	s6, 0(sp)
0x80001784: 02 01 01 13 addi	sp, sp, 0x20
0x80001788: 00 00 80 67 ret
0x80000088: fe 85 e0 e3 bltu	a1, s0, -0x20
0x8000008c: 00 b4 14 63 bne	s0, a1, 8
0x80000090: fc 95 6c e3 bltu	a0, s1, -0x28
0x80000068: 00 81 05 93 addi	a1, sp, 8
0x8000006c: 00 60 05 13 addi	a0, zero, 6
0x80000070: 0e 00 10 ef jal	0x10e0
0x80001150: 00 25 15 13 slli	a0, a0, 2
0x80001154: 00 01 07 97 auipc	a5, 0x10
0x80001158: ae 87 87 93 addi	a5, a5, -0x518
0x8000115c: 00 a7 87 b3 add	a5, a5, a0
0x80001160: 00 07 a7 83 lw	a5, 0(a5)
0x80001164: 00 05 85 13 mv	a0, a1
0x80001168: 00 07 80 67 jr	a5
0x8000118c: a0 00 07 b7 lui	a5, 0xa0000
0x80001190: 04 c7 a7 03 lw	a4, 0x4c(a5)
0x80001194: 04 87 a7 83 lw	a5, 0x48(a5)
0x80001198: 00 e5 22 23 sw	a4, 4(a0)
0x8000119c: 00 f5 20 23 sw	a5, 0(a0)
0x800011a0: 00 00 80 67 ret
0x80000074: 00 81 25 03 lw	a0, 8(sp)
0x80000078: 00 c1 25 83 lw	a1, 0xc(sp)
0x8000007c: 00 09 06 13 mv	a2, s2
0x80000080: 00 09 86 93 mv	a3, s3
0x80000084: 1b 10 10 ef jal	0x19b0
0x80001a34: 00 00 07 13 mv	a4, zero
0x80001a38: cd 9f f0 6f j	-0x328
0x80001710: fe 01 01 13 addi	sp, sp, -0x20
0x80001714: 01 21 28 23 sw	s2, 0x10(sp)
0x80001718: 01 41 24 23 sw	s4, 8(sp)
0x8000171c: 01 51 22 23 sw	s5, 4(sp)
0x80001720: 01 61 20 23 sw	s6, 0(sp)
0x80001724: 00 11 2e 23 sw	ra, 0x1c(sp)
0x80001728: 00 81 2c 23 sw	s0, 0x18(sp)
0x8000172c: 00 91 2a 23 sw	s1, 0x14(sp)
0x80001730: 01 31 26 23 sw	s3, 0xc(sp)
0x80001734: 00 06 8a 93 mv	s5, a3
0x80001738: 00 05 09 13 mv	s2, a0
0x8000173c: 00 06 0b 13 mv	s6, a2
0x80001740: 00 07 0a 13 mv	s4, a4
0x80001744: 04 05 94 63 bnez	a1, 0x48
0x80001748: 18 06 98 63 bnez	a3, 0x190
0x8000174c: 00 07 08 63 beqz	a4, 0x10
0x8000175c: 03 69 55 33 divu	a0, s2, s6
0x80001760: 00 00 05 93 mv	a1, zero
0x80001764: 01 c1 20 83 lw	ra, 0x1c(sp)
0x80001768: 01 81 24 03 lw	s0, 0x18(sp)
0x8000176c: 01 41 24 83 lw	s1, 0x14(sp)
0x80001770: 01 01 29 03 lw	s2, 0x10(sp)
0x80001774: 00 c1 29 83 lw	s3, 0xc(sp)
0x80001778: 00 81 2a 03 lw	s4, 8(sp)
0x8000177c: 00 41 2a 83 lw	s5, 4(sp)
0x80001780: 00 01 2b 03 lw	s6, 0(sp)
0x80001784: 02 01 01 13 addi	sp, sp, 0x20
0x80001788: 00 00 80 67 ret
0x80000088: fe 85 e0 e3 bltu	a1, s0, -0x20
0x8000008c: 00 b4 14 63 bne	s0, a1, 8
0x80000090: fc 95 6c e3 bltu	a0, s1, -0x28
0x80000068: 00 81 05 93 addi	a1, sp, 8
0x8000006c: 00 60 05 13 addi	a0, zero, 6
0x80000070: 0e 00 10 ef jal	0x10e0
0x80001150: 00 25 15 13 slli	a0, a0, 2
0x80001154: 00 01 07 97 auipc	a5, 0x10
0x80001158: ae 87 87 93 addi	a5, a5, -0x518
0x8000115c: 00 a7 87 b3 add	a5, a5, a0
0x80001160: 00 07 a7 83 lw	a5, 0(a5)
0x80001164: 00 05 85 13 mv	a0, a1
0x80001168: 00 07 80 67 jr	a5
0x8000118c: a0 00 07 b7 lui	a5, 0xa0000
0x80001190: 04 c7 a7 03 lw	a4, 0x4c(a5)
0x80001194: 04 87 a7 83 lw	a5, 0x48(a5)
0x80001198: 00 e5 22 23 sw	a4, 4(a0)
0x8000119c: 00 f5 20 23 sw	a5, 0(a0)
0x800011a0: 00 00 80 67 ret
0x80000074: 00 81 25 03 lw	a0, 8(sp)
0x80000078: 00 c1 25 83 lw	a1, 0xc(sp)
0x8000007c: 00 09 06 13 mv	a2, s2
0x80000080: 00 09 86 93 mv	a3, s3
0x80000084: 1b 10 10 ef jal	0x19b0
0x80001a34: 00 00 07 13 mv	a4, zero
0x80001a38: cd 9f f0 6f j	-0x328
0x80001710: fe 01 01 13 addi	sp, sp, -0x20
0x80001714: 01 21 28 23 sw	s2, 0x10(sp)
0x80001718: 01 41 24 23 sw	s4, 8(sp)
0x8000171c: 01 51 22 23 sw	s5, 4(sp)
0x80001720: 01 61 20 23 sw	s6, 0(sp)
0x80001724: 00 11 2e 23 sw	ra, 0x1c(sp)
0x80001728: 00 81 2c 23 sw	s0, 0x18(sp)
0x8000172c: 00 91 2a 23 sw	s1, 0x14(sp)
0x80001730: 01 31 26 23 sw	s3, 0xc(sp)
0x80001734: 00 06 8a 93 mv	s5, a3
0x80001738: 00 05 09 13 mv	s2, a0
0x8000173c: 00 06 0b 13 mv	s6, a2
0x80001740: 00 07 0a 13 mv	s4, a4
0x80001744: 04 05 94 63 bnez	a1, 0x48
0x80001748: 18 06 98 63 bnez	a3, 0x190
0x8000174c: 00 07 08 63 beqz	a4, 0x10
0x8000175c: 03 69 55 33 divu	a0, s2, s6
0x80001760: 00 00 05 93 mv	a1, zero
0x80001764: 01 c1 20 83 lw	ra, 0x1c(sp)
0x80001768: 01 81 24 03 lw	s0, 0x18(sp)
0x8000176c: 01 41 24 83 lw	s1, 0x14(sp)
0x80001770: 01 01 29 03 lw	s2, 0x10(sp)
0x80001774: 00 c1 29 83 lw	s3, 0xc(sp)
0x80001778: 00 81 2a 03 lw	s4, 8(sp)
0x8000177c: 00 41 2a 83 lw	s5, 4(sp)
0x80001780: 00 01 2b 03 lw	s6, 0(sp)
0x80001784: 02 01 01 13 addi	sp, sp, 0x20
0x80001788: 00 00 80 67 ret
0x80000088: fe 85 e0 e3 bltu	a1, s0, -0x20
0x8000008c: 00 b4 14 63 bne	s0, a1, 8
0x80000090: fc 95 6c e3 bltu	a0, s1, -0x28
0x80000068: 00 81 05 93 addi	a1, sp, 8
0x8000006c: 00 60 05 13 addi	a0, zero, 6
0x80000070: 0e 00 10 ef jal	0x10e0
0x80001150: 00 25 15 13 slli	a0, a0, 2
0x80001154: 00 01 07 97 auipc	a5, 0x10
0x80001158: ae 87 87 93 addi	a5, a5, -0x518
0x8000115c: 00 a7 87 b3 add	a5, a5, a0
0x80001160: 00 07 a7 83 lw	a5, 0(a5)
0x80001164: 00 05 85 13 mv	a0, a1
0x80001168: 00 07 80 67 jr	a5
0x8000118c: a0 00 07 b7 lui	a5, 0xa0000
0x80001190: 04 c7 a7 03 lw	a4, 0x4c(a5)
0x80001194: 04 87 a7 83 lw	a5, 0x48(a5)
0x80001198: 00 e5 22 23 sw	a4, 4(a0)
0x8000119c: 00 f5 20 23 sw	a5, 0(a0)
0x800011a0: 00 00 80 67 ret
0x80000074: 00 81 25 03 lw	a0, 8(sp)
0x80000078: 00 c1 25 83 lw	a1, 0xc(sp)
0x8000007c: 00 09 06 13 mv	a2, s2
0x80000080: 00 09 86 93 mv	a3, s3
0x80000084: 1b 10 10 ef jal	0x19b0
0x80001a34: 00 00 07 13 mv	a4, zero
0x80001a38: cd 9f f0 6f j	-0x328
0x80001710: fe 01 01 13 addi	sp, sp, -0x20
0x80001714: 01 21 28 23 sw	s2, 0x10(sp)
0x80001718: 01 41 24 23 sw	s4, 8(sp)
0x8000171c: 01 51 22 23 sw	s5, 4(sp)
0x80001720: 01 61 20 23 sw	s6, 0(sp)
0x80001724: 00 11 2e 23 sw	ra, 0x1c(sp)
0x80001728: 00 81 2c 23 sw	s0, 0x18(sp)
0x8000172c: 00 91 2a 23 sw	s1, 0x14(sp)
0x80001730: 01 31 26 23 sw	s3, 0xc(sp)
0x80001734: 00 06 8a 93 mv	s5, a3
0x80001738: 00 05 09 13 mv	s2, a0
0x8000173c: 00 06 0b 13 mv	s6, a2
0x80001740: 00 07 0a 13 mv	s4, a4
0x80001744: 04 05 94 63 bnez	a1, 0x48
0x80001748: 18 06 98 63 bnez	a3, 0x190
0x8000174c: 00 07 08 63 beqz	a4, 0x10
0x8000175c: 03 69 55 33 divu	a0, s2, s6
0x80001760: 00 00 05 93 mv	a1, zero
0x80001764: 01 c1 20 83 lw	ra, 0x1c(sp)
0x80001768: 01 81 24 03 lw	s0, 0x18(sp)
0x8000176c: 01 41 24 83 lw	s1, 0x14(sp)
0x80001770: 01 01 29 03 lw	s2, 0x10(sp)
0x80001774: 00 c1 29 83 lw	s3, 0xc(sp)
0x80001778: 00 81 2a 03 lw	s4, 8(sp)
0x8000177c: 00 41 2a 83 lw	s5, 4(sp)
0x80001780: 00 01 2b 03 lw	s6, 0(sp)
0x80001784: 02 01 01 13 addi	sp, sp, 0x20
0x80001788: 00 00 80 67 ret
0x80000088: fe 85 e0 e3 bltu	a1, s0, -0x20
0x8000008c: 00 b4 14 63 bne	s0, a1, 8
0x80000090: fc 95 6c e3 bltu	a0, s1, -0x28
0x80000068: 00 81 05 93 addi	a1, sp, 8
0x8000006c: 00 60 05 13 addi	a0, zero, 6
0x80000070: 0e 00 10 ef jal	0x10e0
0x80001150: 00 25 15 13 slli	a0, a0, 2
0x80001154: 00 01 07 97 auipc	a5, 0x10
0x80001158: ae 87 87 93 addi	a5, a5, -0x518
0x8000115c: 00 a7 87 b3 add	a5, a5, a0
0x80001160: 00 07 a7 83 lw	a5, 0(a5)
0x80001164: 00 05 85 13 mv	a0, a1
0x80001168: 00 07 80 67 jr	a5
0x8000118c: a0 00 07 b7 lui	a5, 0xa0000
0x80001190: 04 c7 a7 03 lw	a4, 0x4c(a5)
0x80001194: 04 87 a7 83 lw	a5, 0x48(a5)
0x80001198: 00 e5 22 23 sw	a4, 4(a0)
0x8000119c: 00 f5 20 23 sw	a5, 0(a0)
0x800011a0: 00 00 80 67 ret
0x80000074: 00 81 25 03 lw	a0, 8(sp)
0x80000078: 00 c1 25 83 lw	a1, 0xc(sp)
0x8000007c: 00 09 06 13 mv	a2, s2
0x80000080: 00 09 86 93 mv	a3, s3
0x80000084: 1b 10 10 ef jal	0x19b0
0x80001a34: 00 00 07 13 mv	a4, zero
0x80001a38: cd 9f f0 6f j	-0x328
0x80001710: fe 01 01 13 addi	sp, sp, -0x20
0x80001714: 01 21 28 23 sw	s2, 0x10(sp)
0x80001718: 01 41 24 23 sw	s4, 8(sp)
0x8000171c: 01 51 22 23 sw	s5, 4(sp)
0x80001720: 01 61 20 23 sw	s6, 0(sp)
0x80001724: 00 11 2e 23 sw	ra, 0x1c(sp)
0x80001728: 00 81 2c 23 sw	s0, 0x18(sp)
0x8000172c: 00 91 2a 23 sw	s1, 0x14(sp)
0x80001730: 01 31 26 23 sw	s3, 0xc(sp)
0x80001734: 00 06 8a 93 mv	s5, a3
0x80001738: 00 05 09 13 mv	s2, a0
0x8000173c: 00 06 0b 13 mv	s6, a2
0x80001740: 00 07 0a 13 mv	s4, a4
0x80001744: 04 05 94 63 bnez	a1, 0x48
0x80001748: 18 06 98 63 bnez	a3, 0x190
0x8000174c: 00 07 08 63 beqz	a4, 0x10
0x8000175c: 03 69 55 33 divu	a0, s2, s6
0x80001760: 00 00 05 93 mv	a1, zero
0x80001764: 01 c1 20 83 lw	ra, 0x1c(sp)
0x80001768: 01 81 24 03 lw	s0, 0x18(sp)
0x8000176c: 01 41 24 83 lw	s1, 0x14(sp)
0x80001770: 01 01 29 03 lw	s2, 0x10(sp)
0x80001774: 00 c1 29 83 lw	s3, 0xc(sp)
0x80001778: 00 81 2a 03 lw	s4, 8(sp)
0x8000177c: 00 41 2a 83 lw	s5, 4(sp)
0x80001780: 00 01 2b 03 lw	s6, 0(sp)
0x80001784: 02 01 01 13 addi	sp, sp, 0x20
0x80001788: 00 00 80 67 ret
0x80000088: fe 85 e0 e3 bltu	a1, s0, -0x20
0x8000008c: 00 b4 14 63 bne	s0, a1, 8
0x80000090: fc 95 6c e3 bltu	a0, s1, -0x28
0x80000068: 00 81 05 93 addi	a1, sp, 8
0x8000006c: 00 60 05 13 addi	a0, zero, 6
0x80000070: 0e 00 10 ef jal	0x10e0
0x80001150: 00 25 15 13 slli	a0, a0, 2
0x80001154: 00 01 07 97 auipc	a5, 0x10
0x80001158: ae 87 87 93 addi	a5, a5, -0x518
0x8000115c: 00 a7 87 b3 add	a5, a5, a0
0x80001160: 00 07 a7 83 lw	a5, 0(a5)
0x80001164: 00 05 85 13 mv	a0, a1
0x80001168: 00 07 80 67 jr	a5
0x8000118c: a0 00 07 b7 lui	a5, 0xa0000
0x80001190: 04 c7 a7 03 lw	a4, 0x4c(a5)
0x80001194: 04 87 a7 83 lw	a5, 0x48(a5)
0x80001198: 00 e5 22 23 sw	a4, 4(a0)
0x8000119c: 00 f5 20 23 sw	a5, 0(a0)
0x800011a0: 00 00 80 67 ret
0x80000074: 00 81 25 03 lw	a0, 8(sp)
0x80000078: 00 c1 25 83 lw	a1, 0xc(sp)
0x8000007c: 00 09 06 13 mv	a2, s2
0x80000080: 00 09 86 93 mv	a3, s3
0x80000084: 1b 10 10 ef jal	0x19b0
0x80001a34: 00 00 07 13 mv	a4, zero
0x80001a38: cd 9f f0 6f j	-0x328
0x80001710: fe 01 01 13 addi	sp, sp, -0x20
0x80001714: 01 21 28 23 sw	s2, 0x10(sp)
0x80001718: 01 41 24 23 sw	s4, 8(sp)
0x8000171c: 01 51 22 23 sw	s5, 4(sp)
0x80001720: 01 61 20 23 sw	s6, 0(sp)
0x80001724: 00 11 2e 23 sw	ra, 0x1c(sp)
0x80001728: 00 81 2c 23 sw	s0, 0x18(sp)
0x8000172c: 00 91 2a 23 sw	s1, 0x14(sp)
0x80001730: 01 31 26 23 sw	s3, 0xc(sp)
0x80001734: 00 06 8a 93 mv	s5, a3
0x80001738: 00 05 09 13 mv	s2, a0
0x8000173c: 00 06 0b 13 mv	s6, a2
0x80001740: 00 07 0a 13 mv	s4, a4
0x80001744: 04 05 94 63 bnez	a1, 0x48
0x80001748: 18 06 98 63 bnez	a3, 0x190
0x8000174c: 00 07 08 63 beqz	a4, 0x10
0x8000175c: 03 69 55 33 divu	a0, s2, s6
0x80001760: 00 00 05 93 mv	a1, zero
0x80001764: 01 c1 20 83 lw	ra, 0x1c(sp)
0x80001768: 01 81 24 03 lw	s0, 0x18(sp)
0x8000176c: 01 41 24 83 lw	s1, 0x14(sp)
0x80001770: 01 01 29 03 lw	s2, 0x10(sp)
0x80001774: 00 c1 29 83 lw	s3, 0xc(sp)
0x80001778: 00 81 2a 03 lw	s4, 8(sp)
0x8000177c: 00 41 2a 83 lw	s5, 4(sp)
0x80001780: 00 01 2b 03 lw	s6, 0(sp)
0x80001784: 02 01 01 13 addi	sp, sp, 0x20
0x80001788: 00 00 80 67 ret
0x80000088: fe 85 e0 e3 bltu	a1, s0, -0x20
0x8000008c: 00 b4 14 63 bne	s0, a1, 8
0x80000090: fc 95 6c e3 bltu	a0, s1, -0x28
0x80000068: 00 81 05 93 addi	a1, sp, 8
0x8000006c: 00 60 05 13 addi	a0, zero, 6
0x80000070: 0e 00 10 ef jal	0x10e0
0x80001150: 00 25 15 13 slli	a0, a0, 2
0x80001154: 00 01 07 97 auipc	a5, 0x10
0x80001158: ae 87 87 93 addi	a5, a5, -0x518
0x8000115c: 00 a7 87 b3 add	a5, a5, a0
0x80001160: 00 07 a7 83 lw	a5, 0(a5)
0x80001164: 00 05 85 13 mv	a0, a1
0x80001168: 00 07 80 67 jr	a5
0x8000118c: a0 00 07 b7 lui	a5, 0xa0000
0x80001190: 04 c7 a7 03 lw	a4, 0x4c(a5)
0x80001194: 04 87 a7 83 lw	a5, 0x48(a5)
0x80001198: 00 e5 22 23 sw	a4, 4(a0)
0x8000119c: 00 f5 20 23 sw	a5, 0(a0)
0x800011a0: 00 00 80 67 ret
0x80000074: 00 81 25 03 lw	a0, 8(sp)
0x80000078: 00 c1 25 83 lw	a1, 0xc(sp)
0x8000007c: 00 09 06 13 mv	a2, s2
0x80000080: 00 09 86 93 mv	a3, s3
0x80000084: 1b 10 10 ef jal	0x19b0
0x80001a34: 00 00 07 13 mv	a4, zero
0x80001a38: cd 9f f0 6f j	-0x328
0x80001710: fe 01 01 13 addi	sp, sp, -0x20
0x80001714: 01 21 28 23 sw	s2, 0x10(sp)
0x80001718: 01 41 24 23 sw	s4, 8(sp)
0x8000171c: 01 51 22 23 sw	s5, 4(sp)
0x80001720: 01 61 20 23 sw	s6, 0(sp)
0x80001724: 00 11 2e 23 sw	ra, 0x1c(sp)
0x80001728: 00 81 2c 23 sw	s0, 0x18(sp)
0x8000172c: 00 91 2a 23 sw	s1, 0x14(sp)
0x80001730: 01 31 26 23 sw	s3, 0xc(sp)
0x80001734: 00 06 8a 93 mv	s5, a3
0x80001738: 00 05 09 13 mv	s2, a0
0x8000173c: 00 06 0b 13 mv	s6, a2
0x80001740: 00 07 0a 13 mv	s4, a4
0x80001744: 04 05 94 63 bnez	a1, 0x48
0x80001748: 18 06 98 63 bnez	a3, 0x190
0x8000174c: 00 07 08 63 beqz	a4, 0x10
0x8000175c: 03 69 55 33 divu	a0, s2, s6
0x80001760: 00 00 05 93 mv	a1, zero
0x80001764: 01 c1 20 83 lw	ra, 0x1c(sp)
0x80001768: 01 81 24 03 lw	s0, 0x18(sp)
0x8000176c: 01 41 24 83 lw	s1, 0x14(sp)
0x80001770: 01 01 29 03 lw	s2, 0x10(sp)
0x80001774: 00 c1 29 83 lw	s3, 0xc(sp)
0x80001778: 00 81 2a 03 lw	s4, 8(sp)
0x8000177c: 00 41 2a 83 lw	s5, 4(sp)
0x80001780: 00 01 2b 03 lw	s6, 0(sp)
0x80001784: 02 01 01 13 addi	sp, sp, 0x20
0x80001788: 00 00 80 67 ret
0x80000088: fe 85 e0 e3 bltu	a1, s0, -0x20
0x8000008c: 00 b4 14 63 bne	s0, a1, 8
0x80000090: fc 95 6c e3 bltu	a0, s1, -0x28
0x80000068: 00 81 05 93 addi	a1, sp, 8
0x8000006c: 00 60 05 13 addi	a0, zero, 6
0x80000070: 0e 00 10 ef jal	0x10e0
0x80001150: 00 25 15 13 slli	a0, a0, 2
0x80001154: 00 01 07 97 auipc	a5, 0x10
0x80001158: ae 87 87 93 addi	a5, a5, -0x518
0x8000115c: 00 a7 87 b3 add	a5, a5, a0
0x80001160: 00 07 a7 83 lw	a5, 0(a5)
0x80001164: 00 05 85 13 mv	a0, a1
0x80001168: 00 07 80 67 jr	a5
0x8000118c: a0 00 07 b7 lui	a5, 0xa0000
0x80001190: 04 c7 a7 03 lw	a4, 0x4c(a5)
0x80001194: 04 87 a7 83 lw	a5, 0x48(a5)
0x80001198: 00 e5 22 23 sw	a4, 4(a0)
0x8000119c: 00 f5 20 23 sw	a5, 0(a0)
0x800011a0: 00 00 80 67 ret
0x80000074: 00 81 25 03 lw	a0, 8(sp)
0x80000078: 00 c1 25 83 lw	a1, 0xc(sp)
0x8000007c: 00 09 06 13 mv	a2, s2
0x80000080: 00 09 86 93 mv	a3, s3
0x80000084: 1b 10 10 ef jal	0x19b0
0x80001a34: 00 00 07 13 mv	a4, zero
0x80001a38: cd 9f f0 6f j	-0x328
0x80001710: fe 01 01 13 addi	sp, sp, -0x20
0x80001714: 01 21 28 23 sw	s2, 0x10(sp)
0x80001718: 01 41 24 23 sw	s4, 8(sp)
0x8000171c: 01 51 22 23 sw	s5, 4(sp)
0x80001720: 01 61 20 23 sw	s6, 0(sp)
0x80001724: 00 11 2e 23 sw	ra, 0x1c(sp)
0x80001728: 00 81 2c 23 sw	s0, 0x18(sp)
0x8000172c: 00 91 2a 23 sw	s1, 0x14(sp)
0x80001730: 01 31 26 23 sw	s3, 0xc(sp)
0x80001734: 00 06 8a 93 mv	s5, a3
0x80001738: 00 05 09 13 mv	s2, a0
0x8000173c: 00 06 0b 13 mv	s6, a2
0x80001740: 00 07 0a 13 mv	s4, a4
0x80001744: 04 05 94 63 bnez	a1, 0x48
0x80001748: 18 06 98 63 bnez	a3, 0x190
0x8000174c: 00 07 08 63 beqz	a4, 0x10
0x8000175c: 03 69 55 33 divu	a0, s2, s6
0x80001760: 00 00 05 93 mv	a1, zero
0x80001764: 01 c1 20 83 lw	ra, 0x1c(sp)
0x80001768: 01 81 24 03 lw	s0, 0x18(sp)
0x8000176c: 01 41 24 83 lw	s1, 0x14(sp)
0x80001770: 01 01 29 03 lw	s2, 0x10(sp)
0x80001774: 00 c1 29 83 lw	s3, 0xc(sp)
0x80001778: 00 81 2a 03 lw	s4, 8(sp)
0x8000177c: 00 41 2a 83 lw	s5, 4(sp)
0x80001780: 00 01 2b 03 lw	s6, 0(sp)
0x80001784: 02 01 01 13 addi	sp, sp, 0x20
0x80001788: 00 00 80 67 ret
0x80000088: fe 85 e0 e3 bltu	a1, s0, -0x20
0x8000008c: 00 b4 14 63 bne	s0, a1, 8
0x80000090: fc 95 6c e3 bltu	a0, s1, -0x28
0x80000068: 00 81 05 93 addi	a1, sp, 8
0x8000006c: 00 60 05 13 addi	a0, zero, 6
0x80000070: 0e 00 10 ef jal	0x10e0
0x80001150: 00 25 15 13 slli	a0, a0, 2
0x80001154: 00 01 07 97 auipc	a5, 0x10
0x80001158: ae 87 87 93 addi	a5, a5, -0x518
0x8000115c: 00 a7 87 b3 add	a5, a5, a0
0x80001160: 00 07 a7 83 lw	a5, 0(a5)
0x80001164: 00 05 85 13 mv	a0, a1
0x80001168: 00 07 80 67 jr	a5
0x8000118c: a0 00 07 b7 lui	a5, 0xa0000
0x80001190: 04 c7 a7 03 lw	a4, 0x4c(a5)
0x80001194: 04 87 a7 83 lw	a5, 0x48(a5)
0x80001198: 00 e5 22 23 sw	a4, 4(a0)
0x8000119c: 00 f5 20 23 sw	a5, 0(a0)
0x800011a0: 00 00 80 67 ret
0x80000074: 00 81 25 03 lw	a0, 8(sp)
0x80000078: 00 c1 25 83 lw	a1, 0xc(sp)
0x8000007c: 00 09 06 13 mv	a2, s2
0x80000080: 00 09 86 93 mv	a3, s3
0x80000084: 1b 10 10 ef jal	0x19b0
0x80001a34: 00 00 07 13 mv	a4, zero
0x80001a38: cd 9f f0 6f j	-0x328
0x80001710: fe 01 01 13 addi	sp, sp, -0x20
0x80001714: 01 21 28 23 sw	s2, 0x10(sp)
0x80001718: 01 41 24 23 sw	s4, 8(sp)
0x8000171c: 01 51 22 23 sw	s5, 4(sp)
0x80001720: 01 61 20 23 sw	s6, 0(sp)
0x80001724: 00 11 2e 23 sw	ra, 0x1c(sp)
0x80001728: 00 81 2c 23 sw	s0, 0x18(sp)
0x8000172c: 00 91 2a 23 sw	s1, 0x14(sp)
0x80001730: 01 31 26 23 sw	s3, 0xc(sp)
0x80001734: 00 06 8a 93 mv	s5, a3
0x80001738: 00 05 09 13 mv	s2, a0
0x8000173c: 00 06 0b 13 mv	s6, a2
0x80001740: 00 07 0a 13 mv	s4, a4
0x80001744: 04 05 94 63 bnez	a1, 0x48
0x80001748: 18 06 98 63 bnez	a3, 0x190
0x8000174c: 00 07 08 63 beqz	a4, 0x10
0x8000175c: 03 69 55 33 divu	a0, s2, s6
0x80001760: 00 00 05 93 mv	a1, zero
0x80001764: 01 c1 20 83 lw	ra, 0x1c(sp)
0x80001768: 01 81 24 03 lw	s0, 0x18(sp)
0x8000176c: 01 41 24 83 lw	s1, 0x14(sp)
0x80001770: 01 01 29 03 lw	s2, 0x10(sp)
0x80001774: 00 c1 29 83 lw	s3, 0xc(sp)
0x80001778: 00 81 2a 03 lw	s4, 8(sp)
0x8000177c: 00 41 2a 83 lw	s5, 4(sp)
0x80001780: 00 01 2b 03 lw	s6, 0(sp)
0x80001784: 02 01 01 13 addi	sp, sp, 0x20
0x80001788: 00 00 80 67 ret
0x80000088: fe 85 e0 e3 bltu	a1, s0, -0x20
0x8000008c: 00 b4 14 63 bne	s0, a1, 8
0x80000090: fc 95 6c e3 bltu	a0, s1, -0x28
0x80000068: 00 81 05 93 addi	a1, sp, 8
0x8000006c: 00 60 05 13 addi	a0, zero, 6
0x80000070: 0e 00 10 ef jal	0x10e0
0x80001150: 00 25 15 13 slli	a0, a0, 2
0x80001154: 00 01 07 97 auipc	a5, 0x10
0x80001158: ae 87 87 93 addi	a5, a5, -0x518
0x8000115c: 00 a7 87 b3 add	a5, a5, a0
0x80001160: 00 07 a7 83 lw	a5, 0(a5)
0x80001164: 00 05 85 13 mv	a0, a1
0x80001168: 00 07 80 67 jr	a5
0x8000118c: a0 00 07 b7 lui	a5, 0xa0000
0x80001190: 04 c7 a7 03 lw	a4, 0x4c(a5)
0x80001194: 04 87 a7 83 lw	a5, 0x48(a5)
0x80001198: 00 e5 22 23 sw	a4, 4(a0)
0x8000119c: 00 f5 20 23 sw	a5, 0(a0)
0x800011a0: 00 00 80 67 ret
0x80000074: 00 81 25 03 lw	a0, 8(sp)
0x80000078: 00 c1 25 83 lw	a1, 0xc(sp)
0x8000007c: 00 09 06 13 mv	a2, s2
0x80000080: 00 09 86 93 mv	a3, s3
0x80000084: 1b 10 10 ef jal	0x19b0
0x80001a34: 00 00 07 13 mv	a4, zero
0x80001a38: cd 9f f0 6f j	-0x328
0x80001710: fe 01 01 13 addi	sp, sp, -0x20
0x80001714: 01 21 28 23 sw	s2, 0x10(sp)
0x80001718: 01 41 24 23 sw	s4, 8(sp)
0x8000171c: 01 51 22 23 sw	s5, 4(sp)
0x80001720: 01 61 20 23 sw	s6, 0(sp)
0x80001724: 00 11 2e 23 sw	ra, 0x1c(sp)
0x80001728: 00 81 2c 23 sw	s0, 0x18(sp)
0x8000172c: 00 91 2a 23 sw	s1, 0x14(sp)
0x80001730: 01 31 26 23 sw	s3, 0xc(sp)
0x80001734: 00 06 8a 93 mv	s5, a3
0x80001738: 00 05 09 13 mv	s2, a0
0x8000173c: 00 06 0b 13 mv	s6, a2
0x80001740: 00 07 0a 13 mv	s4, a4
0x80001744: 04 05 94 63 bnez	a1, 0x48
0x80001748: 18 06 98 63 bnez	a3, 0x190
0x8000174c: 00 07 08 63 beqz	a4, 0x10
0x8000175c: 03 69 55 33 divu	a0, s2, s6
0x80001760: 00 00 05 93 mv	a1, zero
0x80001764: 01 c1 20 83 lw	ra, 0x1c(sp)
0x80001768: 01 81 24 03 lw	s0, 0x18(sp)
0x8000176c: 01 41 24 83 lw	s1, 0x14(sp)
0x80001770: 01 01 29 03 lw	s2, 0x10(sp)
0x80001774: 00 c1 29 83 lw	s3, 0xc(sp)
0x80001778: 00 81 2a 03 lw	s4, 8(sp)
0x8000177c: 00 41 2a 83 lw	s5, 4(sp)
0x80001780: 00 01 2b 03 lw	s6, 0(sp)
0x80001784: 02 01 01 13 addi	sp, sp, 0x20
0x80001788: 00 00 80 67 ret
0x80000088: fe 85 e0 e3 bltu	a1, s0, -0x20
0x8000008c: 00 b4 14 63 bne	s0, a1, 8
0x80000090: fc 95 6c e3 bltu	a0, s1, -0x28
0x80000068: 00 81 05 93 addi	a1, sp, 8
0x8000006c: 00 60 05 13 addi	a0, zero, 6
0x80000070: 0e 00 10 ef jal	0x10e0
0x80001150: 00 25 15 13 slli	a0, a0, 2
0x80001154: 00 01 07 97 auipc	a5, 0x10
0x80001158: ae 87 87 93 addi	a5, a5, -0x518
0x8000115c: 00 a7 87 b3 add	a5, a5, a0
0x80001160: 00 07 a7 83 lw	a5, 0(a5)
0x80001164: 00 05 85 13 mv	a0, a1
0x80001168: 00 07 80 67 jr	a5
0x8000118c: a0 00 07 b7 lui	a5, 0xa0000
0x80001190: 04 c7 a7 03 lw	a4, 0x4c(a5)
0x80001194: 04 87 a7 83 lw	a5, 0x48(a5)
0x80001198: 00 e5 22 23 sw	a4, 4(a0)
0x8000119c: 00 f5 20 23 sw	a5, 0(a0)
0x800011a0: 00 00 80 67 ret
0x80000074: 00 81 25 03 lw	a0, 8(sp)
0x80000078: 00 c1 25 83 lw	a1, 0xc(sp)
0x8000007c: 00 09 06 13 mv	a2, s2
0x80000080: 00 09 86 93 mv	a3, s3
0x80000084: 1b 10 10 ef jal	0x19b0
0x80001a34: 00 00 07 13 mv	a4, zero
0x80001a38: cd 9f f0 6f j	-0x328
0x80001710: fe 01 01 13 addi	sp, sp, -0x20
0x80001714: 01 21 28 23 sw	s2, 0x10(sp)
0x80001718: 01 41 24 23 sw	s4, 8(sp)
0x8000171c: 01 51 22 23 sw	s5, 4(sp)
0x80001720: 01 61 20 23 sw	s6, 0(sp)
0x80001724: 00 11 2e 23 sw	ra, 0x1c(sp)
0x80001728: 00 81 2c 23 sw	s0, 0x18(sp)
0x8000172c: 00 91 2a 23 sw	s1, 0x14(sp)
0x80001730: 01 31 26 23 sw	s3, 0xc(sp)
0x80001734: 00 06 8a 93 mv	s5, a3
0x80001738: 00 05 09 13 mv	s2, a0
0x8000173c: 00 06 0b 13 mv	s6, a2
0x80001740: 00 07 0a 13 mv	s4, a4
0x80001744: 04 05 94 63 bnez	a1, 0x48
0x80001748: 18 06 98 63 bnez	a3, 0x190
0x8000174c: 00 07 08 63 beqz	a4, 0x10
0x8000175c: 03 69 55 33 divu	a0, s2, s6
0x80001760: 00 00 05 93 mv	a1, zero
0x80001764: 01 c1 20 83 lw	ra, 0x1c(sp)
0x80001768: 01 81 24 03 lw	s0, 0x18(sp)
0x8000176c: 01 41 24 83 lw	s1, 0x14(sp)
0x80001770: 01 01 29 03 lw	s2, 0x10(sp)
0x80001774: 00 c1 29 83 lw	s3, 0xc(sp)
0x80001778: 00 81 2a 03 lw	s4, 8(sp)
0x8000177c: 00 41 2a 83 lw	s5, 4(sp)
0x80001780: 00 01 2b 03 lw	s6, 0(sp)
0x80001784: 02 01 01 13 addi	sp, sp, 0x20
0x80001788: 00 00 80 67 ret
0x80000088: fe 85 e0 e3 bltu	a1, s0, -0x20
0x8000008c: 00 b4 14 63 bne	s0, a1, 8
0x80000090: fc 95 6c e3 bltu	a0, s1, -0x28
0x80000068: 00 81 05 93 addi	a1, sp, 8
0x8000006c: 00 60 05 13 addi	a0, zero, 6
0x80000070: 0e 00 10 ef jal	0x10e0
0x80001150: 00 25 15 13 slli	a0, a0, 2
0x80001154: 00 01 07 97 auipc	a5, 0x10
0x80001158: ae 87 87 93 addi	a5, a5, -0x518
0x8000115c: 00 a7 87 b3 add	a5, a5, a0
0x80001160: 00 07 a7 83 lw	a5, 0(a5)
0x80001164: 00 05 85 13 mv	a0, a1
0x80001168: 00 07 80 67 jr	a5
0x8000118c: a0 00 07 b7 lui	a5, 0xa0000
0x80001190: 04 c7 a7 03 lw	a4, 0x4c(a5)
0x80001194: 04 87 a7 83 lw	a5, 0x48(a5)
0x80001198: 00 e5 22 23 sw	a4, 4(a0)
0x8000119c: 00 f5 20 23 sw	a5, 0(a0)
0x800011a0: 00 00 80 67 ret
0x80000074: 00 81 25 03 lw	a0, 8(sp)
0x80000078: 00 c1 25 83 lw	a1, 0xc(sp)
0x8000007c: 00 09 06 13 mv	a2, s2
0x80000080: 00 09 86 93 mv	a3, s3
0x80000084: 1b 10 10 ef jal	0x19b0
0x80001a34: 00 00 07 13 mv	a4, zero
0x80001a38: cd 9f f0 6f j	-0x328
0x80001710: fe 01 01 13 addi	sp, sp, -0x20
0x80001714: 01 21 28 23 sw	s2, 0x10(sp)
0x80001718: 01 41 24 23 sw	s4, 8(sp)
0x8000171c: 01 51 22 23 sw	s5, 4(sp)
0x80001720: 01 61 20 23 sw	s6, 0(sp)
0x80001724: 00 11 2e 23 sw	ra, 0x1c(sp)
0x80001728: 00 81 2c 23 sw	s0, 0x18(sp)
0x8000172c: 00 91 2a 23 sw	s1, 0x14(sp)
0x80001730: 01 31 26 23 sw	s3, 0xc(sp)
0x80001734: 00 06 8a 93 mv	s5, a3
0x80001738: 00 05 09 13 mv	s2, a0
0x8000173c: 00 06 0b 13 mv	s6, a2
0x80001740: 00 07 0a 13 mv	s4, a4
0x80001744: 04 05 94 63 bnez	a1, 0x48
0x80001748: 18 06 98 63 bnez	a3, 0x190
0x8000174c: 00 07 08 63 beqz	a4, 0x10
0x8000175c: 03 69 55 33 divu	a0, s2, s6
0x80001760: 00 00 05 93 mv	a1, zero
0x80001764: 01 c1 20 83 lw	ra, 0x1c(sp)
0x80001768: 01 81 24 03 lw	s0, 0x18(sp)
0x8000176c: 01 41 24 83 lw	s1, 0x14(sp)
0x80001770: 01 01 29 03 lw	s2, 0x10(sp)
0x80001774: 00 c1 29 83 lw	s3, 0xc(sp)
0x80001778: 00 81 2a 03 lw	s4, 8(sp)
0x8000177c: 00 41 2a 83 lw	s5, 4(sp)
0x80001780: 00 01 2b 03 lw	s6, 0(sp)
0x80001784: 02 01 01 13 addi	sp, sp, 0x20
0x80001788: 00 00 80 67 ret
0x80000088: fe 85 e0 e3 bltu	a1, s0, -0x20
0x8000008c: 00 b4 14 63 bne	s0, a1, 8
0x80000090: fc 95 6c e3 bltu	a0, s1, -0x28
0x80000068: 00 81 05 93 addi	a1, sp, 8
0x8000006c: 00 60 05 13 addi	a0, zero, 6
0x80000070: 0e 00 10 ef jal	0x10e0
0x80001150: 00 25 15 13 slli	a0, a0, 2
0x80001154: 00 01 07 97 auipc	a5, 0x10
0x80001158: ae 87 87 93 addi	a5, a5, -0x518
0x8000115c: 00 a7 87 b3 add	a5, a5, a0
0x80001160: 00 07 a7 83 lw	a5, 0(a5)
0x80001164: 00 05 85 13 mv	a0, a1
0x80001168: 00 07 80 67 jr	a5
0x8000118c: a0 00 07 b7 lui	a5, 0xa0000
0x80001190: 04 c7 a7 03 lw	a4, 0x4c(a5)
0x80001194: 04 87 a7 83 lw	a5, 0x48(a5)
0x80001198: 00 e5 22 23 sw	a4, 4(a0)
0x8000119c: 00 f5 20 23 sw	a5, 0(a0)
0x800011a0: 00 00 80 67 ret
0x80000074: 00 81 25 03 lw	a0, 8(sp)
0x80000078: 00 c1 25 83 lw	a1, 0xc(sp)
0x8000007c: 00 09 06 13 mv	a2, s2
0x80000080: 00 09 86 93 mv	a3, s3
0x80000084: 1b 10 10 ef jal	0x19b0
0x80001a34: 00 00 07 13 mv	a4, zero
0x80001a38: cd 9f f0 6f j	-0x328
0x80001710: fe 01 01 13 addi	sp, sp, -0x20
0x80001714: 01 21 28 23 sw	s2, 0x10(sp)
0x80001718: 01 41 24 23 sw	s4, 8(sp)
0x8000171c: 01 51 22 23 sw	s5, 4(sp)
0x80001720: 01 61 20 23 sw	s6, 0(sp)
0x80001724: 00 11 2e 23 sw	ra, 0x1c(sp)
0x80001728: 00 81 2c 23 sw	s0, 0x18(sp)
0x8000172c: 00 91 2a 23 sw	s1, 0x14(sp)
0x80001730: 01 31 26 23 sw	s3, 0xc(sp)
0x80001734: 00 06 8a 93 mv	s5, a3
0x80001738: 00 05 09 13 mv	s2, a0
0x8000173c: 00 06 0b 13 mv	s6, a2
0x80001740: 00 07 0a 13 mv	s4, a4
0x80001744: 04 05 94 63 bnez	a1, 0x48
0x80001748: 18 06 98 63 bnez	a3, 0x190
0x8000174c: 00 07 08 63 beqz	a4, 0x10
0x8000175c: 03 69 55 33 divu	a0, s2, s6
0x80001760: 00 00 05 93 mv	a1, zero
0x80001764: 01 c1 20 83 lw	ra, 0x1c(sp)
0x80001768: 01 81 24 03 lw	s0, 0x18(sp)
0x8000176c: 01 41 24 83 lw	s1, 0x14(sp)
0x80001770: 01 01 29 03 lw	s2, 0x10(sp)
0x80001774: 00 c1 29 83 lw	s3, 0xc(sp)
0x80001778: 00 81 2a 03 lw	s4, 8(sp)
0x8000177c: 00 41 2a 83 lw	s5, 4(sp)
0x80001780: 00 01 2b 03 lw	s6, 0(sp)
0x80001784: 02 01 01 13 addi	sp, sp, 0x20
0x80001788: 00 00 80 67 ret
0x80000088: fe 85 e0 e3 bltu	a1, s0, -0x20
0x8000008c: 00 b4 14 63 bne	s0, a1, 8
0x80000090: fc 95 6c e3 bltu	a0, s1, -0x28
0x80000068: 00 81 05 93 addi	a1, sp, 8
0x8000006c: 00 60 05 13 addi	a0, zero, 6
0x80000070: 0e 00 10 ef jal	0x10e0
0x80001150: 00 25 15 13 slli	a0, a0, 2
0x80001154: 00 01 07 97 auipc	a5, 0x10
0x80001158: ae 87 87 93 addi	a5, a5, -0x518
0x8000115c: 00 a7 87 b3 add	a5, a5, a0
0x80001160: 00 07 a7 83 lw	a5, 0(a5)
0x80001164: 00 05 85 13 mv	a0, a1
0x80001168: 00 07 80 67 jr	a5
0x8000118c: a0 00 07 b7 lui	a5, 0xa0000
0x80001190: 04 c7 a7 03 lw	a4, 0x4c(a5)
0x80001194: 04 87 a7 83 lw	a5, 0x48(a5)
0x80001198: 00 e5 22 23 sw	a4, 4(a0)
0x8000119c: 00 f5 20 23 sw	a5, 0(a0)
0x800011a0: 00 00 80 67 ret
0x80000074: 00 81 25 03 lw	a0, 8(sp)
0x80000078: 00 c1 25 83 lw	a1, 0xc(sp)
0x8000007c: 00 09 06 13 mv	a2, s2
0x80000080: 00 09 86 93 mv	a3, s3
0x80000084: 1b 10 10 ef jal	0x19b0
0x80001a34: 00 00 07 13 mv	a4, zero
0x80001a38: cd 9f f0 6f j	-0x328
0x80001710: fe 01 01 13 addi	sp, sp, -0x20
0x80001714: 01 21 28 23 sw	s2, 0x10(sp)
0x80001718: 01 41 24 23 sw	s4, 8(sp)
0x8000171c: 01 51 22 23 sw	s5, 4(sp)
0x80001720: 01 61 20 23 sw	s6, 0(sp)
0x80001724: 00 11 2e 23 sw	ra, 0x1c(sp)
0x80001728: 00 81 2c 23 sw	s0, 0x18(sp)
0x8000172c: 00 91 2a 23 sw	s1, 0x14(sp)
0x80001730: 01 31 26 23 sw	s3, 0xc(sp)
0x80001734: 00 06 8a 93 mv	s5, a3
0x80001738: 00 05 09 13 mv	s2, a0
0x8000173c: 00 06 0b 13 mv	s6, a2
0x80001740: 00 07 0a 13 mv	s4, a4
0x80001744: 04 05 94 63 bnez	a1, 0x48
0x80001748: 18 06 98 63 bnez	a3, 0x190
0x8000174c: 00 07 08 63 beqz	a4, 0x10
0x8000175c: 03 69 55 33 divu	a0, s2, s6
0x80001760: 00 00 05 93 mv	a1, zero
0x80001764: 01 c1 20 83 lw	ra, 0x1c(sp)
0x80001768: 01 81 24 03 lw	s0, 0x18(sp)
0x8000176c: 01 41 24 83 lw	s1, 0x14(sp)
0x80001770: 01 01 29 03 lw	s2, 0x10(sp)
0x80001774: 00 c1 29 83 lw	s3, 0xc(sp)
0x80001778: 00 81 2a 03 lw	s4, 8(sp)
0x8000177c: 00 41 2a 83 lw	s5, 4(sp)
0x80001780: 00 01 2b 03 lw	s6, 0(sp)
0x80001784: 02 01 01 13 addi	sp, sp, 0x20
0x80001788: 00 00 80 67 ret
0x80000088: fe 85 e0 e3 bltu	a1, s0, -0x20
0x8000008c: 00 b4 14 63 bne	s0, a1, 8
0x80000090: fc 95 6c e3 bltu	a0, s1, -0x28
0x80000068: 00 81 05 93 addi	a1, sp, 8
0x8000006c: 00 60 05 13 addi	a0, zero, 6
0x80000070: 0e 00 10 ef jal	0x10e0
0x80001150: 00 25 15 13 slli	a0, a0, 2
0x80001154: 00 01 07 97 auipc	a5, 0x10
0x80001158: ae 87 87 93 addi	a5, a5, -0x518
0x8000115c: 00 a7 87 b3 add	a5, a5, a0
0x80001160: 00 07 a7 83 lw	a5, 0(a5)
0x80001164: 00 05 85 13 mv	a0, a1
0x80001168: 00 07 80 67 jr	a5
0x8000118c: a0 00 07 b7 lui	a5, 0xa0000
0x80001190: 04 c7 a7 03 lw	a4, 0x4c(a5)
0x80001194: 04 87 a7 83 lw	a5, 0x48(a5)
0x80001198: 00 e5 22 23 sw	a4, 4(a0)
0x8000119c: 00 f5 20 23 sw	a5, 0(a0)
0x800011a0: 00 00 80 67 ret
0x80000074: 00 81 25 03 lw	a0, 8(sp)
0x80000078: 00 c1 25 83 lw	a1, 0xc(sp)
0x8000007c: 00 09 06 13 mv	a2, s2
0x80000080: 00 09 86 93 mv	a3, s3
0x80000084: 1b 10 10 ef jal	0x19b0
0x80001a34: 00 00 07 13 mv	a4, zero
0x80001a38: cd 9f f0 6f j	-0x328
0x80001710: fe 01 01 13 addi	sp, sp, -0x20
0x80001714: 01 21 28 23 sw	s2, 0x10(sp)
0x80001718: 01 41 24 23 sw	s4, 8(sp)
0x8000171c: 01 51 22 23 sw	s5, 4(sp)
0x80001720: 01 61 20 23 sw	s6, 0(sp)
0x80001724: 00 11 2e 23 sw	ra, 0x1c(sp)
0x80001728: 00 81 2c 23 sw	s0, 0x18(sp)
0x8000172c: 00 91 2a 23 sw	s1, 0x14(sp)
0x80001730: 01 31 26 23 sw	s3, 0xc(sp)
0x80001734: 00 06 8a 93 mv	s5, a3
0x80001738: 00 05 09 13 mv	s2, a0
0x8000173c: 00 06 0b 13 mv	s6, a2
0x80001740: 00 07 0a 13 mv	s4, a4
0x80001744: 04 05 94 63 bnez	a1, 0x48
0x80001748: 18 06 98 63 bnez	a3, 0x190
0x8000174c: 00 07 08 63 beqz	a4, 0x10
0x8000175c: 03 69 55 33 divu	a0, s2, s6
0x80001760: 00 00 05 93 mv	a1, zero
0x80001764: 01 c1 20 83 lw	ra, 0x1c(sp)
0x80001768: 01 81 24 03 lw	s0, 0x18(sp)
0x8000176c: 01 41 24 83 lw	s1, 0x14(sp)
0x80001770: 01 01 29 03 lw	s2, 0x10(sp)
0x80001774: 00 c1 29 83 lw	s3, 0xc(sp)
0x80001778: 00 81 2a 03 lw	s4, 8(sp)
0x8000177c: 00 41 2a 83 lw	s5, 4(sp)
0x80001780: 00 01 2b 03 lw	s6, 0(sp)
0x80001784: 02 01 01 13 addi	sp, sp, 0x20
0x80001788: 00 00 80 67 ret
0x80000088: fe 85 e0 e3 bltu	a1, s0, -0x20
0x8000008c: 00 b4 14 63 bne	s0, a1, 8
0x80000090: fc 95 6c e3 bltu	a0, s1, -0x28
0x80000068: 00 81 05 93 addi	a1, sp, 8
0x8000006c: 00 60 05 13 addi	a0, zero, 6
0x80000070: 0e 00 10 ef jal	0x10e0
0x80001150: 00 25 15 13 slli	a0, a0, 2
0x80001154: 00 01 07 97 auipc	a5, 0x10
0x80001158: ae 87 87 93 addi	a5, a5, -0x518
0x8000115c: 00 a7 87 b3 add	a5, a5, a0
0x80001160: 00 07 a7 83 lw	a5, 0(a5)
0x80001164: 00 05 85 13 mv	a0, a1
0x80001168: 00 07 80 67 jr	a5
0x8000118c: a0 00 07 b7 lui	a5, 0xa0000
0x80001190: 04 c7 a7 03 lw	a4, 0x4c(a5)
0x80001194: 04 87 a7 83 lw	a5, 0x48(a5)
0x80001198: 00 e5 22 23 sw	a4, 4(a0)
0x8000119c: 00 f5 20 23 sw	a5, 0(a0)
0x800011a0: 00 00 80 67 ret
0x80000074: 00 81 25 03 lw	a0, 8(sp)
0x80000078: 00 c1 25 83 lw	a1, 0xc(sp)
0x8000007c: 00 09 06 13 mv	a2, s2
0x80000080: 00 09 86 93 mv	a3, s3
0x80000084: 1b 10 10 ef jal	0x19b0
0x80001a34: 00 00 07 13 mv	a4, zero
0x80001a38: cd 9f f0 6f j	-0x328
0x80001710: fe 01 01 13 addi	sp, sp, -0x20
0x80001714: 01 21 28 23 sw	s2, 0x10(sp)
0x80001718: 01 41 24 23 sw	s4, 8(sp)
0x8000171c: 01 51 22 23 sw	s5, 4(sp)
0x80001720: 01 61 20 23 sw	s6, 0(sp)
0x80001724: 00 11 2e 23 sw	ra, 0x1c(sp)
0x80001728: 00 81 2c 23 sw	s0, 0x18(sp)
0x8000172c: 00 91 2a 23 sw	s1, 0x14(sp)
0x80001730: 01 31 26 23 sw	s3, 0xc(sp)
0x80001734: 00 06 8a 93 mv	s5, a3
0x80001738: 00 05 09 13 mv	s2, a0
0x8000173c: 00 06 0b 13 mv	s6, a2
0x80001740: 00 07 0a 13 mv	s4, a4
0x80001744: 04 05 94 63 bnez	a1, 0x48
0x80001748: 18 06 98 63 bnez	a3, 0x190
0x8000174c: 00 07 08 63 beqz	a4, 0x10
0x8000175c: 03 69 55 33 divu	a0, s2, s6
0x80001760: 00 00 05 93 mv	a1, zero
0x80001764: 01 c1 20 83 lw	ra, 0x1c(sp)
0x80001768: 01 81 24 03 lw	s0, 0x18(sp)
0x8000176c: 01 41 24 83 lw	s1, 0x14(sp)
0x80001770: 01 01 29 03 lw	s2, 0x10(sp)
0x80001774: 00 c1 29 83 lw	s3, 0xc(sp)
0x80001778: 00 81 2a 03 lw	s4, 8(sp)
0x8000177c: 00 41 2a 83 lw	s5, 4(sp)
0x80001780: 00 01 2b 03 lw	s6, 0(sp)
0x80001784: 02 01 01 13 addi	sp, sp, 0x20
0x80001788: 00 00 80 67 ret
0x80000088: fe 85 e0 e3 bltu	a1, s0, -0x20
0x8000008c: 00 b4 14 63 bne	s0, a1, 8
0x80000090: fc 95 6c e3 bltu	a0, s1, -0x28
0x80000068: 00 81 05 93 addi	a1, sp, 8
0x8000006c: 00 60 05 13 addi	a0, zero, 6
0x80000070: 0e 00 10 ef jal	0x10e0
0x80001150: 00 25 15 13 slli	a0, a0, 2
0x80001154: 00 01 07 97 auipc	a5, 0x10
0x80001158: ae 87 87 93 addi	a5, a5, -0x518
0x8000115c: 00 a7 87 b3 add	a5, a5, a0
0x80001160: 00 07 a7 83 lw	a5, 0(a5)
0x80001164: 00 05 85 13 mv	a0, a1
0x80001168: 00 07 80 67 jr	a5
0x8000118c: a0 00 07 b7 lui	a5, 0xa0000
0x80001190: 04 c7 a7 03 lw	a4, 0x4c(a5)
0x80001194: 04 87 a7 83 lw	a5, 0x48(a5)
0x80001198: 00 e5 22 23 sw	a4, 4(a0)
0x8000119c: 00 f5 20 23 sw	a5, 0(a0)
0x800011a0: 00 00 80 67 ret
0x80000074: 00 81 25 03 lw	a0, 8(sp)
0x80000078: 00 c1 25 83 lw	a1, 0xc(sp)
0x8000007c: 00 09 06 13 mv	a2, s2
0x80000080: 00 09 86 93 mv	a3, s3
0x80000084: 1b 10 10 ef jal	0x19b0
0x80001a34: 00 00 07 13 mv	a4, zero
0x80001a38: cd 9f f0 6f j	-0x328
0x80001710: fe 01 01 13 addi	sp, sp, -0x20
0x80001714: 01 21 28 23 sw	s2, 0x10(sp)
0x80001718: 01 41 24 23 sw	s4, 8(sp)
0x8000171c: 01 51 22 23 sw	s5, 4(sp)
0x80001720: 01 61 20 23 sw	s6, 0(sp)
0x80001724: 00 11 2e 23 sw	ra, 0x1c(sp)
0x80001728: 00 81 2c 23 sw	s0, 0x18(sp)
0x8000172c: 00 91 2a 23 sw	s1, 0x14(sp)
0x80001730: 01 31 26 23 sw	s3, 0xc(sp)
0x80001734: 00 06 8a 93 mv	s5, a3
0x80001738: 00 05 09 13 mv	s2, a0
0x8000173c: 00 06 0b 13 mv	s6, a2
0x80001740: 00 07 0a 13 mv	s4, a4
0x80001744: 04 05 94 63 bnez	a1, 0x48
0x80001748: 18 06 98 63 bnez	a3, 0x190
0x8000174c: 00 07 08 63 beqz	a4, 0x10
0x8000175c: 03 69 55 33 divu	a0, s2, s6
0x80001760: 00 00 05 93 mv	a1, zero
0x80001764: 01 c1 20 83 lw	ra, 0x1c(sp)
0x80001768: 01 81 24 03 lw	s0, 0x18(sp)
0x8000176c: 01 41 24 83 lw	s1, 0x14(sp)
0x80001770: 01 01 29 03 lw	s2, 0x10(sp)
0x80001774: 00 c1 29 83 lw	s3, 0xc(sp)
0x80001778: 00 81 2a 03 lw	s4, 8(sp)
0x8000177c: 00 41 2a 83 lw	s5, 4(sp)
0x80001780: 00 01 2b 03 lw	s6, 0(sp)
0x80001784: 02 01 01 13 addi	sp, sp, 0x20
0x80001788: 00 00 80 67 ret
0x80000088: fe 85 e0 e3 bltu	a1, s0, -0x20
0x8000008c: 00 b4 14 63 bne	s0, a1, 8
0x80000090: fc 95 6c e3 bltu	a0, s1, -0x28
0x80000068: 00 81 05 93 addi	a1, sp, 8
0x8000006c: 00 60 05 13 addi	a0, zero, 6
0x80000070: 0e 00 10 ef jal	0x10e0
0x80001150: 00 25 15 13 slli	a0, a0, 2
0x80001154: 00 01 07 97 auipc	a5, 0x10
0x80001158: ae 87 87 93 addi	a5, a5, -0x518
0x8000115c: 00 a7 87 b3 add	a5, a5, a0
0x80001160: 00 07 a7 83 lw	a5, 0(a5)
0x80001164: 00 05 85 13 mv	a0, a1
0x80001168: 00 07 80 67 jr	a5
0x8000118c: a0 00 07 b7 lui	a5, 0xa0000
0x80001190: 04 c7 a7 03 lw	a4, 0x4c(a5)
0x80001194: 04 87 a7 83 lw	a5, 0x48(a5)
0x80001198: 00 e5 22 23 sw	a4, 4(a0)
0x8000119c: 00 f5 20 23 sw	a5, 0(a0)
0x800011a0: 00 00 80 67 ret
0x80000074: 00 81 25 03 lw	a0, 8(sp)
0x80000078: 00 c1 25 83 lw	a1, 0xc(sp)
0x8000007c: 00 09 06 13 mv	a2, s2
0x80000080: 00 09 86 93 mv	a3, s3
0x80000084: 1b 10 10 ef jal	0x19b0
0x80001a34: 00 00 07 13 mv	a4, zero
0x80001a38: cd 9f f0 6f j	-0x328
0x80001710: fe 01 01 13 addi	sp, sp, -0x20
0x80001714: 01 21 28 23 sw	s2, 0x10(sp)
0x80001718: 01 41 24 23 sw	s4, 8(sp)
0x8000171c: 01 51 22 23 sw	s5, 4(sp)
0x80001720: 01 61 20 23 sw	s6, 0(sp)
0x80001724: 00 11 2e 23 sw	ra, 0x1c(sp)
0x80001728: 00 81 2c 23 sw	s0, 0x18(sp)
0x8000172c: 00 91 2a 23 sw	s1, 0x14(sp)
0x80001730: 01 31 26 23 sw	s3, 0xc(sp)
0x80001734: 00 06 8a 93 mv	s5, a3
0x80001738: 00 05 09 13 mv	s2, a0
0x8000173c: 00 06 0b 13 mv	s6, a2
0x80001740: 00 07 0a 13 mv	s4, a4
0x80001744: 04 05 94 63 bnez	a1, 0x48
0x80001748: 18 06 98 63 bnez	a3, 0x190
0x8000174c: 00 07 08 63 beqz	a4, 0x10
0x8000175c: 03 69 55 33 divu	a0, s2, s6
0x80001760: 00 00 05 93 mv	a1, zero
0x80001764: 01 c1 20 83 lw	ra, 0x1c(sp)
0x80001768: 01 81 24 03 lw	s0, 0x18(sp)
0x8000176c: 01 41 24 83 lw	s1, 0x14(sp)
0x80001770: 01 01 29 03 lw	s2, 0x10(sp)
0x80001774: 00 c1 29 83 lw	s3, 0xc(sp)
0x80001778: 00 81 2a 03 lw	s4, 8(sp)
0x8000177c: 00 41 2a 83 lw	s5, 4(sp)
0x80001780: 00 01 2b 03 lw	s6, 0(sp)
0x80001784: 02 01 01 13 addi	sp, sp, 0x20
0x80001788: 00 00 80 67 ret
0x80000088: fe 85 e0 e3 bltu	a1, s0, -0x20
0x8000008c: 00 b4 14 63 bne	s0, a1, 8
0x80000090: fc 95 6c e3 bltu	a0, s1, -0x28
0x80000068: 00 81 05 93 addi	a1, sp, 8
0x8000006c: 00 60 05 13 addi	a0, zero, 6
0x80000070: 0e 00 10 ef jal	0x10e0
0x80001150: 00 25 15 13 slli	a0, a0, 2
0x80001154: 00 01 07 97 auipc	a5, 0x10
0x80001158: ae 87 87 93 addi	a5, a5, -0x518
0x8000115c: 00 a7 87 b3 add	a5, a5, a0
0x80001160: 00 07 a7 83 lw	a5, 0(a5)
0x80001164: 00 05 85 13 mv	a0, a1
0x80001168: 00 07 80 67 jr	a5
0x8000118c: a0 00 07 b7 lui	a5, 0xa0000
0x80001190: 04 c7 a7 03 lw	a4, 0x4c(a5)
0x80001194: 04 87 a7 83 lw	a5, 0x48(a5)
0x80001198: 00 e5 22 23 sw	a4, 4(a0)
0x8000119c: 00 f5 20 23 sw	a5, 0(a0)
0x800011a0: 00 00 80 67 ret
0x80000074: 00 81 25 03 lw	a0, 8(sp)
0x80000078: 00 c1 25 83 lw	a1, 0xc(sp)
0x8000007c: 00 09 06 13 mv	a2, s2
0x80000080: 00 09 86 93 mv	a3, s3
0x80000084: 1b 10 10 ef jal	0x19b0
0x80001a34: 00 00 07 13 mv	a4, zero
0x80001a38: cd 9f f0 6f j	-0x328
0x80001710: fe 01 01 13 addi	sp, sp, -0x20
0x80001714: 01 21 28 23 sw	s2, 0x10(sp)
0x80001718: 01 41 24 23 sw	s4, 8(sp)
0x8000171c: 01 51 22 23 sw	s5, 4(sp)
0x80001720: 01 61 20 23 sw	s6, 0(sp)
0x80001724: 00 11 2e 23 sw	ra, 0x1c(sp)
0x80001728: 00 81 2c 23 sw	s0, 0x18(sp)
0x8000172c: 00 91 2a 23 sw	s1, 0x14(sp)
0x80001730: 01 31 26 23 sw	s3, 0xc(sp)
0x80001734: 00 06 8a 93 mv	s5, a3
0x80001738: 00 05 09 13 mv	s2, a0
0x8000173c: 00 06 0b 13 mv	s6, a2
0x80001740: 00 07 0a 13 mv	s4, a4
0x80001744: 04 05 94 63 bnez	a1, 0x48
0x80001748: 18 06 98 63 bnez	a3, 0x190
0x8000174c: 00 07 08 63 beqz	a4, 0x10
0x8000175c: 03 69 55 33 divu	a0, s2, s6
0x80001760: 00 00 05 93 mv	a1, zero
0x80001764: 01 c1 20 83 lw	ra, 0x1c(sp)
0x80001768: 01 81 24 03 lw	s0, 0x18(sp)
0x8000176c: 01 41 24 83 lw	s1, 0x14(sp)
0x80001770: 01 01 29 03 lw	s2, 0x10(sp)
0x80001774: 00 c1 29 83 lw	s3, 0xc(sp)
0x80001778: 00 81 2a 03 lw	s4, 8(sp)
0x8000177c: 00 41 2a 83 lw	s5, 4(sp)
0x80001780: 00 01 2b 03 lw	s6, 0(sp)
0x80001784: 02 01 01 13 addi	sp, sp, 0x20
0x80001788: 00 00 80 67 ret
0x80000088: fe 85 e0 e3 bltu	a1, s0, -0x20
0x8000008c: 00 b4 14 63 bne	s0, a1, 8
0x80000090: fc 95 6c e3 bltu	a0, s1, -0x28
0x80000068: 00 81 05 93 addi	a1, sp, 8
0x8000006c: 00 60 05 13 addi	a0, zero, 6
0x80000070: 0e 00 10 ef jal	0x10e0
0x80001150: 00 25 15 13 slli	a0, a0, 2
0x80001154: 00 01 07 97 auipc	a5, 0x10
0x80001158: ae 87 87 93 addi	a5, a5, -0x518
0x8000115c: 00 a7 87 b3 add	a5, a5, a0
0x80001160: 00 07 a7 83 lw	a5, 0(a5)
0x80001164: 00 05 85 13 mv	a0, a1
0x80001168: 00 07 80 67 jr	a5
0x8000118c: a0 00 07 b7 lui	a5, 0xa0000
0x80001190: 04 c7 a7 03 lw	a4, 0x4c(a5)
0x80001194: 04 87 a7 83 lw	a5, 0x48(a5)
0x80001198: 00 e5 22 23 sw	a4, 4(a0)
0x8000119c: 00 f5 20 23 sw	a5, 0(a0)
0x800011a0: 00 00 80 67 ret
0x80000074: 00 81 25 03 lw	a0, 8(sp)
0x80000078: 00 c1 25 83 lw	a1, 0xc(sp)
0x8000007c: 00 09 06 13 mv	a2, s2
0x80000080: 00 09 86 93 mv	a3, s3
0x80000084: 1b 10 10 ef jal	0x19b0
0x80001a34: 00 00 07 13 mv	a4, zero
0x80001a38: cd 9f f0 6f j	-0x328
0x80001710: fe 01 01 13 addi	sp, sp, -0x20
0x80001714: 01 21 28 23 sw	s2, 0x10(sp)
0x80001718: 01 41 24 23 sw	s4, 8(sp)
0x8000171c: 01 51 22 23 sw	s5, 4(sp)
0x80001720: 01 61 20 23 sw	s6, 0(sp)
0x80001724: 00 11 2e 23 sw	ra, 0x1c(sp)
0x80001728: 00 81 2c 23 sw	s0, 0x18(sp)
0x8000172c: 00 91 2a 23 sw	s1, 0x14(sp)
0x80001730: 01 31 26 23 sw	s3, 0xc(sp)
0x80001734: 00 06 8a 93 mv	s5, a3
0x80001738: 00 05 09 13 mv	s2, a0
0x8000173c: 00 06 0b 13 mv	s6, a2
0x80001740: 00 07 0a 13 mv	s4, a4
0x80001744: 04 05 94 63 bnez	a1, 0x48
0x80001748: 18 06 98 63 bnez	a3, 0x190
0x8000174c: 00 07 08 63 beqz	a4, 0x10
0x8000175c: 03 69 55 33 divu	a0, s2, s6
0x80001760: 00 00 05 93 mv	a1, zero
0x80001764: 01 c1 20 83 lw	ra, 0x1c(sp)
0x80001768: 01 81 24 03 lw	s0, 0x18(sp)
0x8000176c: 01 41 24 83 lw	s1, 0x14(sp)
0x80001770: 01 01 29 03 lw	s2, 0x10(sp)
0x80001774: 00 c1 29 83 lw	s3, 0xc(sp)
0x80001778: 00 81 2a 03 lw	s4, 8(sp)
0x8000177c: 00 41 2a 83 lw	s5, 4(sp)
0x80001780: 00 01 2b 03 lw	s6, 0(sp)
0x80001784: 02 01 01 13 addi	sp, sp, 0x20
0x80001788: 00 00 80 67 ret
0x80000088: fe 85 e0 e3 bltu	a1, s0, -0x20
0x8000008c: 00 b4 14 63 bne	s0, a1, 8
0x80000090: fc 95 6c e3 bltu	a0, s1, -0x28
0x80000068: 00 81 05 93 addi	a1, sp, 8
0x8000006c: 00 60 05 13 addi	a0, zero, 6
0x80000070: 0e 00 10 ef jal	0x10e0
0x80001150: 00 25 15 13 slli	a0, a0, 2
0x80001154: 00 01 07 97 auipc	a5, 0x10
0x80001158: ae 87 87 93 addi	a5, a5, -0x518
0x8000115c: 00 a7 87 b3 add	a5, a5, a0
0x80001160: 00 07 a7 83 lw	a5, 0(a5)
0x80001164: 00 05 85 13 mv	a0, a1
0x80001168: 00 07 80 67 jr	a5
0x8000118c: a0 00 07 b7 lui	a5, 0xa0000
0x80001190: 04 c7 a7 03 lw	a4, 0x4c(a5)
0x80001194: 04 87 a7 83 lw	a5, 0x48(a5)
0x80001198: 00 e5 22 23 sw	a4, 4(a0)
0x8000119c: 00 f5 20 23 sw	a5, 0(a0)
0x800011a0: 00 00 80 67 ret
0x80000074: 00 81 25 03 lw	a0, 8(sp)
0x80000078: 00 c1 25 83 lw	a1, 0xc(sp)
0x8000007c: 00 09 06 13 mv	a2, s2
0x80000080: 00 09 86 93 mv	a3, s3
0x80000084: 1b 10 10 ef jal	0x19b0
0x80001a34: 00 00 07 13 mv	a4, zero
0x80001a38: cd 9f f0 6f j	-0x328
0x80001710: fe 01 01 13 addi	sp, sp, -0x20
0x80001714: 01 21 28 23 sw	s2, 0x10(sp)
0x80001718: 01 41 24 23 sw	s4, 8(sp)
0x8000171c: 01 51 22 23 sw	s5, 4(sp)
0x80001720: 01 61 20 23 sw	s6, 0(sp)
0x80001724: 00 11 2e 23 sw	ra, 0x1c(sp)
0x80001728: 00 81 2c 23 sw	s0, 0x18(sp)
0x8000172c: 00 91 2a 23 sw	s1, 0x14(sp)
0x80001730: 01 31 26 23 sw	s3, 0xc(sp)
0x80001734: 00 06 8a 93 mv	s5, a3
0x80001738: 00 05 09 13 mv	s2, a0
0x8000173c: 00 06 0b 13 mv	s6, a2
0x80001740: 00 07 0a 13 mv	s4, a4
0x80001744: 04 05 94 63 bnez	a1, 0x48
0x80001748: 18 06 98 63 bnez	a3, 0x190
0x8000174c: 00 07 08 63 beqz	a4, 0x10
0x8000175c: 03 69 55 33 divu	a0, s2, s6
0x80001760: 00 00 05 93 mv	a1, zero
0x80001764: 01 c1 20 83 lw	ra, 0x1c(sp)
0x80001768: 01 81 24 03 lw	s0, 0x18(sp)
0x8000176c: 01 41 24 83 lw	s1, 0x14(sp)
0x80001770: 01 01 29 03 lw	s2, 0x10(sp)
0x80001774: 00 c1 29 83 lw	s3, 0xc(sp)
0x80001778: 00 81 2a 03 lw	s4, 8(sp)
0x8000177c: 00 41 2a 83 lw	s5, 4(sp)
0x80001780: 00 01 2b 03 lw	s6, 0(sp)
0x80001784: 02 01 01 13 addi	sp, sp, 0x20
0x80001788: 00 00 80 67 ret
0x80000088: fe 85 e0 e3 bltu	a1, s0, -0x20
0x8000008c: 00 b4 14 63 bne	s0, a1, 8
0x80000090: fc 95 6c e3 bltu	a0, s1, -0x28
0x80000068: 00 81 05 93 addi	a1, sp, 8
0x8000006c: 00 60 05 13 addi	a0, zero, 6
0x80000070: 0e 00 10 ef jal	0x10e0
0x80001150: 00 25 15 13 slli	a0, a0, 2
0x80001154: 00 01 07 97 auipc	a5, 0x10
0x80001158: ae 87 87 93 addi	a5, a5, -0x518
0x8000115c: 00 a7 87 b3 add	a5, a5, a0
0x80001160: 00 07 a7 83 lw	a5, 0(a5)
0x80001164: 00 05 85 13 mv	a0, a1
0x80001168: 00 07 80 67 jr	a5
0x8000118c: a0 00 07 b7 lui	a5, 0xa0000
0x80001190: 04 c7 a7 03 lw	a4, 0x4c(a5)
0x80001194: 04 87 a7 83 lw	a5, 0x48(a5)
0x80001198: 00 e5 22 23 sw	a4, 4(a0)
0x8000119c: 00 f5 20 23 sw	a5, 0(a0)
0x800011a0: 00 00 80 67 ret
0x80000074: 00 81 25 03 lw	a0, 8(sp)
0x80000078: 00 c1 25 83 lw	a1, 0xc(sp)
0x8000007c: 00 09 06 13 mv	a2, s2
0x80000080: 00 09 86 93 mv	a3, s3
0x80000084: 1b 10 10 ef jal	0x19b0
0x80001a34: 00 00 07 13 mv	a4, zero
0x80001a38: cd 9f f0 6f j	-0x328
0x80001710: fe 01 01 13 addi	sp, sp, -0x20
0x80001714: 01 21 28 23 sw	s2, 0x10(sp)
0x80001718: 01 41 24 23 sw	s4, 8(sp)
0x8000171c: 01 51 22 23 sw	s5, 4(sp)
0x80001720: 01 61 20 23 sw	s6, 0(sp)
0x80001724: 00 11 2e 23 sw	ra, 0x1c(sp)
0x80001728: 00 81 2c 23 sw	s0, 0x18(sp)
0x8000172c: 00 91 2a 23 sw	s1, 0x14(sp)
0x80001730: 01 31 26 23 sw	s3, 0xc(sp)
0x80001734: 00 06 8a 93 mv	s5, a3
0x80001738: 00 05 09 13 mv	s2, a0
0x8000173c: 00 06 0b 13 mv	s6, a2
0x80001740: 00 07 0a 13 mv	s4, a4
0x80001744: 04 05 94 63 bnez	a1, 0x48
0x80001748: 18 06 98 63 bnez	a3, 0x190
0x8000174c: 00 07 08 63 beqz	a4, 0x10
0x8000175c: 03 69 55 33 divu	a0, s2, s6
0x80001760: 00 00 05 93 mv	a1, zero
0x80001764: 01 c1 20 83 lw	ra, 0x1c(sp)
0x80001768: 01 81 24 03 lw	s0, 0x18(sp)
0x8000176c: 01 41 24 83 lw	s1, 0x14(sp)
0x80001770: 01 01 29 03 lw	s2, 0x10(sp)
0x80001774: 00 c1 29 83 lw	s3, 0xc(sp)
0x80001778: 00 81 2a 03 lw	s4, 8(sp)
0x8000177c: 00 41 2a 83 lw	s5, 4(sp)
0x80001780: 00 01 2b 03 lw	s6, 0(sp)
0x80001784: 02 01 01 13 addi	sp, sp, 0x20
0x80001788: 00 00 80 67 ret
0x80000088: fe 85 e0 e3 bltu	a1, s0, -0x20
0x8000008c: 00 b4 14 63 bne	s0, a1, 8
0x80000090: fc 95 6c e3 bltu	a0, s1, -0x28
0x80000068: 00 81 05 93 addi	a1, sp, 8
0x8000006c: 00 60 05 13 addi	a0, zero, 6
0x80000070: 0e 00 10 ef jal	0x10e0
0x80001150: 00 25 15 13 slli	a0, a0, 2
0x80001154: 00 01 07 97 auipc	a5, 0x10
0x80001158: ae 87 87 93 addi	a5, a5, -0x518
0x8000115c: 00 a7 87 b3 add	a5, a5, a0
0x80001160: 00 07 a7 83 lw	a5, 0(a5)
0x80001164: 00 05 85 13 mv	a0, a1
0x80001168: 00 07 80 67 jr	a5
0x8000118c: a0 00 07 b7 lui	a5, 0xa0000
0x80001190: 04 c7 a7 03 lw	a4, 0x4c(a5)
0x80001194: 04 87 a7 83 lw	a5, 0x48(a5)
0x80001198: 00 e5 22 23 sw	a4, 4(a0)
0x8000119c: 00 f5 20 23 sw	a5, 0(a0)
0x800011a0: 00 00 80 67 ret
0x80000074: 00 81 25 03 lw	a0, 8(sp)
0x80000078: 00 c1 25 83 lw	a1, 0xc(sp)
0x8000007c: 00 09 06 13 mv	a2, s2
0x80000080: 00 09 86 93 mv	a3, s3
0x80000084: 1b 10 10 ef jal	0x19b0
0x80001a34: 00 00 07 13 mv	a4, zero
0x80001a38: cd 9f f0 6f j	-0x328
0x80001710: fe 01 01 13 addi	sp, sp, -0x20
0x80001714: 01 21 28 23 sw	s2, 0x10(sp)
0x80001718: 01 41 24 23 sw	s4, 8(sp)
0x8000171c: 01 51 22 23 sw	s5, 4(sp)
0x80001720: 01 61 20 23 sw	s6, 0(sp)
0x80001724: 00 11 2e 23 sw	ra, 0x1c(sp)
0x80001728: 00 81 2c 23 sw	s0, 0x18(sp)
0x8000172c: 00 91 2a 23 sw	s1, 0x14(sp)
0x80001730: 01 31 26 23 sw	s3, 0xc(sp)
0x80001734: 00 06 8a 93 mv	s5, a3
0x80001738: 00 05 09 13 mv	s2, a0
0x8000173c: 00 06 0b 13 mv	s6, a2
0x80001740: 00 07 0a 13 mv	s4, a4
0x80001744: 04 05 94 63 bnez	a1, 0x48
0x80001748: 18 06 98 63 bnez	a3, 0x190
0x8000174c: 00 07 08 63 beqz	a4, 0x10
0x8000175c: 03 69 55 33 divu	a0, s2, s6
0x80001760: 00 00 05 93 mv	a1, zero
0x80001764: 01 c1 20 83 lw	ra, 0x1c(sp)
0x80001768: 01 81 24 03 lw	s0, 0x18(sp)
0x8000176c: 01 41 24 83 lw	s1, 0x14(sp)
0x80001770: 01 01 29 03 lw	s2, 0x10(sp)
0x80001774: 00 c1 29 83 lw	s3, 0xc(sp)
0x80001778: 00 81 2a 03 lw	s4, 8(sp)
0x8000177c: 00 41 2a 83 lw	s5, 4(sp)
0x80001780: 00 01 2b 03 lw	s6, 0(sp)
0x80001784: 02 01 01 13 addi	sp, sp, 0x20
0x80001788: 00 00 80 67 ret
0x80000088: fe 85 e0 e3 bltu	a1, s0, -0x20
0x8000008c: 00 b4 14 63 bne	s0, a1, 8
0x80000090: fc 95 6c e3 bltu	a0, s1, -0x28
0x80000068: 00 81 05 93 addi	a1, sp, 8
0x8000006c: 00 60 05 13 addi	a0, zero, 6
0x80000070: 0e 00 10 ef jal	0x10e0
0x80001150: 00 25 15 13 slli	a0, a0, 2
0x80001154: 00 01 07 97 auipc	a5, 0x10
0x80001158: ae 87 87 93 addi	a5, a5, -0x518
0x8000115c: 00 a7 87 b3 add	a5, a5, a0
0x80001160: 00 07 a7 83 lw	a5, 0(a5)
0x80001164: 00 05 85 13 mv	a0, a1
0x80001168: 00 07 80 67 jr	a5
0x8000118c: a0 00 07 b7 lui	a5, 0xa0000
0x80001190: 04 c7 a7 03 lw	a4, 0x4c(a5)
0x80001194: 04 87 a7 83 lw	a5, 0x48(a5)
0x80001198: 00 e5 22 23 sw	a4, 4(a0)
0x8000119c: 00 f5 20 23 sw	a5, 0(a0)
0x800011a0: 00 00 80 67 ret
0x80000074: 00 81 25 03 lw	a0, 8(sp)
0x80000078: 00 c1 25 83 lw	a1, 0xc(sp)
0x8000007c: 00 09 06 13 mv	a2, s2
0x80000080: 00 09 86 93 mv	a3, s3
0x80000084: 1b 10 10 ef jal	0x19b0
0x80001a34: 00 00 07 13 mv	a4, zero
0x80001a38: cd 9f f0 6f j	-0x328
0x80001710: fe 01 01 13 addi	sp, sp, -0x20
0x80001714: 01 21 28 23 sw	s2, 0x10(sp)
0x80001718: 01 41 24 23 sw	s4, 8(sp)
0x8000171c: 01 51 22 23 sw	s5, 4(sp)
0x80001720: 01 61 20 23 sw	s6, 0(sp)
0x80001724: 00 11 2e 23 sw	ra, 0x1c(sp)
0x80001728: 00 81 2c 23 sw	s0, 0x18(sp)
0x8000172c: 00 91 2a 23 sw	s1, 0x14(sp)
0x80001730: 01 31 26 23 sw	s3, 0xc(sp)
0x80001734: 00 06 8a 93 mv	s5, a3
0x80001738: 00 05 09 13 mv	s2, a0
0x8000173c: 00 06 0b 13 mv	s6, a2
0x80001740: 00 07 0a 13 mv	s4, a4
0x80001744: 04 05 94 63 bnez	a1, 0x48
0x80001748: 18 06 98 63 bnez	a3, 0x190
0x8000174c: 00 07 08 63 beqz	a4, 0x10
0x8000175c: 03 69 55 33 divu	a0, s2, s6
0x80001760: 00 00 05 93 mv	a1, zero
0x80001764: 01 c1 20 83 lw	ra, 0x1c(sp)
0x80001768: 01 81 24 03 lw	s0, 0x18(sp)
0x8000176c: 01 41 24 83 lw	s1, 0x14(sp)
0x80001770: 01 01 29 03 lw	s2, 0x10(sp)
0x80001774: 00 c1 29 83 lw	s3, 0xc(sp)
0x80001778: 00 81 2a 03 lw	s4, 8(sp)
0x8000177c: 00 41 2a 83 lw	s5, 4(sp)
0x80001780: 00 01 2b 03 lw	s6, 0(sp)
0x80001784: 02 01 01 13 addi	sp, sp, 0x20
0x80001788: 00 00 80 67 ret
0x80000088: fe 85 e0 e3 bltu	a1, s0, -0x20
0x8000008c: 00 b4 14 63 bne	s0, a1, 8
0x80000090: fc 95 6c e3 bltu	a0, s1, -0x28
0x80000068: 00 81 05 93 addi	a1, sp, 8
0x8000006c: 00 60 05 13 addi	a0, zero, 6
0x80000070: 0e 00 10 ef jal	0x10e0
0x80001150: 00 25 15 13 slli	a0, a0, 2
0x80001154: 00 01 07 97 auipc	a5, 0x10
0x80001158: ae 87 87 93 addi	a5, a5, -0x518
0x8000115c: 00 a7 87 b3 add	a5, a5, a0
0x80001160: 00 07 a7 83 lw	a5, 0(a5)
0x80001164: 00 05 85 13 mv	a0, a1
0x80001168: 00 07 80 67 jr	a5
0x8000118c: a0 00 07 b7 lui	a5, 0xa0000
0x80001190: 04 c7 a7 03 lw	a4, 0x4c(a5)
0x80001194: 04 87 a7 83 lw	a5, 0x48(a5)
0x80001198: 00 e5 22 23 sw	a4, 4(a0)
0x8000119c: 00 f5 20 23 sw	a5, 0(a0)
0x800011a0: 00 00 80 67 ret
0x80000074: 00 81 25 03 lw	a0, 8(sp)
0x80000078: 00 c1 25 83 lw	a1, 0xc(sp)
0x8000007c: 00 09 06 13 mv	a2, s2
0x80000080: 00 09 86 93 mv	a3, s3
0x80000084: 1b 10 10 ef jal	0x19b0
0x80001a34: 00 00 07 13 mv	a4, zero
0x80001a38: cd 9f f0 6f j	-0x328
0x80001710: fe 01 01 13 addi	sp, sp, -0x20
0x80001714: 01 21 28 23 sw	s2, 0x10(sp)
0x80001718: 01 41 24 23 sw	s4, 8(sp)
0x8000171c: 01 51 22 23 sw	s5, 4(sp)
0x80001720: 01 61 20 23 sw	s6, 0(sp)
0x80001724: 00 11 2e 23 sw	ra, 0x1c(sp)
0x80001728: 00 81 2c 23 sw	s0, 0x18(sp)
0x8000172c: 00 91 2a 23 sw	s1, 0x14(sp)
0x80001730: 01 31 26 23 sw	s3, 0xc(sp)
0x80001734: 00 06 8a 93 mv	s5, a3
0x80001738: 00 05 09 13 mv	s2, a0
0x8000173c: 00 06 0b 13 mv	s6, a2
0x80001740: 00 07 0a 13 mv	s4, a4
0x80001744: 04 05 94 63 bnez	a1, 0x48
0x80001748: 18 06 98 63 bnez	a3, 0x190
0x8000174c: 00 07 08 63 beqz	a4, 0x10
0x8000175c: 03 69 55 33 divu	a0, s2, s6
0x80001760: 00 00 05 93 mv	a1, zero
0x80001764: 01 c1 20 83 lw	ra, 0x1c(sp)
0x80001768: 01 81 24 03 lw	s0, 0x18(sp)
0x8000176c: 01 41 24 83 lw	s1, 0x14(sp)
0x80001770: 01 01 29 03 lw	s2, 0x10(sp)
0x80001774: 00 c1 29 83 lw	s3, 0xc(sp)
0x80001778: 00 81 2a 03 lw	s4, 8(sp)
0x8000177c: 00 41 2a 83 lw	s5, 4(sp)
0x80001780: 00 01 2b 03 lw	s6, 0(sp)
0x80001784: 02 01 01 13 addi	sp, sp, 0x20
0x80001788: 00 00 80 67 ret
0x80000088: fe 85 e0 e3 bltu	a1, s0, -0x20
0x8000008c: 00 b4 14 63 bne	s0, a1, 8
0x80000090: fc 95 6c e3 bltu	a0, s1, -0x28
0x80000068: 00 81 05 93 addi	a1, sp, 8
0x8000006c: 00 60 05 13 addi	a0, zero, 6
0x80000070: 0e 00 10 ef jal	0x10e0
0x80001150: 00 25 15 13 slli	a0, a0, 2
0x80001154: 00 01 07 97 auipc	a5, 0x10
0x80001158: ae 87 87 93 addi	a5, a5, -0x518
0x8000115c: 00 a7 87 b3 add	a5, a5, a0
0x80001160: 00 07 a7 83 lw	a5, 0(a5)
0x80001164: 00 05 85 13 mv	a0, a1
0x80001168: 00 07 80 67 jr	a5
0x8000118c: a0 00 07 b7 lui	a5, 0xa0000
0x80001190: 04 c7 a7 03 lw	a4, 0x4c(a5)
0x80001194: 04 87 a7 83 lw	a5, 0x48(a5)
0x80001198: 00 e5 22 23 sw	a4, 4(a0)
0x8000119c: 00 f5 20 23 sw	a5, 0(a0)
0x800011a0: 00 00 80 67 ret
0x80000074: 00 81 25 03 lw	a0, 8(sp)
0x80000078: 00 c1 25 83 lw	a1, 0xc(sp)
0x8000007c: 00 09 06 13 mv	a2, s2
0x80000080: 00 09 86 93 mv	a3, s3
0x80000084: 1b 10 10 ef jal	0x19b0
0x80001a34: 00 00 07 13 mv	a4, zero
0x80001a38: cd 9f f0 6f j	-0x328
0x80001710: fe 01 01 13 addi	sp, sp, -0x20
0x80001714: 01 21 28 23 sw	s2, 0x10(sp)
0x80001718: 01 41 24 23 sw	s4, 8(sp)
0x8000171c: 01 51 22 23 sw	s5, 4(sp)
0x80001720: 01 61 20 23 sw	s6, 0(sp)
0x80001724: 00 11 2e 23 sw	ra, 0x1c(sp)
0x80001728: 00 81 2c 23 sw	s0, 0x18(sp)
0x8000172c: 00 91 2a 23 sw	s1, 0x14(sp)
0x80001730: 01 31 26 23 sw	s3, 0xc(sp)
0x80001734: 00 06 8a 93 mv	s5, a3
0x80001738: 00 05 09 13 mv	s2, a0
0x8000173c: 00 06 0b 13 mv	s6, a2
0x80001740: 00 07 0a 13 mv	s4, a4
0x80001744: 04 05 94 63 bnez	a1, 0x48
0x80001748: 18 06 98 63 bnez	a3, 0x190
0x8000174c: 00 07 08 63 beqz	a4, 0x10
0x8000175c: 03 69 55 33 divu	a0, s2, s6
0x80001760: 00 00 05 93 mv	a1, zero
0x80001764: 01 c1 20 83 lw	ra, 0x1c(sp)
0x80001768: 01 81 24 03 lw	s0, 0x18(sp)
0x8000176c: 01 41 24 83 lw	s1, 0x14(sp)
0x80001770: 01 01 29 03 lw	s2, 0x10(sp)
0x80001774: 00 c1 29 83 lw	s3, 0xc(sp)
0x80001778: 00 81 2a 03 lw	s4, 8(sp)
0x8000177c: 00 41 2a 83 lw	s5, 4(sp)
0x80001780: 00 01 2b 03 lw	s6, 0(sp)
0x80001784: 02 01 01 13 addi	sp, sp, 0x20
0x80001788: 00 00 80 67 ret
0x80000088: fe 85 e0 e3 bltu	a1, s0, -0x20
0x8000008c: 00 b4 14 63 bne	s0, a1, 8
0x80000090: fc 95 6c e3 bltu	a0, s1, -0x28
0x80000068: 00 81 05 93 addi	a1, sp, 8
0x8000006c: 00 60 05 13 addi	a0, zero, 6
0x80000070: 0e 00 10 ef jal	0x10e0
0x80001150: 00 25 15 13 slli	a0, a0, 2
0x80001154: 00 01 07 97 auipc	a5, 0x10
0x80001158: ae 87 87 93 addi	a5, a5, -0x518
0x8000115c: 00 a7 87 b3 add	a5, a5, a0
0x80001160: 00 07 a7 83 lw	a5, 0(a5)
0x80001164: 00 05 85 13 mv	a0, a1
0x80001168: 00 07 80 67 jr	a5
0x8000118c: a0 00 07 b7 lui	a5, 0xa0000
0x80001190: 04 c7 a7 03 lw	a4, 0x4c(a5)
0x80001194: 04 87 a7 83 lw	a5, 0x48(a5)
0x80001198: 00 e5 22 23 sw	a4, 4(a0)
0x8000119c: 00 f5 20 23 sw	a5, 0(a0)
0x800011a0: 00 00 80 67 ret
0x80000074: 00 81 25 03 lw	a0, 8(sp)
0x80000078: 00 c1 25 83 lw	a1, 0xc(sp)
0x8000007c: 00 09 06 13 mv	a2, s2
0x80000080: 00 09 86 93 mv	a3, s3
0x80000084: 1b 10 10 ef jal	0x19b0
0x80001a34: 00 00 07 13 mv	a4, zero
0x80001a38: cd 9f f0 6f j	-0x328
0x80001710: fe 01 01 13 addi	sp, sp, -0x20
0x80001714: 01 21 28 23 sw	s2, 0x10(sp)
0x80001718: 01 41 24 23 sw	s4, 8(sp)
0x8000171c: 01 51 22 23 sw	s5, 4(sp)
0x80001720: 01 61 20 23 sw	s6, 0(sp)
0x80001724: 00 11 2e 23 sw	ra, 0x1c(sp)
0x80001728: 00 81 2c 23 sw	s0, 0x18(sp)
0x8000172c: 00 91 2a 23 sw	s1, 0x14(sp)
0x80001730: 01 31 26 23 sw	s3, 0xc(sp)
0x80001734: 00 06 8a 93 mv	s5, a3
0x80001738: 00 05 09 13 mv	s2, a0
0x8000173c: 00 06 0b 13 mv	s6, a2
0x80001740: 00 07 0a 13 mv	s4, a4
0x80001744: 04 05 94 63 bnez	a1, 0x48
0x80001748: 18 06 98 63 bnez	a3, 0x190
0x8000174c: 00 07 08 63 beqz	a4, 0x10
0x8000175c: 03 69 55 33 divu	a0, s2, s6
0x80001760: 00 00 05 93 mv	a1, zero
0x80001764: 01 c1 20 83 lw	ra, 0x1c(sp)
0x80001768: 01 81 24 03 lw	s0, 0x18(sp)
0x8000176c: 01 41 24 83 lw	s1, 0x14(sp)
0x80001770: 01 01 29 03 lw	s2, 0x10(sp)
0x80001774: 00 c1 29 83 lw	s3, 0xc(sp)
0x80001778: 00 81 2a 03 lw	s4, 8(sp)
0x8000177c: 00 41 2a 83 lw	s5, 4(sp)
0x80001780: 00 01 2b 03 lw	s6, 0(sp)
0x80001784: 02 01 01 13 addi	sp, sp, 0x20
0x80001788: 00 00 80 67 ret
0x80000088: fe 85 e0 e3 bltu	a1, s0, -0x20
0x8000008c: 00 b4 14 63 bne	s0, a1, 8
0x80000090: fc 95 6c e3 bltu	a0, s1, -0x28
0x80000068: 00 81 05 93 addi	a1, sp, 8
0x8000006c: 00 60 05 13 addi	a0, zero, 6
0x80000070: 0e 00 10 ef jal	0x10e0
0x80001150: 00 25 15 13 slli	a0, a0, 2
0x80001154: 00 01 07 97 auipc	a5, 0x10
0x80001158: ae 87 87 93 addi	a5, a5, -0x518
0x8000115c: 00 a7 87 b3 add	a5, a5, a0
0x80001160: 00 07 a7 83 lw	a5, 0(a5)
0x80001164: 00 05 85 13 mv	a0, a1
0x80001168: 00 07 80 67 jr	a5
0x8000118c: a0 00 07 b7 lui	a5, 0xa0000
0x80001190: 04 c7 a7 03 lw	a4, 0x4c(a5)
0x80001194: 04 87 a7 83 lw	a5, 0x48(a5)
0x80001198: 00 e5 22 23 sw	a4, 4(a0)
0x8000119c: 00 f5 20 23 sw	a5, 0(a0)
0x800011a0: 00 00 80 67 ret
0x80000074: 00 81 25 03 lw	a0, 8(sp)
0x80000078: 00 c1 25 83 lw	a1, 0xc(sp)
0x8000007c: 00 09 06 13 mv	a2, s2
0x80000080: 00 09 86 93 mv	a3, s3
0x80000084: 1b 10 10 ef jal	0x19b0
0x80001a34: 00 00 07 13 mv	a4, zero
0x80001a38: cd 9f f0 6f j	-0x328
0x80001710: fe 01 01 13 addi	sp, sp, -0x20
0x80001714: 01 21 28 23 sw	s2, 0x10(sp)
0x80001718: 01 41 24 23 sw	s4, 8(sp)
0x8000171c: 01 51 22 23 sw	s5, 4(sp)
0x80001720: 01 61 20 23 sw	s6, 0(sp)
0x80001724: 00 11 2e 23 sw	ra, 0x1c(sp)
0x80001728: 00 81 2c 23 sw	s0, 0x18(sp)
0x8000172c: 00 91 2a 23 sw	s1, 0x14(sp)
0x80001730: 01 31 26 23 sw	s3, 0xc(sp)
0x80001734: 00 06 8a 93 mv	s5, a3
0x80001738: 00 05 09 13 mv	s2, a0
0x8000173c: 00 06 0b 13 mv	s6, a2
0x80001740: 00 07 0a 13 mv	s4, a4
0x80001744: 04 05 94 63 bnez	a1, 0x48
0x80001748: 18 06 98 63 bnez	a3, 0x190
0x8000174c: 00 07 08 63 beqz	a4, 0x10
0x8000175c: 03 69 55 33 divu	a0, s2, s6
0x80001760: 00 00 05 93 mv	a1, zero
0x80001764: 01 c1 20 83 lw	ra, 0x1c(sp)
0x80001768: 01 81 24 03 lw	s0, 0x18(sp)
0x8000176c: 01 41 24 83 lw	s1, 0x14(sp)
0x80001770: 01 01 29 03 lw	s2, 0x10(sp)
0x80001774: 00 c1 29 83 lw	s3, 0xc(sp)
0x80001778: 00 81 2a 03 lw	s4, 8(sp)
0x8000177c: 00 41 2a 83 lw	s5, 4(sp)
0x80001780: 00 01 2b 03 lw	s6, 0(sp)
0x80001784: 02 01 01 13 addi	sp, sp, 0x20
0x80001788: 00 00 80 67 ret
0x80000088: fe 85 e0 e3 bltu	a1, s0, -0x20
0x8000008c: 00 b4 14 63 bne	s0, a1, 8
0x80000090: fc 95 6c e3 bltu	a0, s1, -0x28
0x80000068: 00 81 05 93 addi	a1, sp, 8
0x8000006c: 00 60 05 13 addi	a0, zero, 6
0x80000070: 0e 00 10 ef jal	0x10e0
0x80001150: 00 25 15 13 slli	a0, a0, 2
0x80001154: 00 01 07 97 auipc	a5, 0x10
0x80001158: ae 87 87 93 addi	a5, a5, -0x518
0x8000115c: 00 a7 87 b3 add	a5, a5, a0
0x80001160: 00 07 a7 83 lw	a5, 0(a5)
0x80001164: 00 05 85 13 mv	a0, a1
0x80001168: 00 07 80 67 jr	a5
0x8000118c: a0 00 07 b7 lui	a5, 0xa0000
0x80001190: 04 c7 a7 03 lw	a4, 0x4c(a5)
0x80001194: 04 87 a7 83 lw	a5, 0x48(a5)
0x80001198: 00 e5 22 23 sw	a4, 4(a0)
0x8000119c: 00 f5 20 23 sw	a5, 0(a0)
0x800011a0: 00 00 80 67 ret
0x80000074: 00 81 25 03 lw	a0, 8(sp)
0x80000078: 00 c1 25 83 lw	a1, 0xc(sp)
0x8000007c: 00 09 06 13 mv	a2, s2
0x80000080: 00 09 86 93 mv	a3, s3
0x80000084: 1b 10 10 ef jal	0x19b0
0x80001a34: 00 00 07 13 mv	a4, zero
0x80001a38: cd 9f f0 6f j	-0x328
0x80001710: fe 01 01 13 addi	sp, sp, -0x20
0x80001714: 01 21 28 23 sw	s2, 0x10(sp)
0x80001718: 01 41 24 23 sw	s4, 8(sp)
0x8000171c: 01 51 22 23 sw	s5, 4(sp)
0x80001720: 01 61 20 23 sw	s6, 0(sp)
0x80001724: 00 11 2e 23 sw	ra, 0x1c(sp)
0x80001728: 00 81 2c 23 sw	s0, 0x18(sp)
0x8000172c: 00 91 2a 23 sw	s1, 0x14(sp)
0x80001730: 01 31 26 23 sw	s3, 0xc(sp)
0x80001734: 00 06 8a 93 mv	s5, a3
0x80001738: 00 05 09 13 mv	s2, a0
0x8000173c: 00 06 0b 13 mv	s6, a2
0x80001740: 00 07 0a 13 mv	s4, a4
0x80001744: 04 05 94 63 bnez	a1, 0x48
0x80001748: 18 06 98 63 bnez	a3, 0x190
0x8000174c: 00 07 08 63 beqz	a4, 0x10
0x8000175c: 03 69 55 33 divu	a0, s2, s6
0x80001760: 00 00 05 93 mv	a1, zero
0x80001764: 01 c1 20 83 lw	ra, 0x1c(sp)
0x80001768: 01 81 24 03 lw	s0, 0x18(sp)
0x8000176c: 01 41 24 83 lw	s1, 0x14(sp)
0x80001770: 01 01 29 03 lw	s2, 0x10(sp)
0x80001774: 00 c1 29 83 lw	s3, 0xc(sp)
0x80001778: 00 81 2a 03 lw	s4, 8(sp)
0x8000177c: 00 41 2a 83 lw	s5, 4(sp)
0x80001780: 00 01 2b 03 lw	s6, 0(sp)
0x80001784: 02 01 01 13 addi	sp, sp, 0x20
0x80001788: 00 00 80 67 ret
0x80000088: fe 85 e0 e3 bltu	a1, s0, -0x20
0x8000008c: 00 b4 14 63 bne	s0, a1, 8
0x80000090: fc 95 6c e3 bltu	a0, s1, -0x28
0x80000068: 00 81 05 93 addi	a1, sp, 8
0x8000006c: 00 60 05 13 addi	a0, zero, 6
0x80000070: 0e 00 10 ef jal	0x10e0
0x80001150: 00 25 15 13 slli	a0, a0, 2
0x80001154: 00 01 07 97 auipc	a5, 0x10
0x80001158: ae 87 87 93 addi	a5, a5, -0x518
0x8000115c: 00 a7 87 b3 add	a5, a5, a0
0x80001160: 00 07 a7 83 lw	a5, 0(a5)
0x80001164: 00 05 85 13 mv	a0, a1
0x80001168: 00 07 80 67 jr	a5
0x8000118c: a0 00 07 b7 lui	a5, 0xa0000
0x80001190: 04 c7 a7 03 lw	a4, 0x4c(a5)
0x80001194: 04 87 a7 83 lw	a5, 0x48(a5)
0x80001198: 00 e5 22 23 sw	a4, 4(a0)
0x8000119c: 00 f5 20 23 sw	a5, 0(a0)
0x800011a0: 00 00 80 67 ret
0x80000074: 00 81 25 03 lw	a0, 8(sp)
0x80000078: 00 c1 25 83 lw	a1, 0xc(sp)
0x8000007c: 00 09 06 13 mv	a2, s2
0x80000080: 00 09 86 93 mv	a3, s3
0x80000084: 1b 10 10 ef jal	0x19b0
0x80001a34: 00 00 07 13 mv	a4, zero
0x80001a38: cd 9f f0 6f j	-0x328
0x80001710: fe 01 01 13 addi	sp, sp, -0x20
0x80001714: 01 21 28 23 sw	s2, 0x10(sp)
0x80001718: 01 41 24 23 sw	s4, 8(sp)
0x8000171c: 01 51 22 23 sw	s5, 4(sp)
0x80001720: 01 61 20 23 sw	s6, 0(sp)
0x80001724: 00 11 2e 23 sw	ra, 0x1c(sp)
0x80001728: 00 81 2c 23 sw	s0, 0x18(sp)
0x8000172c: 00 91 2a 23 sw	s1, 0x14(sp)
0x80001730: 01 31 26 23 sw	s3, 0xc(sp)
0x80001734: 00 06 8a 93 mv	s5, a3
0x80001738: 00 05 09 13 mv	s2, a0
0x8000173c: 00 06 0b 13 mv	s6, a2
0x80001740: 00 07 0a 13 mv	s4, a4
0x80001744: 04 05 94 63 bnez	a1, 0x48
0x80001748: 18 06 98 63 bnez	a3, 0x190
0x8000174c: 00 07 08 63 beqz	a4, 0x10
0x8000175c: 03 69 55 33 divu	a0, s2, s6
0x80001760: 00 00 05 93 mv	a1, zero
0x80001764: 01 c1 20 83 lw	ra, 0x1c(sp)
0x80001768: 01 81 24 03 lw	s0, 0x18(sp)
0x8000176c: 01 41 24 83 lw	s1, 0x14(sp)
0x80001770: 01 01 29 03 lw	s2, 0x10(sp)
0x80001774: 00 c1 29 83 lw	s3, 0xc(sp)
0x80001778: 00 81 2a 03 lw	s4, 8(sp)
0x8000177c: 00 41 2a 83 lw	s5, 4(sp)
0x80001780: 00 01 2b 03 lw	s6, 0(sp)
0x80001784: 02 01 01 13 addi	sp, sp, 0x20
0x80001788: 00 00 80 67 ret
0x80000088: fe 85 e0 e3 bltu	a1, s0, -0x20
0x8000008c: 00 b4 14 63 bne	s0, a1, 8
0x80000090: fc 95 6c e3 bltu	a0, s1, -0x28
0x80000068: 00 81 05 93 addi	a1, sp, 8
0x8000006c: 00 60 05 13 addi	a0, zero, 6
0x80000070: 0e 00 10 ef jal	0x10e0
0x80001150: 00 25 15 13 slli	a0, a0, 2
0x80001154: 00 01 07 97 auipc	a5, 0x10
0x80001158: ae 87 87 93 addi	a5, a5, -0x518
0x8000115c: 00 a7 87 b3 add	a5, a5, a0
0x80001160: 00 07 a7 83 lw	a5, 0(a5)
0x80001164: 00 05 85 13 mv	a0, a1
0x80001168: 00 07 80 67 jr	a5
0x8000118c: a0 00 07 b7 lui	a5, 0xa0000
0x80001190: 04 c7 a7 03 lw	a4, 0x4c(a5)
0x80001194: 04 87 a7 83 lw	a5, 0x48(a5)
0x80001198: 00 e5 22 23 sw	a4, 4(a0)
0x8000119c: 00 f5 20 23 sw	a5, 0(a0)
0x800011a0: 00 00 80 67 ret
0x80000074: 00 81 25 03 lw	a0, 8(sp)
0x80000078: 00 c1 25 83 lw	a1, 0xc(sp)
0x8000007c: 00 09 06 13 mv	a2, s2
0x80000080: 00 09 86 93 mv	a3, s3
0x80000084: 1b 10 10 ef jal	0x19b0
0x80001a34: 00 00 07 13 mv	a4, zero
0x80001a38: cd 9f f0 6f j	-0x328
0x80001710: fe 01 01 13 addi	sp, sp, -0x20
0x80001714: 01 21 28 23 sw	s2, 0x10(sp)
0x80001718: 01 41 24 23 sw	s4, 8(sp)
0x8000171c: 01 51 22 23 sw	s5, 4(sp)
0x80001720: 01 61 20 23 sw	s6, 0(sp)
0x80001724: 00 11 2e 23 sw	ra, 0x1c(sp)
0x80001728: 00 81 2c 23 sw	s0, 0x18(sp)
0x8000172c: 00 91 2a 23 sw	s1, 0x14(sp)
0x80001730: 01 31 26 23 sw	s3, 0xc(sp)
0x80001734: 00 06 8a 93 mv	s5, a3
0x80001738: 00 05 09 13 mv	s2, a0
0x8000173c: 00 06 0b 13 mv	s6, a2
0x80001740: 00 07 0a 13 mv	s4, a4
0x80001744: 04 05 94 63 bnez	a1, 0x48
0x80001748: 18 06 98 63 bnez	a3, 0x190
0x8000174c: 00 07 08 63 beqz	a4, 0x10
0x8000175c: 03 69 55 33 divu	a0, s2, s6
0x80001760: 00 00 05 93 mv	a1, zero
0x80001764: 01 c1 20 83 lw	ra, 0x1c(sp)
0x80001768: 01 81 24 03 lw	s0, 0x18(sp)
0x8000176c: 01 41 24 83 lw	s1, 0x14(sp)
0x80001770: 01 01 29 03 lw	s2, 0x10(sp)
0x80001774: 00 c1 29 83 lw	s3, 0xc(sp)
0x80001778: 00 81 2a 03 lw	s4, 8(sp)
0x8000177c: 00 41 2a 83 lw	s5, 4(sp)
0x80001780: 00 01 2b 03 lw	s6, 0(sp)
0x80001784: 02 01 01 13 addi	sp, sp, 0x20
0x80001788: 00 00 80 67 ret
0x80000088: fe 85 e0 e3 bltu	a1, s0, -0x20
0x8000008c: 00 b4 14 63 bne	s0, a1, 8
0x80000090: fc 95 6c e3 bltu	a0, s1, -0x28
0x80000068: 00 81 05 93 addi	a1, sp, 8
0x8000006c: 00 60 05 13 addi	a0, zero, 6
0x80000070: 0e 00 10 ef jal	0x10e0
0x80001150: 00 25 15 13 slli	a0, a0, 2
0x80001154: 00 01 07 97 auipc	a5, 0x10
0x80001158: ae 87 87 93 addi	a5, a5, -0x518
0x8000115c: 00 a7 87 b3 add	a5, a5, a0
0x80001160: 00 07 a7 83 lw	a5, 0(a5)
0x80001164: 00 05 85 13 mv	a0, a1
0x80001168: 00 07 80 67 jr	a5
0x8000118c: a0 00 07 b7 lui	a5, 0xa0000
0x80001190: 04 c7 a7 03 lw	a4, 0x4c(a5)
0x80001194: 04 87 a7 83 lw	a5, 0x48(a5)
0x80001198: 00 e5 22 23 sw	a4, 4(a0)
0x8000119c: 00 f5 20 23 sw	a5, 0(a0)
0x800011a0: 00 00 80 67 ret
0x80000074: 00 81 25 03 lw	a0, 8(sp)
0x80000078: 00 c1 25 83 lw	a1, 0xc(sp)
0x8000007c: 00 09 06 13 mv	a2, s2
0x80000080: 00 09 86 93 mv	a3, s3
0x80000084: 1b 10 10 ef jal	0x19b0
0x80001a34: 00 00 07 13 mv	a4, zero
0x80001a38: cd 9f f0 6f j	-0x328
0x80001710: fe 01 01 13 addi	sp, sp, -0x20
0x80001714: 01 21 28 23 sw	s2, 0x10(sp)
0x80001718: 01 41 24 23 sw	s4, 8(sp)
0x8000171c: 01 51 22 23 sw	s5, 4(sp)
0x80001720: 01 61 20 23 sw	s6, 0(sp)
0x80001724: 00 11 2e 23 sw	ra, 0x1c(sp)
0x80001728: 00 81 2c 23 sw	s0, 0x18(sp)
0x8000172c: 00 91 2a 23 sw	s1, 0x14(sp)
0x80001730: 01 31 26 23 sw	s3, 0xc(sp)
0x80001734: 00 06 8a 93 mv	s5, a3
0x80001738: 00 05 09 13 mv	s2, a0
0x8000173c: 00 06 0b 13 mv	s6, a2
0x80001740: 00 07 0a 13 mv	s4, a4
0x80001744: 04 05 94 63 bnez	a1, 0x48
0x80001748: 18 06 98 63 bnez	a3, 0x190
0x8000174c: 00 07 08 63 beqz	a4, 0x10
0x8000175c: 03 69 55 33 divu	a0, s2, s6
0x80001760: 00 00 05 93 mv	a1, zero
0x80001764: 01 c1 20 83 lw	ra, 0x1c(sp)
0x80001768: 01 81 24 03 lw	s0, 0x18(sp)
0x8000176c: 01 41 24 83 lw	s1, 0x14(sp)
0x80001770: 01 01 29 03 lw	s2, 0x10(sp)
0x80001774: 00 c1 29 83 lw	s3, 0xc(sp)
0x80001778: 00 81 2a 03 lw	s4, 8(sp)
0x8000177c: 00 41 2a 83 lw	s5, 4(sp)
0x80001780: 00 01 2b 03 lw	s6, 0(sp)
0x80001784: 02 01 01 13 addi	sp, sp, 0x20
0x80001788: 00 00 80 67 ret
0x80000088: fe 85 e0 e3 bltu	a1, s0, -0x20
0x8000008c: 00 b4 14 63 bne	s0, a1, 8
0x80000090: fc 95 6c e3 bltu	a0, s1, -0x28
0x80000068: 00 81 05 93 addi	a1, sp, 8
0x8000006c: 00 60 05 13 addi	a0, zero, 6
0x80000070: 0e 00 10 ef jal	0x10e0
0x80001150: 00 25 15 13 slli	a0, a0, 2
0x80001154: 00 01 07 97 auipc	a5, 0x10
0x80001158: ae 87 87 93 addi	a5, a5, -0x518
0x8000115c: 00 a7 87 b3 add	a5, a5, a0
0x80001160: 00 07 a7 83 lw	a5, 0(a5)
0x80001164: 00 05 85 13 mv	a0, a1
0x80001168: 00 07 80 67 jr	a5
0x8000118c: a0 00 07 b7 lui	a5, 0xa0000
0x80001190: 04 c7 a7 03 lw	a4, 0x4c(a5)
0x80001194: 04 87 a7 83 lw	a5, 0x48(a5)
0x80001198: 00 e5 22 23 sw	a4, 4(a0)
0x8000119c: 00 f5 20 23 sw	a5, 0(a0)
0x800011a0: 00 00 80 67 ret
0x80000074: 00 81 25 03 lw	a0, 8(sp)
0x80000078: 00 c1 25 83 lw	a1, 0xc(sp)
0x8000007c: 00 09 06 13 mv	a2, s2
0x80000080: 00 09 86 93 mv	a3, s3
0x80000084: 1b 10 10 ef jal	0x19b0
0x80001a34: 00 00 07 13 mv	a4, zero
0x80001a38: cd 9f f0 6f j	-0x328
0x80001710: fe 01 01 13 addi	sp, sp, -0x20
0x80001714: 01 21 28 23 sw	s2, 0x10(sp)
0x80001718: 01 41 24 23 sw	s4, 8(sp)
0x8000171c: 01 51 22 23 sw	s5, 4(sp)
0x80001720: 01 61 20 23 sw	s6, 0(sp)
0x80001724: 00 11 2e 23 sw	ra, 0x1c(sp)
0x80001728: 00 81 2c 23 sw	s0, 0x18(sp)
0x8000172c: 00 91 2a 23 sw	s1, 0x14(sp)
0x80001730: 01 31 26 23 sw	s3, 0xc(sp)
0x80001734: 00 06 8a 93 mv	s5, a3
0x80001738: 00 05 09 13 mv	s2, a0
0x8000173c: 00 06 0b 13 mv	s6, a2
0x80001740: 00 07 0a 13 mv	s4, a4
0x80001744: 04 05 94 63 bnez	a1, 0x48
0x80001748: 18 06 98 63 bnez	a3, 0x190
0x8000174c: 00 07 08 63 beqz	a4, 0x10
0x8000175c: 03 69 55 33 divu	a0, s2, s6
0x80001760: 00 00 05 93 mv	a1, zero
0x80001764: 01 c1 20 83 lw	ra, 0x1c(sp)
0x80001768: 01 81 24 03 lw	s0, 0x18(sp)
0x8000176c: 01 41 24 83 lw	s1, 0x14(sp)
0x80001770: 01 01 29 03 lw	s2, 0x10(sp)
0x80001774: 00 c1 29 83 lw	s3, 0xc(sp)
0x80001778: 00 81 2a 03 lw	s4, 8(sp)
0x8000177c: 00 41 2a 83 lw	s5, 4(sp)
0x80001780: 00 01 2b 03 lw	s6, 0(sp)
0x80001784: 02 01 01 13 addi	sp, sp, 0x20
0x80001788: 00 00 80 67 ret
0x80000088: fe 85 e0 e3 bltu	a1, s0, -0x20
0x8000008c: 00 b4 14 63 bne	s0, a1, 8
0x80000090: fc 95 6c e3 bltu	a0, s1, -0x28
0x80000068: 00 81 05 93 addi	a1, sp, 8
0x8000006c: 00 60 05 13 addi	a0, zero, 6
0x80000070: 0e 00 10 ef jal	0x10e0
0x80001150: 00 25 15 13 slli	a0, a0, 2
0x80001154: 00 01 07 97 auipc	a5, 0x10
0x80001158: ae 87 87 93 addi	a5, a5, -0x518
0x8000115c: 00 a7 87 b3 add	a5, a5, a0
0x80001160: 00 07 a7 83 lw	a5, 0(a5)
0x80001164: 00 05 85 13 mv	a0, a1
0x80001168: 00 07 80 67 jr	a5
0x8000118c: a0 00 07 b7 lui	a5, 0xa0000
0x80001190: 04 c7 a7 03 lw	a4, 0x4c(a5)
0x80001194: 04 87 a7 83 lw	a5, 0x48(a5)
0x80001198: 00 e5 22 23 sw	a4, 4(a0)
0x8000119c: 00 f5 20 23 sw	a5, 0(a0)
0x800011a0: 00 00 80 67 ret
0x80000074: 00 81 25 03 lw	a0, 8(sp)
0x80000078: 00 c1 25 83 lw	a1, 0xc(sp)
0x8000007c: 00 09 06 13 mv	a2, s2
0x80000080: 00 09 86 93 mv	a3, s3
0x80000084: 1b 10 10 ef jal	0x19b0
0x80001a34: 00 00 07 13 mv	a4, zero
0x80001a38: cd 9f f0 6f j	-0x328
0x80001710: fe 01 01 13 addi	sp, sp, -0x20
0x80001714: 01 21 28 23 sw	s2, 0x10(sp)
0x80001718: 01 41 24 23 sw	s4, 8(sp)
0x8000171c: 01 51 22 23 sw	s5, 4(sp)
0x80001720: 01 61 20 23 sw	s6, 0(sp)
0x80001724: 00 11 2e 23 sw	ra, 0x1c(sp)
0x80001728: 00 81 2c 23 sw	s0, 0x18(sp)
0x8000172c: 00 91 2a 23 sw	s1, 0x14(sp)
0x80001730: 01 31 26 23 sw	s3, 0xc(sp)
0x80001734: 00 06 8a 93 mv	s5, a3
0x80001738: 00 05 09 13 mv	s2, a0
0x8000173c: 00 06 0b 13 mv	s6, a2
0x80001740: 00 07 0a 13 mv	s4, a4
0x80001744: 04 05 94 63 bnez	a1, 0x48
0x80001748: 18 06 98 63 bnez	a3, 0x190
0x8000174c: 00 07 08 63 beqz	a4, 0x10
0x8000175c: 03 69 55 33 divu	a0, s2, s6
0x80001760: 00 00 05 93 mv	a1, zero
0x80001764: 01 c1 20 83 lw	ra, 0x1c(sp)
0x80001768: 01 81 24 03 lw	s0, 0x18(sp)
0x8000176c: 01 41 24 83 lw	s1, 0x14(sp)
0x80001770: 01 01 29 03 lw	s2, 0x10(sp)
0x80001774: 00 c1 29 83 lw	s3, 0xc(sp)
0x80001778: 00 81 2a 03 lw	s4, 8(sp)
0x8000177c: 00 41 2a 83 lw	s5, 4(sp)
0x80001780: 00 01 2b 03 lw	s6, 0(sp)
0x80001784: 02 01 01 13 addi	sp, sp, 0x20
0x80001788: 00 00 80 67 ret
0x80000088: fe 85 e0 e3 bltu	a1, s0, -0x20
0x8000008c: 00 b4 14 63 bne	s0, a1, 8
0x80000090: fc 95 6c e3 bltu	a0, s1, -0x28
0x80000068: 00 81 05 93 addi	a1, sp, 8
0x8000006c: 00 60 05 13 addi	a0, zero, 6
0x80000070: 0e 00 10 ef jal	0x10e0
0x80001150: 00 25 15 13 slli	a0, a0, 2
0x80001154: 00 01 07 97 auipc	a5, 0x10
0x80001158: ae 87 87 93 addi	a5, a5, -0x518
0x8000115c: 00 a7 87 b3 add	a5, a5, a0
0x80001160: 00 07 a7 83 lw	a5, 0(a5)
0x80001164: 00 05 85 13 mv	a0, a1
0x80001168: 00 07 80 67 jr	a5
0x8000118c: a0 00 07 b7 lui	a5, 0xa0000
0x80001190: 04 c7 a7 03 lw	a4, 0x4c(a5)
0x80001194: 04 87 a7 83 lw	a5, 0x48(a5)
0x80001198: 00 e5 22 23 sw	a4, 4(a0)
0x8000119c: 00 f5 20 23 sw	a5, 0(a0)
0x800011a0: 00 00 80 67 ret
0x80000074: 00 81 25 03 lw	a0, 8(sp)
0x80000078: 00 c1 25 83 lw	a1, 0xc(sp)
0x8000007c: 00 09 06 13 mv	a2, s2
0x80000080: 00 09 86 93 mv	a3, s3
0x80000084: 1b 10 10 ef jal	0x19b0
0x80001a34: 00 00 07 13 mv	a4, zero
0x80001a38: cd 9f f0 6f j	-0x328
0x80001710: fe 01 01 13 addi	sp, sp, -0x20
0x80001714: 01 21 28 23 sw	s2, 0x10(sp)
0x80001718: 01 41 24 23 sw	s4, 8(sp)
0x8000171c: 01 51 22 23 sw	s5, 4(sp)
0x80001720: 01 61 20 23 sw	s6, 0(sp)
0x80001724: 00 11 2e 23 sw	ra, 0x1c(sp)
0x80001728: 00 81 2c 23 sw	s0, 0x18(sp)
0x8000172c: 00 91 2a 23 sw	s1, 0x14(sp)
0x80001730: 01 31 26 23 sw	s3, 0xc(sp)
0x80001734: 00 06 8a 93 mv	s5, a3
0x80001738: 00 05 09 13 mv	s2, a0
0x8000173c: 00 06 0b 13 mv	s6, a2
0x80001740: 00 07 0a 13 mv	s4, a4
0x80001744: 04 05 94 63 bnez	a1, 0x48
0x80001748: 18 06 98 63 bnez	a3, 0x190
0x8000174c: 00 07 08 63 beqz	a4, 0x10
0x8000175c: 03 69 55 33 divu	a0, s2, s6
0x80001760: 00 00 05 93 mv	a1, zero
0x80001764: 01 c1 20 83 lw	ra, 0x1c(sp)
0x80001768: 01 81 24 03 lw	s0, 0x18(sp)
0x8000176c: 01 41 24 83 lw	s1, 0x14(sp)
0x80001770: 01 01 29 03 lw	s2, 0x10(sp)
0x80001774: 00 c1 29 83 lw	s3, 0xc(sp)
0x80001778: 00 81 2a 03 lw	s4, 8(sp)
0x8000177c: 00 41 2a 83 lw	s5, 4(sp)
0x80001780: 00 01 2b 03 lw	s6, 0(sp)
0x80001784: 02 01 01 13 addi	sp, sp, 0x20
0x80001788: 00 00 80 67 ret
0x80000088: fe 85 e0 e3 bltu	a1, s0, -0x20
0x8000008c: 00 b4 14 63 bne	s0, a1, 8
0x80000090: fc 95 6c e3 bltu	a0, s1, -0x28
0x80000068: 00 81 05 93 addi	a1, sp, 8
0x8000006c: 00 60 05 13 addi	a0, zero, 6
0x80000070: 0e 00 10 ef jal	0x10e0
0x80001150: 00 25 15 13 slli	a0, a0, 2
0x80001154: 00 01 07 97 auipc	a5, 0x10
0x80001158: ae 87 87 93 addi	a5, a5, -0x518
0x8000115c: 00 a7 87 b3 add	a5, a5, a0
0x80001160: 00 07 a7 83 lw	a5, 0(a5)
0x80001164: 00 05 85 13 mv	a0, a1
0x80001168: 00 07 80 67 jr	a5
0x8000118c: a0 00 07 b7 lui	a5, 0xa0000
0x80001190: 04 c7 a7 03 lw	a4, 0x4c(a5)
0x80001194: 04 87 a7 83 lw	a5, 0x48(a5)
0x80001198: 00 e5 22 23 sw	a4, 4(a0)
0x8000119c: 00 f5 20 23 sw	a5, 0(a0)
0x800011a0: 00 00 80 67 ret
0x80000074: 00 81 25 03 lw	a0, 8(sp)
0x80000078: 00 c1 25 83 lw	a1, 0xc(sp)
0x8000007c: 00 09 06 13 mv	a2, s2
0x80000080: 00 09 86 93 mv	a3, s3
0x80000084: 1b 10 10 ef jal	0x19b0
0x80001a34: 00 00 07 13 mv	a4, zero
0x80001a38: cd 9f f0 6f j	-0x328
0x80001710: fe 01 01 13 addi	sp, sp, -0x20
0x80001714: 01 21 28 23 sw	s2, 0x10(sp)
0x80001718: 01 41 24 23 sw	s4, 8(sp)
0x8000171c: 01 51 22 23 sw	s5, 4(sp)
0x80001720: 01 61 20 23 sw	s6, 0(sp)
0x80001724: 00 11 2e 23 sw	ra, 0x1c(sp)
0x80001728: 00 81 2c 23 sw	s0, 0x18(sp)
0x8000172c: 00 91 2a 23 sw	s1, 0x14(sp)
0x80001730: 01 31 26 23 sw	s3, 0xc(sp)
0x80001734: 00 06 8a 93 mv	s5, a3
0x80001738: 00 05 09 13 mv	s2, a0
0x8000173c: 00 06 0b 13 mv	s6, a2
0x80001740: 00 07 0a 13 mv	s4, a4
0x80001744: 04 05 94 63 bnez	a1, 0x48
0x80001748: 18 06 98 63 bnez	a3, 0x190
0x8000174c: 00 07 08 63 beqz	a4, 0x10
0x8000175c: 03 69 55 33 divu	a0, s2, s6
0x80001760: 00 00 05 93 mv	a1, zero
0x80001764: 01 c1 20 83 lw	ra, 0x1c(sp)
0x80001768: 01 81 24 03 lw	s0, 0x18(sp)
0x8000176c: 01 41 24 83 lw	s1, 0x14(sp)
0x80001770: 01 01 29 03 lw	s2, 0x10(sp)
0x80001774: 00 c1 29 83 lw	s3, 0xc(sp)
0x80001778: 00 81 2a 03 lw	s4, 8(sp)
0x8000177c: 00 41 2a 83 lw	s5, 4(sp)
0x80001780: 00 01 2b 03 lw	s6, 0(sp)
0x80001784: 02 01 01 13 addi	sp, sp, 0x20
0x80001788: 00 00 80 67 ret
0x80000088: fe 85 e0 e3 bltu	a1, s0, -0x20
0x8000008c: 00 b4 14 63 bne	s0, a1, 8
0x80000090: fc 95 6c e3 bltu	a0, s1, -0x28
0x80000068: 00 81 05 93 addi	a1, sp, 8
0x8000006c: 00 60 05 13 addi	a0, zero, 6
0x80000070: 0e 00 10 ef jal	0x10e0
0x80001150: 00 25 15 13 slli	a0, a0, 2
0x80001154: 00 01 07 97 auipc	a5, 0x10
0x80001158: ae 87 87 93 addi	a5, a5, -0x518
0x8000115c: 00 a7 87 b3 add	a5, a5, a0
0x80001160: 00 07 a7 83 lw	a5, 0(a5)
0x80001164: 00 05 85 13 mv	a0, a1
0x80001168: 00 07 80 67 jr	a5
0x8000118c: a0 00 07 b7 lui	a5, 0xa0000
0x80001190: 04 c7 a7 03 lw	a4, 0x4c(a5)
0x80001194: 04 87 a7 83 lw	a5, 0x48(a5)
0x80001198: 00 e5 22 23 sw	a4, 4(a0)
0x8000119c: 00 f5 20 23 sw	a5, 0(a0)
0x800011a0: 00 00 80 67 ret
0x80000074: 00 81 25 03 lw	a0, 8(sp)
0x80000078: 00 c1 25 83 lw	a1, 0xc(sp)
0x8000007c: 00 09 06 13 mv	a2, s2
0x80000080: 00 09 86 93 mv	a3, s3
0x80000084: 1b 10 10 ef jal	0x19b0
0x80001a34: 00 00 07 13 mv	a4, zero
0x80001a38: cd 9f f0 6f j	-0x328
0x80001710: fe 01 01 13 addi	sp, sp, -0x20
0x80001714: 01 21 28 23 sw	s2, 0x10(sp)
0x80001718: 01 41 24 23 sw	s4, 8(sp)
0x8000171c: 01 51 22 23 sw	s5, 4(sp)
0x80001720: 01 61 20 23 sw	s6, 0(sp)
0x80001724: 00 11 2e 23 sw	ra, 0x1c(sp)
0x80001728: 00 81 2c 23 sw	s0, 0x18(sp)
0x8000172c: 00 91 2a 23 sw	s1, 0x14(sp)
0x80001730: 01 31 26 23 sw	s3, 0xc(sp)
0x80001734: 00 06 8a 93 mv	s5, a3
0x80001738: 00 05 09 13 mv	s2, a0
0x8000173c: 00 06 0b 13 mv	s6, a2
0x80001740: 00 07 0a 13 mv	s4, a4
0x80001744: 04 05 94 63 bnez	a1, 0x48
0x80001748: 18 06 98 63 bnez	a3, 0x190
0x8000174c: 00 07 08 63 beqz	a4, 0x10
0x8000175c: 03 69 55 33 divu	a0, s2, s6
0x80001760: 00 00 05 93 mv	a1, zero
0x80001764: 01 c1 20 83 lw	ra, 0x1c(sp)
0x80001768: 01 81 24 03 lw	s0, 0x18(sp)
0x8000176c: 01 41 24 83 lw	s1, 0x14(sp)
0x80001770: 01 01 29 03 lw	s2, 0x10(sp)
0x80001774: 00 c1 29 83 lw	s3, 0xc(sp)
0x80001778: 00 81 2a 03 lw	s4, 8(sp)
0x8000177c: 00 41 2a 83 lw	s5, 4(sp)
0x80001780: 00 01 2b 03 lw	s6, 0(sp)
0x80001784: 02 01 01 13 addi	sp, sp, 0x20
0x80001788: 00 00 80 67 ret
0x80000088: fe 85 e0 e3 bltu	a1, s0, -0x20
0x8000008c: 00 b4 14 63 bne	s0, a1, 8
0x80000090: fc 95 6c e3 bltu	a0, s1, -0x28
0x80000068: 00 81 05 93 addi	a1, sp, 8
0x8000006c: 00 60 05 13 addi	a0, zero, 6
0x80000070: 0e 00 10 ef jal	0x10e0
0x80001150: 00 25 15 13 slli	a0, a0, 2
0x80001154: 00 01 07 97 auipc	a5, 0x10
0x80001158: ae 87 87 93 addi	a5, a5, -0x518
0x8000115c: 00 a7 87 b3 add	a5, a5, a0
0x80001160: 00 07 a7 83 lw	a5, 0(a5)
0x80001164: 00 05 85 13 mv	a0, a1
0x80001168: 00 07 80 67 jr	a5
0x8000118c: a0 00 07 b7 lui	a5, 0xa0000
0x80001190: 04 c7 a7 03 lw	a4, 0x4c(a5)
0x80001194: 04 87 a7 83 lw	a5, 0x48(a5)
0x80001198: 00 e5 22 23 sw	a4, 4(a0)
0x8000119c: 00 f5 20 23 sw	a5, 0(a0)
0x800011a0: 00 00 80 67 ret
0x80000074: 00 81 25 03 lw	a0, 8(sp)
0x80000078: 00 c1 25 83 lw	a1, 0xc(sp)
0x8000007c: 00 09 06 13 mv	a2, s2
0x80000080: 00 09 86 93 mv	a3, s3
0x80000084: 1b 10 10 ef jal	0x19b0
0x80001a34: 00 00 07 13 mv	a4, zero
0x80001a38: cd 9f f0 6f j	-0x328
0x80001710: fe 01 01 13 addi	sp, sp, -0x20
0x80001714: 01 21 28 23 sw	s2, 0x10(sp)
0x80001718: 01 41 24 23 sw	s4, 8(sp)
0x8000171c: 01 51 22 23 sw	s5, 4(sp)
0x80001720: 01 61 20 23 sw	s6, 0(sp)
0x80001724: 00 11 2e 23 sw	ra, 0x1c(sp)
0x80001728: 00 81 2c 23 sw	s0, 0x18(sp)
0x8000172c: 00 91 2a 23 sw	s1, 0x14(sp)
0x80001730: 01 31 26 23 sw	s3, 0xc(sp)
0x80001734: 00 06 8a 93 mv	s5, a3
0x80001738: 00 05 09 13 mv	s2, a0
0x8000173c: 00 06 0b 13 mv	s6, a2
0x80001740: 00 07 0a 13 mv	s4, a4
0x80001744: 04 05 94 63 bnez	a1, 0x48
0x80001748: 18 06 98 63 bnez	a3, 0x190
0x8000174c: 00 07 08 63 beqz	a4, 0x10
0x8000175c: 03 69 55 33 divu	a0, s2, s6
0x80001760: 00 00 05 93 mv	a1, zero
0x80001764: 01 c1 20 83 lw	ra, 0x1c(sp)
0x80001768: 01 81 24 03 lw	s0, 0x18(sp)
0x8000176c: 01 41 24 83 lw	s1, 0x14(sp)
0x80001770: 01 01 29 03 lw	s2, 0x10(sp)
0x80001774: 00 c1 29 83 lw	s3, 0xc(sp)
0x80001778: 00 81 2a 03 lw	s4, 8(sp)
0x8000177c: 00 41 2a 83 lw	s5, 4(sp)
0x80001780: 00 01 2b 03 lw	s6, 0(sp)
0x80001784: 02 01 01 13 addi	sp, sp, 0x20
0x80001788: 00 00 80 67 ret
0x80000088: fe 85 e0 e3 bltu	a1, s0, -0x20
0x8000008c: 00 b4 14 63 bne	s0, a1, 8
0x80000090: fc 95 6c e3 bltu	a0, s1, -0x28
0x80000068: 00 81 05 93 addi	a1, sp, 8
0x8000006c: 00 60 05 13 addi	a0, zero, 6
0x80000070: 0e 00 10 ef jal	0x10e0
0x80001150: 00 25 15 13 slli	a0, a0, 2
0x80001154: 00 01 07 97 auipc	a5, 0x10
0x80001158: ae 87 87 93 addi	a5, a5, -0x518
0x8000115c: 00 a7 87 b3 add	a5, a5, a0
0x80001160: 00 07 a7 83 lw	a5, 0(a5)
0x80001164: 00 05 85 13 mv	a0, a1
0x80001168: 00 07 80 67 jr	a5
0x8000118c: a0 00 07 b7 lui	a5, 0xa0000
0x80001190: 04 c7 a7 03 lw	a4, 0x4c(a5)
0x80001194: 04 87 a7 83 lw	a5, 0x48(a5)
0x80001198: 00 e5 22 23 sw	a4, 4(a0)
0x8000119c: 00 f5 20 23 sw	a5, 0(a0)
0x800011a0: 00 00 80 67 ret
0x80000074: 00 81 25 03 lw	a0, 8(sp)
0x80000078: 00 c1 25 83 lw	a1, 0xc(sp)
0x8000007c: 00 09 06 13 mv	a2, s2
0x80000080: 00 09 86 93 mv	a3, s3
0x80000084: 1b 10 10 ef jal	0x19b0
0x80001a34: 00 00 07 13 mv	a4, zero
0x80001a38: cd 9f f0 6f j	-0x328
0x80001710: fe 01 01 13 addi	sp, sp, -0x20
0x80001714: 01 21 28 23 sw	s2, 0x10(sp)
0x80001718: 01 41 24 23 sw	s4, 8(sp)
0x8000171c: 01 51 22 23 sw	s5, 4(sp)
0x80001720: 01 61 20 23 sw	s6, 0(sp)
0x80001724: 00 11 2e 23 sw	ra, 0x1c(sp)
0x80001728: 00 81 2c 23 sw	s0, 0x18(sp)
0x8000172c: 00 91 2a 23 sw	s1, 0x14(sp)
0x80001730: 01 31 26 23 sw	s3, 0xc(sp)
0x80001734: 00 06 8a 93 mv	s5, a3
0x80001738: 00 05 09 13 mv	s2, a0
0x8000173c: 00 06 0b 13 mv	s6, a2
0x80001740: 00 07 0a 13 mv	s4, a4
0x80001744: 04 05 94 63 bnez	a1, 0x48
0x80001748: 18 06 98 63 bnez	a3, 0x190
0x8000174c: 00 07 08 63 beqz	a4, 0x10
0x8000175c: 03 69 55 33 divu	a0, s2, s6
0x80001760: 00 00 05 93 mv	a1, zero
0x80001764: 01 c1 20 83 lw	ra, 0x1c(sp)
0x80001768: 01 81 24 03 lw	s0, 0x18(sp)
0x8000176c: 01 41 24 83 lw	s1, 0x14(sp)
0x80001770: 01 01 29 03 lw	s2, 0x10(sp)
0x80001774: 00 c1 29 83 lw	s3, 0xc(sp)
0x80001778: 00 81 2a 03 lw	s4, 8(sp)
0x8000177c: 00 41 2a 83 lw	s5, 4(sp)
0x80001780: 00 01 2b 03 lw	s6, 0(sp)
0x80001784: 02 01 01 13 addi	sp, sp, 0x20
0x80001788: 00 00 80 67 ret
0x80000088: fe 85 e0 e3 bltu	a1, s0, -0x20
0x8000008c: 00 b4 14 63 bne	s0, a1, 8
0x80000090: fc 95 6c e3 bltu	a0, s1, -0x28
0x80000068: 00 81 05 93 addi	a1, sp, 8
0x8000006c: 00 60 05 13 addi	a0, zero, 6
0x80000070: 0e 00 10 ef jal	0x10e0
0x80001150: 00 25 15 13 slli	a0, a0, 2
0x80001154: 00 01 07 97 auipc	a5, 0x10
0x80001158: ae 87 87 93 addi	a5, a5, -0x518
0x8000115c: 00 a7 87 b3 add	a5, a5, a0
0x80001160: 00 07 a7 83 lw	a5, 0(a5)
0x80001164: 00 05 85 13 mv	a0, a1
0x80001168: 00 07 80 67 jr	a5
0x8000118c: a0 00 07 b7 lui	a5, 0xa0000
0x80001190: 04 c7 a7 03 lw	a4, 0x4c(a5)
0x80001194: 04 87 a7 83 lw	a5, 0x48(a5)
0x80001198: 00 e5 22 23 sw	a4, 4(a0)
0x8000119c: 00 f5 20 23 sw	a5, 0(a0)
0x800011a0: 00 00 80 67 ret
0x80000074: 00 81 25 03 lw	a0, 8(sp)
0x80000078: 00 c1 25 83 lw	a1, 0xc(sp)
0x8000007c: 00 09 06 13 mv	a2, s2
0x80000080: 00 09 86 93 mv	a3, s3
0x80000084: 1b 10 10 ef jal	0x19b0
0x80001a34: 00 00 07 13 mv	a4, zero
0x80001a38: cd 9f f0 6f j	-0x328
0x80001710: fe 01 01 13 addi	sp, sp, -0x20
0x80001714: 01 21 28 23 sw	s2, 0x10(sp)
0x80001718: 01 41 24 23 sw	s4, 8(sp)
0x8000171c: 01 51 22 23 sw	s5, 4(sp)
0x80001720: 01 61 20 23 sw	s6, 0(sp)
0x80001724: 00 11 2e 23 sw	ra, 0x1c(sp)
0x80001728: 00 81 2c 23 sw	s0, 0x18(sp)
0x8000172c: 00 91 2a 23 sw	s1, 0x14(sp)
0x80001730: 01 31 26 23 sw	s3, 0xc(sp)
0x80001734: 00 06 8a 93 mv	s5, a3
0x80001738: 00 05 09 13 mv	s2, a0
0x8000173c: 00 06 0b 13 mv	s6, a2
0x80001740: 00 07 0a 13 mv	s4, a4
0x80001744: 04 05 94 63 bnez	a1, 0x48
0x80001748: 18 06 98 63 bnez	a3, 0x190
0x8000174c: 00 07 08 63 beqz	a4, 0x10
0x8000175c: 03 69 55 33 divu	a0, s2, s6
0x80001760: 00 00 05 93 mv	a1, zero
0x80001764: 01 c1 20 83 lw	ra, 0x1c(sp)
0x80001768: 01 81 24 03 lw	s0, 0x18(sp)
0x8000176c: 01 41 24 83 lw	s1, 0x14(sp)
0x80001770: 01 01 29 03 lw	s2, 0x10(sp)
0x80001774: 00 c1 29 83 lw	s3, 0xc(sp)
0x80001778: 00 81 2a 03 lw	s4, 8(sp)
0x8000177c: 00 41 2a 83 lw	s5, 4(sp)
0x80001780: 00 01 2b 03 lw	s6, 0(sp)
0x80001784: 02 01 01 13 addi	sp, sp, 0x20
0x80001788: 00 00 80 67 ret
0x80000088: fe 85 e0 e3 bltu	a1, s0, -0x20
0x8000008c: 00 b4 14 63 bne	s0, a1, 8
0x80000090: fc 95 6c e3 bltu	a0, s1, -0x28
0x80000068: 00 81 05 93 addi	a1, sp, 8
0x8000006c: 00 60 05 13 addi	a0, zero, 6
0x80000070: 0e 00 10 ef jal	0x10e0
0x80001150: 00 25 15 13 slli	a0, a0, 2
0x80001154: 00 01 07 97 auipc	a5, 0x10
0x80001158: ae 87 87 93 addi	a5, a5, -0x518
0x8000115c: 00 a7 87 b3 add	a5, a5, a0
0x80001160: 00 07 a7 83 lw	a5, 0(a5)
0x80001164: 00 05 85 13 mv	a0, a1
0x80001168: 00 07 80 67 jr	a5
0x8000118c: a0 00 07 b7 lui	a5, 0xa0000
0x80001190: 04 c7 a7 03 lw	a4, 0x4c(a5)
0x80001194: 04 87 a7 83 lw	a5, 0x48(a5)
0x80001198: 00 e5 22 23 sw	a4, 4(a0)
0x8000119c: 00 f5 20 23 sw	a5, 0(a0)
0x800011a0: 00 00 80 67 ret
0x80000074: 00 81 25 03 lw	a0, 8(sp)
0x80000078: 00 c1 25 83 lw	a1, 0xc(sp)
0x8000007c: 00 09 06 13 mv	a2, s2
0x80000080: 00 09 86 93 mv	a3, s3
0x80000084: 1b 10 10 ef jal	0x19b0
0x80001a34: 00 00 07 13 mv	a4, zero
0x80001a38: cd 9f f0 6f j	-0x328
0x80001710: fe 01 01 13 addi	sp, sp, -0x20
0x80001714: 01 21 28 23 sw	s2, 0x10(sp)
0x80001718: 01 41 24 23 sw	s4, 8(sp)
0x8000171c: 01 51 22 23 sw	s5, 4(sp)
0x80001720: 01 61 20 23 sw	s6, 0(sp)
0x80001724: 00 11 2e 23 sw	ra, 0x1c(sp)
0x80001728: 00 81 2c 23 sw	s0, 0x18(sp)
0x8000172c: 00 91 2a 23 sw	s1, 0x14(sp)
0x80001730: 01 31 26 23 sw	s3, 0xc(sp)
0x80001734: 00 06 8a 93 mv	s5, a3
0x80001738: 00 05 09 13 mv	s2, a0
0x8000173c: 00 06 0b 13 mv	s6, a2
0x80001740: 00 07 0a 13 mv	s4, a4
0x80001744: 04 05 94 63 bnez	a1, 0x48
0x80001748: 18 06 98 63 bnez	a3, 0x190
0x8000174c: 00 07 08 63 beqz	a4, 0x10
0x8000175c: 03 69 55 33 divu	a0, s2, s6
0x80001760: 00 00 05 93 mv	a1, zero
0x80001764: 01 c1 20 83 lw	ra, 0x1c(sp)
0x80001768: 01 81 24 03 lw	s0, 0x18(sp)
0x8000176c: 01 41 24 83 lw	s1, 0x14(sp)
0x80001770: 01 01 29 03 lw	s2, 0x10(sp)
0x80001774: 00 c1 29 83 lw	s3, 0xc(sp)
0x80001778: 00 81 2a 03 lw	s4, 8(sp)
0x8000177c: 00 41 2a 83 lw	s5, 4(sp)
0x80001780: 00 01 2b 03 lw	s6, 0(sp)
0x80001784: 02 01 01 13 addi	sp, sp, 0x20
0x80001788: 00 00 80 67 ret
0x80000088: fe 85 e0 e3 bltu	a1, s0, -0x20
0x8000008c: 00 b4 14 63 bne	s0, a1, 8
0x80000090: fc 95 6c e3 bltu	a0, s1, -0x28
0x80000068: 00 81 05 93 addi	a1, sp, 8
0x8000006c: 00 60 05 13 addi	a0, zero, 6
0x80000070: 0e 00 10 ef jal	0x10e0
0x80001150: 00 25 15 13 slli	a0, a0, 2
0x80001154: 00 01 07 97 auipc	a5, 0x10
0x80001158: ae 87 87 93 addi	a5, a5, -0x518
0x8000115c: 00 a7 87 b3 add	a5, a5, a0
0x80001160: 00 07 a7 83 lw	a5, 0(a5)
0x80001164: 00 05 85 13 mv	a0, a1
0x80001168: 00 07 80 67 jr	a5
0x8000118c: a0 00 07 b7 lui	a5, 0xa0000
0x80001190: 04 c7 a7 03 lw	a4, 0x4c(a5)
0x80001194: 04 87 a7 83 lw	a5, 0x48(a5)
0x80001198: 00 e5 22 23 sw	a4, 4(a0)
0x8000119c: 00 f5 20 23 sw	a5, 0(a0)
0x800011a0: 00 00 80 67 ret
0x80000074: 00 81 25 03 lw	a0, 8(sp)
0x80000078: 00 c1 25 83 lw	a1, 0xc(sp)
0x8000007c: 00 09 06 13 mv	a2, s2
0x80000080: 00 09 86 93 mv	a3, s3
0x80000084: 1b 10 10 ef jal	0x19b0
0x80001a34: 00 00 07 13 mv	a4, zero
0x80001a38: cd 9f f0 6f j	-0x328
0x80001710: fe 01 01 13 addi	sp, sp, -0x20
0x80001714: 01 21 28 23 sw	s2, 0x10(sp)
0x80001718: 01 41 24 23 sw	s4, 8(sp)
0x8000171c: 01 51 22 23 sw	s5, 4(sp)
0x80001720: 01 61 20 23 sw	s6, 0(sp)
0x80001724: 00 11 2e 23 sw	ra, 0x1c(sp)
0x80001728: 00 81 2c 23 sw	s0, 0x18(sp)
0x8000172c: 00 91 2a 23 sw	s1, 0x14(sp)
0x80001730: 01 31 26 23 sw	s3, 0xc(sp)
0x80001734: 00 06 8a 93 mv	s5, a3
0x80001738: 00 05 09 13 mv	s2, a0
0x8000173c: 00 06 0b 13 mv	s6, a2
0x80001740: 00 07 0a 13 mv	s4, a4
0x80001744: 04 05 94 63 bnez	a1, 0x48
0x80001748: 18 06 98 63 bnez	a3, 0x190
0x8000174c: 00 07 08 63 beqz	a4, 0x10
0x8000175c: 03 69 55 33 divu	a0, s2, s6
0x80001760: 00 00 05 93 mv	a1, zero
0x80001764: 01 c1 20 83 lw	ra, 0x1c(sp)
0x80001768: 01 81 24 03 lw	s0, 0x18(sp)
0x8000176c: 01 41 24 83 lw	s1, 0x14(sp)
0x80001770: 01 01 29 03 lw	s2, 0x10(sp)
0x80001774: 00 c1 29 83 lw	s3, 0xc(sp)
0x80001778: 00 81 2a 03 lw	s4, 8(sp)
0x8000177c: 00 41 2a 83 lw	s5, 4(sp)
0x80001780: 00 01 2b 03 lw	s6, 0(sp)
0x80001784: 02 01 01 13 addi	sp, sp, 0x20
0x80001788: 00 00 80 67 ret
0x80000088: fe 85 e0 e3 bltu	a1, s0, -0x20
0x8000008c: 00 b4 14 63 bne	s0, a1, 8
0x80000090: fc 95 6c e3 bltu	a0, s1, -0x28
0x80000068: 00 81 05 93 addi	a1, sp, 8
0x8000006c: 00 60 05 13 addi	a0, zero, 6
0x80000070: 0e 00 10 ef jal	0x10e0
0x80001150: 00 25 15 13 slli	a0, a0, 2
0x80001154: 00 01 07 97 auipc	a5, 0x10
0x80001158: ae 87 87 93 addi	a5, a5, -0x518
0x8000115c: 00 a7 87 b3 add	a5, a5, a0
0x80001160: 00 07 a7 83 lw	a5, 0(a5)
0x80001164: 00 05 85 13 mv	a0, a1
0x80001168: 00 07 80 67 jr	a5
0x8000118c: a0 00 07 b7 lui	a5, 0xa0000
0x80001190: 04 c7 a7 03 lw	a4, 0x4c(a5)
0x80001194: 04 87 a7 83 lw	a5, 0x48(a5)
0x80001198: 00 e5 22 23 sw	a4, 4(a0)
0x8000119c: 00 f5 20 23 sw	a5, 0(a0)
0x800011a0: 00 00 80 67 ret
0x80000074: 00 81 25 03 lw	a0, 8(sp)
0x80000078: 00 c1 25 83 lw	a1, 0xc(sp)
0x8000007c: 00 09 06 13 mv	a2, s2
0x80000080: 00 09 86 93 mv	a3, s3
0x80000084: 1b 10 10 ef jal	0x19b0
0x80001a34: 00 00 07 13 mv	a4, zero
0x80001a38: cd 9f f0 6f j	-0x328
0x80001710: fe 01 01 13 addi	sp, sp, -0x20
0x80001714: 01 21 28 23 sw	s2, 0x10(sp)
0x80001718: 01 41 24 23 sw	s4, 8(sp)
0x8000171c: 01 51 22 23 sw	s5, 4(sp)
0x80001720: 01 61 20 23 sw	s6, 0(sp)
0x80001724: 00 11 2e 23 sw	ra, 0x1c(sp)
0x80001728: 00 81 2c 23 sw	s0, 0x18(sp)
0x8000172c: 00 91 2a 23 sw	s1, 0x14(sp)
0x80001730: 01 31 26 23 sw	s3, 0xc(sp)
0x80001734: 00 06 8a 93 mv	s5, a3
0x80001738: 00 05 09 13 mv	s2, a0
0x8000173c: 00 06 0b 13 mv	s6, a2
0x80001740: 00 07 0a 13 mv	s4, a4
0x80001744: 04 05 94 63 bnez	a1, 0x48
0x80001748: 18 06 98 63 bnez	a3, 0x190
0x8000174c: 00 07 08 63 beqz	a4, 0x10
0x8000175c: 03 69 55 33 divu	a0, s2, s6
0x80001760: 00 00 05 93 mv	a1, zero
0x80001764: 01 c1 20 83 lw	ra, 0x1c(sp)
0x80001768: 01 81 24 03 lw	s0, 0x18(sp)
0x8000176c: 01 41 24 83 lw	s1, 0x14(sp)
0x80001770: 01 01 29 03 lw	s2, 0x10(sp)
0x80001774: 00 c1 29 83 lw	s3, 0xc(sp)
0x80001778: 00 81 2a 03 lw	s4, 8(sp)
0x8000177c: 00 41 2a 83 lw	s5, 4(sp)
0x80001780: 00 01 2b 03 lw	s6, 0(sp)
0x80001784: 02 01 01 13 addi	sp, sp, 0x20
0x80001788: 00 00 80 67 ret
0x80000088: fe 85 e0 e3 bltu	a1, s0, -0x20
0x8000008c: 00 b4 14 63 bne	s0, a1, 8
0x80000090: fc 95 6c e3 bltu	a0, s1, -0x28
0x80000068: 00 81 05 93 addi	a1, sp, 8
0x8000006c: 00 60 05 13 addi	a0, zero, 6
0x80000070: 0e 00 10 ef jal	0x10e0
0x80001150: 00 25 15 13 slli	a0, a0, 2
0x80001154: 00 01 07 97 auipc	a5, 0x10
0x80001158: ae 87 87 93 addi	a5, a5, -0x518
0x8000115c: 00 a7 87 b3 add	a5, a5, a0
0x80001160: 00 07 a7 83 lw	a5, 0(a5)
0x80001164: 00 05 85 13 mv	a0, a1
0x80001168: 00 07 80 67 jr	a5
0x8000118c: a0 00 07 b7 lui	a5, 0xa0000
0x80001190: 04 c7 a7 03 lw	a4, 0x4c(a5)
0x80001194: 04 87 a7 83 lw	a5, 0x48(a5)
0x80001198: 00 e5 22 23 sw	a4, 4(a0)
0x8000119c: 00 f5 20 23 sw	a5, 0(a0)
0x800011a0: 00 00 80 67 ret
0x80000074: 00 81 25 03 lw	a0, 8(sp)
0x80000078: 00 c1 25 83 lw	a1, 0xc(sp)
0x8000007c: 00 09 06 13 mv	a2, s2
0x80000080: 00 09 86 93 mv	a3, s3
0x80000084: 1b 10 10 ef jal	0x19b0
0x80001a34: 00 00 07 13 mv	a4, zero
0x80001a38: cd 9f f0 6f j	-0x328
0x80001710: fe 01 01 13 addi	sp, sp, -0x20
0x80001714: 01 21 28 23 sw	s2, 0x10(sp)
0x80001718: 01 41 24 23 sw	s4, 8(sp)
0x8000171c: 01 51 22 23 sw	s5, 4(sp)
0x80001720: 01 61 20 23 sw	s6, 0(sp)
0x80001724: 00 11 2e 23 sw	ra, 0x1c(sp)
0x80001728: 00 81 2c 23 sw	s0, 0x18(sp)
0x8000172c: 00 91 2a 23 sw	s1, 0x14(sp)
0x80001730: 01 31 26 23 sw	s3, 0xc(sp)
0x80001734: 00 06 8a 93 mv	s5, a3
0x80001738: 00 05 09 13 mv	s2, a0
0x8000173c: 00 06 0b 13 mv	s6, a2
0x80001740: 00 07 0a 13 mv	s4, a4
0x80001744: 04 05 94 63 bnez	a1, 0x48
0x80001748: 18 06 98 63 bnez	a3, 0x190
0x8000174c: 00 07 08 63 beqz	a4, 0x10
0x8000175c: 03 69 55 33 divu	a0, s2, s6
0x80001760: 00 00 05 93 mv	a1, zero
0x80001764: 01 c1 20 83 lw	ra, 0x1c(sp)
0x80001768: 01 81 24 03 lw	s0, 0x18(sp)
0x8000176c: 01 41 24 83 lw	s1, 0x14(sp)
0x80001770: 01 01 29 03 lw	s2, 0x10(sp)
0x80001774: 00 c1 29 83 lw	s3, 0xc(sp)
0x80001778: 00 81 2a 03 lw	s4, 8(sp)
0x8000177c: 00 41 2a 83 lw	s5, 4(sp)
0x80001780: 00 01 2b 03 lw	s6, 0(sp)
0x80001784: 02 01 01 13 addi	sp, sp, 0x20
0x80001788: 00 00 80 67 ret
0x80000088: fe 85 e0 e3 bltu	a1, s0, -0x20
0x8000008c: 00 b4 14 63 bne	s0, a1, 8
0x80000090: fc 95 6c e3 bltu	a0, s1, -0x28
0x80000068: 00 81 05 93 addi	a1, sp, 8
0x8000006c: 00 60 05 13 addi	a0, zero, 6
0x80000070: 0e 00 10 ef jal	0x10e0
0x80001150: 00 25 15 13 slli	a0, a0, 2
0x80001154: 00 01 07 97 auipc	a5, 0x10
0x80001158: ae 87 87 93 addi	a5, a5, -0x518
0x8000115c: 00 a7 87 b3 add	a5, a5, a0
0x80001160: 00 07 a7 83 lw	a5, 0(a5)
0x80001164: 00 05 85 13 mv	a0, a1
0x80001168: 00 07 80 67 jr	a5
0x8000118c: a0 00 07 b7 lui	a5, 0xa0000
0x80001190: 04 c7 a7 03 lw	a4, 0x4c(a5)
0x80001194: 04 87 a7 83 lw	a5, 0x48(a5)
0x80001198: 00 e5 22 23 sw	a4, 4(a0)
0x8000119c: 00 f5 20 23 sw	a5, 0(a0)
0x800011a0: 00 00 80 67 ret
0x80000074: 00 81 25 03 lw	a0, 8(sp)
0x80000078: 00 c1 25 83 lw	a1, 0xc(sp)
0x8000007c: 00 09 06 13 mv	a2, s2
0x80000080: 00 09 86 93 mv	a3, s3
0x80000084: 1b 10 10 ef jal	0x19b0
0x80001a34: 00 00 07 13 mv	a4, zero
0x80001a38: cd 9f f0 6f j	-0x328
0x80001710: fe 01 01 13 addi	sp, sp, -0x20
0x80001714: 01 21 28 23 sw	s2, 0x10(sp)
0x80001718: 01 41 24 23 sw	s4, 8(sp)
0x8000171c: 01 51 22 23 sw	s5, 4(sp)
0x80001720: 01 61 20 23 sw	s6, 0(sp)
0x80001724: 00 11 2e 23 sw	ra, 0x1c(sp)
0x80001728: 00 81 2c 23 sw	s0, 0x18(sp)
0x8000172c: 00 91 2a 23 sw	s1, 0x14(sp)
0x80001730: 01 31 26 23 sw	s3, 0xc(sp)
0x80001734: 00 06 8a 93 mv	s5, a3
0x80001738: 00 05 09 13 mv	s2, a0
0x8000173c: 00 06 0b 13 mv	s6, a2
0x80001740: 00 07 0a 13 mv	s4, a4
0x80001744: 04 05 94 63 bnez	a1, 0x48
0x80001748: 18 06 98 63 bnez	a3, 0x190
0x8000174c: 00 07 08 63 beqz	a4, 0x10
0x8000175c: 03 69 55 33 divu	a0, s2, s6
0x80001760: 00 00 05 93 mv	a1, zero
0x80001764: 01 c1 20 83 lw	ra, 0x1c(sp)
0x80001768: 01 81 24 03 lw	s0, 0x18(sp)
0x8000176c: 01 41 24 83 lw	s1, 0x14(sp)
0x80001770: 01 01 29 03 lw	s2, 0x10(sp)
0x80001774: 00 c1 29 83 lw	s3, 0xc(sp)
0x80001778: 00 81 2a 03 lw	s4, 8(sp)
0x8000177c: 00 41 2a 83 lw	s5, 4(sp)
0x80001780: 00 01 2b 03 lw	s6, 0(sp)
0x80001784: 02 01 01 13 addi	sp, sp, 0x20
0x80001788: 00 00 80 67 ret
0x80000088: fe 85 e0 e3 bltu	a1, s0, -0x20
0x8000008c: 00 b4 14 63 bne	s0, a1, 8
0x80000090: fc 95 6c e3 bltu	a0, s1, -0x28
0x80000068: 00 81 05 93 addi	a1, sp, 8
0x8000006c: 00 60 05 13 addi	a0, zero, 6
0x80000070: 0e 00 10 ef jal	0x10e0
0x80001150: 00 25 15 13 slli	a0, a0, 2
0x80001154: 00 01 07 97 auipc	a5, 0x10
0x80001158: ae 87 87 93 addi	a5, a5, -0x518
0x8000115c: 00 a7 87 b3 add	a5, a5, a0
0x80001160: 00 07 a7 83 lw	a5, 0(a5)
0x80001164: 00 05 85 13 mv	a0, a1
0x80001168: 00 07 80 67 jr	a5
0x8000118c: a0 00 07 b7 lui	a5, 0xa0000
0x80001190: 04 c7 a7 03 lw	a4, 0x4c(a5)
0x80001194: 04 87 a7 83 lw	a5, 0x48(a5)
0x80001198: 00 e5 22 23 sw	a4, 4(a0)
0x8000119c: 00 f5 20 23 sw	a5, 0(a0)
0x800011a0: 00 00 80 67 ret
0x80000074: 00 81 25 03 lw	a0, 8(sp)
0x80000078: 00 c1 25 83 lw	a1, 0xc(sp)
0x8000007c: 00 09 06 13 mv	a2, s2
0x80000080: 00 09 86 93 mv	a3, s3
0x80000084: 1b 10 10 ef jal	0x19b0
0x80001a34: 00 00 07 13 mv	a4, zero
0x80001a38: cd 9f f0 6f j	-0x328
0x80001710: fe 01 01 13 addi	sp, sp, -0x20
0x80001714: 01 21 28 23 sw	s2, 0x10(sp)
0x80001718: 01 41 24 23 sw	s4, 8(sp)
0x8000171c: 01 51 22 23 sw	s5, 4(sp)
0x80001720: 01 61 20 23 sw	s6, 0(sp)
0x80001724: 00 11 2e 23 sw	ra, 0x1c(sp)
0x80001728: 00 81 2c 23 sw	s0, 0x18(sp)
0x8000172c: 00 91 2a 23 sw	s1, 0x14(sp)
0x80001730: 01 31 26 23 sw	s3, 0xc(sp)
0x80001734: 00 06 8a 93 mv	s5, a3
0x80001738: 00 05 09 13 mv	s2, a0
0x8000173c: 00 06 0b 13 mv	s6, a2
0x80001740: 00 07 0a 13 mv	s4, a4
0x80001744: 04 05 94 63 bnez	a1, 0x48
0x80001748: 18 06 98 63 bnez	a3, 0x190
0x8000174c: 00 07 08 63 beqz	a4, 0x10
0x8000175c: 03 69 55 33 divu	a0, s2, s6
0x80001760: 00 00 05 93 mv	a1, zero
0x80001764: 01 c1 20 83 lw	ra, 0x1c(sp)
0x80001768: 01 81 24 03 lw	s0, 0x18(sp)
0x8000176c: 01 41 24 83 lw	s1, 0x14(sp)
0x80001770: 01 01 29 03 lw	s2, 0x10(sp)
0x80001774: 00 c1 29 83 lw	s3, 0xc(sp)
0x80001778: 00 81 2a 03 lw	s4, 8(sp)
0x8000177c: 00 41 2a 83 lw	s5, 4(sp)
0x80001780: 00 01 2b 03 lw	s6, 0(sp)
0x80001784: 02 01 01 13 addi	sp, sp, 0x20
0x80001788: 00 00 80 67 ret
0x80000088: fe 85 e0 e3 bltu	a1, s0, -0x20
0x8000008c: 00 b4 14 63 bne	s0, a1, 8
0x80000090: fc 95 6c e3 bltu	a0, s1, -0x28
0x80000068: 00 81 05 93 addi	a1, sp, 8
0x8000006c: 00 60 05 13 addi	a0, zero, 6
0x80000070: 0e 00 10 ef jal	0x10e0
0x80001150: 00 25 15 13 slli	a0, a0, 2
0x80001154: 00 01 07 97 auipc	a5, 0x10
0x80001158: ae 87 87 93 addi	a5, a5, -0x518
0x8000115c: 00 a7 87 b3 add	a5, a5, a0
0x80001160: 00 07 a7 83 lw	a5, 0(a5)
0x80001164: 00 05 85 13 mv	a0, a1
0x80001168: 00 07 80 67 jr	a5
0x8000118c: a0 00 07 b7 lui	a5, 0xa0000
0x80001190: 04 c7 a7 03 lw	a4, 0x4c(a5)
0x80001194: 04 87 a7 83 lw	a5, 0x48(a5)
0x80001198: 00 e5 22 23 sw	a4, 4(a0)
0x8000119c: 00 f5 20 23 sw	a5, 0(a0)
0x800011a0: 00 00 80 67 ret
0x80000074: 00 81 25 03 lw	a0, 8(sp)
0x80000078: 00 c1 25 83 lw	a1, 0xc(sp)
0x8000007c: 00 09 06 13 mv	a2, s2
0x80000080: 00 09 86 93 mv	a3, s3
0x80000084: 1b 10 10 ef jal	0x19b0
0x80001a34: 00 00 07 13 mv	a4, zero
0x80001a38: cd 9f f0 6f j	-0x328
0x80001710: fe 01 01 13 addi	sp, sp, -0x20
0x80001714: 01 21 28 23 sw	s2, 0x10(sp)
0x80001718: 01 41 24 23 sw	s4, 8(sp)
0x8000171c: 01 51 22 23 sw	s5, 4(sp)
0x80001720: 01 61 20 23 sw	s6, 0(sp)
0x80001724: 00 11 2e 23 sw	ra, 0x1c(sp)
0x80001728: 00 81 2c 23 sw	s0, 0x18(sp)
0x8000172c: 00 91 2a 23 sw	s1, 0x14(sp)
0x80001730: 01 31 26 23 sw	s3, 0xc(sp)
0x80001734: 00 06 8a 93 mv	s5, a3
0x80001738: 00 05 09 13 mv	s2, a0
0x8000173c: 00 06 0b 13 mv	s6, a2
0x80001740: 00 07 0a 13 mv	s4, a4
0x80001744: 04 05 94 63 bnez	a1, 0x48
0x80001748: 18 06 98 63 bnez	a3, 0x190
0x8000174c: 00 07 08 63 beqz	a4, 0x10
0x8000175c: 03 69 55 33 divu	a0, s2, s6
0x80001760: 00 00 05 93 mv	a1, zero
0x80001764: 01 c1 20 83 lw	ra, 0x1c(sp)
0x80001768: 01 81 24 03 lw	s0, 0x18(sp)
0x8000176c: 01 41 24 83 lw	s1, 0x14(sp)
0x80001770: 01 01 29 03 lw	s2, 0x10(sp)
0x80001774: 00 c1 29 83 lw	s3, 0xc(sp)
0x80001778: 00 81 2a 03 lw	s4, 8(sp)
0x8000177c: 00 41 2a 83 lw	s5, 4(sp)
0x80001780: 00 01 2b 03 lw	s6, 0(sp)
0x80001784: 02 01 01 13 addi	sp, sp, 0x20
0x80001788: 00 00 80 67 ret
0x80000088: fe 85 e0 e3 bltu	a1, s0, -0x20
0x8000008c: 00 b4 14 63 bne	s0, a1, 8
0x80000090: fc 95 6c e3 bltu	a0, s1, -0x28
0x80000068: 00 81 05 93 addi	a1, sp, 8
0x8000006c: 00 60 05 13 addi	a0, zero, 6
0x80000070: 0e 00 10 ef jal	0x10e0
0x80001150: 00 25 15 13 slli	a0, a0, 2
0x80001154: 00 01 07 97 auipc	a5, 0x10
0x80001158: ae 87 87 93 addi	a5, a5, -0x518
0x8000115c: 00 a7 87 b3 add	a5, a5, a0
0x80001160: 00 07 a7 83 lw	a5, 0(a5)
0x80001164: 00 05 85 13 mv	a0, a1
0x80001168: 00 07 80 67 jr	a5
0x8000118c: a0 00 07 b7 lui	a5, 0xa0000
0x80001190: 04 c7 a7 03 lw	a4, 0x4c(a5)
0x80001194: 04 87 a7 83 lw	a5, 0x48(a5)
0x80001198: 00 e5 22 23 sw	a4, 4(a0)
0x8000119c: 00 f5 20 23 sw	a5, 0(a0)
0x800011a0: 00 00 80 67 ret
0x80000074: 00 81 25 03 lw	a0, 8(sp)
0x80000078: 00 c1 25 83 lw	a1, 0xc(sp)
0x8000007c: 00 09 06 13 mv	a2, s2
0x80000080: 00 09 86 93 mv	a3, s3
0x80000084: 1b 10 10 ef jal	0x19b0
0x80001a34: 00 00 07 13 mv	a4, zero
0x80001a38: cd 9f f0 6f j	-0x328
0x80001710: fe 01 01 13 addi	sp, sp, -0x20
0x80001714: 01 21 28 23 sw	s2, 0x10(sp)
0x80001718: 01 41 24 23 sw	s4, 8(sp)
0x8000171c: 01 51 22 23 sw	s5, 4(sp)
0x80001720: 01 61 20 23 sw	s6, 0(sp)
0x80001724: 00 11 2e 23 sw	ra, 0x1c(sp)
0x80001728: 00 81 2c 23 sw	s0, 0x18(sp)
0x8000172c: 00 91 2a 23 sw	s1, 0x14(sp)
0x80001730: 01 31 26 23 sw	s3, 0xc(sp)
0x80001734: 00 06 8a 93 mv	s5, a3
0x80001738: 00 05 09 13 mv	s2, a0
0x8000173c: 00 06 0b 13 mv	s6, a2
0x80001740: 00 07 0a 13 mv	s4, a4
0x80001744: 04 05 94 63 bnez	a1, 0x48
0x80001748: 18 06 98 63 bnez	a3, 0x190
0x8000174c: 00 07 08 63 beqz	a4, 0x10
0x8000175c: 03 69 55 33 divu	a0, s2, s6
0x80001760: 00 00 05 93 mv	a1, zero
0x80001764: 01 c1 20 83 lw	ra, 0x1c(sp)
0x80001768: 01 81 24 03 lw	s0, 0x18(sp)
0x8000176c: 01 41 24 83 lw	s1, 0x14(sp)
0x80001770: 01 01 29 03 lw	s2, 0x10(sp)
0x80001774: 00 c1 29 83 lw	s3, 0xc(sp)
0x80001778: 00 81 2a 03 lw	s4, 8(sp)
0x8000177c: 00 41 2a 83 lw	s5, 4(sp)
0x80001780: 00 01 2b 03 lw	s6, 0(sp)
0x80001784: 02 01 01 13 addi	sp, sp, 0x20
0x80001788: 00 00 80 67 ret
0x80000088: fe 85 e0 e3 bltu	a1, s0, -0x20
0x8000008c: 00 b4 14 63 bne	s0, a1, 8
0x80000090: fc 95 6c e3 bltu	a0, s1, -0x28
0x80000068: 00 81 05 93 addi	a1, sp, 8
0x8000006c: 00 60 05 13 addi	a0, zero, 6
0x80000070: 0e 00 10 ef jal	0x10e0
0x80001150: 00 25 15 13 slli	a0, a0, 2
0x80001154: 00 01 07 97 auipc	a5, 0x10
0x80001158: ae 87 87 93 addi	a5, a5, -0x518
0x8000115c: 00 a7 87 b3 add	a5, a5, a0
0x80001160: 00 07 a7 83 lw	a5, 0(a5)
0x80001164: 00 05 85 13 mv	a0, a1
0x80001168: 00 07 80 67 jr	a5
0x8000118c: a0 00 07 b7 lui	a5, 0xa0000
0x80001190: 04 c7 a7 03 lw	a4, 0x4c(a5)
0x80001194: 04 87 a7 83 lw	a5, 0x48(a5)
0x80001198: 00 e5 22 23 sw	a4, 4(a0)
0x8000119c: 00 f5 20 23 sw	a5, 0(a0)
0x800011a0: 00 00 80 67 ret
0x80000074: 00 81 25 03 lw	a0, 8(sp)
0x80000078: 00 c1 25 83 lw	a1, 0xc(sp)
0x8000007c: 00 09 06 13 mv	a2, s2
0x80000080: 00 09 86 93 mv	a3, s3
0x80000084: 1b 10 10 ef jal	0x19b0
0x80001a34: 00 00 07 13 mv	a4, zero
0x80001a38: cd 9f f0 6f j	-0x328
0x80001710: fe 01 01 13 addi	sp, sp, -0x20
0x80001714: 01 21 28 23 sw	s2, 0x10(sp)
0x80001718: 01 41 24 23 sw	s4, 8(sp)
0x8000171c: 01 51 22 23 sw	s5, 4(sp)
0x80001720: 01 61 20 23 sw	s6, 0(sp)
0x80001724: 00 11 2e 23 sw	ra, 0x1c(sp)
0x80001728: 00 81 2c 23 sw	s0, 0x18(sp)
0x8000172c: 00 91 2a 23 sw	s1, 0x14(sp)
0x80001730: 01 31 26 23 sw	s3, 0xc(sp)
0x80001734: 00 06 8a 93 mv	s5, a3
0x80001738: 00 05 09 13 mv	s2, a0
0x8000173c: 00 06 0b 13 mv	s6, a2
0x80001740: 00 07 0a 13 mv	s4, a4
0x80001744: 04 05 94 63 bnez	a1, 0x48
0x80001748: 18 06 98 63 bnez	a3, 0x190
0x8000174c: 00 07 08 63 beqz	a4, 0x10
0x8000175c: 03 69 55 33 divu	a0, s2, s6
0x80001760: 00 00 05 93 mv	a1, zero
0x80001764: 01 c1 20 83 lw	ra, 0x1c(sp)
0x80001768: 01 81 24 03 lw	s0, 0x18(sp)
0x8000176c: 01 41 24 83 lw	s1, 0x14(sp)
0x80001770: 01 01 29 03 lw	s2, 0x10(sp)
0x80001774: 00 c1 29 83 lw	s3, 0xc(sp)
0x80001778: 00 81 2a 03 lw	s4, 8(sp)
0x8000177c: 00 41 2a 83 lw	s5, 4(sp)
0x80001780: 00 01 2b 03 lw	s6, 0(sp)
0x80001784: 02 01 01 13 addi	sp, sp, 0x20
0x80001788: 00 00 80 67 ret
0x80000088: fe 85 e0 e3 bltu	a1, s0, -0x20
0x8000008c: 00 b4 14 63 bne	s0, a1, 8
0x80000090: fc 95 6c e3 bltu	a0, s1, -0x28
0x80000068: 00 81 05 93 addi	a1, sp, 8
0x8000006c: 00 60 05 13 addi	a0, zero, 6
0x80000070: 0e 00 10 ef jal	0x10e0
0x80001150: 00 25 15 13 slli	a0, a0, 2
0x80001154: 00 01 07 97 auipc	a5, 0x10
0x80001158: ae 87 87 93 addi	a5, a5, -0x518
0x8000115c: 00 a7 87 b3 add	a5, a5, a0
0x80001160: 00 07 a7 83 lw	a5, 0(a5)
0x80001164: 00 05 85 13 mv	a0, a1
0x80001168: 00 07 80 67 jr	a5
0x8000118c: a0 00 07 b7 lui	a5, 0xa0000
0x80001190: 04 c7 a7 03 lw	a4, 0x4c(a5)
0x80001194: 04 87 a7 83 lw	a5, 0x48(a5)
0x80001198: 00 e5 22 23 sw	a4, 4(a0)
0x8000119c: 00 f5 20 23 sw	a5, 0(a0)
0x800011a0: 00 00 80 67 ret
0x80000074: 00 81 25 03 lw	a0, 8(sp)
0x80000078: 00 c1 25 83 lw	a1, 0xc(sp)
0x8000007c: 00 09 06 13 mv	a2, s2
0x80000080: 00 09 86 93 mv	a3, s3
0x80000084: 1b 10 10 ef jal	0x19b0
0x80001a34: 00 00 07 13 mv	a4, zero
0x80001a38: cd 9f f0 6f j	-0x328
0x80001710: fe 01 01 13 addi	sp, sp, -0x20
0x80001714: 01 21 28 23 sw	s2, 0x10(sp)
0x80001718: 01 41 24 23 sw	s4, 8(sp)
0x8000171c: 01 51 22 23 sw	s5, 4(sp)
0x80001720: 01 61 20 23 sw	s6, 0(sp)
0x80001724: 00 11 2e 23 sw	ra, 0x1c(sp)
0x80001728: 00 81 2c 23 sw	s0, 0x18(sp)
0x8000172c: 00 91 2a 23 sw	s1, 0x14(sp)
0x80001730: 01 31 26 23 sw	s3, 0xc(sp)
0x80001734: 00 06 8a 93 mv	s5, a3
0x80001738: 00 05 09 13 mv	s2, a0
0x8000173c: 00 06 0b 13 mv	s6, a2
0x80001740: 00 07 0a 13 mv	s4, a4
0x80001744: 04 05 94 63 bnez	a1, 0x48
0x80001748: 18 06 98 63 bnez	a3, 0x190
0x8000174c: 00 07 08 63 beqz	a4, 0x10
0x8000175c: 03 69 55 33 divu	a0, s2, s6
0x80001760: 00 00 05 93 mv	a1, zero
0x80001764: 01 c1 20 83 lw	ra, 0x1c(sp)
0x80001768: 01 81 24 03 lw	s0, 0x18(sp)
0x8000176c: 01 41 24 83 lw	s1, 0x14(sp)
0x80001770: 01 01 29 03 lw	s2, 0x10(sp)
0x80001774: 00 c1 29 83 lw	s3, 0xc(sp)
0x80001778: 00 81 2a 03 lw	s4, 8(sp)
0x8000177c: 00 41 2a 83 lw	s5, 4(sp)
0x80001780: 00 01 2b 03 lw	s6, 0(sp)
0x80001784: 02 01 01 13 addi	sp, sp, 0x20
0x80001788: 00 00 80 67 ret
0x80000088: fe 85 e0 e3 bltu	a1, s0, -0x20
0x8000008c: 00 b4 14 63 bne	s0, a1, 8
0x80000090: fc 95 6c e3 bltu	a0, s1, -0x28
0x80000068: 00 81 05 93 addi	a1, sp, 8
0x8000006c: 00 60 05 13 addi	a0, zero, 6
0x80000070: 0e 00 10 ef jal	0x10e0
0x80001150: 00 25 15 13 slli	a0, a0, 2
0x80001154: 00 01 07 97 auipc	a5, 0x10
0x80001158: ae 87 87 93 addi	a5, a5, -0x518
0x8000115c: 00 a7 87 b3 add	a5, a5, a0
0x80001160: 00 07 a7 83 lw	a5, 0(a5)
0x80001164: 00 05 85 13 mv	a0, a1
0x80001168: 00 07 80 67 jr	a5
0x8000118c: a0 00 07 b7 lui	a5, 0xa0000
0x80001190: 04 c7 a7 03 lw	a4, 0x4c(a5)
0x80001194: 04 87 a7 83 lw	a5, 0x48(a5)
0x80001198: 00 e5 22 23 sw	a4, 4(a0)
0x8000119c: 00 f5 20 23 sw	a5, 0(a0)
0x800011a0: 00 00 80 67 ret
0x80000074: 00 81 25 03 lw	a0, 8(sp)
0x80000078: 00 c1 25 83 lw	a1, 0xc(sp)
0x8000007c: 00 09 06 13 mv	a2, s2
0x80000080: 00 09 86 93 mv	a3, s3
0x80000084: 1b 10 10 ef jal	0x19b0
0x80001a34: 00 00 07 13 mv	a4, zero
0x80001a38: cd 9f f0 6f j	-0x328
0x80001710: fe 01 01 13 addi	sp, sp, -0x20
0x80001714: 01 21 28 23 sw	s2, 0x10(sp)
0x80001718: 01 41 24 23 sw	s4, 8(sp)
0x8000171c: 01 51 22 23 sw	s5, 4(sp)
0x80001720: 01 61 20 23 sw	s6, 0(sp)
0x80001724: 00 11 2e 23 sw	ra, 0x1c(sp)
0x80001728: 00 81 2c 23 sw	s0, 0x18(sp)
0x8000172c: 00 91 2a 23 sw	s1, 0x14(sp)
0x80001730: 01 31 26 23 sw	s3, 0xc(sp)
0x80001734: 00 06 8a 93 mv	s5, a3
0x80001738: 00 05 09 13 mv	s2, a0
0x8000173c: 00 06 0b 13 mv	s6, a2
0x80001740: 00 07 0a 13 mv	s4, a4
0x80001744: 04 05 94 63 bnez	a1, 0x48
0x80001748: 18 06 98 63 bnez	a3, 0x190
0x8000174c: 00 07 08 63 beqz	a4, 0x10
0x8000175c: 03 69 55 33 divu	a0, s2, s6
0x80001760: 00 00 05 93 mv	a1, zero
0x80001764: 01 c1 20 83 lw	ra, 0x1c(sp)
0x80001768: 01 81 24 03 lw	s0, 0x18(sp)
0x8000176c: 01 41 24 83 lw	s1, 0x14(sp)
0x80001770: 01 01 29 03 lw	s2, 0x10(sp)
0x80001774: 00 c1 29 83 lw	s3, 0xc(sp)
0x80001778: 00 81 2a 03 lw	s4, 8(sp)
0x8000177c: 00 41 2a 83 lw	s5, 4(sp)
0x80001780: 00 01 2b 03 lw	s6, 0(sp)
0x80001784: 02 01 01 13 addi	sp, sp, 0x20
0x80001788: 00 00 80 67 ret
0x80000088: fe 85 e0 e3 bltu	a1, s0, -0x20
0x8000008c: 00 b4 14 63 bne	s0, a1, 8
0x80000090: fc 95 6c e3 bltu	a0, s1, -0x28
0x80000068: 00 81 05 93 addi	a1, sp, 8
0x8000006c: 00 60 05 13 addi	a0, zero, 6
0x80000070: 0e 00 10 ef jal	0x10e0
0x80001150: 00 25 15 13 slli	a0, a0, 2
0x80001154: 00 01 07 97 auipc	a5, 0x10
0x80001158: ae 87 87 93 addi	a5, a5, -0x518
0x8000115c: 00 a7 87 b3 add	a5, a5, a0
0x80001160: 00 07 a7 83 lw	a5, 0(a5)
0x80001164: 00 05 85 13 mv	a0, a1
0x80001168: 00 07 80 67 jr	a5
0x8000118c: a0 00 07 b7 lui	a5, 0xa0000
0x80001190: 04 c7 a7 03 lw	a4, 0x4c(a5)
0x80001194: 04 87 a7 83 lw	a5, 0x48(a5)
0x80001198: 00 e5 22 23 sw	a4, 4(a0)
0x8000119c: 00 f5 20 23 sw	a5, 0(a0)
0x800011a0: 00 00 80 67 ret
0x80000074: 00 81 25 03 lw	a0, 8(sp)
0x80000078: 00 c1 25 83 lw	a1, 0xc(sp)
0x8000007c: 00 09 06 13 mv	a2, s2
0x80000080: 00 09 86 93 mv	a3, s3
0x80000084: 1b 10 10 ef jal	0x19b0
0x80001a34: 00 00 07 13 mv	a4, zero
0x80001a38: cd 9f f0 6f j	-0x328
0x80001710: fe 01 01 13 addi	sp, sp, -0x20
0x80001714: 01 21 28 23 sw	s2, 0x10(sp)
0x80001718: 01 41 24 23 sw	s4, 8(sp)
0x8000171c: 01 51 22 23 sw	s5, 4(sp)
0x80001720: 01 61 20 23 sw	s6, 0(sp)
0x80001724: 00 11 2e 23 sw	ra, 0x1c(sp)
0x80001728: 00 81 2c 23 sw	s0, 0x18(sp)
0x8000172c: 00 91 2a 23 sw	s1, 0x14(sp)
0x80001730: 01 31 26 23 sw	s3, 0xc(sp)
0x80001734: 00 06 8a 93 mv	s5, a3
0x80001738: 00 05 09 13 mv	s2, a0
0x8000173c: 00 06 0b 13 mv	s6, a2
0x80001740: 00 07 0a 13 mv	s4, a4
0x80001744: 04 05 94 63 bnez	a1, 0x48
0x80001748: 18 06 98 63 bnez	a3, 0x190
0x8000174c: 00 07 08 63 beqz	a4, 0x10
0x8000175c: 03 69 55 33 divu	a0, s2, s6
0x80001760: 00 00 05 93 mv	a1, zero
0x80001764: 01 c1 20 83 lw	ra, 0x1c(sp)
0x80001768: 01 81 24 03 lw	s0, 0x18(sp)
0x8000176c: 01 41 24 83 lw	s1, 0x14(sp)
0x80001770: 01 01 29 03 lw	s2, 0x10(sp)
0x80001774: 00 c1 29 83 lw	s3, 0xc(sp)
0x80001778: 00 81 2a 03 lw	s4, 8(sp)
0x8000177c: 00 41 2a 83 lw	s5, 4(sp)
0x80001780: 00 01 2b 03 lw	s6, 0(sp)
0x80001784: 02 01 01 13 addi	sp, sp, 0x20
0x80001788: 00 00 80 67 ret
0x80000088: fe 85 e0 e3 bltu	a1, s0, -0x20
0x8000008c: 00 b4 14 63 bne	s0, a1, 8
0x80000090: fc 95 6c e3 bltu	a0, s1, -0x28
0x80000068: 00 81 05 93 addi	a1, sp, 8
0x8000006c: 00 60 05 13 addi	a0, zero, 6
0x80000070: 0e 00 10 ef jal	0x10e0
0x80001150: 00 25 15 13 slli	a0, a0, 2
0x80001154: 00 01 07 97 auipc	a5, 0x10
0x80001158: ae 87 87 93 addi	a5, a5, -0x518
0x8000115c: 00 a7 87 b3 add	a5, a5, a0
0x80001160: 00 07 a7 83 lw	a5, 0(a5)
0x80001164: 00 05 85 13 mv	a0, a1
0x80001168: 00 07 80 67 jr	a5
0x8000118c: a0 00 07 b7 lui	a5, 0xa0000
0x80001190: 04 c7 a7 03 lw	a4, 0x4c(a5)
0x80001194: 04 87 a7 83 lw	a5, 0x48(a5)
0x80001198: 00 e5 22 23 sw	a4, 4(a0)
0x8000119c: 00 f5 20 23 sw	a5, 0(a0)
0x800011a0: 00 00 80 67 ret
0x80000074: 00 81 25 03 lw	a0, 8(sp)
0x80000078: 00 c1 25 83 lw	a1, 0xc(sp)
0x8000007c: 00 09 06 13 mv	a2, s2
0x80000080: 00 09 86 93 mv	a3, s3
0x80000084: 1b 10 10 ef jal	0x19b0
0x80001a34: 00 00 07 13 mv	a4, zero
0x80001a38: cd 9f f0 6f j	-0x328
0x80001710: fe 01 01 13 addi	sp, sp, -0x20
0x80001714: 01 21 28 23 sw	s2, 0x10(sp)
0x80001718: 01 41 24 23 sw	s4, 8(sp)
0x8000171c: 01 51 22 23 sw	s5, 4(sp)
0x80001720: 01 61 20 23 sw	s6, 0(sp)
0x80001724: 00 11 2e 23 sw	ra, 0x1c(sp)
0x80001728: 00 81 2c 23 sw	s0, 0x18(sp)
0x8000172c: 00 91 2a 23 sw	s1, 0x14(sp)
0x80001730: 01 31 26 23 sw	s3, 0xc(sp)
0x80001734: 00 06 8a 93 mv	s5, a3
0x80001738: 00 05 09 13 mv	s2, a0
0x8000173c: 00 06 0b 13 mv	s6, a2
0x80001740: 00 07 0a 13 mv	s4, a4
0x80001744: 04 05 94 63 bnez	a1, 0x48
0x80001748: 18 06 98 63 bnez	a3, 0x190
0x8000174c: 00 07 08 63 beqz	a4, 0x10
0x8000175c: 03 69 55 33 divu	a0, s2, s6
0x80001760: 00 00 05 93 mv	a1, zero
0x80001764: 01 c1 20 83 lw	ra, 0x1c(sp)
0x80001768: 01 81 24 03 lw	s0, 0x18(sp)
0x8000176c: 01 41 24 83 lw	s1, 0x14(sp)
0x80001770: 01 01 29 03 lw	s2, 0x10(sp)
0x80001774: 00 c1 29 83 lw	s3, 0xc(sp)
0x80001778: 00 81 2a 03 lw	s4, 8(sp)
0x8000177c: 00 41 2a 83 lw	s5, 4(sp)
0x80001780: 00 01 2b 03 lw	s6, 0(sp)
0x80001784: 02 01 01 13 addi	sp, sp, 0x20
0x80001788: 00 00 80 67 ret
0x80000088: fe 85 e0 e3 bltu	a1, s0, -0x20
0x8000008c: 00 b4 14 63 bne	s0, a1, 8
0x80000090: fc 95 6c e3 bltu	a0, s1, -0x28
0x80000068: 00 81 05 93 addi	a1, sp, 8
0x8000006c: 00 60 05 13 addi	a0, zero, 6
0x80000070: 0e 00 10 ef jal	0x10e0
0x80001150: 00 25 15 13 slli	a0, a0, 2
0x80001154: 00 01 07 97 auipc	a5, 0x10
0x80001158: ae 87 87 93 addi	a5, a5, -0x518
0x8000115c: 00 a7 87 b3 add	a5, a5, a0
0x80001160: 00 07 a7 83 lw	a5, 0(a5)
0x80001164: 00 05 85 13 mv	a0, a1
0x80001168: 00 07 80 67 jr	a5
0x8000118c: a0 00 07 b7 lui	a5, 0xa0000
0x80001190: 04 c7 a7 03 lw	a4, 0x4c(a5)
0x80001194: 04 87 a7 83 lw	a5, 0x48(a5)
0x80001198: 00 e5 22 23 sw	a4, 4(a0)
0x8000119c: 00 f5 20 23 sw	a5, 0(a0)
0x800011a0: 00 00 80 67 ret
0x80000074: 00 81 25 03 lw	a0, 8(sp)
0x80000078: 00 c1 25 83 lw	a1, 0xc(sp)
0x8000007c: 00 09 06 13 mv	a2, s2
0x80000080: 00 09 86 93 mv	a3, s3
0x80000084: 1b 10 10 ef jal	0x19b0
0x80001a34: 00 00 07 13 mv	a4, zero
0x80001a38: cd 9f f0 6f j	-0x328
0x80001710: fe 01 01 13 addi	sp, sp, -0x20
0x80001714: 01 21 28 23 sw	s2, 0x10(sp)
0x80001718: 01 41 24 23 sw	s4, 8(sp)
0x8000171c: 01 51 22 23 sw	s5, 4(sp)
0x80001720: 01 61 20 23 sw	s6, 0(sp)
0x80001724: 00 11 2e 23 sw	ra, 0x1c(sp)
0x80001728: 00 81 2c 23 sw	s0, 0x18(sp)
0x8000172c: 00 91 2a 23 sw	s1, 0x14(sp)
0x80001730: 01 31 26 23 sw	s3, 0xc(sp)
0x80001734: 00 06 8a 93 mv	s5, a3
0x80001738: 00 05 09 13 mv	s2, a0
0x8000173c: 00 06 0b 13 mv	s6, a2
0x80001740: 00 07 0a 13 mv	s4, a4
0x80001744: 04 05 94 63 bnez	a1, 0x48
0x80001748: 18 06 98 63 bnez	a3, 0x190
0x8000174c: 00 07 08 63 beqz	a4, 0x10
0x8000175c: 03 69 55 33 divu	a0, s2, s6
0x80001760: 00 00 05 93 mv	a1, zero
0x80001764: 01 c1 20 83 lw	ra, 0x1c(sp)
0x80001768: 01 81 24 03 lw	s0, 0x18(sp)
0x8000176c: 01 41 24 83 lw	s1, 0x14(sp)
0x80001770: 01 01 29 03 lw	s2, 0x10(sp)
0x80001774: 00 c1 29 83 lw	s3, 0xc(sp)
0x80001778: 00 81 2a 03 lw	s4, 8(sp)
0x8000177c: 00 41 2a 83 lw	s5, 4(sp)
0x80001780: 00 01 2b 03 lw	s6, 0(sp)
0x80001784: 02 01 01 13 addi	sp, sp, 0x20
0x80001788: 00 00 80 67 ret
0x80000088: fe 85 e0 e3 bltu	a1, s0, -0x20
0x8000008c: 00 b4 14 63 bne	s0, a1, 8
0x80000090: fc 95 6c e3 bltu	a0, s1, -0x28
0x80000068: 00 81 05 93 addi	a1, sp, 8
0x8000006c: 00 60 05 13 addi	a0, zero, 6
0x80000070: 0e 00 10 ef jal	0x10e0
0x80001150: 00 25 15 13 slli	a0, a0, 2
0x80001154: 00 01 07 97 auipc	a5, 0x10
0x80001158: ae 87 87 93 addi	a5, a5, -0x518
0x8000115c: 00 a7 87 b3 add	a5, a5, a0
0x80001160: 00 07 a7 83 lw	a5, 0(a5)
0x80001164: 00 05 85 13 mv	a0, a1
0x80001168: 00 07 80 67 jr	a5
0x8000118c: a0 00 07 b7 lui	a5, 0xa0000
0x80001190: 04 c7 a7 03 lw	a4, 0x4c(a5)
0x80001194: 04 87 a7 83 lw	a5, 0x48(a5)
0x80001198: 00 e5 22 23 sw	a4, 4(a0)
0x8000119c: 00 f5 20 23 sw	a5, 0(a0)
0x800011a0: 00 00 80 67 ret
0x80000074: 00 81 25 03 lw	a0, 8(sp)
0x80000078: 00 c1 25 83 lw	a1, 0xc(sp)
0x8000007c: 00 09 06 13 mv	a2, s2
0x80000080: 00 09 86 93 mv	a3, s3
0x80000084: 1b 10 10 ef jal	0x19b0
0x80001a34: 00 00 07 13 mv	a4, zero
0x80001a38: cd 9f f0 6f j	-0x328
0x80001710: fe 01 01 13 addi	sp, sp, -0x20
0x80001714: 01 21 28 23 sw	s2, 0x10(sp)
0x80001718: 01 41 24 23 sw	s4, 8(sp)
0x8000171c: 01 51 22 23 sw	s5, 4(sp)
0x80001720: 01 61 20 23 sw	s6, 0(sp)
0x80001724: 00 11 2e 23 sw	ra, 0x1c(sp)
0x80001728: 00 81 2c 23 sw	s0, 0x18(sp)
0x8000172c: 00 91 2a 23 sw	s1, 0x14(sp)
0x80001730: 01 31 26 23 sw	s3, 0xc(sp)
0x80001734: 00 06 8a 93 mv	s5, a3
0x80001738: 00 05 09 13 mv	s2, a0
0x8000173c: 00 06 0b 13 mv	s6, a2
0x80001740: 00 07 0a 13 mv	s4, a4
0x80001744: 04 05 94 63 bnez	a1, 0x48
0x80001748: 18 06 98 63 bnez	a3, 0x190
0x8000174c: 00 07 08 63 beqz	a4, 0x10
0x8000175c: 03 69 55 33 divu	a0, s2, s6
0x80001760: 00 00 05 93 mv	a1, zero
0x80001764: 01 c1 20 83 lw	ra, 0x1c(sp)
0x80001768: 01 81 24 03 lw	s0, 0x18(sp)
0x8000176c: 01 41 24 83 lw	s1, 0x14(sp)
0x80001770: 01 01 29 03 lw	s2, 0x10(sp)
0x80001774: 00 c1 29 83 lw	s3, 0xc(sp)
0x80001778: 00 81 2a 03 lw	s4, 8(sp)
0x8000177c: 00 41 2a 83 lw	s5, 4(sp)
0x80001780: 00 01 2b 03 lw	s6, 0(sp)
0x80001784: 02 01 01 13 addi	sp, sp, 0x20
0x80001788: 00 00 80 67 ret
0x80000088: fe 85 e0 e3 bltu	a1, s0, -0x20
0x8000008c: 00 b4 14 63 bne	s0, a1, 8
0x80000090: fc 95 6c e3 bltu	a0, s1, -0x28
0x80000068: 00 81 05 93 addi	a1, sp, 8
0x8000006c: 00 60 05 13 addi	a0, zero, 6
0x80000070: 0e 00 10 ef jal	0x10e0
0x80001150: 00 25 15 13 slli	a0, a0, 2
0x80001154: 00 01 07 97 auipc	a5, 0x10
0x80001158: ae 87 87 93 addi	a5, a5, -0x518
0x8000115c: 00 a7 87 b3 add	a5, a5, a0
0x80001160: 00 07 a7 83 lw	a5, 0(a5)
0x80001164: 00 05 85 13 mv	a0, a1
0x80001168: 00 07 80 67 jr	a5
0x8000118c: a0 00 07 b7 lui	a5, 0xa0000
0x80001190: 04 c7 a7 03 lw	a4, 0x4c(a5)
0x80001194: 04 87 a7 83 lw	a5, 0x48(a5)
0x80001198: 00 e5 22 23 sw	a4, 4(a0)
0x8000119c: 00 f5 20 23 sw	a5, 0(a0)
0x800011a0: 00 00 80 67 ret
0x80000074: 00 81 25 03 lw	a0, 8(sp)
0x80000078: 00 c1 25 83 lw	a1, 0xc(sp)
0x8000007c: 00 09 06 13 mv	a2, s2
0x80000080: 00 09 86 93 mv	a3, s3
0x80000084: 1b 10 10 ef jal	0x19b0
0x80001a34: 00 00 07 13 mv	a4, zero
0x80001a38: cd 9f f0 6f j	-0x328
0x80001710: fe 01 01 13 addi	sp, sp, -0x20
0x80001714: 01 21 28 23 sw	s2, 0x10(sp)
0x80001718: 01 41 24 23 sw	s4, 8(sp)
0x8000171c: 01 51 22 23 sw	s5, 4(sp)
0x80001720: 01 61 20 23 sw	s6, 0(sp)
0x80001724: 00 11 2e 23 sw	ra, 0x1c(sp)
0x80001728: 00 81 2c 23 sw	s0, 0x18(sp)
0x8000172c: 00 91 2a 23 sw	s1, 0x14(sp)
0x80001730: 01 31 26 23 sw	s3, 0xc(sp)
0x80001734: 00 06 8a 93 mv	s5, a3
0x80001738: 00 05 09 13 mv	s2, a0
0x8000173c: 00 06 0b 13 mv	s6, a2
0x80001740: 00 07 0a 13 mv	s4, a4
0x80001744: 04 05 94 63 bnez	a1, 0x48
0x80001748: 18 06 98 63 bnez	a3, 0x190
0x8000174c: 00 07 08 63 beqz	a4, 0x10
0x8000175c: 03 69 55 33 divu	a0, s2, s6
0x80001760: 00 00 05 93 mv	a1, zero
0x80001764: 01 c1 20 83 lw	ra, 0x1c(sp)
0x80001768: 01 81 24 03 lw	s0, 0x18(sp)
0x8000176c: 01 41 24 83 lw	s1, 0x14(sp)
0x80001770: 01 01 29 03 lw	s2, 0x10(sp)
0x80001774: 00 c1 29 83 lw	s3, 0xc(sp)
0x80001778: 00 81 2a 03 lw	s4, 8(sp)
0x8000177c: 00 41 2a 83 lw	s5, 4(sp)
0x80001780: 00 01 2b 03 lw	s6, 0(sp)
0x80001784: 02 01 01 13 addi	sp, sp, 0x20
0x80001788: 00 00 80 67 ret
0x80000088: fe 85 e0 e3 bltu	a1, s0, -0x20
0x8000008c: 00 b4 14 63 bne	s0, a1, 8
0x80000090: fc 95 6c e3 bltu	a0, s1, -0x28
0x80000068: 00 81 05 93 addi	a1, sp, 8
0x8000006c: 00 60 05 13 addi	a0, zero, 6
0x80000070: 0e 00 10 ef jal	0x10e0
0x80001150: 00 25 15 13 slli	a0, a0, 2
0x80001154: 00 01 07 97 auipc	a5, 0x10
0x80001158: ae 87 87 93 addi	a5, a5, -0x518
0x8000115c: 00 a7 87 b3 add	a5, a5, a0
0x80001160: 00 07 a7 83 lw	a5, 0(a5)
0x80001164: 00 05 85 13 mv	a0, a1
0x80001168: 00 07 80 67 jr	a5
0x8000118c: a0 00 07 b7 lui	a5, 0xa0000
0x80001190: 04 c7 a7 03 lw	a4, 0x4c(a5)
0x80001194: 04 87 a7 83 lw	a5, 0x48(a5)
0x80001198: 00 e5 22 23 sw	a4, 4(a0)
0x8000119c: 00 f5 20 23 sw	a5, 0(a0)
0x800011a0: 00 00 80 67 ret
0x80000074: 00 81 25 03 lw	a0, 8(sp)
0x80000078: 00 c1 25 83 lw	a1, 0xc(sp)
0x8000007c: 00 09 06 13 mv	a2, s2
0x80000080: 00 09 86 93 mv	a3, s3
0x80000084: 1b 10 10 ef jal	0x19b0
0x80001a34: 00 00 07 13 mv	a4, zero
0x80001a38: cd 9f f0 6f j	-0x328
0x80001710: fe 01 01 13 addi	sp, sp, -0x20
0x80001714: 01 21 28 23 sw	s2, 0x10(sp)
0x80001718: 01 41 24 23 sw	s4, 8(sp)
0x8000171c: 01 51 22 23 sw	s5, 4(sp)
0x80001720: 01 61 20 23 sw	s6, 0(sp)
0x80001724: 00 11 2e 23 sw	ra, 0x1c(sp)
0x80001728: 00 81 2c 23 sw	s0, 0x18(sp)
0x8000172c: 00 91 2a 23 sw	s1, 0x14(sp)
0x80001730: 01 31 26 23 sw	s3, 0xc(sp)
0x80001734: 00 06 8a 93 mv	s5, a3
0x80001738: 00 05 09 13 mv	s2, a0
0x8000173c: 00 06 0b 13 mv	s6, a2
0x80001740: 00 07 0a 13 mv	s4, a4
0x80001744: 04 05 94 63 bnez	a1, 0x48
0x80001748: 18 06 98 63 bnez	a3, 0x190
0x8000174c: 00 07 08 63 beqz	a4, 0x10
0x8000175c: 03 69 55 33 divu	a0, s2, s6
0x80001760: 00 00 05 93 mv	a1, zero
0x80001764: 01 c1 20 83 lw	ra, 0x1c(sp)
0x80001768: 01 81 24 03 lw	s0, 0x18(sp)
0x8000176c: 01 41 24 83 lw	s1, 0x14(sp)
0x80001770: 01 01 29 03 lw	s2, 0x10(sp)
0x80001774: 00 c1 29 83 lw	s3, 0xc(sp)
0x80001778: 00 81 2a 03 lw	s4, 8(sp)
0x8000177c: 00 41 2a 83 lw	s5, 4(sp)
0x80001780: 00 01 2b 03 lw	s6, 0(sp)
0x80001784: 02 01 01 13 addi	sp, sp, 0x20
0x80001788: 00 00 80 67 ret
0x80000088: fe 85 e0 e3 bltu	a1, s0, -0x20
0x8000008c: 00 b4 14 63 bne	s0, a1, 8
0x80000090: fc 95 6c e3 bltu	a0, s1, -0x28
0x80000068: 00 81 05 93 addi	a1, sp, 8
0x8000006c: 00 60 05 13 addi	a0, zero, 6
0x80000070: 0e 00 10 ef jal	0x10e0
0x80001150: 00 25 15 13 slli	a0, a0, 2
0x80001154: 00 01 07 97 auipc	a5, 0x10
0x80001158: ae 87 87 93 addi	a5, a5, -0x518
0x8000115c: 00 a7 87 b3 add	a5, a5, a0
0x80001160: 00 07 a7 83 lw	a5, 0(a5)
0x80001164: 00 05 85 13 mv	a0, a1
0x80001168: 00 07 80 67 jr	a5
0x8000118c: a0 00 07 b7 lui	a5, 0xa0000
0x80001190: 04 c7 a7 03 lw	a4, 0x4c(a5)
0x80001194: 04 87 a7 83 lw	a5, 0x48(a5)
0x80001198: 00 e5 22 23 sw	a4, 4(a0)
0x8000119c: 00 f5 20 23 sw	a5, 0(a0)
0x800011a0: 00 00 80 67 ret
0x80000074: 00 81 25 03 lw	a0, 8(sp)
0x80000078: 00 c1 25 83 lw	a1, 0xc(sp)
0x8000007c: 00 09 06 13 mv	a2, s2
0x80000080: 00 09 86 93 mv	a3, s3
0x80000084: 1b 10 10 ef jal	0x19b0
0x80001a34: 00 00 07 13 mv	a4, zero
0x80001a38: cd 9f f0 6f j	-0x328
0x80001710: fe 01 01 13 addi	sp, sp, -0x20
0x80001714: 01 21 28 23 sw	s2, 0x10(sp)
0x80001718: 01 41 24 23 sw	s4, 8(sp)
0x8000171c: 01 51 22 23 sw	s5, 4(sp)
0x80001720: 01 61 20 23 sw	s6, 0(sp)
0x80001724: 00 11 2e 23 sw	ra, 0x1c(sp)
0x80001728: 00 81 2c 23 sw	s0, 0x18(sp)
0x8000172c: 00 91 2a 23 sw	s1, 0x14(sp)
0x80001730: 01 31 26 23 sw	s3, 0xc(sp)
0x80001734: 00 06 8a 93 mv	s5, a3
0x80001738: 00 05 09 13 mv	s2, a0
0x8000173c: 00 06 0b 13 mv	s6, a2
0x80001740: 00 07 0a 13 mv	s4, a4
0x80001744: 04 05 94 63 bnez	a1, 0x48
0x80001748: 18 06 98 63 bnez	a3, 0x190
0x8000174c: 00 07 08 63 beqz	a4, 0x10
0x8000175c: 03 69 55 33 divu	a0, s2, s6
0x80001760: 00 00 05 93 mv	a1, zero
0x80001764: 01 c1 20 83 lw	ra, 0x1c(sp)
0x80001768: 01 81 24 03 lw	s0, 0x18(sp)
0x8000176c: 01 41 24 83 lw	s1, 0x14(sp)
0x80001770: 01 01 29 03 lw	s2, 0x10(sp)
0x80001774: 00 c1 29 83 lw	s3, 0xc(sp)
0x80001778: 00 81 2a 03 lw	s4, 8(sp)
0x8000177c: 00 41 2a 83 lw	s5, 4(sp)
0x80001780: 00 01 2b 03 lw	s6, 0(sp)
0x80001784: 02 01 01 13 addi	sp, sp, 0x20
0x80001788: 00 00 80 67 ret
0x80000088: fe 85 e0 e3 bltu	a1, s0, -0x20
0x8000008c: 00 b4 14 63 bne	s0, a1, 8
0x80000090: fc 95 6c e3 bltu	a0, s1, -0x28
0x80000068: 00 81 05 93 addi	a1, sp, 8
0x8000006c: 00 60 05 13 addi	a0, zero, 6
0x80000070: 0e 00 10 ef jal	0x10e0
0x80001150: 00 25 15 13 slli	a0, a0, 2
0x80001154: 00 01 07 97 auipc	a5, 0x10
0x80001158: ae 87 87 93 addi	a5, a5, -0x518
0x8000115c: 00 a7 87 b3 add	a5, a5, a0
0x80001160: 00 07 a7 83 lw	a5, 0(a5)
0x80001164: 00 05 85 13 mv	a0, a1
0x80001168: 00 07 80 67 jr	a5
0x8000118c: a0 00 07 b7 lui	a5, 0xa0000
0x80001190: 04 c7 a7 03 lw	a4, 0x4c(a5)
0x80001194: 04 87 a7 83 lw	a5, 0x48(a5)
0x80001198: 00 e5 22 23 sw	a4, 4(a0)
0x8000119c: 00 f5 20 23 sw	a5, 0(a0)
0x800011a0: 00 00 80 67 ret
0x80000074: 00 81 25 03 lw	a0, 8(sp)
0x80000078: 00 c1 25 83 lw	a1, 0xc(sp)
0x8000007c: 00 09 06 13 mv	a2, s2
0x80000080: 00 09 86 93 mv	a3, s3
0x80000084: 1b 10 10 ef jal	0x19b0
0x80001a34: 00 00 07 13 mv	a4, zero
0x80001a38: cd 9f f0 6f j	-0x328
0x80001710: fe 01 01 13 addi	sp, sp, -0x20
0x80001714: 01 21 28 23 sw	s2, 0x10(sp)
0x80001718: 01 41 24 23 sw	s4, 8(sp)
0x8000171c: 01 51 22 23 sw	s5, 4(sp)
0x80001720: 01 61 20 23 sw	s6, 0(sp)
0x80001724: 00 11 2e 23 sw	ra, 0x1c(sp)
0x80001728: 00 81 2c 23 sw	s0, 0x18(sp)
0x8000172c: 00 91 2a 23 sw	s1, 0x14(sp)
0x80001730: 01 31 26 23 sw	s3, 0xc(sp)
0x80001734: 00 06 8a 93 mv	s5, a3
0x80001738: 00 05 09 13 mv	s2, a0
0x8000173c: 00 06 0b 13 mv	s6, a2
0x80001740: 00 07 0a 13 mv	s4, a4
0x80001744: 04 05 94 63 bnez	a1, 0x48
0x80001748: 18 06 98 63 bnez	a3, 0x190
0x8000174c: 00 07 08 63 beqz	a4, 0x10
0x8000175c: 03 69 55 33 divu	a0, s2, s6
0x80001760: 00 00 05 93 mv	a1, zero
0x80001764: 01 c1 20 83 lw	ra, 0x1c(sp)
0x80001768: 01 81 24 03 lw	s0, 0x18(sp)
0x8000176c: 01 41 24 83 lw	s1, 0x14(sp)
0x80001770: 01 01 29 03 lw	s2, 0x10(sp)
0x80001774: 00 c1 29 83 lw	s3, 0xc(sp)
0x80001778: 00 81 2a 03 lw	s4, 8(sp)
0x8000177c: 00 41 2a 83 lw	s5, 4(sp)
0x80001780: 00 01 2b 03 lw	s6, 0(sp)
0x80001784: 02 01 01 13 addi	sp, sp, 0x20
0x80001788: 00 00 80 67 ret
0x80000088: fe 85 e0 e3 bltu	a1, s0, -0x20
0x8000008c: 00 b4 14 63 bne	s0, a1, 8
0x80000090: fc 95 6c e3 bltu	a0, s1, -0x28
0x80000068: 00 81 05 93 addi	a1, sp, 8
0x8000006c: 00 60 05 13 addi	a0, zero, 6
0x80000070: 0e 00 10 ef jal	0x10e0
0x80001150: 00 25 15 13 slli	a0, a0, 2
0x80001154: 00 01 07 97 auipc	a5, 0x10
0x80001158: ae 87 87 93 addi	a5, a5, -0x518
0x8000115c: 00 a7 87 b3 add	a5, a5, a0
0x80001160: 00 07 a7 83 lw	a5, 0(a5)
0x80001164: 00 05 85 13 mv	a0, a1
0x80001168: 00 07 80 67 jr	a5
0x8000118c: a0 00 07 b7 lui	a5, 0xa0000
0x80001190: 04 c7 a7 03 lw	a4, 0x4c(a5)
0x80001194: 04 87 a7 83 lw	a5, 0x48(a5)
0x80001198: 00 e5 22 23 sw	a4, 4(a0)
0x8000119c: 00 f5 20 23 sw	a5, 0(a0)
0x800011a0: 00 00 80 67 ret
0x80000074: 00 81 25 03 lw	a0, 8(sp)
0x80000078: 00 c1 25 83 lw	a1, 0xc(sp)
0x8000007c: 00 09 06 13 mv	a2, s2
0x80000080: 00 09 86 93 mv	a3, s3
0x80000084: 1b 10 10 ef jal	0x19b0
0x80001a34: 00 00 07 13 mv	a4, zero
0x80001a38: cd 9f f0 6f j	-0x328
0x80001710: fe 01 01 13 addi	sp, sp, -0x20
0x80001714: 01 21 28 23 sw	s2, 0x10(sp)
0x80001718: 01 41 24 23 sw	s4, 8(sp)
0x8000171c: 01 51 22 23 sw	s5, 4(sp)
0x80001720: 01 61 20 23 sw	s6, 0(sp)
0x80001724: 00 11 2e 23 sw	ra, 0x1c(sp)
0x80001728: 00 81 2c 23 sw	s0, 0x18(sp)
0x8000172c: 00 91 2a 23 sw	s1, 0x14(sp)
0x80001730: 01 31 26 23 sw	s3, 0xc(sp)
0x80001734: 00 06 8a 93 mv	s5, a3
0x80001738: 00 05 09 13 mv	s2, a0
0x8000173c: 00 06 0b 13 mv	s6, a2
0x80001740: 00 07 0a 13 mv	s4, a4
0x80001744: 04 05 94 63 bnez	a1, 0x48
0x80001748: 18 06 98 63 bnez	a3, 0x190
0x8000174c: 00 07 08 63 beqz	a4, 0x10
0x8000175c: 03 69 55 33 divu	a0, s2, s6
0x80001760: 00 00 05 93 mv	a1, zero
0x80001764: 01 c1 20 83 lw	ra, 0x1c(sp)
0x80001768: 01 81 24 03 lw	s0, 0x18(sp)
0x8000176c: 01 41 24 83 lw	s1, 0x14(sp)
0x80001770: 01 01 29 03 lw	s2, 0x10(sp)
0x80001774: 00 c1 29 83 lw	s3, 0xc(sp)
0x80001778: 00 81 2a 03 lw	s4, 8(sp)
0x8000177c: 00 41 2a 83 lw	s5, 4(sp)
0x80001780: 00 01 2b 03 lw	s6, 0(sp)
0x80001784: 02 01 01 13 addi	sp, sp, 0x20
0x80001788: 00 00 80 67 ret
0x80000088: fe 85 e0 e3 bltu	a1, s0, -0x20
0x8000008c: 00 b4 14 63 bne	s0, a1, 8
0x80000090: fc 95 6c e3 bltu	a0, s1, -0x28
0x80000068: 00 81 05 93 addi	a1, sp, 8
0x8000006c: 00 60 05 13 addi	a0, zero, 6
0x80000070: 0e 00 10 ef jal	0x10e0
0x80001150: 00 25 15 13 slli	a0, a0, 2
0x80001154: 00 01 07 97 auipc	a5, 0x10
0x80001158: ae 87 87 93 addi	a5, a5, -0x518
0x8000115c: 00 a7 87 b3 add	a5, a5, a0
0x80001160: 00 07 a7 83 lw	a5, 0(a5)
0x80001164: 00 05 85 13 mv	a0, a1
0x80001168: 00 07 80 67 jr	a5
0x8000118c: a0 00 07 b7 lui	a5, 0xa0000
0x80001190: 04 c7 a7 03 lw	a4, 0x4c(a5)
0x80001194: 04 87 a7 83 lw	a5, 0x48(a5)
0x80001198: 00 e5 22 23 sw	a4, 4(a0)
0x8000119c: 00 f5 20 23 sw	a5, 0(a0)
0x800011a0: 00 00 80 67 ret
0x80000074: 00 81 25 03 lw	a0, 8(sp)
0x80000078: 00 c1 25 83 lw	a1, 0xc(sp)
0x8000007c: 00 09 06 13 mv	a2, s2
0x80000080: 00 09 86 93 mv	a3, s3
0x80000084: 1b 10 10 ef jal	0x19b0
0x80001a34: 00 00 07 13 mv	a4, zero
0x80001a38: cd 9f f0 6f j	-0x328
0x80001710: fe 01 01 13 addi	sp, sp, -0x20
0x80001714: 01 21 28 23 sw	s2, 0x10(sp)
0x80001718: 01 41 24 23 sw	s4, 8(sp)
0x8000171c: 01 51 22 23 sw	s5, 4(sp)
0x80001720: 01 61 20 23 sw	s6, 0(sp)
0x80001724: 00 11 2e 23 sw	ra, 0x1c(sp)
0x80001728: 00 81 2c 23 sw	s0, 0x18(sp)
0x8000172c: 00 91 2a 23 sw	s1, 0x14(sp)
0x80001730: 01 31 26 23 sw	s3, 0xc(sp)
0x80001734: 00 06 8a 93 mv	s5, a3
0x80001738: 00 05 09 13 mv	s2, a0
0x8000173c: 00 06 0b 13 mv	s6, a2
0x80001740: 00 07 0a 13 mv	s4, a4
0x80001744: 04 05 94 63 bnez	a1, 0x48
0x80001748: 18 06 98 63 bnez	a3, 0x190
0x8000174c: 00 07 08 63 beqz	a4, 0x10
0x8000175c: 03 69 55 33 divu	a0, s2, s6
0x80001760: 00 00 05 93 mv	a1, zero
0x80001764: 01 c1 20 83 lw	ra, 0x1c(sp)
0x80001768: 01 81 24 03 lw	s0, 0x18(sp)
0x8000176c: 01 41 24 83 lw	s1, 0x14(sp)
0x80001770: 01 01 29 03 lw	s2, 0x10(sp)
0x80001774: 00 c1 29 83 lw	s3, 0xc(sp)
0x80001778: 00 81 2a 03 lw	s4, 8(sp)
0x8000177c: 00 41 2a 83 lw	s5, 4(sp)
0x80001780: 00 01 2b 03 lw	s6, 0(sp)
0x80001784: 02 01 01 13 addi	sp, sp, 0x20
0x80001788: 00 00 80 67 ret
0x80000088: fe 85 e0 e3 bltu	a1, s0, -0x20
0x8000008c: 00 b4 14 63 bne	s0, a1, 8
0x80000090: fc 95 6c e3 bltu	a0, s1, -0x28
0x80000068: 00 81 05 93 addi	a1, sp, 8
0x8000006c: 00 60 05 13 addi	a0, zero, 6
0x80000070: 0e 00 10 ef jal	0x10e0
0x80001150: 00 25 15 13 slli	a0, a0, 2
0x80001154: 00 01 07 97 auipc	a5, 0x10
0x80001158: ae 87 87 93 addi	a5, a5, -0x518
0x8000115c: 00 a7 87 b3 add	a5, a5, a0
0x80001160: 00 07 a7 83 lw	a5, 0(a5)
0x80001164: 00 05 85 13 mv	a0, a1
0x80001168: 00 07 80 67 jr	a5
0x8000118c: a0 00 07 b7 lui	a5, 0xa0000
0x80001190: 04 c7 a7 03 lw	a4, 0x4c(a5)
0x80001194: 04 87 a7 83 lw	a5, 0x48(a5)
0x80001198: 00 e5 22 23 sw	a4, 4(a0)
0x8000119c: 00 f5 20 23 sw	a5, 0(a0)
0x800011a0: 00 00 80 67 ret
0x80000074: 00 81 25 03 lw	a0, 8(sp)
0x80000078: 00 c1 25 83 lw	a1, 0xc(sp)
0x8000007c: 00 09 06 13 mv	a2, s2
0x80000080: 00 09 86 93 mv	a3, s3
0x80000084: 1b 10 10 ef jal	0x19b0
0x80001a34: 00 00 07 13 mv	a4, zero
0x80001a38: cd 9f f0 6f j	-0x328
0x80001710: fe 01 01 13 addi	sp, sp, -0x20
0x80001714: 01 21 28 23 sw	s2, 0x10(sp)
0x80001718: 01 41 24 23 sw	s4, 8(sp)
0x8000171c: 01 51 22 23 sw	s5, 4(sp)
0x80001720: 01 61 20 23 sw	s6, 0(sp)
0x80001724: 00 11 2e 23 sw	ra, 0x1c(sp)
0x80001728: 00 81 2c 23 sw	s0, 0x18(sp)
0x8000172c: 00 91 2a 23 sw	s1, 0x14(sp)
0x80001730: 01 31 26 23 sw	s3, 0xc(sp)
0x80001734: 00 06 8a 93 mv	s5, a3
0x80001738: 00 05 09 13 mv	s2, a0
0x8000173c: 00 06 0b 13 mv	s6, a2
0x80001740: 00 07 0a 13 mv	s4, a4
0x80001744: 04 05 94 63 bnez	a1, 0x48
0x80001748: 18 06 98 63 bnez	a3, 0x190
0x8000174c: 00 07 08 63 beqz	a4, 0x10
0x8000175c: 03 69 55 33 divu	a0, s2, s6
0x80001760: 00 00 05 93 mv	a1, zero
0x80001764: 01 c1 20 83 lw	ra, 0x1c(sp)
0x80001768: 01 81 24 03 lw	s0, 0x18(sp)
0x8000176c: 01 41 24 83 lw	s1, 0x14(sp)
0x80001770: 01 01 29 03 lw	s2, 0x10(sp)
0x80001774: 00 c1 29 83 lw	s3, 0xc(sp)
0x80001778: 00 81 2a 03 lw	s4, 8(sp)
0x8000177c: 00 41 2a 83 lw	s5, 4(sp)
0x80001780: 00 01 2b 03 lw	s6, 0(sp)
0x80001784: 02 01 01 13 addi	sp, sp, 0x20
0x80001788: 00 00 80 67 ret
0x80000088: fe 85 e0 e3 bltu	a1, s0, -0x20
0x8000008c: 00 b4 14 63 bne	s0, a1, 8
0x80000090: fc 95 6c e3 bltu	a0, s1, -0x28
0x80000068: 00 81 05 93 addi	a1, sp, 8
0x8000006c: 00 60 05 13 addi	a0, zero, 6
0x80000070: 0e 00 10 ef jal	0x10e0
0x80001150: 00 25 15 13 slli	a0, a0, 2
0x80001154: 00 01 07 97 auipc	a5, 0x10
0x80001158: ae 87 87 93 addi	a5, a5, -0x518
0x8000115c: 00 a7 87 b3 add	a5, a5, a0
0x80001160: 00 07 a7 83 lw	a5, 0(a5)
0x80001164: 00 05 85 13 mv	a0, a1
0x80001168: 00 07 80 67 jr	a5
0x8000118c: a0 00 07 b7 lui	a5, 0xa0000
0x80001190: 04 c7 a7 03 lw	a4, 0x4c(a5)
0x80001194: 04 87 a7 83 lw	a5, 0x48(a5)
0x80001198: 00 e5 22 23 sw	a4, 4(a0)
0x8000119c: 00 f5 20 23 sw	a5, 0(a0)
0x800011a0: 00 00 80 67 ret
0x80000074: 00 81 25 03 lw	a0, 8(sp)
0x80000078: 00 c1 25 83 lw	a1, 0xc(sp)
0x8000007c: 00 09 06 13 mv	a2, s2
0x80000080: 00 09 86 93 mv	a3, s3
0x80000084: 1b 10 10 ef jal	0x19b0
0x80001a34: 00 00 07 13 mv	a4, zero
0x80001a38: cd 9f f0 6f j	-0x328
0x80001710: fe 01 01 13 addi	sp, sp, -0x20
0x80001714: 01 21 28 23 sw	s2, 0x10(sp)
0x80001718: 01 41 24 23 sw	s4, 8(sp)
0x8000171c: 01 51 22 23 sw	s5, 4(sp)
0x80001720: 01 61 20 23 sw	s6, 0(sp)
0x80001724: 00 11 2e 23 sw	ra, 0x1c(sp)
0x80001728: 00 81 2c 23 sw	s0, 0x18(sp)
0x8000172c: 00 91 2a 23 sw	s1, 0x14(sp)
0x80001730: 01 31 26 23 sw	s3, 0xc(sp)
0x80001734: 00 06 8a 93 mv	s5, a3
0x80001738: 00 05 09 13 mv	s2, a0
0x8000173c: 00 06 0b 13 mv	s6, a2
0x80001740: 00 07 0a 13 mv	s4, a4
0x80001744: 04 05 94 63 bnez	a1, 0x48
0x80001748: 18 06 98 63 bnez	a3, 0x190
0x8000174c: 00 07 08 63 beqz	a4, 0x10
0x8000175c: 03 69 55 33 divu	a0, s2, s6
0x80001760: 00 00 05 93 mv	a1, zero
0x80001764: 01 c1 20 83 lw	ra, 0x1c(sp)
0x80001768: 01 81 24 03 lw	s0, 0x18(sp)
0x8000176c: 01 41 24 83 lw	s1, 0x14(sp)
0x80001770: 01 01 29 03 lw	s2, 0x10(sp)
0x80001774: 00 c1 29 83 lw	s3, 0xc(sp)
0x80001778: 00 81 2a 03 lw	s4, 8(sp)
0x8000177c: 00 41 2a 83 lw	s5, 4(sp)
0x80001780: 00 01 2b 03 lw	s6, 0(sp)
0x80001784: 02 01 01 13 addi	sp, sp, 0x20
0x80001788: 00 00 80 67 ret
0x80000088: fe 85 e0 e3 bltu	a1, s0, -0x20
0x8000008c: 00 b4 14 63 bne	s0, a1, 8
0x80000090: fc 95 6c e3 bltu	a0, s1, -0x28
0x80000068: 00 81 05 93 addi	a1, sp, 8
0x8000006c: 00 60 05 13 addi	a0, zero, 6
0x80000070: 0e 00 10 ef jal	0x10e0
0x80001150: 00 25 15 13 slli	a0, a0, 2
0x80001154: 00 01 07 97 auipc	a5, 0x10
0x80001158: ae 87 87 93 addi	a5, a5, -0x518
0x8000115c: 00 a7 87 b3 add	a5, a5, a0
0x80001160: 00 07 a7 83 lw	a5, 0(a5)
0x80001164: 00 05 85 13 mv	a0, a1
0x80001168: 00 07 80 67 jr	a5
0x8000118c: a0 00 07 b7 lui	a5, 0xa0000
0x80001190: 04 c7 a7 03 lw	a4, 0x4c(a5)
0x80001194: 04 87 a7 83 lw	a5, 0x48(a5)
0x80001198: 00 e5 22 23 sw	a4, 4(a0)
0x8000119c: 00 f5 20 23 sw	a5, 0(a0)
0x800011a0: 00 00 80 67 ret
0x80000074: 00 81 25 03 lw	a0, 8(sp)
0x80000078: 00 c1 25 83 lw	a1, 0xc(sp)
0x8000007c: 00 09 06 13 mv	a2, s2
0x80000080: 00 09 86 93 mv	a3, s3
0x80000084: 1b 10 10 ef jal	0x19b0
0x80001a34: 00 00 07 13 mv	a4, zero
0x80001a38: cd 9f f0 6f j	-0x328
0x80001710: fe 01 01 13 addi	sp, sp, -0x20
0x80001714: 01 21 28 23 sw	s2, 0x10(sp)
0x80001718: 01 41 24 23 sw	s4, 8(sp)
0x8000171c: 01 51 22 23 sw	s5, 4(sp)
0x80001720: 01 61 20 23 sw	s6, 0(sp)
0x80001724: 00 11 2e 23 sw	ra, 0x1c(sp)
0x80001728: 00 81 2c 23 sw	s0, 0x18(sp)
0x8000172c: 00 91 2a 23 sw	s1, 0x14(sp)
0x80001730: 01 31 26 23 sw	s3, 0xc(sp)
0x80001734: 00 06 8a 93 mv	s5, a3
0x80001738: 00 05 09 13 mv	s2, a0
0x8000173c: 00 06 0b 13 mv	s6, a2
0x80001740: 00 07 0a 13 mv	s4, a4
0x80001744: 04 05 94 63 bnez	a1, 0x48
0x80001748: 18 06 98 63 bnez	a3, 0x190
0x8000174c: 00 07 08 63 beqz	a4, 0x10
0x8000175c: 03 69 55 33 divu	a0, s2, s6
0x80001760: 00 00 05 93 mv	a1, zero
0x80001764: 01 c1 20 83 lw	ra, 0x1c(sp)
0x80001768: 01 81 24 03 lw	s0, 0x18(sp)
0x8000176c: 01 41 24 83 lw	s1, 0x14(sp)
0x80001770: 01 01 29 03 lw	s2, 0x10(sp)
0x80001774: 00 c1 29 83 lw	s3, 0xc(sp)
0x80001778: 00 81 2a 03 lw	s4, 8(sp)
0x8000177c: 00 41 2a 83 lw	s5, 4(sp)
0x80001780: 00 01 2b 03 lw	s6, 0(sp)
0x80001784: 02 01 01 13 addi	sp, sp, 0x20
0x80001788: 00 00 80 67 ret
0x80000088: fe 85 e0 e3 bltu	a1, s0, -0x20
0x8000008c: 00 b4 14 63 bne	s0, a1, 8
0x80000090: fc 95 6c e3 bltu	a0, s1, -0x28
0x80000068: 00 81 05 93 addi	a1, sp, 8
0x8000006c: 00 60 05 13 addi	a0, zero, 6
0x80000070: 0e 00 10 ef jal	0x10e0
0x80001150: 00 25 15 13 slli	a0, a0, 2
0x80001154: 00 01 07 97 auipc	a5, 0x10
0x80001158: ae 87 87 93 addi	a5, a5, -0x518
0x8000115c: 00 a7 87 b3 add	a5, a5, a0
0x80001160: 00 07 a7 83 lw	a5, 0(a5)
0x80001164: 00 05 85 13 mv	a0, a1
0x80001168: 00 07 80 67 jr	a5
0x8000118c: a0 00 07 b7 lui	a5, 0xa0000
0x80001190: 04 c7 a7 03 lw	a4, 0x4c(a5)
0x80001194: 04 87 a7 83 lw	a5, 0x48(a5)
0x80001198: 00 e5 22 23 sw	a4, 4(a0)
0x8000119c: 00 f5 20 23 sw	a5, 0(a0)
0x800011a0: 00 00 80 67 ret
0x80000074: 00 81 25 03 lw	a0, 8(sp)
0x80000078: 00 c1 25 83 lw	a1, 0xc(sp)
0x8000007c: 00 09 06 13 mv	a2, s2
0x80000080: 00 09 86 93 mv	a3, s3
0x80000084: 1b 10 10 ef jal	0x19b0
0x80001a34: 00 00 07 13 mv	a4, zero
0x80001a38: cd 9f f0 6f j	-0x328
0x80001710: fe 01 01 13 addi	sp, sp, -0x20
0x80001714: 01 21 28 23 sw	s2, 0x10(sp)
0x80001718: 01 41 24 23 sw	s4, 8(sp)
0x8000171c: 01 51 22 23 sw	s5, 4(sp)
0x80001720: 01 61 20 23 sw	s6, 0(sp)
0x80001724: 00 11 2e 23 sw	ra, 0x1c(sp)
0x80001728: 00 81 2c 23 sw	s0, 0x18(sp)
0x8000172c: 00 91 2a 23 sw	s1, 0x14(sp)
0x80001730: 01 31 26 23 sw	s3, 0xc(sp)
0x80001734: 00 06 8a 93 mv	s5, a3
0x80001738: 00 05 09 13 mv	s2, a0
0x8000173c: 00 06 0b 13 mv	s6, a2
0x80001740: 00 07 0a 13 mv	s4, a4
0x80001744: 04 05 94 63 bnez	a1, 0x48
0x80001748: 18 06 98 63 bnez	a3, 0x190
0x8000174c: 00 07 08 63 beqz	a4, 0x10
0x8000175c: 03 69 55 33 divu	a0, s2, s6
0x80001760: 00 00 05 93 mv	a1, zero
0x80001764: 01 c1 20 83 lw	ra, 0x1c(sp)
0x80001768: 01 81 24 03 lw	s0, 0x18(sp)
0x8000176c: 01 41 24 83 lw	s1, 0x14(sp)
0x80001770: 01 01 29 03 lw	s2, 0x10(sp)
0x80001774: 00 c1 29 83 lw	s3, 0xc(sp)
0x80001778: 00 81 2a 03 lw	s4, 8(sp)
0x8000177c: 00 41 2a 83 lw	s5, 4(sp)
0x80001780: 00 01 2b 03 lw	s6, 0(sp)
0x80001784: 02 01 01 13 addi	sp, sp, 0x20
0x80001788: 00 00 80 67 ret
0x80000088: fe 85 e0 e3 bltu	a1, s0, -0x20
0x8000008c: 00 b4 14 63 bne	s0, a1, 8
0x80000090: fc 95 6c e3 bltu	a0, s1, -0x28
0x80000068: 00 81 05 93 addi	a1, sp, 8
0x8000006c: 00 60 05 13 addi	a0, zero, 6
0x80000070: 0e 00 10 ef jal	0x10e0
0x80001150: 00 25 15 13 slli	a0, a0, 2
0x80001154: 00 01 07 97 auipc	a5, 0x10
0x80001158: ae 87 87 93 addi	a5, a5, -0x518
0x8000115c: 00 a7 87 b3 add	a5, a5, a0
0x80001160: 00 07 a7 83 lw	a5, 0(a5)
0x80001164: 00 05 85 13 mv	a0, a1
0x80001168: 00 07 80 67 jr	a5
0x8000118c: a0 00 07 b7 lui	a5, 0xa0000
0x80001190: 04 c7 a7 03 lw	a4, 0x4c(a5)
0x80001194: 04 87 a7 83 lw	a5, 0x48(a5)
0x80001198: 00 e5 22 23 sw	a4, 4(a0)
0x8000119c: 00 f5 20 23 sw	a5, 0(a0)
0x800011a0: 00 00 80 67 ret
0x80000074: 00 81 25 03 lw	a0, 8(sp)
0x80000078: 00 c1 25 83 lw	a1, 0xc(sp)
0x8000007c: 00 09 06 13 mv	a2, s2
0x80000080: 00 09 86 93 mv	a3, s3
0x80000084: 1b 10 10 ef jal	0x19b0
0x80001a34: 00 00 07 13 mv	a4, zero
0x80001a38: cd 9f f0 6f j	-0x328
0x80001710: fe 01 01 13 addi	sp, sp, -0x20
0x80001714: 01 21 28 23 sw	s2, 0x10(sp)
0x80001718: 01 41 24 23 sw	s4, 8(sp)
0x8000171c: 01 51 22 23 sw	s5, 4(sp)
0x80001720: 01 61 20 23 sw	s6, 0(sp)
0x80001724: 00 11 2e 23 sw	ra, 0x1c(sp)
0x80001728: 00 81 2c 23 sw	s0, 0x18(sp)
0x8000172c: 00 91 2a 23 sw	s1, 0x14(sp)
0x80001730: 01 31 26 23 sw	s3, 0xc(sp)
0x80001734: 00 06 8a 93 mv	s5, a3
0x80001738: 00 05 09 13 mv	s2, a0
0x8000173c: 00 06 0b 13 mv	s6, a2
0x80001740: 00 07 0a 13 mv	s4, a4
0x80001744: 04 05 94 63 bnez	a1, 0x48
0x80001748: 18 06 98 63 bnez	a3, 0x190
0x8000174c: 00 07 08 63 beqz	a4, 0x10
0x8000175c: 03 69 55 33 divu	a0, s2, s6
0x80001760: 00 00 05 93 mv	a1, zero
0x80001764: 01 c1 20 83 lw	ra, 0x1c(sp)
0x80001768: 01 81 24 03 lw	s0, 0x18(sp)
0x8000176c: 01 41 24 83 lw	s1, 0x14(sp)
0x80001770: 01 01 29 03 lw	s2, 0x10(sp)
0x80001774: 00 c1 29 83 lw	s3, 0xc(sp)
0x80001778: 00 81 2a 03 lw	s4, 8(sp)
0x8000177c: 00 41 2a 83 lw	s5, 4(sp)
0x80001780: 00 01 2b 03 lw	s6, 0(sp)
0x80001784: 02 01 01 13 addi	sp, sp, 0x20
0x80001788: 00 00 80 67 ret
0x80000088: fe 85 e0 e3 bltu	a1, s0, -0x20
0x8000008c: 00 b4 14 63 bne	s0, a1, 8
0x80000090: fc 95 6c e3 bltu	a0, s1, -0x28
0x80000068: 00 81 05 93 addi	a1, sp, 8
0x8000006c: 00 60 05 13 addi	a0, zero, 6
0x80000070: 0e 00 10 ef jal	0x10e0
0x80001150: 00 25 15 13 slli	a0, a0, 2
0x80001154: 00 01 07 97 auipc	a5, 0x10
0x80001158: ae 87 87 93 addi	a5, a5, -0x518
0x8000115c: 00 a7 87 b3 add	a5, a5, a0
0x80001160: 00 07 a7 83 lw	a5, 0(a5)
0x80001164: 00 05 85 13 mv	a0, a1
0x80001168: 00 07 80 67 jr	a5
0x8000118c: a0 00 07 b7 lui	a5, 0xa0000
0x80001190: 04 c7 a7 03 lw	a4, 0x4c(a5)
0x80001194: 04 87 a7 83 lw	a5, 0x48(a5)
0x80001198: 00 e5 22 23 sw	a4, 4(a0)
0x8000119c: 00 f5 20 23 sw	a5, 0(a0)
0x800011a0: 00 00 80 67 ret
0x80000074: 00 81 25 03 lw	a0, 8(sp)
0x80000078: 00 c1 25 83 lw	a1, 0xc(sp)
0x8000007c: 00 09 06 13 mv	a2, s2
0x80000080: 00 09 86 93 mv	a3, s3
0x80000084: 1b 10 10 ef jal	0x19b0
0x80001a34: 00 00 07 13 mv	a4, zero
0x80001a38: cd 9f f0 6f j	-0x328
0x80001710: fe 01 01 13 addi	sp, sp, -0x20
0x80001714: 01 21 28 23 sw	s2, 0x10(sp)
0x80001718: 01 41 24 23 sw	s4, 8(sp)
0x8000171c: 01 51 22 23 sw	s5, 4(sp)
0x80001720: 01 61 20 23 sw	s6, 0(sp)
0x80001724: 00 11 2e 23 sw	ra, 0x1c(sp)
0x80001728: 00 81 2c 23 sw	s0, 0x18(sp)
0x8000172c: 00 91 2a 23 sw	s1, 0x14(sp)
0x80001730: 01 31 26 23 sw	s3, 0xc(sp)
0x80001734: 00 06 8a 93 mv	s5, a3
0x80001738: 00 05 09 13 mv	s2, a0
0x8000173c: 00 06 0b 13 mv	s6, a2
0x80001740: 00 07 0a 13 mv	s4, a4
0x80001744: 04 05 94 63 bnez	a1, 0x48
0x80001748: 18 06 98 63 bnez	a3, 0x190
0x8000174c: 00 07 08 63 beqz	a4, 0x10
0x8000175c: 03 69 55 33 divu	a0, s2, s6
0x80001760: 00 00 05 93 mv	a1, zero
0x80001764: 01 c1 20 83 lw	ra, 0x1c(sp)
0x80001768: 01 81 24 03 lw	s0, 0x18(sp)
0x8000176c: 01 41 24 83 lw	s1, 0x14(sp)
0x80001770: 01 01 29 03 lw	s2, 0x10(sp)
0x80001774: 00 c1 29 83 lw	s3, 0xc(sp)
0x80001778: 00 81 2a 03 lw	s4, 8(sp)
0x8000177c: 00 41 2a 83 lw	s5, 4(sp)
0x80001780: 00 01 2b 03 lw	s6, 0(sp)
0x80001784: 02 01 01 13 addi	sp, sp, 0x20
0x80001788: 00 00 80 67 ret
0x80000088: fe 85 e0 e3 bltu	a1, s0, -0x20
0x8000008c: 00 b4 14 63 bne	s0, a1, 8
0x80000090: fc 95 6c e3 bltu	a0, s1, -0x28
0x80000068: 00 81 05 93 addi	a1, sp, 8
0x8000006c: 00 60 05 13 addi	a0, zero, 6
0x80000070: 0e 00 10 ef jal	0x10e0
0x80001150: 00 25 15 13 slli	a0, a0, 2
0x80001154: 00 01 07 97 auipc	a5, 0x10
0x80001158: ae 87 87 93 addi	a5, a5, -0x518
0x8000115c: 00 a7 87 b3 add	a5, a5, a0
0x80001160: 00 07 a7 83 lw	a5, 0(a5)
0x80001164: 00 05 85 13 mv	a0, a1
0x80001168: 00 07 80 67 jr	a5
0x8000118c: a0 00 07 b7 lui	a5, 0xa0000
0x80001190: 04 c7 a7 03 lw	a4, 0x4c(a5)
0x80001194: 04 87 a7 83 lw	a5, 0x48(a5)
0x80001198: 00 e5 22 23 sw	a4, 4(a0)
0x8000119c: 00 f5 20 23 sw	a5, 0(a0)
0x800011a0: 00 00 80 67 ret
0x80000074: 00 81 25 03 lw	a0, 8(sp)
0x80000078: 00 c1 25 83 lw	a1, 0xc(sp)
0x8000007c: 00 09 06 13 mv	a2, s2
0x80000080: 00 09 86 93 mv	a3, s3
0x80000084: 1b 10 10 ef jal	0x19b0
0x80001a34: 00 00 07 13 mv	a4, zero
0x80001a38: cd 9f f0 6f j	-0x328
0x80001710: fe 01 01 13 addi	sp, sp, -0x20
0x80001714: 01 21 28 23 sw	s2, 0x10(sp)
0x80001718: 01 41 24 23 sw	s4, 8(sp)
0x8000171c: 01 51 22 23 sw	s5, 4(sp)
0x80001720: 01 61 20 23 sw	s6, 0(sp)
0x80001724: 00 11 2e 23 sw	ra, 0x1c(sp)
0x80001728: 00 81 2c 23 sw	s0, 0x18(sp)
0x8000172c: 00 91 2a 23 sw	s1, 0x14(sp)
0x80001730: 01 31 26 23 sw	s3, 0xc(sp)
0x80001734: 00 06 8a 93 mv	s5, a3
0x80001738: 00 05 09 13 mv	s2, a0
0x8000173c: 00 06 0b 13 mv	s6, a2
0x80001740: 00 07 0a 13 mv	s4, a4
0x80001744: 04 05 94 63 bnez	a1, 0x48
0x80001748: 18 06 98 63 bnez	a3, 0x190
0x8000174c: 00 07 08 63 beqz	a4, 0x10
0x8000175c: 03 69 55 33 divu	a0, s2, s6
0x80001760: 00 00 05 93 mv	a1, zero
0x80001764: 01 c1 20 83 lw	ra, 0x1c(sp)
0x80001768: 01 81 24 03 lw	s0, 0x18(sp)
0x8000176c: 01 41 24 83 lw	s1, 0x14(sp)
0x80001770: 01 01 29 03 lw	s2, 0x10(sp)
0x80001774: 00 c1 29 83 lw	s3, 0xc(sp)
0x80001778: 00 81 2a 03 lw	s4, 8(sp)
0x8000177c: 00 41 2a 83 lw	s5, 4(sp)
0x80001780: 00 01 2b 03 lw	s6, 0(sp)
0x80001784: 02 01 01 13 addi	sp, sp, 0x20
0x80001788: 00 00 80 67 ret
0x80000088: fe 85 e0 e3 bltu	a1, s0, -0x20
0x8000008c: 00 b4 14 63 bne	s0, a1, 8
0x80000090: fc 95 6c e3 bltu	a0, s1, -0x28
0x80000068: 00 81 05 93 addi	a1, sp, 8
0x8000006c: 00 60 05 13 addi	a0, zero, 6
0x80000070: 0e 00 10 ef jal	0x10e0
0x80001150: 00 25 15 13 slli	a0, a0, 2
0x80001154: 00 01 07 97 auipc	a5, 0x10
0x80001158: ae 87 87 93 addi	a5, a5, -0x518
0x8000115c: 00 a7 87 b3 add	a5, a5, a0
0x80001160: 00 07 a7 83 lw	a5, 0(a5)
0x80001164: 00 05 85 13 mv	a0, a1
0x80001168: 00 07 80 67 jr	a5
0x8000118c: a0 00 07 b7 lui	a5, 0xa0000
0x80001190: 04 c7 a7 03 lw	a4, 0x4c(a5)
0x80001194: 04 87 a7 83 lw	a5, 0x48(a5)
0x80001198: 00 e5 22 23 sw	a4, 4(a0)
0x8000119c: 00 f5 20 23 sw	a5, 0(a0)
0x800011a0: 00 00 80 67 ret
0x80000074: 00 81 25 03 lw	a0, 8(sp)
0x80000078: 00 c1 25 83 lw	a1, 0xc(sp)
0x8000007c: 00 09 06 13 mv	a2, s2
0x80000080: 00 09 86 93 mv	a3, s3
0x80000084: 1b 10 10 ef jal	0x19b0
0x80001a34: 00 00 07 13 mv	a4, zero
0x80001a38: cd 9f f0 6f j	-0x328
0x80001710: fe 01 01 13 addi	sp, sp, -0x20
0x80001714: 01 21 28 23 sw	s2, 0x10(sp)
0x80001718: 01 41 24 23 sw	s4, 8(sp)
0x8000171c: 01 51 22 23 sw	s5, 4(sp)
0x80001720: 01 61 20 23 sw	s6, 0(sp)
0x80001724: 00 11 2e 23 sw	ra, 0x1c(sp)
0x80001728: 00 81 2c 23 sw	s0, 0x18(sp)
0x8000172c: 00 91 2a 23 sw	s1, 0x14(sp)
0x80001730: 01 31 26 23 sw	s3, 0xc(sp)
0x80001734: 00 06 8a 93 mv	s5, a3
0x80001738: 00 05 09 13 mv	s2, a0
0x8000173c: 00 06 0b 13 mv	s6, a2
0x80001740: 00 07 0a 13 mv	s4, a4
0x80001744: 04 05 94 63 bnez	a1, 0x48
0x80001748: 18 06 98 63 bnez	a3, 0x190
0x8000174c: 00 07 08 63 beqz	a4, 0x10
0x8000175c: 03 69 55 33 divu	a0, s2, s6
0x80001760: 00 00 05 93 mv	a1, zero
0x80001764: 01 c1 20 83 lw	ra, 0x1c(sp)
0x80001768: 01 81 24 03 lw	s0, 0x18(sp)
0x8000176c: 01 41 24 83 lw	s1, 0x14(sp)
0x80001770: 01 01 29 03 lw	s2, 0x10(sp)
0x80001774: 00 c1 29 83 lw	s3, 0xc(sp)
0x80001778: 00 81 2a 03 lw	s4, 8(sp)
0x8000177c: 00 41 2a 83 lw	s5, 4(sp)
0x80001780: 00 01 2b 03 lw	s6, 0(sp)
0x80001784: 02 01 01 13 addi	sp, sp, 0x20
0x80001788: 00 00 80 67 ret
0x80000088: fe 85 e0 e3 bltu	a1, s0, -0x20
0x8000008c: 00 b4 14 63 bne	s0, a1, 8
0x80000090: fc 95 6c e3 bltu	a0, s1, -0x28
0x80000068: 00 81 05 93 addi	a1, sp, 8
0x8000006c: 00 60 05 13 addi	a0, zero, 6
0x80000070: 0e 00 10 ef jal	0x10e0
0x80001150: 00 25 15 13 slli	a0, a0, 2
0x80001154: 00 01 07 97 auipc	a5, 0x10
0x80001158: ae 87 87 93 addi	a5, a5, -0x518
0x8000115c: 00 a7 87 b3 add	a5, a5, a0
0x80001160: 00 07 a7 83 lw	a5, 0(a5)
0x80001164: 00 05 85 13 mv	a0, a1
0x80001168: 00 07 80 67 jr	a5
0x8000118c: a0 00 07 b7 lui	a5, 0xa0000
0x80001190: 04 c7 a7 03 lw	a4, 0x4c(a5)
0x80001194: 04 87 a7 83 lw	a5, 0x48(a5)
0x80001198: 00 e5 22 23 sw	a4, 4(a0)
0x8000119c: 00 f5 20 23 sw	a5, 0(a0)
0x800011a0: 00 00 80 67 ret
0x80000074: 00 81 25 03 lw	a0, 8(sp)
0x80000078: 00 c1 25 83 lw	a1, 0xc(sp)
0x8000007c: 00 09 06 13 mv	a2, s2
0x80000080: 00 09 86 93 mv	a3, s3
0x80000084: 1b 10 10 ef jal	0x19b0
0x80001a34: 00 00 07 13 mv	a4, zero
0x80001a38: cd 9f f0 6f j	-0x328
0x80001710: fe 01 01 13 addi	sp, sp, -0x20
0x80001714: 01 21 28 23 sw	s2, 0x10(sp)
0x80001718: 01 41 24 23 sw	s4, 8(sp)
0x8000171c: 01 51 22 23 sw	s5, 4(sp)
0x80001720: 01 61 20 23 sw	s6, 0(sp)
0x80001724: 00 11 2e 23 sw	ra, 0x1c(sp)
0x80001728: 00 81 2c 23 sw	s0, 0x18(sp)
0x8000172c: 00 91 2a 23 sw	s1, 0x14(sp)
0x80001730: 01 31 26 23 sw	s3, 0xc(sp)
0x80001734: 00 06 8a 93 mv	s5, a3
0x80001738: 00 05 09 13 mv	s2, a0
0x8000173c: 00 06 0b 13 mv	s6, a2
0x80001740: 00 07 0a 13 mv	s4, a4
0x80001744: 04 05 94 63 bnez	a1, 0x48
0x80001748: 18 06 98 63 bnez	a3, 0x190
0x8000174c: 00 07 08 63 beqz	a4, 0x10
0x8000175c: 03 69 55 33 divu	a0, s2, s6
0x80001760: 00 00 05 93 mv	a1, zero
0x80001764: 01 c1 20 83 lw	ra, 0x1c(sp)
0x80001768: 01 81 24 03 lw	s0, 0x18(sp)
0x8000176c: 01 41 24 83 lw	s1, 0x14(sp)
0x80001770: 01 01 29 03 lw	s2, 0x10(sp)
0x80001774: 00 c1 29 83 lw	s3, 0xc(sp)
0x80001778: 00 81 2a 03 lw	s4, 8(sp)
0x8000177c: 00 41 2a 83 lw	s5, 4(sp)
0x80001780: 00 01 2b 03 lw	s6, 0(sp)
0x80001784: 02 01 01 13 addi	sp, sp, 0x20
0x80001788: 00 00 80 67 ret
0x80000088: fe 85 e0 e3 bltu	a1, s0, -0x20
0x8000008c: 00 b4 14 63 bne	s0, a1, 8
0x80000090: fc 95 6c e3 bltu	a0, s1, -0x28
0x80000068: 00 81 05 93 addi	a1, sp, 8
0x8000006c: 00 60 05 13 addi	a0, zero, 6
0x80000070: 0e 00 10 ef jal	0x10e0
0x80001150: 00 25 15 13 slli	a0, a0, 2
0x80001154: 00 01 07 97 auipc	a5, 0x10
0x80001158: ae 87 87 93 addi	a5, a5, -0x518
0x8000115c: 00 a7 87 b3 add	a5, a5, a0
0x80001160: 00 07 a7 83 lw	a5, 0(a5)
0x80001164: 00 05 85 13 mv	a0, a1
0x80001168: 00 07 80 67 jr	a5
0x8000118c: a0 00 07 b7 lui	a5, 0xa0000
0x80001190: 04 c7 a7 03 lw	a4, 0x4c(a5)
0x80001194: 04 87 a7 83 lw	a5, 0x48(a5)
0x80001198: 00 e5 22 23 sw	a4, 4(a0)
0x8000119c: 00 f5 20 23 sw	a5, 0(a0)
0x800011a0: 00 00 80 67 ret
0x80000074: 00 81 25 03 lw	a0, 8(sp)
0x80000078: 00 c1 25 83 lw	a1, 0xc(sp)
0x8000007c: 00 09 06 13 mv	a2, s2
0x80000080: 00 09 86 93 mv	a3, s3
0x80000084: 1b 10 10 ef jal	0x19b0
0x80001a34: 00 00 07 13 mv	a4, zero
0x80001a38: cd 9f f0 6f j	-0x328
0x80001710: fe 01 01 13 addi	sp, sp, -0x20
0x80001714: 01 21 28 23 sw	s2, 0x10(sp)
0x80001718: 01 41 24 23 sw	s4, 8(sp)
0x8000171c: 01 51 22 23 sw	s5, 4(sp)
0x80001720: 01 61 20 23 sw	s6, 0(sp)
0x80001724: 00 11 2e 23 sw	ra, 0x1c(sp)
0x80001728: 00 81 2c 23 sw	s0, 0x18(sp)
0x8000172c: 00 91 2a 23 sw	s1, 0x14(sp)
0x80001730: 01 31 26 23 sw	s3, 0xc(sp)
0x80001734: 00 06 8a 93 mv	s5, a3
0x80001738: 00 05 09 13 mv	s2, a0
0x8000173c: 00 06 0b 13 mv	s6, a2
0x80001740: 00 07 0a 13 mv	s4, a4
0x80001744: 04 05 94 63 bnez	a1, 0x48
0x80001748: 18 06 98 63 bnez	a3, 0x190
0x8000174c: 00 07 08 63 beqz	a4, 0x10
0x8000175c: 03 69 55 33 divu	a0, s2, s6
0x80001760: 00 00 05 93 mv	a1, zero
0x80001764: 01 c1 20 83 lw	ra, 0x1c(sp)
0x80001768: 01 81 24 03 lw	s0, 0x18(sp)
0x8000176c: 01 41 24 83 lw	s1, 0x14(sp)
0x80001770: 01 01 29 03 lw	s2, 0x10(sp)
0x80001774: 00 c1 29 83 lw	s3, 0xc(sp)
0x80001778: 00 81 2a 03 lw	s4, 8(sp)
0x8000177c: 00 41 2a 83 lw	s5, 4(sp)
0x80001780: 00 01 2b 03 lw	s6, 0(sp)
0x80001784: 02 01 01 13 addi	sp, sp, 0x20
0x80001788: 00 00 80 67 ret
0x80000088: fe 85 e0 e3 bltu	a1, s0, -0x20
0x8000008c: 00 b4 14 63 bne	s0, a1, 8
0x80000090: fc 95 6c e3 bltu	a0, s1, -0x28
0x80000068: 00 81 05 93 addi	a1, sp, 8
0x8000006c: 00 60 05 13 addi	a0, zero, 6
0x80000070: 0e 00 10 ef jal	0x10e0
0x80001150: 00 25 15 13 slli	a0, a0, 2
0x80001154: 00 01 07 97 auipc	a5, 0x10
0x80001158: ae 87 87 93 addi	a5, a5, -0x518
0x8000115c: 00 a7 87 b3 add	a5, a5, a0
0x80001160: 00 07 a7 83 lw	a5, 0(a5)
0x80001164: 00 05 85 13 mv	a0, a1
0x80001168: 00 07 80 67 jr	a5
0x8000118c: a0 00 07 b7 lui	a5, 0xa0000
0x80001190: 04 c7 a7 03 lw	a4, 0x4c(a5)
0x80001194: 04 87 a7 83 lw	a5, 0x48(a5)
0x80001198: 00 e5 22 23 sw	a4, 4(a0)
0x8000119c: 00 f5 20 23 sw	a5, 0(a0)
0x800011a0: 00 00 80 67 ret
0x80000074: 00 81 25 03 lw	a0, 8(sp)
0x80000078: 00 c1 25 83 lw	a1, 0xc(sp)
0x8000007c: 00 09 06 13 mv	a2, s2
0x80000080: 00 09 86 93 mv	a3, s3
0x80000084: 1b 10 10 ef jal	0x19b0
0x80001a34: 00 00 07 13 mv	a4, zero
0x80001a38: cd 9f f0 6f j	-0x328
0x80001710: fe 01 01 13 addi	sp, sp, -0x20
0x80001714: 01 21 28 23 sw	s2, 0x10(sp)
0x80001718: 01 41 24 23 sw	s4, 8(sp)
0x8000171c: 01 51 22 23 sw	s5, 4(sp)
0x80001720: 01 61 20 23 sw	s6, 0(sp)
0x80001724: 00 11 2e 23 sw	ra, 0x1c(sp)
0x80001728: 00 81 2c 23 sw	s0, 0x18(sp)
0x8000172c: 00 91 2a 23 sw	s1, 0x14(sp)
0x80001730: 01 31 26 23 sw	s3, 0xc(sp)
0x80001734: 00 06 8a 93 mv	s5, a3
0x80001738: 00 05 09 13 mv	s2, a0
0x8000173c: 00 06 0b 13 mv	s6, a2
0x80001740: 00 07 0a 13 mv	s4, a4
0x80001744: 04 05 94 63 bnez	a1, 0x48
0x80001748: 18 06 98 63 bnez	a3, 0x190
0x8000174c: 00 07 08 63 beqz	a4, 0x10
0x8000175c: 03 69 55 33 divu	a0, s2, s6
0x80001760: 00 00 05 93 mv	a1, zero
0x80001764: 01 c1 20 83 lw	ra, 0x1c(sp)
0x80001768: 01 81 24 03 lw	s0, 0x18(sp)
0x8000176c: 01 41 24 83 lw	s1, 0x14(sp)
0x80001770: 01 01 29 03 lw	s2, 0x10(sp)
0x80001774: 00 c1 29 83 lw	s3, 0xc(sp)
0x80001778: 00 81 2a 03 lw	s4, 8(sp)
0x8000177c: 00 41 2a 83 lw	s5, 4(sp)
0x80001780: 00 01 2b 03 lw	s6, 0(sp)
0x80001784: 02 01 01 13 addi	sp, sp, 0x20
0x80001788: 00 00 80 67 ret
0x80000088: fe 85 e0 e3 bltu	a1, s0, -0x20
0x8000008c: 00 b4 14 63 bne	s0, a1, 8
0x80000090: fc 95 6c e3 bltu	a0, s1, -0x28
0x80000068: 00 81 05 93 addi	a1, sp, 8
0x8000006c: 00 60 05 13 addi	a0, zero, 6
0x80000070: 0e 00 10 ef jal	0x10e0
0x80001150: 00 25 15 13 slli	a0, a0, 2
0x80001154: 00 01 07 97 auipc	a5, 0x10
0x80001158: ae 87 87 93 addi	a5, a5, -0x518
0x8000115c: 00 a7 87 b3 add	a5, a5, a0
0x80001160: 00 07 a7 83 lw	a5, 0(a5)
0x80001164: 00 05 85 13 mv	a0, a1
0x80001168: 00 07 80 67 jr	a5
0x8000118c: a0 00 07 b7 lui	a5, 0xa0000
0x80001190: 04 c7 a7 03 lw	a4, 0x4c(a5)
0x80001194: 04 87 a7 83 lw	a5, 0x48(a5)
0x80001198: 00 e5 22 23 sw	a4, 4(a0)
0x8000119c: 00 f5 20 23 sw	a5, 0(a0)
0x800011a0: 00 00 80 67 ret
0x80000074: 00 81 25 03 lw	a0, 8(sp)
0x80000078: 00 c1 25 83 lw	a1, 0xc(sp)
0x8000007c: 00 09 06 13 mv	a2, s2
0x80000080: 00 09 86 93 mv	a3, s3
0x80000084: 1b 10 10 ef jal	0x19b0
0x80001a34: 00 00 07 13 mv	a4, zero
0x80001a38: cd 9f f0 6f j	-0x328
0x80001710: fe 01 01 13 addi	sp, sp, -0x20
0x80001714: 01 21 28 23 sw	s2, 0x10(sp)
0x80001718: 01 41 24 23 sw	s4, 8(sp)
0x8000171c: 01 51 22 23 sw	s5, 4(sp)
0x80001720: 01 61 20 23 sw	s6, 0(sp)
0x80001724: 00 11 2e 23 sw	ra, 0x1c(sp)
0x80001728: 00 81 2c 23 sw	s0, 0x18(sp)
0x8000172c: 00 91 2a 23 sw	s1, 0x14(sp)
0x80001730: 01 31 26 23 sw	s3, 0xc(sp)
0x80001734: 00 06 8a 93 mv	s5, a3
0x80001738: 00 05 09 13 mv	s2, a0
0x8000173c: 00 06 0b 13 mv	s6, a2
0x80001740: 00 07 0a 13 mv	s4, a4
0x80001744: 04 05 94 63 bnez	a1, 0x48
0x80001748: 18 06 98 63 bnez	a3, 0x190
0x8000174c: 00 07 08 63 beqz	a4, 0x10
0x8000175c: 03 69 55 33 divu	a0, s2, s6
0x80001760: 00 00 05 93 mv	a1, zero
0x80001764: 01 c1 20 83 lw	ra, 0x1c(sp)
0x80001768: 01 81 24 03 lw	s0, 0x18(sp)
0x8000176c: 01 41 24 83 lw	s1, 0x14(sp)
0x80001770: 01 01 29 03 lw	s2, 0x10(sp)
0x80001774: 00 c1 29 83 lw	s3, 0xc(sp)
0x80001778: 00 81 2a 03 lw	s4, 8(sp)
0x8000177c: 00 41 2a 83 lw	s5, 4(sp)
0x80001780: 00 01 2b 03 lw	s6, 0(sp)
0x80001784: 02 01 01 13 addi	sp, sp, 0x20
0x80001788: 00 00 80 67 ret
0x80000088: fe 85 e0 e3 bltu	a1, s0, -0x20
0x8000008c: 00 b4 14 63 bne	s0, a1, 8
0x80000090: fc 95 6c e3 bltu	a0, s1, -0x28
0x80000068: 00 81 05 93 addi	a1, sp, 8
0x8000006c: 00 60 05 13 addi	a0, zero, 6
0x80000070: 0e 00 10 ef jal	0x10e0
0x80001150: 00 25 15 13 slli	a0, a0, 2
0x80001154: 00 01 07 97 auipc	a5, 0x10
0x80001158: ae 87 87 93 addi	a5, a5, -0x518
0x8000115c: 00 a7 87 b3 add	a5, a5, a0
0x80001160: 00 07 a7 83 lw	a5, 0(a5)
0x80001164: 00 05 85 13 mv	a0, a1
0x80001168: 00 07 80 67 jr	a5
0x8000118c: a0 00 07 b7 lui	a5, 0xa0000
0x80001190: 04 c7 a7 03 lw	a4, 0x4c(a5)
0x80001194: 04 87 a7 83 lw	a5, 0x48(a5)
0x80001198: 00 e5 22 23 sw	a4, 4(a0)
0x8000119c: 00 f5 20 23 sw	a5, 0(a0)
0x800011a0: 00 00 80 67 ret
0x80000074: 00 81 25 03 lw	a0, 8(sp)
0x80000078: 00 c1 25 83 lw	a1, 0xc(sp)
0x8000007c: 00 09 06 13 mv	a2, s2
0x80000080: 00 09 86 93 mv	a3, s3
0x80000084: 1b 10 10 ef jal	0x19b0
0x80001a34: 00 00 07 13 mv	a4, zero
0x80001a38: cd 9f f0 6f j	-0x328
0x80001710: fe 01 01 13 addi	sp, sp, -0x20
0x80001714: 01 21 28 23 sw	s2, 0x10(sp)
0x80001718: 01 41 24 23 sw	s4, 8(sp)
0x8000171c: 01 51 22 23 sw	s5, 4(sp)
0x80001720: 01 61 20 23 sw	s6, 0(sp)
0x80001724: 00 11 2e 23 sw	ra, 0x1c(sp)
0x80001728: 00 81 2c 23 sw	s0, 0x18(sp)
0x8000172c: 00 91 2a 23 sw	s1, 0x14(sp)
0x80001730: 01 31 26 23 sw	s3, 0xc(sp)
0x80001734: 00 06 8a 93 mv	s5, a3
0x80001738: 00 05 09 13 mv	s2, a0
0x8000173c: 00 06 0b 13 mv	s6, a2
0x80001740: 00 07 0a 13 mv	s4, a4
0x80001744: 04 05 94 63 bnez	a1, 0x48
0x80001748: 18 06 98 63 bnez	a3, 0x190
0x8000174c: 00 07 08 63 beqz	a4, 0x10
0x8000175c: 03 69 55 33 divu	a0, s2, s6
0x80001760: 00 00 05 93 mv	a1, zero
0x80001764: 01 c1 20 83 lw	ra, 0x1c(sp)
0x80001768: 01 81 24 03 lw	s0, 0x18(sp)
0x8000176c: 01 41 24 83 lw	s1, 0x14(sp)
0x80001770: 01 01 29 03 lw	s2, 0x10(sp)
0x80001774: 00 c1 29 83 lw	s3, 0xc(sp)
0x80001778: 00 81 2a 03 lw	s4, 8(sp)
0x8000177c: 00 41 2a 83 lw	s5, 4(sp)
0x80001780: 00 01 2b 03 lw	s6, 0(sp)
0x80001784: 02 01 01 13 addi	sp, sp, 0x20
0x80001788: 00 00 80 67 ret
0x80000088: fe 85 e0 e3 bltu	a1, s0, -0x20
0x8000008c: 00 b4 14 63 bne	s0, a1, 8
0x80000090: fc 95 6c e3 bltu	a0, s1, -0x28
0x80000068: 00 81 05 93 addi	a1, sp, 8
0x8000006c: 00 60 05 13 addi	a0, zero, 6
0x80000070: 0e 00 10 ef jal	0x10e0
0x80001150: 00 25 15 13 slli	a0, a0, 2
0x80001154: 00 01 07 97 auipc	a5, 0x10
0x80001158: ae 87 87 93 addi	a5, a5, -0x518
0x8000115c: 00 a7 87 b3 add	a5, a5, a0
0x80001160: 00 07 a7 83 lw	a5, 0(a5)
0x80001164: 00 05 85 13 mv	a0, a1
0x80001168: 00 07 80 67 jr	a5
0x8000118c: a0 00 07 b7 lui	a5, 0xa0000
0x80001190: 04 c7 a7 03 lw	a4, 0x4c(a5)
0x80001194: 04 87 a7 83 lw	a5, 0x48(a5)
0x80001198: 00 e5 22 23 sw	a4, 4(a0)
0x8000119c: 00 f5 20 23 sw	a5, 0(a0)
0x800011a0: 00 00 80 67 ret
0x80000074: 00 81 25 03 lw	a0, 8(sp)
0x80000078: 00 c1 25 83 lw	a1, 0xc(sp)
0x8000007c: 00 09 06 13 mv	a2, s2
0x80000080: 00 09 86 93 mv	a3, s3
0x80000084: 1b 10 10 ef jal	0x19b0
0x80001a34: 00 00 07 13 mv	a4, zero
0x80001a38: cd 9f f0 6f j	-0x328
0x80001710: fe 01 01 13 addi	sp, sp, -0x20
0x80001714: 01 21 28 23 sw	s2, 0x10(sp)
0x80001718: 01 41 24 23 sw	s4, 8(sp)
0x8000171c: 01 51 22 23 sw	s5, 4(sp)
0x80001720: 01 61 20 23 sw	s6, 0(sp)
0x80001724: 00 11 2e 23 sw	ra, 0x1c(sp)
0x80001728: 00 81 2c 23 sw	s0, 0x18(sp)
0x8000172c: 00 91 2a 23 sw	s1, 0x14(sp)
0x80001730: 01 31 26 23 sw	s3, 0xc(sp)
0x80001734: 00 06 8a 93 mv	s5, a3
0x80001738: 00 05 09 13 mv	s2, a0
0x8000173c: 00 06 0b 13 mv	s6, a2
0x80001740: 00 07 0a 13 mv	s4, a4
0x80001744: 04 05 94 63 bnez	a1, 0x48
0x80001748: 18 06 98 63 bnez	a3, 0x190
0x8000174c: 00 07 08 63 beqz	a4, 0x10
0x8000175c: 03 69 55 33 divu	a0, s2, s6
0x80001760: 00 00 05 93 mv	a1, zero
0x80001764: 01 c1 20 83 lw	ra, 0x1c(sp)
0x80001768: 01 81 24 03 lw	s0, 0x18(sp)
0x8000176c: 01 41 24 83 lw	s1, 0x14(sp)
0x80001770: 01 01 29 03 lw	s2, 0x10(sp)
0x80001774: 00 c1 29 83 lw	s3, 0xc(sp)
0x80001778: 00 81 2a 03 lw	s4, 8(sp)
0x8000177c: 00 41 2a 83 lw	s5, 4(sp)
0x80001780: 00 01 2b 03 lw	s6, 0(sp)
0x80001784: 02 01 01 13 addi	sp, sp, 0x20
0x80001788: 00 00 80 67 ret
0x80000088: fe 85 e0 e3 bltu	a1, s0, -0x20
0x8000008c: 00 b4 14 63 bne	s0, a1, 8
0x80000090: fc 95 6c e3 bltu	a0, s1, -0x28
0x80000068: 00 81 05 93 addi	a1, sp, 8
0x8000006c: 00 60 05 13 addi	a0, zero, 6
0x80000070: 0e 00 10 ef jal	0x10e0
0x80001150: 00 25 15 13 slli	a0, a0, 2
0x80001154: 00 01 07 97 auipc	a5, 0x10
0x80001158: ae 87 87 93 addi	a5, a5, -0x518
0x8000115c: 00 a7 87 b3 add	a5, a5, a0
0x80001160: 00 07 a7 83 lw	a5, 0(a5)
0x80001164: 00 05 85 13 mv	a0, a1
0x80001168: 00 07 80 67 jr	a5
0x8000118c: a0 00 07 b7 lui	a5, 0xa0000
0x80001190: 04 c7 a7 03 lw	a4, 0x4c(a5)
0x80001194: 04 87 a7 83 lw	a5, 0x48(a5)
0x80001198: 00 e5 22 23 sw	a4, 4(a0)
0x8000119c: 00 f5 20 23 sw	a5, 0(a0)
0x800011a0: 00 00 80 67 ret
0x80000074: 00 81 25 03 lw	a0, 8(sp)
0x80000078: 00 c1 25 83 lw	a1, 0xc(sp)
0x8000007c: 00 09 06 13 mv	a2, s2
0x80000080: 00 09 86 93 mv	a3, s3
0x80000084: 1b 10 10 ef jal	0x19b0
0x80001a34: 00 00 07 13 mv	a4, zero
0x80001a38: cd 9f f0 6f j	-0x328
0x80001710: fe 01 01 13 addi	sp, sp, -0x20
0x80001714: 01 21 28 23 sw	s2, 0x10(sp)
0x80001718: 01 41 24 23 sw	s4, 8(sp)
0x8000171c: 01 51 22 23 sw	s5, 4(sp)
0x80001720: 01 61 20 23 sw	s6, 0(sp)
0x80001724: 00 11 2e 23 sw	ra, 0x1c(sp)
0x80001728: 00 81 2c 23 sw	s0, 0x18(sp)
0x8000172c: 00 91 2a 23 sw	s1, 0x14(sp)
0x80001730: 01 31 26 23 sw	s3, 0xc(sp)
0x80001734: 00 06 8a 93 mv	s5, a3
0x80001738: 00 05 09 13 mv	s2, a0
0x8000173c: 00 06 0b 13 mv	s6, a2
0x80001740: 00 07 0a 13 mv	s4, a4
0x80001744: 04 05 94 63 bnez	a1, 0x48
0x80001748: 18 06 98 63 bnez	a3, 0x190
0x8000174c: 00 07 08 63 beqz	a4, 0x10
0x8000175c: 03 69 55 33 divu	a0, s2, s6
0x80001760: 00 00 05 93 mv	a1, zero
0x80001764: 01 c1 20 83 lw	ra, 0x1c(sp)
0x80001768: 01 81 24 03 lw	s0, 0x18(sp)
0x8000176c: 01 41 24 83 lw	s1, 0x14(sp)
0x80001770: 01 01 29 03 lw	s2, 0x10(sp)
0x80001774: 00 c1 29 83 lw	s3, 0xc(sp)
0x80001778: 00 81 2a 03 lw	s4, 8(sp)
0x8000177c: 00 41 2a 83 lw	s5, 4(sp)
0x80001780: 00 01 2b 03 lw	s6, 0(sp)
0x80001784: 02 01 01 13 addi	sp, sp, 0x20
0x80001788: 00 00 80 67 ret
0x80000088: fe 85 e0 e3 bltu	a1, s0, -0x20
0x8000008c: 00 b4 14 63 bne	s0, a1, 8
0x80000090: fc 95 6c e3 bltu	a0, s1, -0x28
0x80000068: 00 81 05 93 addi	a1, sp, 8
0x8000006c: 00 60 05 13 addi	a0, zero, 6
0x80000070: 0e 00 10 ef jal	0x10e0
0x80001150: 00 25 15 13 slli	a0, a0, 2
0x80001154: 00 01 07 97 auipc	a5, 0x10
0x80001158: ae 87 87 93 addi	a5, a5, -0x518
0x8000115c: 00 a7 87 b3 add	a5, a5, a0
0x80001160: 00 07 a7 83 lw	a5, 0(a5)
0x80001164: 00 05 85 13 mv	a0, a1
0x80001168: 00 07 80 67 jr	a5
0x8000118c: a0 00 07 b7 lui	a5, 0xa0000
0x80001190: 04 c7 a7 03 lw	a4, 0x4c(a5)
0x80001194: 04 87 a7 83 lw	a5, 0x48(a5)
0x80001198: 00 e5 22 23 sw	a4, 4(a0)
0x8000119c: 00 f5 20 23 sw	a5, 0(a0)
0x800011a0: 00 00 80 67 ret
0x80000074: 00 81 25 03 lw	a0, 8(sp)
0x80000078: 00 c1 25 83 lw	a1, 0xc(sp)
0x8000007c: 00 09 06 13 mv	a2, s2
0x80000080: 00 09 86 93 mv	a3, s3
0x80000084: 1b 10 10 ef jal	0x19b0
0x80001a34: 00 00 07 13 mv	a4, zero
0x80001a38: cd 9f f0 6f j	-0x328
0x80001710: fe 01 01 13 addi	sp, sp, -0x20
0x80001714: 01 21 28 23 sw	s2, 0x10(sp)
0x80001718: 01 41 24 23 sw	s4, 8(sp)
0x8000171c: 01 51 22 23 sw	s5, 4(sp)
0x80001720: 01 61 20 23 sw	s6, 0(sp)
0x80001724: 00 11 2e 23 sw	ra, 0x1c(sp)
0x80001728: 00 81 2c 23 sw	s0, 0x18(sp)
0x8000172c: 00 91 2a 23 sw	s1, 0x14(sp)
0x80001730: 01 31 26 23 sw	s3, 0xc(sp)
0x80001734: 00 06 8a 93 mv	s5, a3
0x80001738: 00 05 09 13 mv	s2, a0
0x8000173c: 00 06 0b 13 mv	s6, a2
0x80001740: 00 07 0a 13 mv	s4, a4
0x80001744: 04 05 94 63 bnez	a1, 0x48
0x80001748: 18 06 98 63 bnez	a3, 0x190
0x8000174c: 00 07 08 63 beqz	a4, 0x10
0x8000175c: 03 69 55 33 divu	a0, s2, s6
0x80001760: 00 00 05 93 mv	a1, zero
0x80001764: 01 c1 20 83 lw	ra, 0x1c(sp)
0x80001768: 01 81 24 03 lw	s0, 0x18(sp)
0x8000176c: 01 41 24 83 lw	s1, 0x14(sp)
0x80001770: 01 01 29 03 lw	s2, 0x10(sp)
0x80001774: 00 c1 29 83 lw	s3, 0xc(sp)
0x80001778: 00 81 2a 03 lw	s4, 8(sp)
0x8000177c: 00 41 2a 83 lw	s5, 4(sp)
0x80001780: 00 01 2b 03 lw	s6, 0(sp)
0x80001784: 02 01 01 13 addi	sp, sp, 0x20
0x80001788: 00 00 80 67 ret
0x80000088: fe 85 e0 e3 bltu	a1, s0, -0x20
0x8000008c: 00 b4 14 63 bne	s0, a1, 8
0x80000090: fc 95 6c e3 bltu	a0, s1, -0x28
0x80000068: 00 81 05 93 addi	a1, sp, 8
0x8000006c: 00 60 05 13 addi	a0, zero, 6
0x80000070: 0e 00 10 ef jal	0x10e0
0x80001150: 00 25 15 13 slli	a0, a0, 2
0x80001154: 00 01 07 97 auipc	a5, 0x10
0x80001158: ae 87 87 93 addi	a5, a5, -0x518
0x8000115c: 00 a7 87 b3 add	a5, a5, a0
0x80001160: 00 07 a7 83 lw	a5, 0(a5)
0x80001164: 00 05 85 13 mv	a0, a1
0x80001168: 00 07 80 67 jr	a5
0x8000118c: a0 00 07 b7 lui	a5, 0xa0000
0x80001190: 04 c7 a7 03 lw	a4, 0x4c(a5)
0x80001194: 04 87 a7 83 lw	a5, 0x48(a5)
0x80001198: 00 e5 22 23 sw	a4, 4(a0)
0x8000119c: 00 f5 20 23 sw	a5, 0(a0)
0x800011a0: 00 00 80 67 ret
0x80000074: 00 81 25 03 lw	a0, 8(sp)
0x80000078: 00 c1 25 83 lw	a1, 0xc(sp)
0x8000007c: 00 09 06 13 mv	a2, s2
0x80000080: 00 09 86 93 mv	a3, s3
0x80000084: 1b 10 10 ef jal	0x19b0
0x80001a34: 00 00 07 13 mv	a4, zero
0x80001a38: cd 9f f0 6f j	-0x328
0x80001710: fe 01 01 13 addi	sp, sp, -0x20
0x80001714: 01 21 28 23 sw	s2, 0x10(sp)
0x80001718: 01 41 24 23 sw	s4, 8(sp)
0x8000171c: 01 51 22 23 sw	s5, 4(sp)
0x80001720: 01 61 20 23 sw	s6, 0(sp)
0x80001724: 00 11 2e 23 sw	ra, 0x1c(sp)
0x80001728: 00 81 2c 23 sw	s0, 0x18(sp)
0x8000172c: 00 91 2a 23 sw	s1, 0x14(sp)
0x80001730: 01 31 26 23 sw	s3, 0xc(sp)
0x80001734: 00 06 8a 93 mv	s5, a3
0x80001738: 00 05 09 13 mv	s2, a0
0x8000173c: 00 06 0b 13 mv	s6, a2
0x80001740: 00 07 0a 13 mv	s4, a4
0x80001744: 04 05 94 63 bnez	a1, 0x48
0x80001748: 18 06 98 63 bnez	a3, 0x190
0x8000174c: 00 07 08 63 beqz	a4, 0x10
0x8000175c: 03 69 55 33 divu	a0, s2, s6
0x80001760: 00 00 05 93 mv	a1, zero
0x80001764: 01 c1 20 83 lw	ra, 0x1c(sp)
0x80001768: 01 81 24 03 lw	s0, 0x18(sp)
0x8000176c: 01 41 24 83 lw	s1, 0x14(sp)
0x80001770: 01 01 29 03 lw	s2, 0x10(sp)
0x80001774: 00 c1 29 83 lw	s3, 0xc(sp)
0x80001778: 00 81 2a 03 lw	s4, 8(sp)
0x8000177c: 00 41 2a 83 lw	s5, 4(sp)
0x80001780: 00 01 2b 03 lw	s6, 0(sp)
0x80001784: 02 01 01 13 addi	sp, sp, 0x20
0x80001788: 00 00 80 67 ret
0x80000088: fe 85 e0 e3 bltu	a1, s0, -0x20
0x8000008c: 00 b4 14 63 bne	s0, a1, 8
0x80000090: fc 95 6c e3 bltu	a0, s1, -0x28
0x80000068: 00 81 05 93 addi	a1, sp, 8
0x8000006c: 00 60 05 13 addi	a0, zero, 6
0x80000070: 0e 00 10 ef jal	0x10e0
0x80001150: 00 25 15 13 slli	a0, a0, 2
0x80001154: 00 01 07 97 auipc	a5, 0x10
0x80001158: ae 87 87 93 addi	a5, a5, -0x518
0x8000115c: 00 a7 87 b3 add	a5, a5, a0
0x80001160: 00 07 a7 83 lw	a5, 0(a5)
0x80001164: 00 05 85 13 mv	a0, a1
0x80001168: 00 07 80 67 jr	a5
0x8000118c: a0 00 07 b7 lui	a5, 0xa0000
0x80001190: 04 c7 a7 03 lw	a4, 0x4c(a5)
0x80001194: 04 87 a7 83 lw	a5, 0x48(a5)
0x80001198: 00 e5 22 23 sw	a4, 4(a0)
0x8000119c: 00 f5 20 23 sw	a5, 0(a0)
0x800011a0: 00 00 80 67 ret
0x80000074: 00 81 25 03 lw	a0, 8(sp)
0x80000078: 00 c1 25 83 lw	a1, 0xc(sp)
0x8000007c: 00 09 06 13 mv	a2, s2
0x80000080: 00 09 86 93 mv	a3, s3
0x80000084: 1b 10 10 ef jal	0x19b0
0x80001a34: 00 00 07 13 mv	a4, zero
0x80001a38: cd 9f f0 6f j	-0x328
0x80001710: fe 01 01 13 addi	sp, sp, -0x20
0x80001714: 01 21 28 23 sw	s2, 0x10(sp)
0x80001718: 01 41 24 23 sw	s4, 8(sp)
0x8000171c: 01 51 22 23 sw	s5, 4(sp)
0x80001720: 01 61 20 23 sw	s6, 0(sp)
0x80001724: 00 11 2e 23 sw	ra, 0x1c(sp)
0x80001728: 00 81 2c 23 sw	s0, 0x18(sp)
0x8000172c: 00 91 2a 23 sw	s1, 0x14(sp)
0x80001730: 01 31 26 23 sw	s3, 0xc(sp)
0x80001734: 00 06 8a 93 mv	s5, a3
0x80001738: 00 05 09 13 mv	s2, a0
0x8000173c: 00 06 0b 13 mv	s6, a2
0x80001740: 00 07 0a 13 mv	s4, a4
0x80001744: 04 05 94 63 bnez	a1, 0x48
0x80001748: 18 06 98 63 bnez	a3, 0x190
0x8000174c: 00 07 08 63 beqz	a4, 0x10
0x8000175c: 03 69 55 33 divu	a0, s2, s6
0x80001760: 00 00 05 93 mv	a1, zero
0x80001764: 01 c1 20 83 lw	ra, 0x1c(sp)
0x80001768: 01 81 24 03 lw	s0, 0x18(sp)
0x8000176c: 01 41 24 83 lw	s1, 0x14(sp)
0x80001770: 01 01 29 03 lw	s2, 0x10(sp)
0x80001774: 00 c1 29 83 lw	s3, 0xc(sp)
0x80001778: 00 81 2a 03 lw	s4, 8(sp)
0x8000177c: 00 41 2a 83 lw	s5, 4(sp)
0x80001780: 00 01 2b 03 lw	s6, 0(sp)
0x80001784: 02 01 01 13 addi	sp, sp, 0x20
0x80001788: 00 00 80 67 ret
0x80000088: fe 85 e0 e3 bltu	a1, s0, -0x20
0x8000008c: 00 b4 14 63 bne	s0, a1, 8
0x80000090: fc 95 6c e3 bltu	a0, s1, -0x28
0x80000068: 00 81 05 93 addi	a1, sp, 8
0x8000006c: 00 60 05 13 addi	a0, zero, 6
0x80000070: 0e 00 10 ef jal	0x10e0
0x80001150: 00 25 15 13 slli	a0, a0, 2
0x80001154: 00 01 07 97 auipc	a5, 0x10
0x80001158: ae 87 87 93 addi	a5, a5, -0x518
0x8000115c: 00 a7 87 b3 add	a5, a5, a0
0x80001160: 00 07 a7 83 lw	a5, 0(a5)
0x80001164: 00 05 85 13 mv	a0, a1
0x80001168: 00 07 80 67 jr	a5
0x8000118c: a0 00 07 b7 lui	a5, 0xa0000
0x80001190: 04 c7 a7 03 lw	a4, 0x4c(a5)
0x80001194: 04 87 a7 83 lw	a5, 0x48(a5)
0x80001198: 00 e5 22 23 sw	a4, 4(a0)
0x8000119c: 00 f5 20 23 sw	a5, 0(a0)
0x800011a0: 00 00 80 67 ret
0x80000074: 00 81 25 03 lw	a0, 8(sp)
0x80000078: 00 c1 25 83 lw	a1, 0xc(sp)
0x8000007c: 00 09 06 13 mv	a2, s2
0x80000080: 00 09 86 93 mv	a3, s3
0x80000084: 1b 10 10 ef jal	0x19b0
0x80001a34: 00 00 07 13 mv	a4, zero
0x80001a38: cd 9f f0 6f j	-0x328
0x80001710: fe 01 01 13 addi	sp, sp, -0x20
0x80001714: 01 21 28 23 sw	s2, 0x10(sp)
0x80001718: 01 41 24 23 sw	s4, 8(sp)
0x8000171c: 01 51 22 23 sw	s5, 4(sp)
0x80001720: 01 61 20 23 sw	s6, 0(sp)
0x80001724: 00 11 2e 23 sw	ra, 0x1c(sp)
0x80001728: 00 81 2c 23 sw	s0, 0x18(sp)
0x8000172c: 00 91 2a 23 sw	s1, 0x14(sp)
0x80001730: 01 31 26 23 sw	s3, 0xc(sp)
0x80001734: 00 06 8a 93 mv	s5, a3
0x80001738: 00 05 09 13 mv	s2, a0
0x8000173c: 00 06 0b 13 mv	s6, a2
0x80001740: 00 07 0a 13 mv	s4, a4
0x80001744: 04 05 94 63 bnez	a1, 0x48
0x80001748: 18 06 98 63 bnez	a3, 0x190
0x8000174c: 00 07 08 63 beqz	a4, 0x10
0x8000175c: 03 69 55 33 divu	a0, s2, s6
0x80001760: 00 00 05 93 mv	a1, zero
0x80001764: 01 c1 20 83 lw	ra, 0x1c(sp)
0x80001768: 01 81 24 03 lw	s0, 0x18(sp)
0x8000176c: 01 41 24 83 lw	s1, 0x14(sp)
0x80001770: 01 01 29 03 lw	s2, 0x10(sp)
0x80001774: 00 c1 29 83 lw	s3, 0xc(sp)
0x80001778: 00 81 2a 03 lw	s4, 8(sp)
0x8000177c: 00 41 2a 83 lw	s5, 4(sp)
0x80001780: 00 01 2b 03 lw	s6, 0(sp)
0x80001784: 02 01 01 13 addi	sp, sp, 0x20
0x80001788: 00 00 80 67 ret
0x80000088: fe 85 e0 e3 bltu	a1, s0, -0x20
0x8000008c: 00 b4 14 63 bne	s0, a1, 8
0x80000090: fc 95 6c e3 bltu	a0, s1, -0x28
0x80000068: 00 81 05 93 addi	a1, sp, 8
0x8000006c: 00 60 05 13 addi	a0, zero, 6
0x80000070: 0e 00 10 ef jal	0x10e0
0x80001150: 00 25 15 13 slli	a0, a0, 2
0x80001154: 00 01 07 97 auipc	a5, 0x10
0x80001158: ae 87 87 93 addi	a5, a5, -0x518
0x8000115c: 00 a7 87 b3 add	a5, a5, a0
0x80001160: 00 07 a7 83 lw	a5, 0(a5)
0x80001164: 00 05 85 13 mv	a0, a1
0x80001168: 00 07 80 67 jr	a5
0x8000118c: a0 00 07 b7 lui	a5, 0xa0000
0x80001190: 04 c7 a7 03 lw	a4, 0x4c(a5)
0x80001194: 04 87 a7 83 lw	a5, 0x48(a5)
0x80001198: 00 e5 22 23 sw	a4, 4(a0)
0x8000119c: 00 f5 20 23 sw	a5, 0(a0)
0x800011a0: 00 00 80 67 ret
0x80000074: 00 81 25 03 lw	a0, 8(sp)
0x80000078: 00 c1 25 83 lw	a1, 0xc(sp)
0x8000007c: 00 09 06 13 mv	a2, s2
0x80000080: 00 09 86 93 mv	a3, s3
0x80000084: 1b 10 10 ef jal	0x19b0
0x80001a34: 00 00 07 13 mv	a4, zero
0x80001a38: cd 9f f0 6f j	-0x328
0x80001710: fe 01 01 13 addi	sp, sp, -0x20
0x80001714: 01 21 28 23 sw	s2, 0x10(sp)
0x80001718: 01 41 24 23 sw	s4, 8(sp)
0x8000171c: 01 51 22 23 sw	s5, 4(sp)
0x80001720: 01 61 20 23 sw	s6, 0(sp)
0x80001724: 00 11 2e 23 sw	ra, 0x1c(sp)
0x80001728: 00 81 2c 23 sw	s0, 0x18(sp)
0x8000172c: 00 91 2a 23 sw	s1, 0x14(sp)
0x80001730: 01 31 26 23 sw	s3, 0xc(sp)
0x80001734: 00 06 8a 93 mv	s5, a3
0x80001738: 00 05 09 13 mv	s2, a0
0x8000173c: 00 06 0b 13 mv	s6, a2
0x80001740: 00 07 0a 13 mv	s4, a4
0x80001744: 04 05 94 63 bnez	a1, 0x48
0x80001748: 18 06 98 63 bnez	a3, 0x190
0x8000174c: 00 07 08 63 beqz	a4, 0x10
0x8000175c: 03 69 55 33 divu	a0, s2, s6
0x80001760: 00 00 05 93 mv	a1, zero
0x80001764: 01 c1 20 83 lw	ra, 0x1c(sp)
0x80001768: 01 81 24 03 lw	s0, 0x18(sp)
0x8000176c: 01 41 24 83 lw	s1, 0x14(sp)
0x80001770: 01 01 29 03 lw	s2, 0x10(sp)
0x80001774: 00 c1 29 83 lw	s3, 0xc(sp)
0x80001778: 00 81 2a 03 lw	s4, 8(sp)
0x8000177c: 00 41 2a 83 lw	s5, 4(sp)
0x80001780: 00 01 2b 03 lw	s6, 0(sp)
0x80001784: 02 01 01 13 addi	sp, sp, 0x20
0x80001788: 00 00 80 67 ret
0x80000088: fe 85 e0 e3 bltu	a1, s0, -0x20
0x8000008c: 00 b4 14 63 bne	s0, a1, 8
0x80000090: fc 95 6c e3 bltu	a0, s1, -0x28
0x80000068: 00 81 05 93 addi	a1, sp, 8
0x8000006c: 00 60 05 13 addi	a0, zero, 6
0x80000070: 0e 00 10 ef jal	0x10e0
0x80001150: 00 25 15 13 slli	a0, a0, 2
0x80001154: 00 01 07 97 auipc	a5, 0x10
0x80001158: ae 87 87 93 addi	a5, a5, -0x518
0x8000115c: 00 a7 87 b3 add	a5, a5, a0
0x80001160: 00 07 a7 83 lw	a5, 0(a5)
0x80001164: 00 05 85 13 mv	a0, a1
0x80001168: 00 07 80 67 jr	a5
0x8000118c: a0 00 07 b7 lui	a5, 0xa0000
0x80001190: 04 c7 a7 03 lw	a4, 0x4c(a5)
0x80001194: 04 87 a7 83 lw	a5, 0x48(a5)
0x80001198: 00 e5 22 23 sw	a4, 4(a0)
0x8000119c: 00 f5 20 23 sw	a5, 0(a0)
0x800011a0: 00 00 80 67 ret
0x80000074: 00 81 25 03 lw	a0, 8(sp)
0x80000078: 00 c1 25 83 lw	a1, 0xc(sp)
0x8000007c: 00 09 06 13 mv	a2, s2
0x80000080: 00 09 86 93 mv	a3, s3
0x80000084: 1b 10 10 ef jal	0x19b0
0x80001a34: 00 00 07 13 mv	a4, zero
0x80001a38: cd 9f f0 6f j	-0x328
0x80001710: fe 01 01 13 addi	sp, sp, -0x20
0x80001714: 01 21 28 23 sw	s2, 0x10(sp)
0x80001718: 01 41 24 23 sw	s4, 8(sp)
0x8000171c: 01 51 22 23 sw	s5, 4(sp)
0x80001720: 01 61 20 23 sw	s6, 0(sp)
0x80001724: 00 11 2e 23 sw	ra, 0x1c(sp)
0x80001728: 00 81 2c 23 sw	s0, 0x18(sp)
0x8000172c: 00 91 2a 23 sw	s1, 0x14(sp)
0x80001730: 01 31 26 23 sw	s3, 0xc(sp)
0x80001734: 00 06 8a 93 mv	s5, a3
0x80001738: 00 05 09 13 mv	s2, a0
0x8000173c: 00 06 0b 13 mv	s6, a2
0x80001740: 00 07 0a 13 mv	s4, a4
0x80001744: 04 05 94 63 bnez	a1, 0x48
0x80001748: 18 06 98 63 bnez	a3, 0x190
0x8000174c: 00 07 08 63 beqz	a4, 0x10
0x8000175c: 03 69 55 33 divu	a0, s2, s6
0x80001760: 00 00 05 93 mv	a1, zero
0x80001764: 01 c1 20 83 lw	ra, 0x1c(sp)
0x80001768: 01 81 24 03 lw	s0, 0x18(sp)
0x8000176c: 01 41 24 83 lw	s1, 0x14(sp)
0x80001770: 01 01 29 03 lw	s2, 0x10(sp)
0x80001774: 00 c1 29 83 lw	s3, 0xc(sp)
0x80001778: 00 81 2a 03 lw	s4, 8(sp)
0x8000177c: 00 41 2a 83 lw	s5, 4(sp)
0x80001780: 00 01 2b 03 lw	s6, 0(sp)
0x80001784: 02 01 01 13 addi	sp, sp, 0x20
0x80001788: 00 00 80 67 ret
0x80000088: fe 85 e0 e3 bltu	a1, s0, -0x20
0x8000008c: 00 b4 14 63 bne	s0, a1, 8
0x80000090: fc 95 6c e3 bltu	a0, s1, -0x28
0x80000068: 00 81 05 93 addi	a1, sp, 8
0x8000006c: 00 60 05 13 addi	a0, zero, 6
0x80000070: 0e 00 10 ef jal	0x10e0
0x80001150: 00 25 15 13 slli	a0, a0, 2
0x80001154: 00 01 07 97 auipc	a5, 0x10
0x80001158: ae 87 87 93 addi	a5, a5, -0x518
0x8000115c: 00 a7 87 b3 add	a5, a5, a0
0x80001160: 00 07 a7 83 lw	a5, 0(a5)
0x80001164: 00 05 85 13 mv	a0, a1
0x80001168: 00 07 80 67 jr	a5
0x8000118c: a0 00 07 b7 lui	a5, 0xa0000
0x80001190: 04 c7 a7 03 lw	a4, 0x4c(a5)
0x80001194: 04 87 a7 83 lw	a5, 0x48(a5)
0x80001198: 00 e5 22 23 sw	a4, 4(a0)
0x8000119c: 00 f5 20 23 sw	a5, 0(a0)
0x800011a0: 00 00 80 67 ret
0x80000074: 00 81 25 03 lw	a0, 8(sp)
0x80000078: 00 c1 25 83 lw	a1, 0xc(sp)
0x8000007c: 00 09 06 13 mv	a2, s2
0x80000080: 00 09 86 93 mv	a3, s3
0x80000084: 1b 10 10 ef jal	0x19b0
0x80001a34: 00 00 07 13 mv	a4, zero
0x80001a38: cd 9f f0 6f j	-0x328
0x80001710: fe 01 01 13 addi	sp, sp, -0x20
0x80001714: 01 21 28 23 sw	s2, 0x10(sp)
0x80001718: 01 41 24 23 sw	s4, 8(sp)
0x8000171c: 01 51 22 23 sw	s5, 4(sp)
0x80001720: 01 61 20 23 sw	s6, 0(sp)
0x80001724: 00 11 2e 23 sw	ra, 0x1c(sp)
0x80001728: 00 81 2c 23 sw	s0, 0x18(sp)
0x8000172c: 00 91 2a 23 sw	s1, 0x14(sp)
0x80001730: 01 31 26 23 sw	s3, 0xc(sp)
0x80001734: 00 06 8a 93 mv	s5, a3
0x80001738: 00 05 09 13 mv	s2, a0
0x8000173c: 00 06 0b 13 mv	s6, a2
0x80001740: 00 07 0a 13 mv	s4, a4
0x80001744: 04 05 94 63 bnez	a1, 0x48
0x80001748: 18 06 98 63 bnez	a3, 0x190
0x8000174c: 00 07 08 63 beqz	a4, 0x10
0x8000175c: 03 69 55 33 divu	a0, s2, s6
0x80001760: 00 00 05 93 mv	a1, zero
0x80001764: 01 c1 20 83 lw	ra, 0x1c(sp)
0x80001768: 01 81 24 03 lw	s0, 0x18(sp)
0x8000176c: 01 41 24 83 lw	s1, 0x14(sp)
0x80001770: 01 01 29 03 lw	s2, 0x10(sp)
0x80001774: 00 c1 29 83 lw	s3, 0xc(sp)
0x80001778: 00 81 2a 03 lw	s4, 8(sp)
0x8000177c: 00 41 2a 83 lw	s5, 4(sp)
0x80001780: 00 01 2b 03 lw	s6, 0(sp)
0x80001784: 02 01 01 13 addi	sp, sp, 0x20
0x80001788: 00 00 80 67 ret
0x80000088: fe 85 e0 e3 bltu	a1, s0, -0x20
0x8000008c: 00 b4 14 63 bne	s0, a1, 8
0x80000090: fc 95 6c e3 bltu	a0, s1, -0x28
0x80000068: 00 81 05 93 addi	a1, sp, 8
0x8000006c: 00 60 05 13 addi	a0, zero, 6
0x80000070: 0e 00 10 ef jal	0x10e0
0x80001150: 00 25 15 13 slli	a0, a0, 2
0x80001154: 00 01 07 97 auipc	a5, 0x10
0x80001158: ae 87 87 93 addi	a5, a5, -0x518
0x8000115c: 00 a7 87 b3 add	a5, a5, a0
0x80001160: 00 07 a7 83 lw	a5, 0(a5)
0x80001164: 00 05 85 13 mv	a0, a1
0x80001168: 00 07 80 67 jr	a5
0x8000118c: a0 00 07 b7 lui	a5, 0xa0000
0x80001190: 04 c7 a7 03 lw	a4, 0x4c(a5)
0x80001194: 04 87 a7 83 lw	a5, 0x48(a5)
0x80001198: 00 e5 22 23 sw	a4, 4(a0)
0x8000119c: 00 f5 20 23 sw	a5, 0(a0)
0x800011a0: 00 00 80 67 ret
0x80000074: 00 81 25 03 lw	a0, 8(sp)
0x80000078: 00 c1 25 83 lw	a1, 0xc(sp)
0x8000007c: 00 09 06 13 mv	a2, s2
0x80000080: 00 09 86 93 mv	a3, s3
0x80000084: 1b 10 10 ef jal	0x19b0
0x80001a34: 00 00 07 13 mv	a4, zero
0x80001a38: cd 9f f0 6f j	-0x328
0x80001710: fe 01 01 13 addi	sp, sp, -0x20
0x80001714: 01 21 28 23 sw	s2, 0x10(sp)
0x80001718: 01 41 24 23 sw	s4, 8(sp)
0x8000171c: 01 51 22 23 sw	s5, 4(sp)
0x80001720: 01 61 20 23 sw	s6, 0(sp)
0x80001724: 00 11 2e 23 sw	ra, 0x1c(sp)
0x80001728: 00 81 2c 23 sw	s0, 0x18(sp)
0x8000172c: 00 91 2a 23 sw	s1, 0x14(sp)
0x80001730: 01 31 26 23 sw	s3, 0xc(sp)
0x80001734: 00 06 8a 93 mv	s5, a3
0x80001738: 00 05 09 13 mv	s2, a0
0x8000173c: 00 06 0b 13 mv	s6, a2
0x80001740: 00 07 0a 13 mv	s4, a4
0x80001744: 04 05 94 63 bnez	a1, 0x48
0x80001748: 18 06 98 63 bnez	a3, 0x190
0x8000174c: 00 07 08 63 beqz	a4, 0x10
0x8000175c: 03 69 55 33 divu	a0, s2, s6
0x80001760: 00 00 05 93 mv	a1, zero
0x80001764: 01 c1 20 83 lw	ra, 0x1c(sp)
0x80001768: 01 81 24 03 lw	s0, 0x18(sp)
0x8000176c: 01 41 24 83 lw	s1, 0x14(sp)
0x80001770: 01 01 29 03 lw	s2, 0x10(sp)
0x80001774: 00 c1 29 83 lw	s3, 0xc(sp)
0x80001778: 00 81 2a 03 lw	s4, 8(sp)
0x8000177c: 00 41 2a 83 lw	s5, 4(sp)
0x80001780: 00 01 2b 03 lw	s6, 0(sp)
0x80001784: 02 01 01 13 addi	sp, sp, 0x20
0x80001788: 00 00 80 67 ret
0x80000088: fe 85 e0 e3 bltu	a1, s0, -0x20
0x8000008c: 00 b4 14 63 bne	s0, a1, 8
0x80000090: fc 95 6c e3 bltu	a0, s1, -0x28
0x80000068: 00 81 05 93 addi	a1, sp, 8
0x8000006c: 00 60 05 13 addi	a0, zero, 6
0x80000070: 0e 00 10 ef jal	0x10e0
0x80001150: 00 25 15 13 slli	a0, a0, 2
0x80001154: 00 01 07 97 auipc	a5, 0x10
0x80001158: ae 87 87 93 addi	a5, a5, -0x518
0x8000115c: 00 a7 87 b3 add	a5, a5, a0
0x80001160: 00 07 a7 83 lw	a5, 0(a5)
0x80001164: 00 05 85 13 mv	a0, a1
0x80001168: 00 07 80 67 jr	a5
0x8000118c: a0 00 07 b7 lui	a5, 0xa0000
0x80001190: 04 c7 a7 03 lw	a4, 0x4c(a5)
0x80001194: 04 87 a7 83 lw	a5, 0x48(a5)
0x80001198: 00 e5 22 23 sw	a4, 4(a0)
0x8000119c: 00 f5 20 23 sw	a5, 0(a0)
0x800011a0: 00 00 80 67 ret
0x80000074: 00 81 25 03 lw	a0, 8(sp)
0x80000078: 00 c1 25 83 lw	a1, 0xc(sp)
0x8000007c: 00 09 06 13 mv	a2, s2
0x80000080: 00 09 86 93 mv	a3, s3
0x80000084: 1b 10 10 ef jal	0x19b0
0x80001a34: 00 00 07 13 mv	a4, zero
0x80001a38: cd 9f f0 6f j	-0x328
0x80001710: fe 01 01 13 addi	sp, sp, -0x20
0x80001714: 01 21 28 23 sw	s2, 0x10(sp)
0x80001718: 01 41 24 23 sw	s4, 8(sp)
0x8000171c: 01 51 22 23 sw	s5, 4(sp)
0x80001720: 01 61 20 23 sw	s6, 0(sp)
0x80001724: 00 11 2e 23 sw	ra, 0x1c(sp)
0x80001728: 00 81 2c 23 sw	s0, 0x18(sp)
0x8000172c: 00 91 2a 23 sw	s1, 0x14(sp)
0x80001730: 01 31 26 23 sw	s3, 0xc(sp)
0x80001734: 00 06 8a 93 mv	s5, a3
0x80001738: 00 05 09 13 mv	s2, a0
0x8000173c: 00 06 0b 13 mv	s6, a2
0x80001740: 00 07 0a 13 mv	s4, a4
0x80001744: 04 05 94 63 bnez	a1, 0x48
0x80001748: 18 06 98 63 bnez	a3, 0x190
0x8000174c: 00 07 08 63 beqz	a4, 0x10
0x8000175c: 03 69 55 33 divu	a0, s2, s6
0x80001760: 00 00 05 93 mv	a1, zero
0x80001764: 01 c1 20 83 lw	ra, 0x1c(sp)
0x80001768: 01 81 24 03 lw	s0, 0x18(sp)
0x8000176c: 01 41 24 83 lw	s1, 0x14(sp)
0x80001770: 01 01 29 03 lw	s2, 0x10(sp)
0x80001774: 00 c1 29 83 lw	s3, 0xc(sp)
0x80001778: 00 81 2a 03 lw	s4, 8(sp)
0x8000177c: 00 41 2a 83 lw	s5, 4(sp)
0x80001780: 00 01 2b 03 lw	s6, 0(sp)
0x80001784: 02 01 01 13 addi	sp, sp, 0x20
0x80001788: 00 00 80 67 ret
0x80000088: fe 85 e0 e3 bltu	a1, s0, -0x20
0x8000008c: 00 b4 14 63 bne	s0, a1, 8
0x80000090: fc 95 6c e3 bltu	a0, s1, -0x28
0x80000068: 00 81 05 93 addi	a1, sp, 8
0x8000006c: 00 60 05 13 addi	a0, zero, 6
0x80000070: 0e 00 10 ef jal	0x10e0
0x80001150: 00 25 15 13 slli	a0, a0, 2
0x80001154: 00 01 07 97 auipc	a5, 0x10
0x80001158: ae 87 87 93 addi	a5, a5, -0x518
0x8000115c: 00 a7 87 b3 add	a5, a5, a0
0x80001160: 00 07 a7 83 lw	a5, 0(a5)
0x80001164: 00 05 85 13 mv	a0, a1
0x80001168: 00 07 80 67 jr	a5
0x8000118c: a0 00 07 b7 lui	a5, 0xa0000
0x80001190: 04 c7 a7 03 lw	a4, 0x4c(a5)
0x80001194: 04 87 a7 83 lw	a5, 0x48(a5)
0x80001198: 00 e5 22 23 sw	a4, 4(a0)
0x8000119c: 00 f5 20 23 sw	a5, 0(a0)
0x800011a0: 00 00 80 67 ret
0x80000074: 00 81 25 03 lw	a0, 8(sp)
0x80000078: 00 c1 25 83 lw	a1, 0xc(sp)
0x8000007c: 00 09 06 13 mv	a2, s2
0x80000080: 00 09 86 93 mv	a3, s3
0x80000084: 1b 10 10 ef jal	0x19b0
0x80001a34: 00 00 07 13 mv	a4, zero
0x80001a38: cd 9f f0 6f j	-0x328
0x80001710: fe 01 01 13 addi	sp, sp, -0x20
0x80001714: 01 21 28 23 sw	s2, 0x10(sp)
0x80001718: 01 41 24 23 sw	s4, 8(sp)
0x8000171c: 01 51 22 23 sw	s5, 4(sp)
0x80001720: 01 61 20 23 sw	s6, 0(sp)
0x80001724: 00 11 2e 23 sw	ra, 0x1c(sp)
0x80001728: 00 81 2c 23 sw	s0, 0x18(sp)
0x8000172c: 00 91 2a 23 sw	s1, 0x14(sp)
0x80001730: 01 31 26 23 sw	s3, 0xc(sp)
0x80001734: 00 06 8a 93 mv	s5, a3
0x80001738: 00 05 09 13 mv	s2, a0
0x8000173c: 00 06 0b 13 mv	s6, a2
0x80001740: 00 07 0a 13 mv	s4, a4
0x80001744: 04 05 94 63 bnez	a1, 0x48
0x80001748: 18 06 98 63 bnez	a3, 0x190
0x8000174c: 00 07 08 63 beqz	a4, 0x10
0x8000175c: 03 69 55 33 divu	a0, s2, s6
0x80001760: 00 00 05 93 mv	a1, zero
0x80001764: 01 c1 20 83 lw	ra, 0x1c(sp)
0x80001768: 01 81 24 03 lw	s0, 0x18(sp)
0x8000176c: 01 41 24 83 lw	s1, 0x14(sp)
0x80001770: 01 01 29 03 lw	s2, 0x10(sp)
0x80001774: 00 c1 29 83 lw	s3, 0xc(sp)
0x80001778: 00 81 2a 03 lw	s4, 8(sp)
0x8000177c: 00 41 2a 83 lw	s5, 4(sp)
0x80001780: 00 01 2b 03 lw	s6, 0(sp)
0x80001784: 02 01 01 13 addi	sp, sp, 0x20
0x80001788: 00 00 80 67 ret
0x80000088: fe 85 e0 e3 bltu	a1, s0, -0x20
0x8000008c: 00 b4 14 63 bne	s0, a1, 8
0x80000090: fc 95 6c e3 bltu	a0, s1, -0x28
0x80000068: 00 81 05 93 addi	a1, sp, 8
0x8000006c: 00 60 05 13 addi	a0, zero, 6
0x80000070: 0e 00 10 ef jal	0x10e0
0x80001150: 00 25 15 13 slli	a0, a0, 2
0x80001154: 00 01 07 97 auipc	a5, 0x10
0x80001158: ae 87 87 93 addi	a5, a5, -0x518
0x8000115c: 00 a7 87 b3 add	a5, a5, a0
0x80001160: 00 07 a7 83 lw	a5, 0(a5)
0x80001164: 00 05 85 13 mv	a0, a1
0x80001168: 00 07 80 67 jr	a5
0x8000118c: a0 00 07 b7 lui	a5, 0xa0000
0x80001190: 04 c7 a7 03 lw	a4, 0x4c(a5)
0x80001194: 04 87 a7 83 lw	a5, 0x48(a5)
0x80001198: 00 e5 22 23 sw	a4, 4(a0)
0x8000119c: 00 f5 20 23 sw	a5, 0(a0)
0x800011a0: 00 00 80 67 ret
0x80000074: 00 81 25 03 lw	a0, 8(sp)
0x80000078: 00 c1 25 83 lw	a1, 0xc(sp)
0x8000007c: 00 09 06 13 mv	a2, s2
0x80000080: 00 09 86 93 mv	a3, s3
0x80000084: 1b 10 10 ef jal	0x19b0
0x80001a34: 00 00 07 13 mv	a4, zero
0x80001a38: cd 9f f0 6f j	-0x328
0x80001710: fe 01 01 13 addi	sp, sp, -0x20
0x80001714: 01 21 28 23 sw	s2, 0x10(sp)
0x80001718: 01 41 24 23 sw	s4, 8(sp)
0x8000171c: 01 51 22 23 sw	s5, 4(sp)
0x80001720: 01 61 20 23 sw	s6, 0(sp)
0x80001724: 00 11 2e 23 sw	ra, 0x1c(sp)
0x80001728: 00 81 2c 23 sw	s0, 0x18(sp)
0x8000172c: 00 91 2a 23 sw	s1, 0x14(sp)
0x80001730: 01 31 26 23 sw	s3, 0xc(sp)
0x80001734: 00 06 8a 93 mv	s5, a3
0x80001738: 00 05 09 13 mv	s2, a0
0x8000173c: 00 06 0b 13 mv	s6, a2
0x80001740: 00 07 0a 13 mv	s4, a4
0x80001744: 04 05 94 63 bnez	a1, 0x48
0x80001748: 18 06 98 63 bnez	a3, 0x190
0x8000174c: 00 07 08 63 beqz	a4, 0x10
0x8000175c: 03 69 55 33 divu	a0, s2, s6
0x80001760: 00 00 05 93 mv	a1, zero
0x80001764: 01 c1 20 83 lw	ra, 0x1c(sp)
0x80001768: 01 81 24 03 lw	s0, 0x18(sp)
0x8000176c: 01 41 24 83 lw	s1, 0x14(sp)
0x80001770: 01 01 29 03 lw	s2, 0x10(sp)
0x80001774: 00 c1 29 83 lw	s3, 0xc(sp)
0x80001778: 00 81 2a 03 lw	s4, 8(sp)
0x8000177c: 00 41 2a 83 lw	s5, 4(sp)
0x80001780: 00 01 2b 03 lw	s6, 0(sp)
0x80001784: 02 01 01 13 addi	sp, sp, 0x20
0x80001788: 00 00 80 67 ret
0x80000088: fe 85 e0 e3 bltu	a1, s0, -0x20
0x8000008c: 00 b4 14 63 bne	s0, a1, 8
0x80000090: fc 95 6c e3 bltu	a0, s1, -0x28
0x80000068: 00 81 05 93 addi	a1, sp, 8
0x8000006c: 00 60 05 13 addi	a0, zero, 6
0x80000070: 0e 00 10 ef jal	0x10e0
0x80001150: 00 25 15 13 slli	a0, a0, 2
0x80001154: 00 01 07 97 auipc	a5, 0x10
0x80001158: ae 87 87 93 addi	a5, a5, -0x518
0x8000115c: 00 a7 87 b3 add	a5, a5, a0
0x80001160: 00 07 a7 83 lw	a5, 0(a5)
0x80001164: 00 05 85 13 mv	a0, a1
0x80001168: 00 07 80 67 jr	a5
0x8000118c: a0 00 07 b7 lui	a5, 0xa0000
0x80001190: 04 c7 a7 03 lw	a4, 0x4c(a5)
0x80001194: 04 87 a7 83 lw	a5, 0x48(a5)
0x80001198: 00 e5 22 23 sw	a4, 4(a0)
0x8000119c: 00 f5 20 23 sw	a5, 0(a0)
0x800011a0: 00 00 80 67 ret
0x80000074: 00 81 25 03 lw	a0, 8(sp)
0x80000078: 00 c1 25 83 lw	a1, 0xc(sp)
0x8000007c: 00 09 06 13 mv	a2, s2
0x80000080: 00 09 86 93 mv	a3, s3
0x80000084: 1b 10 10 ef jal	0x19b0
0x80001a34: 00 00 07 13 mv	a4, zero
0x80001a38: cd 9f f0 6f j	-0x328
0x80001710: fe 01 01 13 addi	sp, sp, -0x20
0x80001714: 01 21 28 23 sw	s2, 0x10(sp)
0x80001718: 01 41 24 23 sw	s4, 8(sp)
0x8000171c: 01 51 22 23 sw	s5, 4(sp)
0x80001720: 01 61 20 23 sw	s6, 0(sp)
0x80001724: 00 11 2e 23 sw	ra, 0x1c(sp)
0x80001728: 00 81 2c 23 sw	s0, 0x18(sp)
0x8000172c: 00 91 2a 23 sw	s1, 0x14(sp)
0x80001730: 01 31 26 23 sw	s3, 0xc(sp)
0x80001734: 00 06 8a 93 mv	s5, a3
0x80001738: 00 05 09 13 mv	s2, a0
0x8000173c: 00 06 0b 13 mv	s6, a2
0x80001740: 00 07 0a 13 mv	s4, a4
0x80001744: 04 05 94 63 bnez	a1, 0x48
0x80001748: 18 06 98 63 bnez	a3, 0x190
0x8000174c: 00 07 08 63 beqz	a4, 0x10
0x8000175c: 03 69 55 33 divu	a0, s2, s6
0x80001760: 00 00 05 93 mv	a1, zero
0x80001764: 01 c1 20 83 lw	ra, 0x1c(sp)
0x80001768: 01 81 24 03 lw	s0, 0x18(sp)
0x8000176c: 01 41 24 83 lw	s1, 0x14(sp)
0x80001770: 01 01 29 03 lw	s2, 0x10(sp)
0x80001774: 00 c1 29 83 lw	s3, 0xc(sp)
0x80001778: 00 81 2a 03 lw	s4, 8(sp)
0x8000177c: 00 41 2a 83 lw	s5, 4(sp)
0x80001780: 00 01 2b 03 lw	s6, 0(sp)
0x80001784: 02 01 01 13 addi	sp, sp, 0x20
0x80001788: 00 00 80 67 ret
0x80000088: fe 85 e0 e3 bltu	a1, s0, -0x20
0x8000008c: 00 b4 14 63 bne	s0, a1, 8
0x80000090: fc 95 6c e3 bltu	a0, s1, -0x28
0x80000068: 00 81 05 93 addi	a1, sp, 8
0x8000006c: 00 60 05 13 addi	a0, zero, 6
0x80000070: 0e 00 10 ef jal	0x10e0
0x80001150: 00 25 15 13 slli	a0, a0, 2
0x80001154: 00 01 07 97 auipc	a5, 0x10
0x80001158: ae 87 87 93 addi	a5, a5, -0x518
0x8000115c: 00 a7 87 b3 add	a5, a5, a0
0x80001160: 00 07 a7 83 lw	a5, 0(a5)
0x80001164: 00 05 85 13 mv	a0, a1
0x80001168: 00 07 80 67 jr	a5
0x8000118c: a0 00 07 b7 lui	a5, 0xa0000
0x80001190: 04 c7 a7 03 lw	a4, 0x4c(a5)
0x80001194: 04 87 a7 83 lw	a5, 0x48(a5)
0x80001198: 00 e5 22 23 sw	a4, 4(a0)
0x8000119c: 00 f5 20 23 sw	a5, 0(a0)
0x800011a0: 00 00 80 67 ret
0x80000074: 00 81 25 03 lw	a0, 8(sp)
0x80000078: 00 c1 25 83 lw	a1, 0xc(sp)
0x8000007c: 00 09 06 13 mv	a2, s2
0x80000080: 00 09 86 93 mv	a3, s3
0x80000084: 1b 10 10 ef jal	0x19b0
0x80001a34: 00 00 07 13 mv	a4, zero
0x80001a38: cd 9f f0 6f j	-0x328
0x80001710: fe 01 01 13 addi	sp, sp, -0x20
0x80001714: 01 21 28 23 sw	s2, 0x10(sp)
0x80001718: 01 41 24 23 sw	s4, 8(sp)
0x8000171c: 01 51 22 23 sw	s5, 4(sp)
0x80001720: 01 61 20 23 sw	s6, 0(sp)
0x80001724: 00 11 2e 23 sw	ra, 0x1c(sp)
0x80001728: 00 81 2c 23 sw	s0, 0x18(sp)
0x8000172c: 00 91 2a 23 sw	s1, 0x14(sp)
0x80001730: 01 31 26 23 sw	s3, 0xc(sp)
0x80001734: 00 06 8a 93 mv	s5, a3
0x80001738: 00 05 09 13 mv	s2, a0
0x8000173c: 00 06 0b 13 mv	s6, a2
0x80001740: 00 07 0a 13 mv	s4, a4
0x80001744: 04 05 94 63 bnez	a1, 0x48
0x80001748: 18 06 98 63 bnez	a3, 0x190
0x8000174c: 00 07 08 63 beqz	a4, 0x10
0x8000175c: 03 69 55 33 divu	a0, s2, s6
0x80001760: 00 00 05 93 mv	a1, zero
0x80001764: 01 c1 20 83 lw	ra, 0x1c(sp)
0x80001768: 01 81 24 03 lw	s0, 0x18(sp)
0x8000176c: 01 41 24 83 lw	s1, 0x14(sp)
0x80001770: 01 01 29 03 lw	s2, 0x10(sp)
0x80001774: 00 c1 29 83 lw	s3, 0xc(sp)
0x80001778: 00 81 2a 03 lw	s4, 8(sp)
0x8000177c: 00 41 2a 83 lw	s5, 4(sp)
0x80001780: 00 01 2b 03 lw	s6, 0(sp)
0x80001784: 02 01 01 13 addi	sp, sp, 0x20
0x80001788: 00 00 80 67 ret
0x80000088: fe 85 e0 e3 bltu	a1, s0, -0x20
0x8000008c: 00 b4 14 63 bne	s0, a1, 8
0x80000090: fc 95 6c e3 bltu	a0, s1, -0x28
0x80000068: 00 81 05 93 addi	a1, sp, 8
0x8000006c: 00 60 05 13 addi	a0, zero, 6
0x80000070: 0e 00 10 ef jal	0x10e0
0x80001150: 00 25 15 13 slli	a0, a0, 2
0x80001154: 00 01 07 97 auipc	a5, 0x10
0x80001158: ae 87 87 93 addi	a5, a5, -0x518
0x8000115c: 00 a7 87 b3 add	a5, a5, a0
0x80001160: 00 07 a7 83 lw	a5, 0(a5)
0x80001164: 00 05 85 13 mv	a0, a1
0x80001168: 00 07 80 67 jr	a5
0x8000118c: a0 00 07 b7 lui	a5, 0xa0000
0x80001190: 04 c7 a7 03 lw	a4, 0x4c(a5)
0x80001194: 04 87 a7 83 lw	a5, 0x48(a5)
0x80001198: 00 e5 22 23 sw	a4, 4(a0)
0x8000119c: 00 f5 20 23 sw	a5, 0(a0)
0x800011a0: 00 00 80 67 ret
0x80000074: 00 81 25 03 lw	a0, 8(sp)
0x80000078: 00 c1 25 83 lw	a1, 0xc(sp)
0x8000007c: 00 09 06 13 mv	a2, s2
0x80000080: 00 09 86 93 mv	a3, s3
0x80000084: 1b 10 10 ef jal	0x19b0
0x80001a34: 00 00 07 13 mv	a4, zero
0x80001a38: cd 9f f0 6f j	-0x328
0x80001710: fe 01 01 13 addi	sp, sp, -0x20
0x80001714: 01 21 28 23 sw	s2, 0x10(sp)
0x80001718: 01 41 24 23 sw	s4, 8(sp)
0x8000171c: 01 51 22 23 sw	s5, 4(sp)
0x80001720: 01 61 20 23 sw	s6, 0(sp)
0x80001724: 00 11 2e 23 sw	ra, 0x1c(sp)
0x80001728: 00 81 2c 23 sw	s0, 0x18(sp)
0x8000172c: 00 91 2a 23 sw	s1, 0x14(sp)
0x80001730: 01 31 26 23 sw	s3, 0xc(sp)
0x80001734: 00 06 8a 93 mv	s5, a3
0x80001738: 00 05 09 13 mv	s2, a0
0x8000173c: 00 06 0b 13 mv	s6, a2
0x80001740: 00 07 0a 13 mv	s4, a4
0x80001744: 04 05 94 63 bnez	a1, 0x48
0x80001748: 18 06 98 63 bnez	a3, 0x190
0x8000174c: 00 07 08 63 beqz	a4, 0x10
0x8000175c: 03 69 55 33 divu	a0, s2, s6
0x80001760: 00 00 05 93 mv	a1, zero
0x80001764: 01 c1 20 83 lw	ra, 0x1c(sp)
0x80001768: 01 81 24 03 lw	s0, 0x18(sp)
0x8000176c: 01 41 24 83 lw	s1, 0x14(sp)
0x80001770: 01 01 29 03 lw	s2, 0x10(sp)
0x80001774: 00 c1 29 83 lw	s3, 0xc(sp)
0x80001778: 00 81 2a 03 lw	s4, 8(sp)
0x8000177c: 00 41 2a 83 lw	s5, 4(sp)
0x80001780: 00 01 2b 03 lw	s6, 0(sp)
0x80001784: 02 01 01 13 addi	sp, sp, 0x20
0x80001788: 00 00 80 67 ret
0x80000088: fe 85 e0 e3 bltu	a1, s0, -0x20
0x8000008c: 00 b4 14 63 bne	s0, a1, 8
0x80000090: fc 95 6c e3 bltu	a0, s1, -0x28
0x80000068: 00 81 05 93 addi	a1, sp, 8
0x8000006c: 00 60 05 13 addi	a0, zero, 6
0x80000070: 0e 00 10 ef jal	0x10e0
0x80001150: 00 25 15 13 slli	a0, a0, 2
0x80001154: 00 01 07 97 auipc	a5, 0x10
0x80001158: ae 87 87 93 addi	a5, a5, -0x518
0x8000115c: 00 a7 87 b3 add	a5, a5, a0
0x80001160: 00 07 a7 83 lw	a5, 0(a5)
0x80001164: 00 05 85 13 mv	a0, a1
0x80001168: 00 07 80 67 jr	a5
0x8000118c: a0 00 07 b7 lui	a5, 0xa0000
0x80001190: 04 c7 a7 03 lw	a4, 0x4c(a5)
0x80001194: 04 87 a7 83 lw	a5, 0x48(a5)
0x80001198: 00 e5 22 23 sw	a4, 4(a0)
0x8000119c: 00 f5 20 23 sw	a5, 0(a0)
0x800011a0: 00 00 80 67 ret
0x80000074: 00 81 25 03 lw	a0, 8(sp)
0x80000078: 00 c1 25 83 lw	a1, 0xc(sp)
0x8000007c: 00 09 06 13 mv	a2, s2
0x80000080: 00 09 86 93 mv	a3, s3
0x80000084: 1b 10 10 ef jal	0x19b0
0x80001a34: 00 00 07 13 mv	a4, zero
0x80001a38: cd 9f f0 6f j	-0x328
0x80001710: fe 01 01 13 addi	sp, sp, -0x20
0x80001714: 01 21 28 23 sw	s2, 0x10(sp)
0x80001718: 01 41 24 23 sw	s4, 8(sp)
0x8000171c: 01 51 22 23 sw	s5, 4(sp)
0x80001720: 01 61 20 23 sw	s6, 0(sp)
0x80001724: 00 11 2e 23 sw	ra, 0x1c(sp)
0x80001728: 00 81 2c 23 sw	s0, 0x18(sp)
0x8000172c: 00 91 2a 23 sw	s1, 0x14(sp)
0x80001730: 01 31 26 23 sw	s3, 0xc(sp)
0x80001734: 00 06 8a 93 mv	s5, a3
0x80001738: 00 05 09 13 mv	s2, a0
0x8000173c: 00 06 0b 13 mv	s6, a2
0x80001740: 00 07 0a 13 mv	s4, a4
0x80001744: 04 05 94 63 bnez	a1, 0x48
0x80001748: 18 06 98 63 bnez	a3, 0x190
0x8000174c: 00 07 08 63 beqz	a4, 0x10
0x8000175c: 03 69 55 33 divu	a0, s2, s6
0x80001760: 00 00 05 93 mv	a1, zero
0x80001764: 01 c1 20 83 lw	ra, 0x1c(sp)
0x80001768: 01 81 24 03 lw	s0, 0x18(sp)
0x8000176c: 01 41 24 83 lw	s1, 0x14(sp)
0x80001770: 01 01 29 03 lw	s2, 0x10(sp)
0x80001774: 00 c1 29 83 lw	s3, 0xc(sp)
0x80001778: 00 81 2a 03 lw	s4, 8(sp)
0x8000177c: 00 41 2a 83 lw	s5, 4(sp)
0x80001780: 00 01 2b 03 lw	s6, 0(sp)
0x80001784: 02 01 01 13 addi	sp, sp, 0x20
0x80001788: 00 00 80 67 ret
0x80000088: fe 85 e0 e3 bltu	a1, s0, -0x20
0x8000008c: 00 b4 14 63 bne	s0, a1, 8
0x80000090: fc 95 6c e3 bltu	a0, s1, -0x28
0x80000068: 00 81 05 93 addi	a1, sp, 8
0x8000006c: 00 60 05 13 addi	a0, zero, 6
0x80000070: 0e 00 10 ef jal	0x10e0
0x80001150: 00 25 15 13 slli	a0, a0, 2
0x80001154: 00 01 07 97 auipc	a5, 0x10
0x80001158: ae 87 87 93 addi	a5, a5, -0x518
0x8000115c: 00 a7 87 b3 add	a5, a5, a0
0x80001160: 00 07 a7 83 lw	a5, 0(a5)
0x80001164: 00 05 85 13 mv	a0, a1
0x80001168: 00 07 80 67 jr	a5
0x8000118c: a0 00 07 b7 lui	a5, 0xa0000
0x80001190: 04 c7 a7 03 lw	a4, 0x4c(a5)
0x80001194: 04 87 a7 83 lw	a5, 0x48(a5)
0x80001198: 00 e5 22 23 sw	a4, 4(a0)
0x8000119c: 00 f5 20 23 sw	a5, 0(a0)
0x800011a0: 00 00 80 67 ret
0x80000074: 00 81 25 03 lw	a0, 8(sp)
0x80000078: 00 c1 25 83 lw	a1, 0xc(sp)
0x8000007c: 00 09 06 13 mv	a2, s2
0x80000080: 00 09 86 93 mv	a3, s3
0x80000084: 1b 10 10 ef jal	0x19b0
0x80001a34: 00 00 07 13 mv	a4, zero
0x80001a38: cd 9f f0 6f j	-0x328
0x80001710: fe 01 01 13 addi	sp, sp, -0x20
0x80001714: 01 21 28 23 sw	s2, 0x10(sp)
0x80001718: 01 41 24 23 sw	s4, 8(sp)
0x8000171c: 01 51 22 23 sw	s5, 4(sp)
0x80001720: 01 61 20 23 sw	s6, 0(sp)
0x80001724: 00 11 2e 23 sw	ra, 0x1c(sp)
0x80001728: 00 81 2c 23 sw	s0, 0x18(sp)
0x8000172c: 00 91 2a 23 sw	s1, 0x14(sp)
0x80001730: 01 31 26 23 sw	s3, 0xc(sp)
0x80001734: 00 06 8a 93 mv	s5, a3
0x80001738: 00 05 09 13 mv	s2, a0
0x8000173c: 00 06 0b 13 mv	s6, a2
0x80001740: 00 07 0a 13 mv	s4, a4
0x80001744: 04 05 94 63 bnez	a1, 0x48
0x80001748: 18 06 98 63 bnez	a3, 0x190
0x8000174c: 00 07 08 63 beqz	a4, 0x10
0x8000175c: 03 69 55 33 divu	a0, s2, s6
0x80001760: 00 00 05 93 mv	a1, zero
0x80001764: 01 c1 20 83 lw	ra, 0x1c(sp)
0x80001768: 01 81 24 03 lw	s0, 0x18(sp)
0x8000176c: 01 41 24 83 lw	s1, 0x14(sp)
0x80001770: 01 01 29 03 lw	s2, 0x10(sp)
0x80001774: 00 c1 29 83 lw	s3, 0xc(sp)
0x80001778: 00 81 2a 03 lw	s4, 8(sp)
0x8000177c: 00 41 2a 83 lw	s5, 4(sp)
0x80001780: 00 01 2b 03 lw	s6, 0(sp)
0x80001784: 02 01 01 13 addi	sp, sp, 0x20
0x80001788: 00 00 80 67 ret
0x80000088: fe 85 e0 e3 bltu	a1, s0, -0x20
0x8000008c: 00 b4 14 63 bne	s0, a1, 8
0x80000090: fc 95 6c e3 bltu	a0, s1, -0x28
0x80000068: 00 81 05 93 addi	a1, sp, 8
0x8000006c: 00 60 05 13 addi	a0, zero, 6
0x80000070: 0e 00 10 ef jal	0x10e0
0x80001150: 00 25 15 13 slli	a0, a0, 2
0x80001154: 00 01 07 97 auipc	a5, 0x10
0x80001158: ae 87 87 93 addi	a5, a5, -0x518
0x8000115c: 00 a7 87 b3 add	a5, a5, a0
0x80001160: 00 07 a7 83 lw	a5, 0(a5)
0x80001164: 00 05 85 13 mv	a0, a1
0x80001168: 00 07 80 67 jr	a5
0x8000118c: a0 00 07 b7 lui	a5, 0xa0000
0x80001190: 04 c7 a7 03 lw	a4, 0x4c(a5)
0x80001194: 04 87 a7 83 lw	a5, 0x48(a5)
0x80001198: 00 e5 22 23 sw	a4, 4(a0)
0x8000119c: 00 f5 20 23 sw	a5, 0(a0)
0x800011a0: 00 00 80 67 ret
0x80000074: 00 81 25 03 lw	a0, 8(sp)
0x80000078: 00 c1 25 83 lw	a1, 0xc(sp)
0x8000007c: 00 09 06 13 mv	a2, s2
0x80000080: 00 09 86 93 mv	a3, s3
0x80000084: 1b 10 10 ef jal	0x19b0
0x80001a34: 00 00 07 13 mv	a4, zero
0x80001a38: cd 9f f0 6f j	-0x328
0x80001710: fe 01 01 13 addi	sp, sp, -0x20
0x80001714: 01 21 28 23 sw	s2, 0x10(sp)
0x80001718: 01 41 24 23 sw	s4, 8(sp)
0x8000171c: 01 51 22 23 sw	s5, 4(sp)
0x80001720: 01 61 20 23 sw	s6, 0(sp)
0x80001724: 00 11 2e 23 sw	ra, 0x1c(sp)
0x80001728: 00 81 2c 23 sw	s0, 0x18(sp)
0x8000172c: 00 91 2a 23 sw	s1, 0x14(sp)
0x80001730: 01 31 26 23 sw	s3, 0xc(sp)
0x80001734: 00 06 8a 93 mv	s5, a3
0x80001738: 00 05 09 13 mv	s2, a0
0x8000173c: 00 06 0b 13 mv	s6, a2
0x80001740: 00 07 0a 13 mv	s4, a4
0x80001744: 04 05 94 63 bnez	a1, 0x48
0x80001748: 18 06 98 63 bnez	a3, 0x190
0x8000174c: 00 07 08 63 beqz	a4, 0x10
0x8000175c: 03 69 55 33 divu	a0, s2, s6
0x80001760: 00 00 05 93 mv	a1, zero
0x80001764: 01 c1 20 83 lw	ra, 0x1c(sp)
0x80001768: 01 81 24 03 lw	s0, 0x18(sp)
0x8000176c: 01 41 24 83 lw	s1, 0x14(sp)
0x80001770: 01 01 29 03 lw	s2, 0x10(sp)
0x80001774: 00 c1 29 83 lw	s3, 0xc(sp)
0x80001778: 00 81 2a 03 lw	s4, 8(sp)
0x8000177c: 00 41 2a 83 lw	s5, 4(sp)
0x80001780: 00 01 2b 03 lw	s6, 0(sp)
0x80001784: 02 01 01 13 addi	sp, sp, 0x20
0x80001788: 00 00 80 67 ret
0x80000088: fe 85 e0 e3 bltu	a1, s0, -0x20
0x8000008c: 00 b4 14 63 bne	s0, a1, 8
0x80000090: fc 95 6c e3 bltu	a0, s1, -0x28
0x80000068: 00 81 05 93 addi	a1, sp, 8
0x8000006c: 00 60 05 13 addi	a0, zero, 6
0x80000070: 0e 00 10 ef jal	0x10e0
0x80001150: 00 25 15 13 slli	a0, a0, 2
0x80001154: 00 01 07 97 auipc	a5, 0x10
0x80001158: ae 87 87 93 addi	a5, a5, -0x518
0x8000115c: 00 a7 87 b3 add	a5, a5, a0
0x80001160: 00 07 a7 83 lw	a5, 0(a5)
0x80001164: 00 05 85 13 mv	a0, a1
0x80001168: 00 07 80 67 jr	a5
0x8000118c: a0 00 07 b7 lui	a5, 0xa0000
0x80001190: 04 c7 a7 03 lw	a4, 0x4c(a5)
0x80001194: 04 87 a7 83 lw	a5, 0x48(a5)
0x80001198: 00 e5 22 23 sw	a4, 4(a0)
0x8000119c: 00 f5 20 23 sw	a5, 0(a0)
0x800011a0: 00 00 80 67 ret
0x80000074: 00 81 25 03 lw	a0, 8(sp)
0x80000078: 00 c1 25 83 lw	a1, 0xc(sp)
0x8000007c: 00 09 06 13 mv	a2, s2
0x80000080: 00 09 86 93 mv	a3, s3
0x80000084: 1b 10 10 ef jal	0x19b0
0x80001a34: 00 00 07 13 mv	a4, zero
0x80001a38: cd 9f f0 6f j	-0x328
0x80001710: fe 01 01 13 addi	sp, sp, -0x20
0x80001714: 01 21 28 23 sw	s2, 0x10(sp)
0x80001718: 01 41 24 23 sw	s4, 8(sp)
0x8000171c: 01 51 22 23 sw	s5, 4(sp)
0x80001720: 01 61 20 23 sw	s6, 0(sp)
0x80001724: 00 11 2e 23 sw	ra, 0x1c(sp)
0x80001728: 00 81 2c 23 sw	s0, 0x18(sp)
0x8000172c: 00 91 2a 23 sw	s1, 0x14(sp)
0x80001730: 01 31 26 23 sw	s3, 0xc(sp)
0x80001734: 00 06 8a 93 mv	s5, a3
0x80001738: 00 05 09 13 mv	s2, a0
0x8000173c: 00 06 0b 13 mv	s6, a2
0x80001740: 00 07 0a 13 mv	s4, a4
0x80001744: 04 05 94 63 bnez	a1, 0x48
0x80001748: 18 06 98 63 bnez	a3, 0x190
0x8000174c: 00 07 08 63 beqz	a4, 0x10
0x8000175c: 03 69 55 33 divu	a0, s2, s6
0x80001760: 00 00 05 93 mv	a1, zero
0x80001764: 01 c1 20 83 lw	ra, 0x1c(sp)
0x80001768: 01 81 24 03 lw	s0, 0x18(sp)
0x8000176c: 01 41 24 83 lw	s1, 0x14(sp)
0x80001770: 01 01 29 03 lw	s2, 0x10(sp)
0x80001774: 00 c1 29 83 lw	s3, 0xc(sp)
0x80001778: 00 81 2a 03 lw	s4, 8(sp)
0x8000177c: 00 41 2a 83 lw	s5, 4(sp)
0x80001780: 00 01 2b 03 lw	s6, 0(sp)
0x80001784: 02 01 01 13 addi	sp, sp, 0x20
0x80001788: 00 00 80 67 ret
0x80000088: fe 85 e0 e3 bltu	a1, s0, -0x20
0x8000008c: 00 b4 14 63 bne	s0, a1, 8
0x80000090: fc 95 6c e3 bltu	a0, s1, -0x28
0x80000068: 00 81 05 93 addi	a1, sp, 8
0x8000006c: 00 60 05 13 addi	a0, zero, 6
0x80000070: 0e 00 10 ef jal	0x10e0
0x80001150: 00 25 15 13 slli	a0, a0, 2
0x80001154: 00 01 07 97 auipc	a5, 0x10
0x80001158: ae 87 87 93 addi	a5, a5, -0x518
0x8000115c: 00 a7 87 b3 add	a5, a5, a0
0x80001160: 00 07 a7 83 lw	a5, 0(a5)
0x80001164: 00 05 85 13 mv	a0, a1
0x80001168: 00 07 80 67 jr	a5
0x8000118c: a0 00 07 b7 lui	a5, 0xa0000
0x80001190: 04 c7 a7 03 lw	a4, 0x4c(a5)
0x80001194: 04 87 a7 83 lw	a5, 0x48(a5)
0x80001198: 00 e5 22 23 sw	a4, 4(a0)
0x8000119c: 00 f5 20 23 sw	a5, 0(a0)
0x800011a0: 00 00 80 67 ret
0x80000074: 00 81 25 03 lw	a0, 8(sp)
0x80000078: 00 c1 25 83 lw	a1, 0xc(sp)
0x8000007c: 00 09 06 13 mv	a2, s2
0x80000080: 00 09 86 93 mv	a3, s3
0x80000084: 1b 10 10 ef jal	0x19b0
0x80001a34: 00 00 07 13 mv	a4, zero
0x80001a38: cd 9f f0 6f j	-0x328
0x80001710: fe 01 01 13 addi	sp, sp, -0x20
0x80001714: 01 21 28 23 sw	s2, 0x10(sp)
0x80001718: 01 41 24 23 sw	s4, 8(sp)
0x8000171c: 01 51 22 23 sw	s5, 4(sp)
0x80001720: 01 61 20 23 sw	s6, 0(sp)
0x80001724: 00 11 2e 23 sw	ra, 0x1c(sp)
0x80001728: 00 81 2c 23 sw	s0, 0x18(sp)
0x8000172c: 00 91 2a 23 sw	s1, 0x14(sp)
0x80001730: 01 31 26 23 sw	s3, 0xc(sp)
0x80001734: 00 06 8a 93 mv	s5, a3
0x80001738: 00 05 09 13 mv	s2, a0
0x8000173c: 00 06 0b 13 mv	s6, a2
0x80001740: 00 07 0a 13 mv	s4, a4
0x80001744: 04 05 94 63 bnez	a1, 0x48
0x80001748: 18 06 98 63 bnez	a3, 0x190
0x8000174c: 00 07 08 63 beqz	a4, 0x10
0x8000175c: 03 69 55 33 divu	a0, s2, s6
0x80001760: 00 00 05 93 mv	a1, zero
0x80001764: 01 c1 20 83 lw	ra, 0x1c(sp)
0x80001768: 01 81 24 03 lw	s0, 0x18(sp)
0x8000176c: 01 41 24 83 lw	s1, 0x14(sp)
0x80001770: 01 01 29 03 lw	s2, 0x10(sp)
0x80001774: 00 c1 29 83 lw	s3, 0xc(sp)
0x80001778: 00 81 2a 03 lw	s4, 8(sp)
0x8000177c: 00 41 2a 83 lw	s5, 4(sp)
0x80001780: 00 01 2b 03 lw	s6, 0(sp)
0x80001784: 02 01 01 13 addi	sp, sp, 0x20
0x80001788: 00 00 80 67 ret
0x80000088: fe 85 e0 e3 bltu	a1, s0, -0x20
0x8000008c: 00 b4 14 63 bne	s0, a1, 8
0x80000090: fc 95 6c e3 bltu	a0, s1, -0x28
0x80000068: 00 81 05 93 addi	a1, sp, 8
0x8000006c: 00 60 05 13 addi	a0, zero, 6
0x80000070: 0e 00 10 ef jal	0x10e0
0x80001150: 00 25 15 13 slli	a0, a0, 2
0x80001154: 00 01 07 97 auipc	a5, 0x10
0x80001158: ae 87 87 93 addi	a5, a5, -0x518
0x8000115c: 00 a7 87 b3 add	a5, a5, a0
0x80001160: 00 07 a7 83 lw	a5, 0(a5)
0x80001164: 00 05 85 13 mv	a0, a1
0x80001168: 00 07 80 67 jr	a5
0x8000118c: a0 00 07 b7 lui	a5, 0xa0000
0x80001190: 04 c7 a7 03 lw	a4, 0x4c(a5)
0x80001194: 04 87 a7 83 lw	a5, 0x48(a5)
0x80001198: 00 e5 22 23 sw	a4, 4(a0)
0x8000119c: 00 f5 20 23 sw	a5, 0(a0)
0x800011a0: 00 00 80 67 ret
0x80000074: 00 81 25 03 lw	a0, 8(sp)
0x80000078: 00 c1 25 83 lw	a1, 0xc(sp)
0x8000007c: 00 09 06 13 mv	a2, s2
0x80000080: 00 09 86 93 mv	a3, s3
0x80000084: 1b 10 10 ef jal	0x19b0
0x80001a34: 00 00 07 13 mv	a4, zero
0x80001a38: cd 9f f0 6f j	-0x328
0x80001710: fe 01 01 13 addi	sp, sp, -0x20
0x80001714: 01 21 28 23 sw	s2, 0x10(sp)
0x80001718: 01 41 24 23 sw	s4, 8(sp)
0x8000171c: 01 51 22 23 sw	s5, 4(sp)
0x80001720: 01 61 20 23 sw	s6, 0(sp)
0x80001724: 00 11 2e 23 sw	ra, 0x1c(sp)
0x80001728: 00 81 2c 23 sw	s0, 0x18(sp)
0x8000172c: 00 91 2a 23 sw	s1, 0x14(sp)
0x80001730: 01 31 26 23 sw	s3, 0xc(sp)
0x80001734: 00 06 8a 93 mv	s5, a3
0x80001738: 00 05 09 13 mv	s2, a0
0x8000173c: 00 06 0b 13 mv	s6, a2
0x80001740: 00 07 0a 13 mv	s4, a4
0x80001744: 04 05 94 63 bnez	a1, 0x48
0x80001748: 18 06 98 63 bnez	a3, 0x190
0x8000174c: 00 07 08 63 beqz	a4, 0x10
0x8000175c: 03 69 55 33 divu	a0, s2, s6
0x80001760: 00 00 05 93 mv	a1, zero
0x80001764: 01 c1 20 83 lw	ra, 0x1c(sp)
0x80001768: 01 81 24 03 lw	s0, 0x18(sp)
0x8000176c: 01 41 24 83 lw	s1, 0x14(sp)
0x80001770: 01 01 29 03 lw	s2, 0x10(sp)
0x80001774: 00 c1 29 83 lw	s3, 0xc(sp)
0x80001778: 00 81 2a 03 lw	s4, 8(sp)
0x8000177c: 00 41 2a 83 lw	s5, 4(sp)
0x80001780: 00 01 2b 03 lw	s6, 0(sp)
0x80001784: 02 01 01 13 addi	sp, sp, 0x20
0x80001788: 00 00 80 67 ret
0x80000088: fe 85 e0 e3 bltu	a1, s0, -0x20
0x8000008c: 00 b4 14 63 bne	s0, a1, 8
0x80000090: fc 95 6c e3 bltu	a0, s1, -0x28
0x80000068: 00 81 05 93 addi	a1, sp, 8
0x8000006c: 00 60 05 13 addi	a0, zero, 6
0x80000070: 0e 00 10 ef jal	0x10e0
0x80001150: 00 25 15 13 slli	a0, a0, 2
0x80001154: 00 01 07 97 auipc	a5, 0x10
0x80001158: ae 87 87 93 addi	a5, a5, -0x518
0x8000115c: 00 a7 87 b3 add	a5, a5, a0
0x80001160: 00 07 a7 83 lw	a5, 0(a5)
0x80001164: 00 05 85 13 mv	a0, a1
0x80001168: 00 07 80 67 jr	a5
0x8000118c: a0 00 07 b7 lui	a5, 0xa0000
0x80001190: 04 c7 a7 03 lw	a4, 0x4c(a5)
0x80001194: 04 87 a7 83 lw	a5, 0x48(a5)
0x80001198: 00 e5 22 23 sw	a4, 4(a0)
0x8000119c: 00 f5 20 23 sw	a5, 0(a0)
0x800011a0: 00 00 80 67 ret
0x80000074: 00 81 25 03 lw	a0, 8(sp)
0x80000078: 00 c1 25 83 lw	a1, 0xc(sp)
0x8000007c: 00 09 06 13 mv	a2, s2
0x80000080: 00 09 86 93 mv	a3, s3
0x80000084: 1b 10 10 ef jal	0x19b0
0x80001a34: 00 00 07 13 mv	a4, zero
0x80001a38: cd 9f f0 6f j	-0x328
0x80001710: fe 01 01 13 addi	sp, sp, -0x20
0x80001714: 01 21 28 23 sw	s2, 0x10(sp)
0x80001718: 01 41 24 23 sw	s4, 8(sp)
0x8000171c: 01 51 22 23 sw	s5, 4(sp)
0x80001720: 01 61 20 23 sw	s6, 0(sp)
0x80001724: 00 11 2e 23 sw	ra, 0x1c(sp)
0x80001728: 00 81 2c 23 sw	s0, 0x18(sp)
0x8000172c: 00 91 2a 23 sw	s1, 0x14(sp)
0x80001730: 01 31 26 23 sw	s3, 0xc(sp)
0x80001734: 00 06 8a 93 mv	s5, a3
0x80001738: 00 05 09 13 mv	s2, a0
0x8000173c: 00 06 0b 13 mv	s6, a2
0x80001740: 00 07 0a 13 mv	s4, a4
0x80001744: 04 05 94 63 bnez	a1, 0x48
0x80001748: 18 06 98 63 bnez	a3, 0x190
0x8000174c: 00 07 08 63 beqz	a4, 0x10
0x8000175c: 03 69 55 33 divu	a0, s2, s6
0x80001760: 00 00 05 93 mv	a1, zero
0x80001764: 01 c1 20 83 lw	ra, 0x1c(sp)
0x80001768: 01 81 24 03 lw	s0, 0x18(sp)
0x8000176c: 01 41 24 83 lw	s1, 0x14(sp)
0x80001770: 01 01 29 03 lw	s2, 0x10(sp)
0x80001774: 00 c1 29 83 lw	s3, 0xc(sp)
0x80001778: 00 81 2a 03 lw	s4, 8(sp)
0x8000177c: 00 41 2a 83 lw	s5, 4(sp)
0x80001780: 00 01 2b 03 lw	s6, 0(sp)
0x80001784: 02 01 01 13 addi	sp, sp, 0x20
0x80001788: 00 00 80 67 ret
0x80000088: fe 85 e0 e3 bltu	a1, s0, -0x20
0x8000008c: 00 b4 14 63 bne	s0, a1, 8
0x80000090: fc 95 6c e3 bltu	a0, s1, -0x28
0x80000068: 00 81 05 93 addi	a1, sp, 8
0x8000006c: 00 60 05 13 addi	a0, zero, 6
0x80000070: 0e 00 10 ef jal	0x10e0
0x80001150: 00 25 15 13 slli	a0, a0, 2
0x80001154: 00 01 07 97 auipc	a5, 0x10
0x80001158: ae 87 87 93 addi	a5, a5, -0x518
0x8000115c: 00 a7 87 b3 add	a5, a5, a0
0x80001160: 00 07 a7 83 lw	a5, 0(a5)
0x80001164: 00 05 85 13 mv	a0, a1
0x80001168: 00 07 80 67 jr	a5
0x8000118c: a0 00 07 b7 lui	a5, 0xa0000
0x80001190: 04 c7 a7 03 lw	a4, 0x4c(a5)
0x80001194: 04 87 a7 83 lw	a5, 0x48(a5)
0x80001198: 00 e5 22 23 sw	a4, 4(a0)
0x8000119c: 00 f5 20 23 sw	a5, 0(a0)
0x800011a0: 00 00 80 67 ret
0x80000074: 00 81 25 03 lw	a0, 8(sp)
0x80000078: 00 c1 25 83 lw	a1, 0xc(sp)
0x8000007c: 00 09 06 13 mv	a2, s2
0x80000080: 00 09 86 93 mv	a3, s3
0x80000084: 1b 10 10 ef jal	0x19b0
0x80001a34: 00 00 07 13 mv	a4, zero
0x80001a38: cd 9f f0 6f j	-0x328
0x80001710: fe 01 01 13 addi	sp, sp, -0x20
0x80001714: 01 21 28 23 sw	s2, 0x10(sp)
0x80001718: 01 41 24 23 sw	s4, 8(sp)
0x8000171c: 01 51 22 23 sw	s5, 4(sp)
0x80001720: 01 61 20 23 sw	s6, 0(sp)
0x80001724: 00 11 2e 23 sw	ra, 0x1c(sp)
0x80001728: 00 81 2c 23 sw	s0, 0x18(sp)
0x8000172c: 00 91 2a 23 sw	s1, 0x14(sp)
0x80001730: 01 31 26 23 sw	s3, 0xc(sp)
0x80001734: 00 06 8a 93 mv	s5, a3
0x80001738: 00 05 09 13 mv	s2, a0
0x8000173c: 00 06 0b 13 mv	s6, a2
0x80001740: 00 07 0a 13 mv	s4, a4
0x80001744: 04 05 94 63 bnez	a1, 0x48
0x80001748: 18 06 98 63 bnez	a3, 0x190
0x8000174c: 00 07 08 63 beqz	a4, 0x10
0x8000175c: 03 69 55 33 divu	a0, s2, s6
0x80001760: 00 00 05 93 mv	a1, zero
0x80001764: 01 c1 20 83 lw	ra, 0x1c(sp)
0x80001768: 01 81 24 03 lw	s0, 0x18(sp)
0x8000176c: 01 41 24 83 lw	s1, 0x14(sp)
0x80001770: 01 01 29 03 lw	s2, 0x10(sp)
0x80001774: 00 c1 29 83 lw	s3, 0xc(sp)
0x80001778: 00 81 2a 03 lw	s4, 8(sp)
0x8000177c: 00 41 2a 83 lw	s5, 4(sp)
0x80001780: 00 01 2b 03 lw	s6, 0(sp)
0x80001784: 02 01 01 13 addi	sp, sp, 0x20
0x80001788: 00 00 80 67 ret
0x80000088: fe 85 e0 e3 bltu	a1, s0, -0x20
0x8000008c: 00 b4 14 63 bne	s0, a1, 8
0x80000090: fc 95 6c e3 bltu	a0, s1, -0x28
0x80000068: 00 81 05 93 addi	a1, sp, 8
0x8000006c: 00 60 05 13 addi	a0, zero, 6
0x80000070: 0e 00 10 ef jal	0x10e0
0x80001150: 00 25 15 13 slli	a0, a0, 2
0x80001154: 00 01 07 97 auipc	a5, 0x10
0x80001158: ae 87 87 93 addi	a5, a5, -0x518
0x8000115c: 00 a7 87 b3 add	a5, a5, a0
0x80001160: 00 07 a7 83 lw	a5, 0(a5)
0x80001164: 00 05 85 13 mv	a0, a1
0x80001168: 00 07 80 67 jr	a5
0x8000118c: a0 00 07 b7 lui	a5, 0xa0000
0x80001190: 04 c7 a7 03 lw	a4, 0x4c(a5)
0x80001194: 04 87 a7 83 lw	a5, 0x48(a5)
0x80001198: 00 e5 22 23 sw	a4, 4(a0)
0x8000119c: 00 f5 20 23 sw	a5, 0(a0)
0x800011a0: 00 00 80 67 ret
0x80000074: 00 81 25 03 lw	a0, 8(sp)
0x80000078: 00 c1 25 83 lw	a1, 0xc(sp)
0x8000007c: 00 09 06 13 mv	a2, s2
0x80000080: 00 09 86 93 mv	a3, s3
0x80000084: 1b 10 10 ef jal	0x19b0
0x80001a34: 00 00 07 13 mv	a4, zero
0x80001a38: cd 9f f0 6f j	-0x328
0x80001710: fe 01 01 13 addi	sp, sp, -0x20
0x80001714: 01 21 28 23 sw	s2, 0x10(sp)
0x80001718: 01 41 24 23 sw	s4, 8(sp)
0x8000171c: 01 51 22 23 sw	s5, 4(sp)
0x80001720: 01 61 20 23 sw	s6, 0(sp)
0x80001724: 00 11 2e 23 sw	ra, 0x1c(sp)
0x80001728: 00 81 2c 23 sw	s0, 0x18(sp)
0x8000172c: 00 91 2a 23 sw	s1, 0x14(sp)
0x80001730: 01 31 26 23 sw	s3, 0xc(sp)
0x80001734: 00 06 8a 93 mv	s5, a3
0x80001738: 00 05 09 13 mv	s2, a0
0x8000173c: 00 06 0b 13 mv	s6, a2
0x80001740: 00 07 0a 13 mv	s4, a4
0x80001744: 04 05 94 63 bnez	a1, 0x48
0x80001748: 18 06 98 63 bnez	a3, 0x190
0x8000174c: 00 07 08 63 beqz	a4, 0x10
0x8000175c: 03 69 55 33 divu	a0, s2, s6
0x80001760: 00 00 05 93 mv	a1, zero
0x80001764: 01 c1 20 83 lw	ra, 0x1c(sp)
0x80001768: 01 81 24 03 lw	s0, 0x18(sp)
0x8000176c: 01 41 24 83 lw	s1, 0x14(sp)
0x80001770: 01 01 29 03 lw	s2, 0x10(sp)
0x80001774: 00 c1 29 83 lw	s3, 0xc(sp)
0x80001778: 00 81 2a 03 lw	s4, 8(sp)
0x8000177c: 00 41 2a 83 lw	s5, 4(sp)
0x80001780: 00 01 2b 03 lw	s6, 0(sp)
0x80001784: 02 01 01 13 addi	sp, sp, 0x20
0x80001788: 00 00 80 67 ret
0x80000088: fe 85 e0 e3 bltu	a1, s0, -0x20
0x8000008c: 00 b4 14 63 bne	s0, a1, 8
0x80000090: fc 95 6c e3 bltu	a0, s1, -0x28
0x80000068: 00 81 05 93 addi	a1, sp, 8
0x8000006c: 00 60 05 13 addi	a0, zero, 6
0x80000070: 0e 00 10 ef jal	0x10e0
0x80001150: 00 25 15 13 slli	a0, a0, 2
0x80001154: 00 01 07 97 auipc	a5, 0x10
0x80001158: ae 87 87 93 addi	a5, a5, -0x518
0x8000115c: 00 a7 87 b3 add	a5, a5, a0
0x80001160: 00 07 a7 83 lw	a5, 0(a5)
0x80001164: 00 05 85 13 mv	a0, a1
0x80001168: 00 07 80 67 jr	a5
0x8000118c: a0 00 07 b7 lui	a5, 0xa0000
0x80001190: 04 c7 a7 03 lw	a4, 0x4c(a5)
0x80001194: 04 87 a7 83 lw	a5, 0x48(a5)
0x80001198: 00 e5 22 23 sw	a4, 4(a0)
0x8000119c: 00 f5 20 23 sw	a5, 0(a0)
0x800011a0: 00 00 80 67 ret
0x80000074: 00 81 25 03 lw	a0, 8(sp)
0x80000078: 00 c1 25 83 lw	a1, 0xc(sp)
0x8000007c: 00 09 06 13 mv	a2, s2
0x80000080: 00 09 86 93 mv	a3, s3
0x80000084: 1b 10 10 ef jal	0x19b0
0x80001a34: 00 00 07 13 mv	a4, zero
0x80001a38: cd 9f f0 6f j	-0x328
0x80001710: fe 01 01 13 addi	sp, sp, -0x20
0x80001714: 01 21 28 23 sw	s2, 0x10(sp)
0x80001718: 01 41 24 23 sw	s4, 8(sp)
0x8000171c: 01 51 22 23 sw	s5, 4(sp)
0x80001720: 01 61 20 23 sw	s6, 0(sp)
0x80001724: 00 11 2e 23 sw	ra, 0x1c(sp)
0x80001728: 00 81 2c 23 sw	s0, 0x18(sp)
0x8000172c: 00 91 2a 23 sw	s1, 0x14(sp)
0x80001730: 01 31 26 23 sw	s3, 0xc(sp)
0x80001734: 00 06 8a 93 mv	s5, a3
0x80001738: 00 05 09 13 mv	s2, a0
0x8000173c: 00 06 0b 13 mv	s6, a2
0x80001740: 00 07 0a 13 mv	s4, a4
0x80001744: 04 05 94 63 bnez	a1, 0x48
0x80001748: 18 06 98 63 bnez	a3, 0x190
0x8000174c: 00 07 08 63 beqz	a4, 0x10
0x8000175c: 03 69 55 33 divu	a0, s2, s6
0x80001760: 00 00 05 93 mv	a1, zero
0x80001764: 01 c1 20 83 lw	ra, 0x1c(sp)
0x80001768: 01 81 24 03 lw	s0, 0x18(sp)
0x8000176c: 01 41 24 83 lw	s1, 0x14(sp)
0x80001770: 01 01 29 03 lw	s2, 0x10(sp)
0x80001774: 00 c1 29 83 lw	s3, 0xc(sp)
0x80001778: 00 81 2a 03 lw	s4, 8(sp)
0x8000177c: 00 41 2a 83 lw	s5, 4(sp)
0x80001780: 00 01 2b 03 lw	s6, 0(sp)
0x80001784: 02 01 01 13 addi	sp, sp, 0x20
0x80001788: 00 00 80 67 ret
0x80000088: fe 85 e0 e3 bltu	a1, s0, -0x20
0x8000008c: 00 b4 14 63 bne	s0, a1, 8
0x80000090: fc 95 6c e3 bltu	a0, s1, -0x28
0x80000068: 00 81 05 93 addi	a1, sp, 8
0x8000006c: 00 60 05 13 addi	a0, zero, 6
0x80000070: 0e 00 10 ef jal	0x10e0
0x80001150: 00 25 15 13 slli	a0, a0, 2
0x80001154: 00 01 07 97 auipc	a5, 0x10
0x80001158: ae 87 87 93 addi	a5, a5, -0x518
0x8000115c: 00 a7 87 b3 add	a5, a5, a0
0x80001160: 00 07 a7 83 lw	a5, 0(a5)
0x80001164: 00 05 85 13 mv	a0, a1
0x80001168: 00 07 80 67 jr	a5
0x8000118c: a0 00 07 b7 lui	a5, 0xa0000
0x80001190: 04 c7 a7 03 lw	a4, 0x4c(a5)
0x80001194: 04 87 a7 83 lw	a5, 0x48(a5)
0x80001198: 00 e5 22 23 sw	a4, 4(a0)
0x8000119c: 00 f5 20 23 sw	a5, 0(a0)
0x800011a0: 00 00 80 67 ret
0x80000074: 00 81 25 03 lw	a0, 8(sp)
0x80000078: 00 c1 25 83 lw	a1, 0xc(sp)
0x8000007c: 00 09 06 13 mv	a2, s2
0x80000080: 00 09 86 93 mv	a3, s3
0x80000084: 1b 10 10 ef jal	0x19b0
0x80001a34: 00 00 07 13 mv	a4, zero
0x80001a38: cd 9f f0 6f j	-0x328
0x80001710: fe 01 01 13 addi	sp, sp, -0x20
0x80001714: 01 21 28 23 sw	s2, 0x10(sp)
0x80001718: 01 41 24 23 sw	s4, 8(sp)
0x8000171c: 01 51 22 23 sw	s5, 4(sp)
0x80001720: 01 61 20 23 sw	s6, 0(sp)
0x80001724: 00 11 2e 23 sw	ra, 0x1c(sp)
0x80001728: 00 81 2c 23 sw	s0, 0x18(sp)
0x8000172c: 00 91 2a 23 sw	s1, 0x14(sp)
0x80001730: 01 31 26 23 sw	s3, 0xc(sp)
0x80001734: 00 06 8a 93 mv	s5, a3
0x80001738: 00 05 09 13 mv	s2, a0
0x8000173c: 00 06 0b 13 mv	s6, a2
0x80001740: 00 07 0a 13 mv	s4, a4
0x80001744: 04 05 94 63 bnez	a1, 0x48
0x80001748: 18 06 98 63 bnez	a3, 0x190
0x8000174c: 00 07 08 63 beqz	a4, 0x10
0x8000175c: 03 69 55 33 divu	a0, s2, s6
0x80001760: 00 00 05 93 mv	a1, zero
0x80001764: 01 c1 20 83 lw	ra, 0x1c(sp)
0x80001768: 01 81 24 03 lw	s0, 0x18(sp)
0x8000176c: 01 41 24 83 lw	s1, 0x14(sp)
0x80001770: 01 01 29 03 lw	s2, 0x10(sp)
0x80001774: 00 c1 29 83 lw	s3, 0xc(sp)
0x80001778: 00 81 2a 03 lw	s4, 8(sp)
0x8000177c: 00 41 2a 83 lw	s5, 4(sp)
0x80001780: 00 01 2b 03 lw	s6, 0(sp)
0x80001784: 02 01 01 13 addi	sp, sp, 0x20
0x80001788: 00 00 80 67 ret
0x80000088: fe 85 e0 e3 bltu	a1, s0, -0x20
0x8000008c: 00 b4 14 63 bne	s0, a1, 8
0x80000090: fc 95 6c e3 bltu	a0, s1, -0x28
0x80000068: 00 81 05 93 addi	a1, sp, 8
0x8000006c: 00 60 05 13 addi	a0, zero, 6
0x80000070: 0e 00 10 ef jal	0x10e0
0x80001150: 00 25 15 13 slli	a0, a0, 2
0x80001154: 00 01 07 97 auipc	a5, 0x10
0x80001158: ae 87 87 93 addi	a5, a5, -0x518
0x8000115c: 00 a7 87 b3 add	a5, a5, a0
0x80001160: 00 07 a7 83 lw	a5, 0(a5)
0x80001164: 00 05 85 13 mv	a0, a1
0x80001168: 00 07 80 67 jr	a5
0x8000118c: a0 00 07 b7 lui	a5, 0xa0000
0x80001190: 04 c7 a7 03 lw	a4, 0x4c(a5)
0x80001194: 04 87 a7 83 lw	a5, 0x48(a5)
0x80001198: 00 e5 22 23 sw	a4, 4(a0)
0x8000119c: 00 f5 20 23 sw	a5, 0(a0)
0x800011a0: 00 00 80 67 ret
0x80000074: 00 81 25 03 lw	a0, 8(sp)
0x80000078: 00 c1 25 83 lw	a1, 0xc(sp)
0x8000007c: 00 09 06 13 mv	a2, s2
0x80000080: 00 09 86 93 mv	a3, s3
0x80000084: 1b 10 10 ef jal	0x19b0
0x80001a34: 00 00 07 13 mv	a4, zero
0x80001a38: cd 9f f0 6f j	-0x328
0x80001710: fe 01 01 13 addi	sp, sp, -0x20
0x80001714: 01 21 28 23 sw	s2, 0x10(sp)
0x80001718: 01 41 24 23 sw	s4, 8(sp)
0x8000171c: 01 51 22 23 sw	s5, 4(sp)
0x80001720: 01 61 20 23 sw	s6, 0(sp)
0x80001724: 00 11 2e 23 sw	ra, 0x1c(sp)
0x80001728: 00 81 2c 23 sw	s0, 0x18(sp)
0x8000172c: 00 91 2a 23 sw	s1, 0x14(sp)
0x80001730: 01 31 26 23 sw	s3, 0xc(sp)
0x80001734: 00 06 8a 93 mv	s5, a3
0x80001738: 00 05 09 13 mv	s2, a0
0x8000173c: 00 06 0b 13 mv	s6, a2
0x80001740: 00 07 0a 13 mv	s4, a4
0x80001744: 04 05 94 63 bnez	a1, 0x48
0x80001748: 18 06 98 63 bnez	a3, 0x190
0x8000174c: 00 07 08 63 beqz	a4, 0x10
0x8000175c: 03 69 55 33 divu	a0, s2, s6
0x80001760: 00 00 05 93 mv	a1, zero
0x80001764: 01 c1 20 83 lw	ra, 0x1c(sp)
0x80001768: 01 81 24 03 lw	s0, 0x18(sp)
0x8000176c: 01 41 24 83 lw	s1, 0x14(sp)
0x80001770: 01 01 29 03 lw	s2, 0x10(sp)
0x80001774: 00 c1 29 83 lw	s3, 0xc(sp)
0x80001778: 00 81 2a 03 lw	s4, 8(sp)
0x8000177c: 00 41 2a 83 lw	s5, 4(sp)
0x80001780: 00 01 2b 03 lw	s6, 0(sp)
0x80001784: 02 01 01 13 addi	sp, sp, 0x20
0x80001788: 00 00 80 67 ret
0x80000088: fe 85 e0 e3 bltu	a1, s0, -0x20
0x8000008c: 00 b4 14 63 bne	s0, a1, 8
0x80000090: fc 95 6c e3 bltu	a0, s1, -0x28
0x80000068: 00 81 05 93 addi	a1, sp, 8
0x8000006c: 00 60 05 13 addi	a0, zero, 6
0x80000070: 0e 00 10 ef jal	0x10e0
0x80001150: 00 25 15 13 slli	a0, a0, 2
0x80001154: 00 01 07 97 auipc	a5, 0x10
0x80001158: ae 87 87 93 addi	a5, a5, -0x518
0x8000115c: 00 a7 87 b3 add	a5, a5, a0
0x80001160: 00 07 a7 83 lw	a5, 0(a5)
0x80001164: 00 05 85 13 mv	a0, a1
0x80001168: 00 07 80 67 jr	a5
0x8000118c: a0 00 07 b7 lui	a5, 0xa0000
0x80001190: 04 c7 a7 03 lw	a4, 0x4c(a5)
0x80001194: 04 87 a7 83 lw	a5, 0x48(a5)
0x80001198: 00 e5 22 23 sw	a4, 4(a0)
0x8000119c: 00 f5 20 23 sw	a5, 0(a0)
0x800011a0: 00 00 80 67 ret
0x80000074: 00 81 25 03 lw	a0, 8(sp)
0x80000078: 00 c1 25 83 lw	a1, 0xc(sp)
0x8000007c: 00 09 06 13 mv	a2, s2
0x80000080: 00 09 86 93 mv	a3, s3
0x80000084: 1b 10 10 ef jal	0x19b0
0x80001a34: 00 00 07 13 mv	a4, zero
0x80001a38: cd 9f f0 6f j	-0x328
0x80001710: fe 01 01 13 addi	sp, sp, -0x20
0x80001714: 01 21 28 23 sw	s2, 0x10(sp)
0x80001718: 01 41 24 23 sw	s4, 8(sp)
0x8000171c: 01 51 22 23 sw	s5, 4(sp)
0x80001720: 01 61 20 23 sw	s6, 0(sp)
0x80001724: 00 11 2e 23 sw	ra, 0x1c(sp)
0x80001728: 00 81 2c 23 sw	s0, 0x18(sp)
0x8000172c: 00 91 2a 23 sw	s1, 0x14(sp)
0x80001730: 01 31 26 23 sw	s3, 0xc(sp)
0x80001734: 00 06 8a 93 mv	s5, a3
0x80001738: 00 05 09 13 mv	s2, a0
0x8000173c: 00 06 0b 13 mv	s6, a2
0x80001740: 00 07 0a 13 mv	s4, a4
0x80001744: 04 05 94 63 bnez	a1, 0x48
0x80001748: 18 06 98 63 bnez	a3, 0x190
0x8000174c: 00 07 08 63 beqz	a4, 0x10
0x8000175c: 03 69 55 33 divu	a0, s2, s6
0x80001760: 00 00 05 93 mv	a1, zero
0x80001764: 01 c1 20 83 lw	ra, 0x1c(sp)
0x80001768: 01 81 24 03 lw	s0, 0x18(sp)
0x8000176c: 01 41 24 83 lw	s1, 0x14(sp)
0x80001770: 01 01 29 03 lw	s2, 0x10(sp)
0x80001774: 00 c1 29 83 lw	s3, 0xc(sp)
0x80001778: 00 81 2a 03 lw	s4, 8(sp)
0x8000177c: 00 41 2a 83 lw	s5, 4(sp)
0x80001780: 00 01 2b 03 lw	s6, 0(sp)
0x80001784: 02 01 01 13 addi	sp, sp, 0x20
0x80001788: 00 00 80 67 ret
0x80000088: fe 85 e0 e3 bltu	a1, s0, -0x20
0x8000008c: 00 b4 14 63 bne	s0, a1, 8
0x80000090: fc 95 6c e3 bltu	a0, s1, -0x28
0x80000068: 00 81 05 93 addi	a1, sp, 8
0x8000006c: 00 60 05 13 addi	a0, zero, 6
0x80000070: 0e 00 10 ef jal	0x10e0
0x80001150: 00 25 15 13 slli	a0, a0, 2
0x80001154: 00 01 07 97 auipc	a5, 0x10
0x80001158: ae 87 87 93 addi	a5, a5, -0x518
0x8000115c: 00 a7 87 b3 add	a5, a5, a0
0x80001160: 00 07 a7 83 lw	a5, 0(a5)
0x80001164: 00 05 85 13 mv	a0, a1
0x80001168: 00 07 80 67 jr	a5
0x8000118c: a0 00 07 b7 lui	a5, 0xa0000
0x80001190: 04 c7 a7 03 lw	a4, 0x4c(a5)
0x80001194: 04 87 a7 83 lw	a5, 0x48(a5)
0x80001198: 00 e5 22 23 sw	a4, 4(a0)
0x8000119c: 00 f5 20 23 sw	a5, 0(a0)
0x800011a0: 00 00 80 67 ret
0x80000074: 00 81 25 03 lw	a0, 8(sp)
0x80000078: 00 c1 25 83 lw	a1, 0xc(sp)
0x8000007c: 00 09 06 13 mv	a2, s2
0x80000080: 00 09 86 93 mv	a3, s3
0x80000084: 1b 10 10 ef jal	0x19b0
0x80001a34: 00 00 07 13 mv	a4, zero
0x80001a38: cd 9f f0 6f j	-0x328
0x80001710: fe 01 01 13 addi	sp, sp, -0x20
0x80001714: 01 21 28 23 sw	s2, 0x10(sp)
0x80001718: 01 41 24 23 sw	s4, 8(sp)
0x8000171c: 01 51 22 23 sw	s5, 4(sp)
0x80001720: 01 61 20 23 sw	s6, 0(sp)
0x80001724: 00 11 2e 23 sw	ra, 0x1c(sp)
0x80001728: 00 81 2c 23 sw	s0, 0x18(sp)
0x8000172c: 00 91 2a 23 sw	s1, 0x14(sp)
0x80001730: 01 31 26 23 sw	s3, 0xc(sp)
0x80001734: 00 06 8a 93 mv	s5, a3
0x80001738: 00 05 09 13 mv	s2, a0
0x8000173c: 00 06 0b 13 mv	s6, a2
0x80001740: 00 07 0a 13 mv	s4, a4
0x80001744: 04 05 94 63 bnez	a1, 0x48
0x80001748: 18 06 98 63 bnez	a3, 0x190
0x8000174c: 00 07 08 63 beqz	a4, 0x10
0x8000175c: 03 69 55 33 divu	a0, s2, s6
0x80001760: 00 00 05 93 mv	a1, zero
0x80001764: 01 c1 20 83 lw	ra, 0x1c(sp)
0x80001768: 01 81 24 03 lw	s0, 0x18(sp)
0x8000176c: 01 41 24 83 lw	s1, 0x14(sp)
0x80001770: 01 01 29 03 lw	s2, 0x10(sp)
0x80001774: 00 c1 29 83 lw	s3, 0xc(sp)
0x80001778: 00 81 2a 03 lw	s4, 8(sp)
0x8000177c: 00 41 2a 83 lw	s5, 4(sp)
0x80001780: 00 01 2b 03 lw	s6, 0(sp)
0x80001784: 02 01 01 13 addi	sp, sp, 0x20
0x80001788: 00 00 80 67 ret
0x80000088: fe 85 e0 e3 bltu	a1, s0, -0x20
0x8000008c: 00 b4 14 63 bne	s0, a1, 8
0x80000090: fc 95 6c e3 bltu	a0, s1, -0x28
0x80000068: 00 81 05 93 addi	a1, sp, 8
0x8000006c: 00 60 05 13 addi	a0, zero, 6
0x80000070: 0e 00 10 ef jal	0x10e0
0x80001150: 00 25 15 13 slli	a0, a0, 2
0x80001154: 00 01 07 97 auipc	a5, 0x10
0x80001158: ae 87 87 93 addi	a5, a5, -0x518
0x8000115c: 00 a7 87 b3 add	a5, a5, a0
0x80001160: 00 07 a7 83 lw	a5, 0(a5)
0x80001164: 00 05 85 13 mv	a0, a1
0x80001168: 00 07 80 67 jr	a5
0x8000118c: a0 00 07 b7 lui	a5, 0xa0000
0x80001190: 04 c7 a7 03 lw	a4, 0x4c(a5)
0x80001194: 04 87 a7 83 lw	a5, 0x48(a5)
0x80001198: 00 e5 22 23 sw	a4, 4(a0)
0x8000119c: 00 f5 20 23 sw	a5, 0(a0)
0x800011a0: 00 00 80 67 ret
0x80000074: 00 81 25 03 lw	a0, 8(sp)
0x80000078: 00 c1 25 83 lw	a1, 0xc(sp)
0x8000007c: 00 09 06 13 mv	a2, s2
0x80000080: 00 09 86 93 mv	a3, s3
0x80000084: 1b 10 10 ef jal	0x19b0
0x80001a34: 00 00 07 13 mv	a4, zero
0x80001a38: cd 9f f0 6f j	-0x328
0x80001710: fe 01 01 13 addi	sp, sp, -0x20
0x80001714: 01 21 28 23 sw	s2, 0x10(sp)
0x80001718: 01 41 24 23 sw	s4, 8(sp)
0x8000171c: 01 51 22 23 sw	s5, 4(sp)
0x80001720: 01 61 20 23 sw	s6, 0(sp)
0x80001724: 00 11 2e 23 sw	ra, 0x1c(sp)
0x80001728: 00 81 2c 23 sw	s0, 0x18(sp)
0x8000172c: 00 91 2a 23 sw	s1, 0x14(sp)
0x80001730: 01 31 26 23 sw	s3, 0xc(sp)
0x80001734: 00 06 8a 93 mv	s5, a3
0x80001738: 00 05 09 13 mv	s2, a0
0x8000173c: 00 06 0b 13 mv	s6, a2
0x80001740: 00 07 0a 13 mv	s4, a4
0x80001744: 04 05 94 63 bnez	a1, 0x48
0x80001748: 18 06 98 63 bnez	a3, 0x190
0x8000174c: 00 07 08 63 beqz	a4, 0x10
0x8000175c: 03 69 55 33 divu	a0, s2, s6
0x80001760: 00 00 05 93 mv	a1, zero
0x80001764: 01 c1 20 83 lw	ra, 0x1c(sp)
0x80001768: 01 81 24 03 lw	s0, 0x18(sp)
0x8000176c: 01 41 24 83 lw	s1, 0x14(sp)
0x80001770: 01 01 29 03 lw	s2, 0x10(sp)
0x80001774: 00 c1 29 83 lw	s3, 0xc(sp)
0x80001778: 00 81 2a 03 lw	s4, 8(sp)
0x8000177c: 00 41 2a 83 lw	s5, 4(sp)
0x80001780: 00 01 2b 03 lw	s6, 0(sp)
0x80001784: 02 01 01 13 addi	sp, sp, 0x20
0x80001788: 00 00 80 67 ret
0x80000088: fe 85 e0 e3 bltu	a1, s0, -0x20
0x8000008c: 00 b4 14 63 bne	s0, a1, 8
0x80000090: fc 95 6c e3 bltu	a0, s1, -0x28
0x80000068: 00 81 05 93 addi	a1, sp, 8
0x8000006c: 00 60 05 13 addi	a0, zero, 6
0x80000070: 0e 00 10 ef jal	0x10e0
0x80001150: 00 25 15 13 slli	a0, a0, 2
0x80001154: 00 01 07 97 auipc	a5, 0x10
0x80001158: ae 87 87 93 addi	a5, a5, -0x518
0x8000115c: 00 a7 87 b3 add	a5, a5, a0
0x80001160: 00 07 a7 83 lw	a5, 0(a5)
0x80001164: 00 05 85 13 mv	a0, a1
0x80001168: 00 07 80 67 jr	a5
0x8000118c: a0 00 07 b7 lui	a5, 0xa0000
0x80001190: 04 c7 a7 03 lw	a4, 0x4c(a5)
0x80001194: 04 87 a7 83 lw	a5, 0x48(a5)
0x80001198: 00 e5 22 23 sw	a4, 4(a0)
0x8000119c: 00 f5 20 23 sw	a5, 0(a0)
0x800011a0: 00 00 80 67 ret
0x80000074: 00 81 25 03 lw	a0, 8(sp)
0x80000078: 00 c1 25 83 lw	a1, 0xc(sp)
0x8000007c: 00 09 06 13 mv	a2, s2
0x80000080: 00 09 86 93 mv	a3, s3
0x80000084: 1b 10 10 ef jal	0x19b0
0x80001a34: 00 00 07 13 mv	a4, zero
0x80001a38: cd 9f f0 6f j	-0x328
0x80001710: fe 01 01 13 addi	sp, sp, -0x20
0x80001714: 01 21 28 23 sw	s2, 0x10(sp)
0x80001718: 01 41 24 23 sw	s4, 8(sp)
0x8000171c: 01 51 22 23 sw	s5, 4(sp)
0x80001720: 01 61 20 23 sw	s6, 0(sp)
0x80001724: 00 11 2e 23 sw	ra, 0x1c(sp)
0x80001728: 00 81 2c 23 sw	s0, 0x18(sp)
0x8000172c: 00 91 2a 23 sw	s1, 0x14(sp)
0x80001730: 01 31 26 23 sw	s3, 0xc(sp)
0x80001734: 00 06 8a 93 mv	s5, a3
0x80001738: 00 05 09 13 mv	s2, a0
0x8000173c: 00 06 0b 13 mv	s6, a2
0x80001740: 00 07 0a 13 mv	s4, a4
0x80001744: 04 05 94 63 bnez	a1, 0x48
0x80001748: 18 06 98 63 bnez	a3, 0x190
0x8000174c: 00 07 08 63 beqz	a4, 0x10
0x8000175c: 03 69 55 33 divu	a0, s2, s6
0x80001760: 00 00 05 93 mv	a1, zero
0x80001764: 01 c1 20 83 lw	ra, 0x1c(sp)
0x80001768: 01 81 24 03 lw	s0, 0x18(sp)
0x8000176c: 01 41 24 83 lw	s1, 0x14(sp)
0x80001770: 01 01 29 03 lw	s2, 0x10(sp)
0x80001774: 00 c1 29 83 lw	s3, 0xc(sp)
0x80001778: 00 81 2a 03 lw	s4, 8(sp)
0x8000177c: 00 41 2a 83 lw	s5, 4(sp)
0x80001780: 00 01 2b 03 lw	s6, 0(sp)
0x80001784: 02 01 01 13 addi	sp, sp, 0x20
0x80001788: 00 00 80 67 ret
0x80000088: fe 85 e0 e3 bltu	a1, s0, -0x20
0x8000008c: 00 b4 14 63 bne	s0, a1, 8
0x80000090: fc 95 6c e3 bltu	a0, s1, -0x28
0x80000068: 00 81 05 93 addi	a1, sp, 8
0x8000006c: 00 60 05 13 addi	a0, zero, 6
0x80000070: 0e 00 10 ef jal	0x10e0
0x80001150: 00 25 15 13 slli	a0, a0, 2
0x80001154: 00 01 07 97 auipc	a5, 0x10
0x80001158: ae 87 87 93 addi	a5, a5, -0x518
0x8000115c: 00 a7 87 b3 add	a5, a5, a0
0x80001160: 00 07 a7 83 lw	a5, 0(a5)
0x80001164: 00 05 85 13 mv	a0, a1
0x80001168: 00 07 80 67 jr	a5
0x8000118c: a0 00 07 b7 lui	a5, 0xa0000
0x80001190: 04 c7 a7 03 lw	a4, 0x4c(a5)
0x80001194: 04 87 a7 83 lw	a5, 0x48(a5)
0x80001198: 00 e5 22 23 sw	a4, 4(a0)
0x8000119c: 00 f5 20 23 sw	a5, 0(a0)
0x800011a0: 00 00 80 67 ret
0x80000074: 00 81 25 03 lw	a0, 8(sp)
0x80000078: 00 c1 25 83 lw	a1, 0xc(sp)
0x8000007c: 00 09 06 13 mv	a2, s2
0x80000080: 00 09 86 93 mv	a3, s3
0x80000084: 1b 10 10 ef jal	0x19b0
0x80001a34: 00 00 07 13 mv	a4, zero
0x80001a38: cd 9f f0 6f j	-0x328
0x80001710: fe 01 01 13 addi	sp, sp, -0x20
0x80001714: 01 21 28 23 sw	s2, 0x10(sp)
0x80001718: 01 41 24 23 sw	s4, 8(sp)
0x8000171c: 01 51 22 23 sw	s5, 4(sp)
0x80001720: 01 61 20 23 sw	s6, 0(sp)
0x80001724: 00 11 2e 23 sw	ra, 0x1c(sp)
0x80001728: 00 81 2c 23 sw	s0, 0x18(sp)
0x8000172c: 00 91 2a 23 sw	s1, 0x14(sp)
0x80001730: 01 31 26 23 sw	s3, 0xc(sp)
0x80001734: 00 06 8a 93 mv	s5, a3
0x80001738: 00 05 09 13 mv	s2, a0
0x8000173c: 00 06 0b 13 mv	s6, a2
0x80001740: 00 07 0a 13 mv	s4, a4
0x80001744: 04 05 94 63 bnez	a1, 0x48
0x80001748: 18 06 98 63 bnez	a3, 0x190
0x8000174c: 00 07 08 63 beqz	a4, 0x10
0x8000175c: 03 69 55 33 divu	a0, s2, s6
0x80001760: 00 00 05 93 mv	a1, zero
0x80001764: 01 c1 20 83 lw	ra, 0x1c(sp)
0x80001768: 01 81 24 03 lw	s0, 0x18(sp)
0x8000176c: 01 41 24 83 lw	s1, 0x14(sp)
0x80001770: 01 01 29 03 lw	s2, 0x10(sp)
0x80001774: 00 c1 29 83 lw	s3, 0xc(sp)
0x80001778: 00 81 2a 03 lw	s4, 8(sp)
0x8000177c: 00 41 2a 83 lw	s5, 4(sp)
0x80001780: 00 01 2b 03 lw	s6, 0(sp)
0x80001784: 02 01 01 13 addi	sp, sp, 0x20
0x80001788: 00 00 80 67 ret
0x80000088: fe 85 e0 e3 bltu	a1, s0, -0x20
0x8000008c: 00 b4 14 63 bne	s0, a1, 8
0x80000090: fc 95 6c e3 bltu	a0, s1, -0x28
0x80000068: 00 81 05 93 addi	a1, sp, 8
0x8000006c: 00 60 05 13 addi	a0, zero, 6
0x80000070: 0e 00 10 ef jal	0x10e0
0x80001150: 00 25 15 13 slli	a0, a0, 2
0x80001154: 00 01 07 97 auipc	a5, 0x10
0x80001158: ae 87 87 93 addi	a5, a5, -0x518
0x8000115c: 00 a7 87 b3 add	a5, a5, a0
0x80001160: 00 07 a7 83 lw	a5, 0(a5)
0x80001164: 00 05 85 13 mv	a0, a1
0x80001168: 00 07 80 67 jr	a5
0x8000118c: a0 00 07 b7 lui	a5, 0xa0000
0x80001190: 04 c7 a7 03 lw	a4, 0x4c(a5)
0x80001194: 04 87 a7 83 lw	a5, 0x48(a5)
0x80001198: 00 e5 22 23 sw	a4, 4(a0)
0x8000119c: 00 f5 20 23 sw	a5, 0(a0)
0x800011a0: 00 00 80 67 ret
0x80000074: 00 81 25 03 lw	a0, 8(sp)
0x80000078: 00 c1 25 83 lw	a1, 0xc(sp)
0x8000007c: 00 09 06 13 mv	a2, s2
0x80000080: 00 09 86 93 mv	a3, s3
0x80000084: 1b 10 10 ef jal	0x19b0
0x80001a34: 00 00 07 13 mv	a4, zero
0x80001a38: cd 9f f0 6f j	-0x328
0x80001710: fe 01 01 13 addi	sp, sp, -0x20
0x80001714: 01 21 28 23 sw	s2, 0x10(sp)
0x80001718: 01 41 24 23 sw	s4, 8(sp)
0x8000171c: 01 51 22 23 sw	s5, 4(sp)
0x80001720: 01 61 20 23 sw	s6, 0(sp)
0x80001724: 00 11 2e 23 sw	ra, 0x1c(sp)
0x80001728: 00 81 2c 23 sw	s0, 0x18(sp)
0x8000172c: 00 91 2a 23 sw	s1, 0x14(sp)
0x80001730: 01 31 26 23 sw	s3, 0xc(sp)
0x80001734: 00 06 8a 93 mv	s5, a3
0x80001738: 00 05 09 13 mv	s2, a0
0x8000173c: 00 06 0b 13 mv	s6, a2
0x80001740: 00 07 0a 13 mv	s4, a4
0x80001744: 04 05 94 63 bnez	a1, 0x48
0x80001748: 18 06 98 63 bnez	a3, 0x190
0x8000174c: 00 07 08 63 beqz	a4, 0x10
0x8000175c: 03 69 55 33 divu	a0, s2, s6
0x80001760: 00 00 05 93 mv	a1, zero
0x80001764: 01 c1 20 83 lw	ra, 0x1c(sp)
0x80001768: 01 81 24 03 lw	s0, 0x18(sp)
0x8000176c: 01 41 24 83 lw	s1, 0x14(sp)
0x80001770: 01 01 29 03 lw	s2, 0x10(sp)
0x80001774: 00 c1 29 83 lw	s3, 0xc(sp)
0x80001778: 00 81 2a 03 lw	s4, 8(sp)
0x8000177c: 00 41 2a 83 lw	s5, 4(sp)
0x80001780: 00 01 2b 03 lw	s6, 0(sp)
0x80001784: 02 01 01 13 addi	sp, sp, 0x20
0x80001788: 00 00 80 67 ret
0x80000088: fe 85 e0 e3 bltu	a1, s0, -0x20
0x8000008c: 00 b4 14 63 bne	s0, a1, 8
0x80000090: fc 95 6c e3 bltu	a0, s1, -0x28
0x80000068: 00 81 05 93 addi	a1, sp, 8
0x8000006c: 00 60 05 13 addi	a0, zero, 6
0x80000070: 0e 00 10 ef jal	0x10e0
0x80001150: 00 25 15 13 slli	a0, a0, 2
0x80001154: 00 01 07 97 auipc	a5, 0x10
0x80001158: ae 87 87 93 addi	a5, a5, -0x518
0x8000115c: 00 a7 87 b3 add	a5, a5, a0
0x80001160: 00 07 a7 83 lw	a5, 0(a5)
0x80001164: 00 05 85 13 mv	a0, a1
0x80001168: 00 07 80 67 jr	a5
0x8000118c: a0 00 07 b7 lui	a5, 0xa0000
0x80001190: 04 c7 a7 03 lw	a4, 0x4c(a5)
0x80001194: 04 87 a7 83 lw	a5, 0x48(a5)
0x80001198: 00 e5 22 23 sw	a4, 4(a0)
0x8000119c: 00 f5 20 23 sw	a5, 0(a0)
0x800011a0: 00 00 80 67 ret
0x80000074: 00 81 25 03 lw	a0, 8(sp)
0x80000078: 00 c1 25 83 lw	a1, 0xc(sp)
0x8000007c: 00 09 06 13 mv	a2, s2
0x80000080: 00 09 86 93 mv	a3, s3
0x80000084: 1b 10 10 ef jal	0x19b0
0x80001a34: 00 00 07 13 mv	a4, zero
0x80001a38: cd 9f f0 6f j	-0x328
0x80001710: fe 01 01 13 addi	sp, sp, -0x20
0x80001714: 01 21 28 23 sw	s2, 0x10(sp)
0x80001718: 01 41 24 23 sw	s4, 8(sp)
0x8000171c: 01 51 22 23 sw	s5, 4(sp)
0x80001720: 01 61 20 23 sw	s6, 0(sp)
0x80001724: 00 11 2e 23 sw	ra, 0x1c(sp)
0x80001728: 00 81 2c 23 sw	s0, 0x18(sp)
0x8000172c: 00 91 2a 23 sw	s1, 0x14(sp)
0x80001730: 01 31 26 23 sw	s3, 0xc(sp)
0x80001734: 00 06 8a 93 mv	s5, a3
0x80001738: 00 05 09 13 mv	s2, a0
0x8000173c: 00 06 0b 13 mv	s6, a2
0x80001740: 00 07 0a 13 mv	s4, a4
0x80001744: 04 05 94 63 bnez	a1, 0x48
0x80001748: 18 06 98 63 bnez	a3, 0x190
0x8000174c: 00 07 08 63 beqz	a4, 0x10
0x8000175c: 03 69 55 33 divu	a0, s2, s6
0x80001760: 00 00 05 93 mv	a1, zero
0x80001764: 01 c1 20 83 lw	ra, 0x1c(sp)
0x80001768: 01 81 24 03 lw	s0, 0x18(sp)
0x8000176c: 01 41 24 83 lw	s1, 0x14(sp)
0x80001770: 01 01 29 03 lw	s2, 0x10(sp)
0x80001774: 00 c1 29 83 lw	s3, 0xc(sp)
0x80001778: 00 81 2a 03 lw	s4, 8(sp)
0x8000177c: 00 41 2a 83 lw	s5, 4(sp)
0x80001780: 00 01 2b 03 lw	s6, 0(sp)
0x80001784: 02 01 01 13 addi	sp, sp, 0x20
0x80001788: 00 00 80 67 ret
0x80000088: fe 85 e0 e3 bltu	a1, s0, -0x20
0x8000008c: 00 b4 14 63 bne	s0, a1, 8
0x80000090: fc 95 6c e3 bltu	a0, s1, -0x28
0x80000068: 00 81 05 93 addi	a1, sp, 8
0x8000006c: 00 60 05 13 addi	a0, zero, 6
0x80000070: 0e 00 10 ef jal	0x10e0
0x80001150: 00 25 15 13 slli	a0, a0, 2
0x80001154: 00 01 07 97 auipc	a5, 0x10
0x80001158: ae 87 87 93 addi	a5, a5, -0x518
0x8000115c: 00 a7 87 b3 add	a5, a5, a0
0x80001160: 00 07 a7 83 lw	a5, 0(a5)
0x80001164: 00 05 85 13 mv	a0, a1
0x80001168: 00 07 80 67 jr	a5
0x8000118c: a0 00 07 b7 lui	a5, 0xa0000
0x80001190: 04 c7 a7 03 lw	a4, 0x4c(a5)
0x80001194: 04 87 a7 83 lw	a5, 0x48(a5)
0x80001198: 00 e5 22 23 sw	a4, 4(a0)
0x8000119c: 00 f5 20 23 sw	a5, 0(a0)
0x800011a0: 00 00 80 67 ret
0x80000074: 00 81 25 03 lw	a0, 8(sp)
0x80000078: 00 c1 25 83 lw	a1, 0xc(sp)
0x8000007c: 00 09 06 13 mv	a2, s2
0x80000080: 00 09 86 93 mv	a3, s3
0x80000084: 1b 10 10 ef jal	0x19b0
0x80001a34: 00 00 07 13 mv	a4, zero
0x80001a38: cd 9f f0 6f j	-0x328
0x80001710: fe 01 01 13 addi	sp, sp, -0x20
0x80001714: 01 21 28 23 sw	s2, 0x10(sp)
0x80001718: 01 41 24 23 sw	s4, 8(sp)
0x8000171c: 01 51 22 23 sw	s5, 4(sp)
0x80001720: 01 61 20 23 sw	s6, 0(sp)
0x80001724: 00 11 2e 23 sw	ra, 0x1c(sp)
0x80001728: 00 81 2c 23 sw	s0, 0x18(sp)
0x8000172c: 00 91 2a 23 sw	s1, 0x14(sp)
0x80001730: 01 31 26 23 sw	s3, 0xc(sp)
0x80001734: 00 06 8a 93 mv	s5, a3
0x80001738: 00 05 09 13 mv	s2, a0
0x8000173c: 00 06 0b 13 mv	s6, a2
0x80001740: 00 07 0a 13 mv	s4, a4
0x80001744: 04 05 94 63 bnez	a1, 0x48
0x80001748: 18 06 98 63 bnez	a3, 0x190
0x8000174c: 00 07 08 63 beqz	a4, 0x10
0x8000175c: 03 69 55 33 divu	a0, s2, s6
0x80001760: 00 00 05 93 mv	a1, zero
0x80001764: 01 c1 20 83 lw	ra, 0x1c(sp)
0x80001768: 01 81 24 03 lw	s0, 0x18(sp)
0x8000176c: 01 41 24 83 lw	s1, 0x14(sp)
0x80001770: 01 01 29 03 lw	s2, 0x10(sp)
0x80001774: 00 c1 29 83 lw	s3, 0xc(sp)
0x80001778: 00 81 2a 03 lw	s4, 8(sp)
0x8000177c: 00 41 2a 83 lw	s5, 4(sp)
0x80001780: 00 01 2b 03 lw	s6, 0(sp)
0x80001784: 02 01 01 13 addi	sp, sp, 0x20
0x80001788: 00 00 80 67 ret
0x80000088: fe 85 e0 e3 bltu	a1, s0, -0x20
0x8000008c: 00 b4 14 63 bne	s0, a1, 8
0x80000090: fc 95 6c e3 bltu	a0, s1, -0x28
0x80000068: 00 81 05 93 addi	a1, sp, 8
0x8000006c: 00 60 05 13 addi	a0, zero, 6
0x80000070: 0e 00 10 ef jal	0x10e0
0x80001150: 00 25 15 13 slli	a0, a0, 2
0x80001154: 00 01 07 97 auipc	a5, 0x10
0x80001158: ae 87 87 93 addi	a5, a5, -0x518
0x8000115c: 00 a7 87 b3 add	a5, a5, a0
0x80001160: 00 07 a7 83 lw	a5, 0(a5)
0x80001164: 00 05 85 13 mv	a0, a1
0x80001168: 00 07 80 67 jr	a5
0x8000118c: a0 00 07 b7 lui	a5, 0xa0000
0x80001190: 04 c7 a7 03 lw	a4, 0x4c(a5)
0x80001194: 04 87 a7 83 lw	a5, 0x48(a5)
0x80001198: 00 e5 22 23 sw	a4, 4(a0)
0x8000119c: 00 f5 20 23 sw	a5, 0(a0)
0x800011a0: 00 00 80 67 ret
0x80000074: 00 81 25 03 lw	a0, 8(sp)
0x80000078: 00 c1 25 83 lw	a1, 0xc(sp)
0x8000007c: 00 09 06 13 mv	a2, s2
0x80000080: 00 09 86 93 mv	a3, s3
0x80000084: 1b 10 10 ef jal	0x19b0
0x80001a34: 00 00 07 13 mv	a4, zero
0x80001a38: cd 9f f0 6f j	-0x328
0x80001710: fe 01 01 13 addi	sp, sp, -0x20
0x80001714: 01 21 28 23 sw	s2, 0x10(sp)
0x80001718: 01 41 24 23 sw	s4, 8(sp)
0x8000171c: 01 51 22 23 sw	s5, 4(sp)
0x80001720: 01 61 20 23 sw	s6, 0(sp)
0x80001724: 00 11 2e 23 sw	ra, 0x1c(sp)
0x80001728: 00 81 2c 23 sw	s0, 0x18(sp)
0x8000172c: 00 91 2a 23 sw	s1, 0x14(sp)
0x80001730: 01 31 26 23 sw	s3, 0xc(sp)
0x80001734: 00 06 8a 93 mv	s5, a3
0x80001738: 00 05 09 13 mv	s2, a0
0x8000173c: 00 06 0b 13 mv	s6, a2
0x80001740: 00 07 0a 13 mv	s4, a4
0x80001744: 04 05 94 63 bnez	a1, 0x48
0x80001748: 18 06 98 63 bnez	a3, 0x190
0x8000174c: 00 07 08 63 beqz	a4, 0x10
0x8000175c: 03 69 55 33 divu	a0, s2, s6
0x80001760: 00 00 05 93 mv	a1, zero
0x80001764: 01 c1 20 83 lw	ra, 0x1c(sp)
0x80001768: 01 81 24 03 lw	s0, 0x18(sp)
0x8000176c: 01 41 24 83 lw	s1, 0x14(sp)
0x80001770: 01 01 29 03 lw	s2, 0x10(sp)
0x80001774: 00 c1 29 83 lw	s3, 0xc(sp)
0x80001778: 00 81 2a 03 lw	s4, 8(sp)
0x8000177c: 00 41 2a 83 lw	s5, 4(sp)
0x80001780: 00 01 2b 03 lw	s6, 0(sp)
0x80001784: 02 01 01 13 addi	sp, sp, 0x20
0x80001788: 00 00 80 67 ret
0x80000088: fe 85 e0 e3 bltu	a1, s0, -0x20
0x8000008c: 00 b4 14 63 bne	s0, a1, 8
0x80000090: fc 95 6c e3 bltu	a0, s1, -0x28
0x80000068: 00 81 05 93 addi	a1, sp, 8
0x8000006c: 00 60 05 13 addi	a0, zero, 6
0x80000070: 0e 00 10 ef jal	0x10e0
0x80001150: 00 25 15 13 slli	a0, a0, 2
0x80001154: 00 01 07 97 auipc	a5, 0x10
0x80001158: ae 87 87 93 addi	a5, a5, -0x518
0x8000115c: 00 a7 87 b3 add	a5, a5, a0
0x80001160: 00 07 a7 83 lw	a5, 0(a5)
0x80001164: 00 05 85 13 mv	a0, a1
0x80001168: 00 07 80 67 jr	a5
0x8000118c: a0 00 07 b7 lui	a5, 0xa0000
0x80001190: 04 c7 a7 03 lw	a4, 0x4c(a5)
0x80001194: 04 87 a7 83 lw	a5, 0x48(a5)
0x80001198: 00 e5 22 23 sw	a4, 4(a0)
0x8000119c: 00 f5 20 23 sw	a5, 0(a0)
0x800011a0: 00 00 80 67 ret
0x80000074: 00 81 25 03 lw	a0, 8(sp)
0x80000078: 00 c1 25 83 lw	a1, 0xc(sp)
0x8000007c: 00 09 06 13 mv	a2, s2
0x80000080: 00 09 86 93 mv	a3, s3
0x80000084: 1b 10 10 ef jal	0x19b0
0x80001a34: 00 00 07 13 mv	a4, zero
0x80001a38: cd 9f f0 6f j	-0x328
0x80001710: fe 01 01 13 addi	sp, sp, -0x20
0x80001714: 01 21 28 23 sw	s2, 0x10(sp)
0x80001718: 01 41 24 23 sw	s4, 8(sp)
0x8000171c: 01 51 22 23 sw	s5, 4(sp)
0x80001720: 01 61 20 23 sw	s6, 0(sp)
0x80001724: 00 11 2e 23 sw	ra, 0x1c(sp)
0x80001728: 00 81 2c 23 sw	s0, 0x18(sp)
0x8000172c: 00 91 2a 23 sw	s1, 0x14(sp)
0x80001730: 01 31 26 23 sw	s3, 0xc(sp)
0x80001734: 00 06 8a 93 mv	s5, a3
0x80001738: 00 05 09 13 mv	s2, a0
0x8000173c: 00 06 0b 13 mv	s6, a2
0x80001740: 00 07 0a 13 mv	s4, a4
0x80001744: 04 05 94 63 bnez	a1, 0x48
0x80001748: 18 06 98 63 bnez	a3, 0x190
0x8000174c: 00 07 08 63 beqz	a4, 0x10
0x8000175c: 03 69 55 33 divu	a0, s2, s6
0x80001760: 00 00 05 93 mv	a1, zero
0x80001764: 01 c1 20 83 lw	ra, 0x1c(sp)
0x80001768: 01 81 24 03 lw	s0, 0x18(sp)
0x8000176c: 01 41 24 83 lw	s1, 0x14(sp)
0x80001770: 01 01 29 03 lw	s2, 0x10(sp)
0x80001774: 00 c1 29 83 lw	s3, 0xc(sp)
0x80001778: 00 81 2a 03 lw	s4, 8(sp)
0x8000177c: 00 41 2a 83 lw	s5, 4(sp)
0x80001780: 00 01 2b 03 lw	s6, 0(sp)
0x80001784: 02 01 01 13 addi	sp, sp, 0x20
0x80001788: 00 00 80 67 ret
0x80000088: fe 85 e0 e3 bltu	a1, s0, -0x20
0x8000008c: 00 b4 14 63 bne	s0, a1, 8
0x80000090: fc 95 6c e3 bltu	a0, s1, -0x28
0x80000068: 00 81 05 93 addi	a1, sp, 8
0x8000006c: 00 60 05 13 addi	a0, zero, 6
0x80000070: 0e 00 10 ef jal	0x10e0
0x80001150: 00 25 15 13 slli	a0, a0, 2
0x80001154: 00 01 07 97 auipc	a5, 0x10
0x80001158: ae 87 87 93 addi	a5, a5, -0x518
0x8000115c: 00 a7 87 b3 add	a5, a5, a0
0x80001160: 00 07 a7 83 lw	a5, 0(a5)
0x80001164: 00 05 85 13 mv	a0, a1
0x80001168: 00 07 80 67 jr	a5
0x8000118c: a0 00 07 b7 lui	a5, 0xa0000
0x80001190: 04 c7 a7 03 lw	a4, 0x4c(a5)
0x80001194: 04 87 a7 83 lw	a5, 0x48(a5)
0x80001198: 00 e5 22 23 sw	a4, 4(a0)
0x8000119c: 00 f5 20 23 sw	a5, 0(a0)
0x800011a0: 00 00 80 67 ret
0x80000074: 00 81 25 03 lw	a0, 8(sp)
0x80000078: 00 c1 25 83 lw	a1, 0xc(sp)
0x8000007c: 00 09 06 13 mv	a2, s2
0x80000080: 00 09 86 93 mv	a3, s3
0x80000084: 1b 10 10 ef jal	0x19b0
0x80001a34: 00 00 07 13 mv	a4, zero
0x80001a38: cd 9f f0 6f j	-0x328
0x80001710: fe 01 01 13 addi	sp, sp, -0x20
0x80001714: 01 21 28 23 sw	s2, 0x10(sp)
0x80001718: 01 41 24 23 sw	s4, 8(sp)
0x8000171c: 01 51 22 23 sw	s5, 4(sp)
0x80001720: 01 61 20 23 sw	s6, 0(sp)
0x80001724: 00 11 2e 23 sw	ra, 0x1c(sp)
0x80001728: 00 81 2c 23 sw	s0, 0x18(sp)
0x8000172c: 00 91 2a 23 sw	s1, 0x14(sp)
0x80001730: 01 31 26 23 sw	s3, 0xc(sp)
0x80001734: 00 06 8a 93 mv	s5, a3
0x80001738: 00 05 09 13 mv	s2, a0
0x8000173c: 00 06 0b 13 mv	s6, a2
0x80001740: 00 07 0a 13 mv	s4, a4
0x80001744: 04 05 94 63 bnez	a1, 0x48
0x80001748: 18 06 98 63 bnez	a3, 0x190
0x8000174c: 00 07 08 63 beqz	a4, 0x10
0x8000175c: 03 69 55 33 divu	a0, s2, s6
0x80001760: 00 00 05 93 mv	a1, zero
0x80001764: 01 c1 20 83 lw	ra, 0x1c(sp)
0x80001768: 01 81 24 03 lw	s0, 0x18(sp)
0x8000176c: 01 41 24 83 lw	s1, 0x14(sp)
0x80001770: 01 01 29 03 lw	s2, 0x10(sp)
0x80001774: 00 c1 29 83 lw	s3, 0xc(sp)
0x80001778: 00 81 2a 03 lw	s4, 8(sp)
0x8000177c: 00 41 2a 83 lw	s5, 4(sp)
0x80001780: 00 01 2b 03 lw	s6, 0(sp)
0x80001784: 02 01 01 13 addi	sp, sp, 0x20
0x80001788: 00 00 80 67 ret
0x80000088: fe 85 e0 e3 bltu	a1, s0, -0x20
0x8000008c: 00 b4 14 63 bne	s0, a1, 8
0x80000090: fc 95 6c e3 bltu	a0, s1, -0x28
0x80000068: 00 81 05 93 addi	a1, sp, 8
0x8000006c: 00 60 05 13 addi	a0, zero, 6
0x80000070: 0e 00 10 ef jal	0x10e0
0x80001150: 00 25 15 13 slli	a0, a0, 2
0x80001154: 00 01 07 97 auipc	a5, 0x10
0x80001158: ae 87 87 93 addi	a5, a5, -0x518
0x8000115c: 00 a7 87 b3 add	a5, a5, a0
0x80001160: 00 07 a7 83 lw	a5, 0(a5)
0x80001164: 00 05 85 13 mv	a0, a1
0x80001168: 00 07 80 67 jr	a5
0x8000118c: a0 00 07 b7 lui	a5, 0xa0000
0x80001190: 04 c7 a7 03 lw	a4, 0x4c(a5)
0x80001194: 04 87 a7 83 lw	a5, 0x48(a5)
0x80001198: 00 e5 22 23 sw	a4, 4(a0)
0x8000119c: 00 f5 20 23 sw	a5, 0(a0)
0x800011a0: 00 00 80 67 ret
0x80000074: 00 81 25 03 lw	a0, 8(sp)
0x80000078: 00 c1 25 83 lw	a1, 0xc(sp)
0x8000007c: 00 09 06 13 mv	a2, s2
0x80000080: 00 09 86 93 mv	a3, s3
0x80000084: 1b 10 10 ef jal	0x19b0
0x80001a34: 00 00 07 13 mv	a4, zero
0x80001a38: cd 9f f0 6f j	-0x328
0x80001710: fe 01 01 13 addi	sp, sp, -0x20
0x80001714: 01 21 28 23 sw	s2, 0x10(sp)
0x80001718: 01 41 24 23 sw	s4, 8(sp)
0x8000171c: 01 51 22 23 sw	s5, 4(sp)
0x80001720: 01 61 20 23 sw	s6, 0(sp)
0x80001724: 00 11 2e 23 sw	ra, 0x1c(sp)
0x80001728: 00 81 2c 23 sw	s0, 0x18(sp)
0x8000172c: 00 91 2a 23 sw	s1, 0x14(sp)
0x80001730: 01 31 26 23 sw	s3, 0xc(sp)
0x80001734: 00 06 8a 93 mv	s5, a3
0x80001738: 00 05 09 13 mv	s2, a0
0x8000173c: 00 06 0b 13 mv	s6, a2
0x80001740: 00 07 0a 13 mv	s4, a4
0x80001744: 04 05 94 63 bnez	a1, 0x48
0x80001748: 18 06 98 63 bnez	a3, 0x190
0x8000174c: 00 07 08 63 beqz	a4, 0x10
0x8000175c: 03 69 55 33 divu	a0, s2, s6
0x80001760: 00 00 05 93 mv	a1, zero
0x80001764: 01 c1 20 83 lw	ra, 0x1c(sp)
0x80001768: 01 81 24 03 lw	s0, 0x18(sp)
0x8000176c: 01 41 24 83 lw	s1, 0x14(sp)
0x80001770: 01 01 29 03 lw	s2, 0x10(sp)
0x80001774: 00 c1 29 83 lw	s3, 0xc(sp)
0x80001778: 00 81 2a 03 lw	s4, 8(sp)
0x8000177c: 00 41 2a 83 lw	s5, 4(sp)
0x80001780: 00 01 2b 03 lw	s6, 0(sp)
0x80001784: 02 01 01 13 addi	sp, sp, 0x20
0x80001788: 00 00 80 67 ret
0x80000088: fe 85 e0 e3 bltu	a1, s0, -0x20
0x8000008c: 00 b4 14 63 bne	s0, a1, 8
0x80000090: fc 95 6c e3 bltu	a0, s1, -0x28
0x80000068: 00 81 05 93 addi	a1, sp, 8
0x8000006c: 00 60 05 13 addi	a0, zero, 6
0x80000070: 0e 00 10 ef jal	0x10e0
0x80001150: 00 25 15 13 slli	a0, a0, 2
0x80001154: 00 01 07 97 auipc	a5, 0x10
0x80001158: ae 87 87 93 addi	a5, a5, -0x518
0x8000115c: 00 a7 87 b3 add	a5, a5, a0
0x80001160: 00 07 a7 83 lw	a5, 0(a5)
0x80001164: 00 05 85 13 mv	a0, a1
0x80001168: 00 07 80 67 jr	a5
0x8000118c: a0 00 07 b7 lui	a5, 0xa0000
0x80001190: 04 c7 a7 03 lw	a4, 0x4c(a5)
0x80001194: 04 87 a7 83 lw	a5, 0x48(a5)
0x80001198: 00 e5 22 23 sw	a4, 4(a0)
0x8000119c: 00 f5 20 23 sw	a5, 0(a0)
0x800011a0: 00 00 80 67 ret
0x80000074: 00 81 25 03 lw	a0, 8(sp)
0x80000078: 00 c1 25 83 lw	a1, 0xc(sp)
0x8000007c: 00 09 06 13 mv	a2, s2
0x80000080: 00 09 86 93 mv	a3, s3
0x80000084: 1b 10 10 ef jal	0x19b0
0x80001a34: 00 00 07 13 mv	a4, zero
0x80001a38: cd 9f f0 6f j	-0x328
0x80001710: fe 01 01 13 addi	sp, sp, -0x20
0x80001714: 01 21 28 23 sw	s2, 0x10(sp)
0x80001718: 01 41 24 23 sw	s4, 8(sp)
0x8000171c: 01 51 22 23 sw	s5, 4(sp)
0x80001720: 01 61 20 23 sw	s6, 0(sp)
0x80001724: 00 11 2e 23 sw	ra, 0x1c(sp)
0x80001728: 00 81 2c 23 sw	s0, 0x18(sp)
0x8000172c: 00 91 2a 23 sw	s1, 0x14(sp)
0x80001730: 01 31 26 23 sw	s3, 0xc(sp)
0x80001734: 00 06 8a 93 mv	s5, a3
0x80001738: 00 05 09 13 mv	s2, a0
0x8000173c: 00 06 0b 13 mv	s6, a2
0x80001740: 00 07 0a 13 mv	s4, a4
0x80001744: 04 05 94 63 bnez	a1, 0x48
0x80001748: 18 06 98 63 bnez	a3, 0x190
0x8000174c: 00 07 08 63 beqz	a4, 0x10
0x8000175c: 03 69 55 33 divu	a0, s2, s6
0x80001760: 00 00 05 93 mv	a1, zero
0x80001764: 01 c1 20 83 lw	ra, 0x1c(sp)
0x80001768: 01 81 24 03 lw	s0, 0x18(sp)
0x8000176c: 01 41 24 83 lw	s1, 0x14(sp)
0x80001770: 01 01 29 03 lw	s2, 0x10(sp)
0x80001774: 00 c1 29 83 lw	s3, 0xc(sp)
0x80001778: 00 81 2a 03 lw	s4, 8(sp)
0x8000177c: 00 41 2a 83 lw	s5, 4(sp)
0x80001780: 00 01 2b 03 lw	s6, 0(sp)
0x80001784: 02 01 01 13 addi	sp, sp, 0x20
0x80001788: 00 00 80 67 ret
0x80000088: fe 85 e0 e3 bltu	a1, s0, -0x20
0x8000008c: 00 b4 14 63 bne	s0, a1, 8
0x80000090: fc 95 6c e3 bltu	a0, s1, -0x28
0x80000068: 00 81 05 93 addi	a1, sp, 8
0x8000006c: 00 60 05 13 addi	a0, zero, 6
0x80000070: 0e 00 10 ef jal	0x10e0
0x80001150: 00 25 15 13 slli	a0, a0, 2
0x80001154: 00 01 07 97 auipc	a5, 0x10
0x80001158: ae 87 87 93 addi	a5, a5, -0x518
0x8000115c: 00 a7 87 b3 add	a5, a5, a0
0x80001160: 00 07 a7 83 lw	a5, 0(a5)
0x80001164: 00 05 85 13 mv	a0, a1
0x80001168: 00 07 80 67 jr	a5
0x8000118c: a0 00 07 b7 lui	a5, 0xa0000
0x80001190: 04 c7 a7 03 lw	a4, 0x4c(a5)
0x80001194: 04 87 a7 83 lw	a5, 0x48(a5)
0x80001198: 00 e5 22 23 sw	a4, 4(a0)
0x8000119c: 00 f5 20 23 sw	a5, 0(a0)
0x800011a0: 00 00 80 67 ret
0x80000074: 00 81 25 03 lw	a0, 8(sp)
0x80000078: 00 c1 25 83 lw	a1, 0xc(sp)
0x8000007c: 00 09 06 13 mv	a2, s2
0x80000080: 00 09 86 93 mv	a3, s3
0x80000084: 1b 10 10 ef jal	0x19b0
0x80001a34: 00 00 07 13 mv	a4, zero
0x80001a38: cd 9f f0 6f j	-0x328
0x80001710: fe 01 01 13 addi	sp, sp, -0x20
0x80001714: 01 21 28 23 sw	s2, 0x10(sp)
0x80001718: 01 41 24 23 sw	s4, 8(sp)
0x8000171c: 01 51 22 23 sw	s5, 4(sp)
0x80001720: 01 61 20 23 sw	s6, 0(sp)
0x80001724: 00 11 2e 23 sw	ra, 0x1c(sp)
0x80001728: 00 81 2c 23 sw	s0, 0x18(sp)
0x8000172c: 00 91 2a 23 sw	s1, 0x14(sp)
0x80001730: 01 31 26 23 sw	s3, 0xc(sp)
0x80001734: 00 06 8a 93 mv	s5, a3
0x80001738: 00 05 09 13 mv	s2, a0
0x8000173c: 00 06 0b 13 mv	s6, a2
0x80001740: 00 07 0a 13 mv	s4, a4
0x80001744: 04 05 94 63 bnez	a1, 0x48
0x80001748: 18 06 98 63 bnez	a3, 0x190
0x8000174c: 00 07 08 63 beqz	a4, 0x10
0x8000175c: 03 69 55 33 divu	a0, s2, s6
0x80001760: 00 00 05 93 mv	a1, zero
0x80001764: 01 c1 20 83 lw	ra, 0x1c(sp)
0x80001768: 01 81 24 03 lw	s0, 0x18(sp)
0x8000176c: 01 41 24 83 lw	s1, 0x14(sp)
0x80001770: 01 01 29 03 lw	s2, 0x10(sp)
0x80001774: 00 c1 29 83 lw	s3, 0xc(sp)
0x80001778: 00 81 2a 03 lw	s4, 8(sp)
0x8000177c: 00 41 2a 83 lw	s5, 4(sp)
0x80001780: 00 01 2b 03 lw	s6, 0(sp)
0x80001784: 02 01 01 13 addi	sp, sp, 0x20
0x80001788: 00 00 80 67 ret
0x80000088: fe 85 e0 e3 bltu	a1, s0, -0x20
0x8000008c: 00 b4 14 63 bne	s0, a1, 8
0x80000090: fc 95 6c e3 bltu	a0, s1, -0x28
0x80000068: 00 81 05 93 addi	a1, sp, 8
0x8000006c: 00 60 05 13 addi	a0, zero, 6
0x80000070: 0e 00 10 ef jal	0x10e0
0x80001150: 00 25 15 13 slli	a0, a0, 2
0x80001154: 00 01 07 97 auipc	a5, 0x10
0x80001158: ae 87 87 93 addi	a5, a5, -0x518
0x8000115c: 00 a7 87 b3 add	a5, a5, a0
0x80001160: 00 07 a7 83 lw	a5, 0(a5)
0x80001164: 00 05 85 13 mv	a0, a1
0x80001168: 00 07 80 67 jr	a5
0x8000118c: a0 00 07 b7 lui	a5, 0xa0000
0x80001190: 04 c7 a7 03 lw	a4, 0x4c(a5)
0x80001194: 04 87 a7 83 lw	a5, 0x48(a5)
0x80001198: 00 e5 22 23 sw	a4, 4(a0)
0x8000119c: 00 f5 20 23 sw	a5, 0(a0)
0x800011a0: 00 00 80 67 ret
0x80000074: 00 81 25 03 lw	a0, 8(sp)
0x80000078: 00 c1 25 83 lw	a1, 0xc(sp)
0x8000007c: 00 09 06 13 mv	a2, s2
0x80000080: 00 09 86 93 mv	a3, s3
0x80000084: 1b 10 10 ef jal	0x19b0
0x80001a34: 00 00 07 13 mv	a4, zero
0x80001a38: cd 9f f0 6f j	-0x328
0x80001710: fe 01 01 13 addi	sp, sp, -0x20
0x80001714: 01 21 28 23 sw	s2, 0x10(sp)
0x80001718: 01 41 24 23 sw	s4, 8(sp)
0x8000171c: 01 51 22 23 sw	s5, 4(sp)
0x80001720: 01 61 20 23 sw	s6, 0(sp)
0x80001724: 00 11 2e 23 sw	ra, 0x1c(sp)
0x80001728: 00 81 2c 23 sw	s0, 0x18(sp)
0x8000172c: 00 91 2a 23 sw	s1, 0x14(sp)
0x80001730: 01 31 26 23 sw	s3, 0xc(sp)
0x80001734: 00 06 8a 93 mv	s5, a3
0x80001738: 00 05 09 13 mv	s2, a0
0x8000173c: 00 06 0b 13 mv	s6, a2
0x80001740: 00 07 0a 13 mv	s4, a4
0x80001744: 04 05 94 63 bnez	a1, 0x48
0x80001748: 18 06 98 63 bnez	a3, 0x190
0x8000174c: 00 07 08 63 beqz	a4, 0x10
0x8000175c: 03 69 55 33 divu	a0, s2, s6
0x80001760: 00 00 05 93 mv	a1, zero
0x80001764: 01 c1 20 83 lw	ra, 0x1c(sp)
0x80001768: 01 81 24 03 lw	s0, 0x18(sp)
0x8000176c: 01 41 24 83 lw	s1, 0x14(sp)
0x80001770: 01 01 29 03 lw	s2, 0x10(sp)
0x80001774: 00 c1 29 83 lw	s3, 0xc(sp)
0x80001778: 00 81 2a 03 lw	s4, 8(sp)
0x8000177c: 00 41 2a 83 lw	s5, 4(sp)
0x80001780: 00 01 2b 03 lw	s6, 0(sp)
0x80001784: 02 01 01 13 addi	sp, sp, 0x20
0x80001788: 00 00 80 67 ret
0x80000088: fe 85 e0 e3 bltu	a1, s0, -0x20
0x8000008c: 00 b4 14 63 bne	s0, a1, 8
0x80000090: fc 95 6c e3 bltu	a0, s1, -0x28
0x80000068: 00 81 05 93 addi	a1, sp, 8
0x8000006c: 00 60 05 13 addi	a0, zero, 6
0x80000070: 0e 00 10 ef jal	0x10e0
0x80001150: 00 25 15 13 slli	a0, a0, 2
0x80001154: 00 01 07 97 auipc	a5, 0x10
0x80001158: ae 87 87 93 addi	a5, a5, -0x518
0x8000115c: 00 a7 87 b3 add	a5, a5, a0
0x80001160: 00 07 a7 83 lw	a5, 0(a5)
0x80001164: 00 05 85 13 mv	a0, a1
0x80001168: 00 07 80 67 jr	a5
0x8000118c: a0 00 07 b7 lui	a5, 0xa0000
0x80001190: 04 c7 a7 03 lw	a4, 0x4c(a5)
0x80001194: 04 87 a7 83 lw	a5, 0x48(a5)
0x80001198: 00 e5 22 23 sw	a4, 4(a0)
0x8000119c: 00 f5 20 23 sw	a5, 0(a0)
0x800011a0: 00 00 80 67 ret
0x80000074: 00 81 25 03 lw	a0, 8(sp)
0x80000078: 00 c1 25 83 lw	a1, 0xc(sp)
0x8000007c: 00 09 06 13 mv	a2, s2
0x80000080: 00 09 86 93 mv	a3, s3
0x80000084: 1b 10 10 ef jal	0x19b0
0x80001a34: 00 00 07 13 mv	a4, zero
0x80001a38: cd 9f f0 6f j	-0x328
0x80001710: fe 01 01 13 addi	sp, sp, -0x20
0x80001714: 01 21 28 23 sw	s2, 0x10(sp)
0x80001718: 01 41 24 23 sw	s4, 8(sp)
0x8000171c: 01 51 22 23 sw	s5, 4(sp)
0x80001720: 01 61 20 23 sw	s6, 0(sp)
0x80001724: 00 11 2e 23 sw	ra, 0x1c(sp)
0x80001728: 00 81 2c 23 sw	s0, 0x18(sp)
0x8000172c: 00 91 2a 23 sw	s1, 0x14(sp)
0x80001730: 01 31 26 23 sw	s3, 0xc(sp)
0x80001734: 00 06 8a 93 mv	s5, a3
0x80001738: 00 05 09 13 mv	s2, a0
0x8000173c: 00 06 0b 13 mv	s6, a2
0x80001740: 00 07 0a 13 mv	s4, a4
0x80001744: 04 05 94 63 bnez	a1, 0x48
0x80001748: 18 06 98 63 bnez	a3, 0x190
0x8000174c: 00 07 08 63 beqz	a4, 0x10
0x8000175c: 03 69 55 33 divu	a0, s2, s6
0x80001760: 00 00 05 93 mv	a1, zero
0x80001764: 01 c1 20 83 lw	ra, 0x1c(sp)
0x80001768: 01 81 24 03 lw	s0, 0x18(sp)
0x8000176c: 01 41 24 83 lw	s1, 0x14(sp)
0x80001770: 01 01 29 03 lw	s2, 0x10(sp)
0x80001774: 00 c1 29 83 lw	s3, 0xc(sp)
0x80001778: 00 81 2a 03 lw	s4, 8(sp)
0x8000177c: 00 41 2a 83 lw	s5, 4(sp)
0x80001780: 00 01 2b 03 lw	s6, 0(sp)
0x80001784: 02 01 01 13 addi	sp, sp, 0x20
0x80001788: 00 00 80 67 ret
0x80000088: fe 85 e0 e3 bltu	a1, s0, -0x20
0x8000008c: 00 b4 14 63 bne	s0, a1, 8
0x80000090: fc 95 6c e3 bltu	a0, s1, -0x28
0x80000068: 00 81 05 93 addi	a1, sp, 8
0x8000006c: 00 60 05 13 addi	a0, zero, 6
0x80000070: 0e 00 10 ef jal	0x10e0
0x80001150: 00 25 15 13 slli	a0, a0, 2
0x80001154: 00 01 07 97 auipc	a5, 0x10
0x80001158: ae 87 87 93 addi	a5, a5, -0x518
0x8000115c: 00 a7 87 b3 add	a5, a5, a0
0x80001160: 00 07 a7 83 lw	a5, 0(a5)
0x80001164: 00 05 85 13 mv	a0, a1
0x80001168: 00 07 80 67 jr	a5
0x8000118c: a0 00 07 b7 lui	a5, 0xa0000
0x80001190: 04 c7 a7 03 lw	a4, 0x4c(a5)
0x80001194: 04 87 a7 83 lw	a5, 0x48(a5)
0x80001198: 00 e5 22 23 sw	a4, 4(a0)
0x8000119c: 00 f5 20 23 sw	a5, 0(a0)
0x800011a0: 00 00 80 67 ret
0x80000074: 00 81 25 03 lw	a0, 8(sp)
0x80000078: 00 c1 25 83 lw	a1, 0xc(sp)
0x8000007c: 00 09 06 13 mv	a2, s2
0x80000080: 00 09 86 93 mv	a3, s3
0x80000084: 1b 10 10 ef jal	0x19b0
0x80001a34: 00 00 07 13 mv	a4, zero
0x80001a38: cd 9f f0 6f j	-0x328
0x80001710: fe 01 01 13 addi	sp, sp, -0x20
0x80001714: 01 21 28 23 sw	s2, 0x10(sp)
0x80001718: 01 41 24 23 sw	s4, 8(sp)
0x8000171c: 01 51 22 23 sw	s5, 4(sp)
0x80001720: 01 61 20 23 sw	s6, 0(sp)
0x80001724: 00 11 2e 23 sw	ra, 0x1c(sp)
0x80001728: 00 81 2c 23 sw	s0, 0x18(sp)
0x8000172c: 00 91 2a 23 sw	s1, 0x14(sp)
0x80001730: 01 31 26 23 sw	s3, 0xc(sp)
0x80001734: 00 06 8a 93 mv	s5, a3
0x80001738: 00 05 09 13 mv	s2, a0
0x8000173c: 00 06 0b 13 mv	s6, a2
0x80001740: 00 07 0a 13 mv	s4, a4
0x80001744: 04 05 94 63 bnez	a1, 0x48
0x80001748: 18 06 98 63 bnez	a3, 0x190
0x8000174c: 00 07 08 63 beqz	a4, 0x10
0x8000175c: 03 69 55 33 divu	a0, s2, s6
0x80001760: 00 00 05 93 mv	a1, zero
0x80001764: 01 c1 20 83 lw	ra, 0x1c(sp)
0x80001768: 01 81 24 03 lw	s0, 0x18(sp)
0x8000176c: 01 41 24 83 lw	s1, 0x14(sp)
0x80001770: 01 01 29 03 lw	s2, 0x10(sp)
0x80001774: 00 c1 29 83 lw	s3, 0xc(sp)
0x80001778: 00 81 2a 03 lw	s4, 8(sp)
0x8000177c: 00 41 2a 83 lw	s5, 4(sp)
0x80001780: 00 01 2b 03 lw	s6, 0(sp)
0x80001784: 02 01 01 13 addi	sp, sp, 0x20
0x80001788: 00 00 80 67 ret
0x80000088: fe 85 e0 e3 bltu	a1, s0, -0x20
0x8000008c: 00 b4 14 63 bne	s0, a1, 8
0x80000090: fc 95 6c e3 bltu	a0, s1, -0x28
0x80000068: 00 81 05 93 addi	a1, sp, 8
0x8000006c: 00 60 05 13 addi	a0, zero, 6
0x80000070: 0e 00 10 ef jal	0x10e0
0x80001150: 00 25 15 13 slli	a0, a0, 2
0x80001154: 00 01 07 97 auipc	a5, 0x10
0x80001158: ae 87 87 93 addi	a5, a5, -0x518
0x8000115c: 00 a7 87 b3 add	a5, a5, a0
0x80001160: 00 07 a7 83 lw	a5, 0(a5)
0x80001164: 00 05 85 13 mv	a0, a1
0x80001168: 00 07 80 67 jr	a5
0x8000118c: a0 00 07 b7 lui	a5, 0xa0000
0x80001190: 04 c7 a7 03 lw	a4, 0x4c(a5)
0x80001194: 04 87 a7 83 lw	a5, 0x48(a5)
0x80001198: 00 e5 22 23 sw	a4, 4(a0)
0x8000119c: 00 f5 20 23 sw	a5, 0(a0)
